###############################################################################
#                                                                             #
# IAR C/C++ Compiler V8.10.3.10338/W32 for 8051         07/Apr/2018  00:13:38 #
# Copyright 2004-2011 IAR Systems AB.                                         #
#                                                                             #
#    Core               =  plain                                              #
#    Code model         =  banked                                             #
#    Data model         =  large                                              #
#    Calling convention =  xdata reentrant                                    #
#    Constant location  =  data                                               #
#    Dptr setup         =  1,16                                               #
#    Source file        =  D:\ProgramData\Hardware\zigbee\Projects\zstack\Sam #
#                          ples\SensorSys\Source\Button_End.c                 #
#    Command line       =  -f D:\ProgramData\Hardware\zigbee\Projects\zstack\ #
#                          Samples\SensorSys\CC2530DB\..\..\..\Tools\CC2530DB #
#                          \f8wEndev.cfg (-DCPU32MHZ -DROOT=__near_func       #
#                          -DMAC_CFG_TX_DATA_MAX=3 -DMAC_CFG_TX_MAX=6         #
#                          -DMAC_CFG_RX_MAX=3) -f D:\ProgramData\Hardware\zig #
#                          bee\Projects\zstack\Samples\SensorSys\CC2530DB\..\ #
#                          ..\..\Tools\CC2530DB\f8wConfig.cfg (-DZIGBEEPRO    #
#                          -DSECURE=0 -DZG_SECURE_DYNAMIC=0 -DREFLECTOR       #
#                          -DDEFAULT_CHANLIST=0x00000800                      #
#                          -DZDAPP_CONFIG_PAN_ID=0xFFF1                       #
#                          -DNWK_START_DELAY=100 -DEXTENDED_JOINING_RANDOM_MA #
#                          SK=0x007F -DBEACON_REQUEST_DELAY=100               #
#                          -DBEACON_REQ_DELAY_MASK=0x00FF                     #
#                          -DLINK_STATUS_JITTER_MASK=0x007F                   #
#                          -DROUTE_EXPIRY_TIME=30 -DAPSC_ACK_WAIT_DURATION_PO #
#                          LLED=3000 -DNWK_INDIRECT_MSG_TIMEOUT=7             #
#                          -DMAX_RREQ_ENTRIES=8 -DAPSC_MAX_FRAME_RETRIES=3    #
#                          -DNWK_MAX_DATA_RETRIES=2                           #
#                          -DMAX_POLL_FAILURE_RETRIES=2 -DMAX_BCAST=9         #
#                          -DAPS_MAX_GROUPS=16 -DMAX_RTG_ENTRIES=40           #
#                          -DNWK_MAX_BINDING_ENTRIES=4                        #
#                          -DMAX_BINDING_CLUSTER_IDS=4 "-DDEFAULT_KEY={0x01,  #
#                          0x03, 0x05, 0x07, 0x09, 0x0B, 0x0D, 0x0F, 0x00,    #
#                          0x02, 0x04, 0x06, 0x08, 0x0A, 0x0C, 0x0D}"         #
#                          -DMAC_MAX_FRAME_SIZE=116                           #
#                          -DZDNWKMGR_MIN_TRANSMISSIONS=20 "-DCONST=const     #
#                          __code" -DGENERIC=__generic                        #
#                          -DRFD_RCVC_ALWAYS_ON=TRUE -DPOLL_RATE=1000         #
#                          -DQUEUED_POLL_RATE=100 -DRESPONSE_POLL_RATE=100)   #
#                          -DREJOIN_POLL_RATE=440 D:\ProgramData\Hardware\zig #
#                          bee\Projects\zstack\Samples\SensorSys\Source\Butto #
#                          n_End.c -D NWK_AUTO_POLL -D HOLD_AUTO_START -D     #
#                          REFLECTOR -D POWER_SAVING -D NV_INIT -D            #
#                          xNV_RESTORE -D xZTOOL_P1 -D xMT_TASK -D            #
#                          xMT_SYS_FUNC -D xMT_SAPI_FUNC -D xMT_SAPI_CB_FUNC  #
#                          -lC D:\ProgramData\Hardware\zigbee\Projects\zstack #
#                          \Samples\SensorSys\CC2530DB\EndDeviceEB\List\ -lA  #
#                          D:\ProgramData\Hardware\zigbee\Projects\zstack\Sam #
#                          ples\SensorSys\CC2530DB\EndDeviceEB\List\          #
#                          --diag_suppress Pe001,Pa010 -o                     #
#                          D:\ProgramData\Hardware\zigbee\Projects\zstack\Sam #
#                          ples\SensorSys\CC2530DB\EndDeviceEB\Obj\ -e        #
#                          --no_code_motion --debug --core=plain --dptr=16,1  #
#                          --data_model=large --code_model=banked             #
#                          --calling_convention=xdata_reentrant               #
#                          --place_constants=data --nr_virtual_regs 16 -I     #
#                          D:\ProgramData\Hardware\zigbee\Projects\zstack\Sam #
#                          ples\SensorSys\CC2530DB\ -I                        #
#                          D:\ProgramData\Hardware\zigbee\Projects\zstack\Sam #
#                          ples\SensorSys\CC2530DB\..\Source\ -I              #
#                          D:\ProgramData\Hardware\zigbee\Projects\zstack\Sam #
#                          ples\SensorSys\CC2530DB\..\..\..\ZMain\TI2530DB\   #
#                          -I D:\ProgramData\Hardware\zigbee\Projects\zstack\ #
#                          Samples\SensorSys\CC2530DB\..\..\..\..\..\Componen #
#                          ts\hal\include\ -I D:\ProgramData\Hardware\zigbee\ #
#                          Projects\zstack\Samples\SensorSys\CC2530DB\..\..\. #
#                          .\..\..\Components\hal\target\CC2530EB\ -I         #
#                          D:\ProgramData\Hardware\zigbee\Projects\zstack\Sam #
#                          ples\SensorSys\CC2530DB\..\..\..\..\..\Components\ #
#                          mac\include\ -I D:\ProgramData\Hardware\zigbee\Pro #
#                          jects\zstack\Samples\SensorSys\CC2530DB\..\..\..\. #
#                          .\..\Components\mac\high_level\ -I                 #
#                          D:\ProgramData\Hardware\zigbee\Projects\zstack\Sam #
#                          ples\SensorSys\CC2530DB\..\..\..\..\..\Components\ #
#                          mac\low_level\srf04\ -I D:\ProgramData\Hardware\zi #
#                          gbee\Projects\zstack\Samples\SensorSys\CC2530DB\.. #
#                          \..\..\..\..\Components\mac\low_level\srf04\single #
#                          _chip\ -I D:\ProgramData\Hardware\zigbee\Projects\ #
#                          zstack\Samples\SensorSys\CC2530DB\..\..\..\..\..\C #
#                          omponents\mt\ -I D:\ProgramData\Hardware\zigbee\Pr #
#                          ojects\zstack\Samples\SensorSys\CC2530DB\..\..\..\ #
#                          ..\..\Components\osal\include\ -I                  #
#                          D:\ProgramData\Hardware\zigbee\Projects\zstack\Sam #
#                          ples\SensorSys\CC2530DB\..\..\..\..\..\Components\ #
#                          services\saddr\ -I D:\ProgramData\Hardware\zigbee\ #
#                          Projects\zstack\Samples\SensorSys\CC2530DB\..\..\. #
#                          .\..\..\Components\services\sdata\ -I              #
#                          D:\ProgramData\Hardware\zigbee\Projects\zstack\Sam #
#                          ples\SensorSys\CC2530DB\..\..\..\..\..\Components\ #
#                          stack\af\ -I D:\ProgramData\Hardware\zigbee\Projec #
#                          ts\zstack\Samples\SensorSys\CC2530DB\..\..\..\..\. #
#                          .\Components\stack\nwk\ -I                         #
#                          D:\ProgramData\Hardware\zigbee\Projects\zstack\Sam #
#                          ples\SensorSys\CC2530DB\..\..\..\..\..\Components\ #
#                          stack\sapi\ -I D:\ProgramData\Hardware\zigbee\Proj #
#                          ects\zstack\Samples\SensorSys\CC2530DB\..\..\..\.. #
#                          \..\Components\stack\sec\ -I                       #
#                          D:\ProgramData\Hardware\zigbee\Projects\zstack\Sam #
#                          ples\SensorSys\CC2530DB\..\..\..\..\..\Components\ #
#                          stack\sys\ -I D:\ProgramData\Hardware\zigbee\Proje #
#                          cts\zstack\Samples\SensorSys\CC2530DB\..\..\..\..\ #
#                          ..\Components\stack\zdo\ -I                        #
#                          D:\ProgramData\Hardware\zigbee\Projects\zstack\Sam #
#                          ples\SensorSys\CC2530DB\..\..\..\..\..\Components\ #
#                          zmac\ -I D:\ProgramData\Hardware\zigbee\Projects\z #
#                          stack\Samples\SensorSys\CC2530DB\..\..\..\..\..\Co #
#                          mponents\zmac\f8w\ -Ohz --require_prototypes       #
#    List file          =  D:\ProgramData\Hardware\zigbee\Projects\zstack\Sam #
#                          ples\SensorSys\CC2530DB\EndDeviceEB\List\Button_En #
#                          d.lst                                              #
#    Object file        =  D:\ProgramData\Hardware\zigbee\Projects\zstack\Sam #
#                          ples\SensorSys\CC2530DB\EndDeviceEB\Obj\Button_End #
#                          .r51                                               #
#                                                                             #
#                                                                             #
###############################################################################

D:\ProgramData\Hardware\zigbee\Projects\zstack\Samples\SensorSys\Source\Button_End.c
      1          #include "OSAL.h"
      2          #include "AF.h"
      3          #include "ZDApp.h"
      4          #include "ZDObject.h"
      5          #include "ZDProfile.h"
      6          #include "sapi.h"
      7          
      8          #include "SensorSys_End.h"
      9          #include "device.h"
     10          #include "DebugTrace.h"
     11          
     12          #if !defined( WIN32 )
     13          	#include "OnBoard.h"
     14          #endif
     15          
     16          /* HAL */
     17          #include "hal_led.h"
     18          #include "hal_key.h"
     19          #include "hal_uart.h"
     20          
     21          /*********************************************************************
     22           * MACROS
     23           */
     24          
     25          /*********************************************************************
     26           * CONSTANTS
     27           */
     28          
     29          /*********************************************************************
     30           * TYPEDEFS
     31           */
     32          
     33          /*********************************************************************
     34           * GLOBAL VARIABLES
     35           */
     36          

   \                                 In  segment XDATA_Z, align 1, keep-with-next
     37          uint8 buttonCnt = 0;
   \                     buttonCnt:
   \   000000                DS 1
   \   000001                REQUIRE __INIT_XDATA_Z
     38          
     39          
     40          
     41          
     42          // Button Á´ØÁÇπÁöÑÁ∞áID
     43          // This list should be filled with Application specific Cluster IDs.

   \                                 In  segment XDATA_I, align 1, keep-with-next
     44          const cId_t Button_ClusterList[BUTTON_MAX_CLUSTERS] =
   \                     Button_ClusterList:
   \   000000                DS 8
   \   000008                REQUIRE `?<Initializer for Button_ClusterList>`
   \   000008                REQUIRE __INIT_XDATA_I
     45          {
     46              PORT_INIT_CLUSTER,
     47              BUTTON_OPEN,
     48              BUTTON_CLOSE,
     49              BUTTON_TRIGGER
     50          };
     51          
     52          // Button Á´ØÁÇπÁÆÄÂçïÊèèËø∞Á¨¶

   \                                 In  segment XDATA_I, align 1, keep-with-next
     53          SimpleDescriptionFormat_t Button_SimpleDesc[BUTTON_NUM_MAX] =
   \                     Button_SimpleDesc:
   \   000000                DS 36
   \   000024                REQUIRE `?<Initializer for Button_SimpleDesc>`
   \   000024                REQUIRE __INIT_XDATA_I
     54          {
     55          	BUTTON_ENDPOINT,           //  int Endpoint;
     56          	SYS_PROFID,                //  uint16 AppProfId[2];
     57          	SYS_DEVICEID,              //  uint16 AppDeviceId[2];
     58          	SYS_DEVICE_VERSION,        //  int   AppDevVer:4;
     59          	SYS_FLAGS,                 //  int   AppFlags:4;
     60          	BUTTON_MAX_CLUSTERS,          //  byte  AppNumInClusters;
     61          	(cId_t *)Button_ClusterList,  //  byte *pAppInClusterList;
     62          	BUTTON_MAX_CLUSTERS,          //  byte  AppNumInClusters;
     63          	(cId_t *)Button_ClusterList   //  byte *pAppInClusterList;
     64          };
     65          

   \                                 In  segment XDATA_Z, align 1, keep-with-next
     66          endPointDesc_t Button_epDesc[BUTTON_NUM_MAX];
   \                     Button_epDesc:
   \   000000                DS 18
   \   000012                REQUIRE __INIT_XDATA_Z
     67          
     68          /*********************************************************************
     69           * EXTERNAL VARIABLES
     70           */
     71          extern uint8 myAppState;
     72          extern uint8 keys_shift;
     73          extern uint8 type_join;
     74          /*********************************************************************
     75           * EXTERNAL FUNCTIONS
     76           */
     77          
     78          /*********************************************************************
     79           * LOCAL VARIABLES
     80           */
     81          
     82          

   \                                 In  segment XDATA_Z, align 1, keep-with-next
     83          byte Button_TaskID;
   \                     Button_TaskID:
   \   000000                DS 1
   \   000001                REQUIRE __INIT_XDATA_Z
     84          

   \                                 In  segment XDATA_Z, align 1, keep-with-next
     85          afAddrType_t Button_DstAddr;
   \                     Button_DstAddr:
   \   000000                DS 12
   \   00000C                REQUIRE __INIT_XDATA_Z
     86          
     87          
     88          /*********************************************************************
     89           * LOCAL FUNCTIONS
     90           */
     91          void Button_Init( byte task_id );
     92          UINT16 Button_ProcessEvent( byte task_id, UINT16 events );
     93          void Button_HandleKeys( byte shift, byte keys );
     94          
     95          static void Button_ReceiveDataIndication( uint16 source, uint8 endPoint, 
     96                                        uint16 command, uint16 len, uint8 *pData  );
     97          static void Button_AllowBindConfirm( uint16 source );
     98          /*********************************************************************
     99           * @fn      Button_Init
    100           *
    101           * @brief   Initialization function for the Generic App Task.
    102           *          This is called during initialization and should contain
    103           *          any application specific initialization (ie. hardware
    104           *          initialization/setup, table initialization, power up
    105           *          notificaiton ... ).
    106           *
    107           * @param   task_id - the ID assigned by OSAL.  This ID should be
    108           *                    used to send messages and set timers.
    109           *
    110           * @return  none
    111           */

   \                                 In  segment BANKED_CODE, align 1, keep-with-next
    112          void Button_Init( byte task_id )
   \                     Button_Init:
    113          {
   \   000000   74F7         MOV     A,#-0x9
   \   000002   12....       LCALL   ?BANKED_ENTER_XDATA
   \   000005                ; Saved register size: 9
   \   000005                ; Auto size: 0
   \   000005   E9           MOV     A,R1
    114                  char i;
    115          	Button_TaskID = task_id;
   \   000006   90....       MOV     DPTR,#Button_TaskID
   \   000009   F0           MOVX    @DPTR,A
    116          
    117          	// Device hardware initialization can be added here or in main() (Zmain.c).
    118          	// If the hardware is application specific - add it here.
    119          	// If the hardware is other parts of the device add it in main().
    120          
    121          	Button_DstAddr.addrMode = (afAddrMode_t)AddrNotPresent;
   \   00000A   90....       MOV     DPTR,#Button_DstAddr + 8
   \   00000D   E4           CLR     A
   \   00000E   F0           MOVX    @DPTR,A
    122          	Button_DstAddr.endPoint = 0;
   \   00000F   A3           INC     DPTR
   \   000010   F0           MOVX    @DPTR,A
    123          	Button_DstAddr.addr.shortAddr = 0;
   \   000011   90....       MOV     DPTR,#Button_DstAddr
   \   000014   F0           MOVX    @DPTR,A
   \   000015   A3           INC     DPTR
   \   000016   F0           MOVX    @DPTR,A
    124                  
    125                  for( i=0; i<BUTTON_NUM_MAX; i++)
   \   000017   FF           MOV     R7,A
    126                  {
    127                      // Fill out the endpoint description.
    128                      Button_epDesc[i].endPoint = BUTTON_ENDPOINT+i;
   \                     ??Button_Init_0:
   \   000018   8F82         MOV     DPL,R7
   \   00001A   A882         MOV     R0,DPL
   \   00001C   E8           MOV     A,R0
   \   00001D   75F006       MOV     B,#0x6
   \   000020   A4           MUL     AB
   \   000021   FA           MOV     R2,A
   \   000022   ABF0         MOV     R3,B
   \   000024   74..         MOV     A,#Button_epDesc & 0xff
   \   000026   2A           ADD     A,R2
   \   000027   FA           MOV     R2,A
   \   000028   74..         MOV     A,#(Button_epDesc >> 8) & 0xff
   \   00002A   3B           ADDC    A,R3
   \   00002B   FB           MOV     R3,A
   \   00002C   740A         MOV     A,#0xa
   \   00002E   2F           ADD     A,R7
   \   00002F   8A82         MOV     DPL,R2
   \   000031   8B83         MOV     DPH,R3
   \   000033   F0           MOVX    @DPTR,A
    129                      Button_epDesc[i].task_id = &Button_TaskID;
   \   000034   A3           INC     DPTR
   \   000035   74..         MOV     A,#Button_TaskID & 0xff
   \   000037   F0           MOVX    @DPTR,A
   \   000038   A3           INC     DPTR
   \   000039   74..         MOV     A,#(Button_TaskID >> 8) & 0xff
   \   00003B   F0           MOVX    @DPTR,A
    130                      Button_SimpleDesc[i] = Button_SimpleDesc[0];
   \   00003C   E8           MOV     A,R0
   \   00003D   75F00C       MOV     B,#0xc
   \   000040   A4           MUL     AB
   \   000041   F8           MOV     R0,A
   \   000042   A9F0         MOV     R1,B
   \   000044   74..         MOV     A,#Button_SimpleDesc & 0xff
   \   000046   28           ADD     A,R0
   \   000047   F8           MOV     R0,A
   \   000048   74..         MOV     A,#(Button_SimpleDesc >> 8) & 0xff
   \   00004A   39           ADDC    A,R1
   \   00004B   F9           MOV     R1,A
   \   00004C   90....       MOV     DPTR,#Button_SimpleDesc
   \   00004F   E8           MOV     A,R0
   \   000050   FC           MOV     R4,A
   \   000051   E9           MOV     A,R1
   \   000052   FD           MOV     R5,A
   \   000053   740C         MOV     A,#0xc
   \   000055   12....       LCALL   ?MOVE_LONG8_XDATA_XDATA
    131                      Button_epDesc[i].simpleDesc
    132          						= (SimpleDescriptionFormat_t *)&(Button_SimpleDesc[i]);
   \   000058   8A82         MOV     DPL,R2
   \   00005A   8B83         MOV     DPH,R3
   \   00005C   A3           INC     DPTR
   \   00005D   A3           INC     DPTR
   \   00005E   A3           INC     DPTR
   \   00005F   E8           MOV     A,R0
   \   000060   F0           MOVX    @DPTR,A
   \   000061   A3           INC     DPTR
   \   000062   E9           MOV     A,R1
   \   000063   F0           MOVX    @DPTR,A
    133                      Button_SimpleDesc[i].EndPoint += i;
   \   000064   8882         MOV     DPL,R0
   \   000066   8983         MOV     DPH,R1
   \   000068   E0           MOVX    A,@DPTR
   \   000069   2F           ADD     A,R7
   \   00006A   F0           MOVX    @DPTR,A
    134          	    Button_epDesc[i].latencyReq = noLatencyReqs;
   \   00006B   8A82         MOV     DPL,R2
   \   00006D   8B83         MOV     DPH,R3
   \   00006F   A3           INC     DPTR
   \   000070   A3           INC     DPTR
   \   000071   A3           INC     DPTR
   \   000072   A3           INC     DPTR
   \   000073   A3           INC     DPTR
   \   000074   E4           CLR     A
   \   000075   F0           MOVX    @DPTR,A
    135                      
    136                      // Register the endpoint description with the AF
    137          	    afRegister( &(Button_epDesc[i]) );
   \   000076                ; Setup parameters for call to function afRegister
   \   000076   12....       LCALL   ??afRegister?relay
    138                  }
   \   000079   0F           INC     R7
   \   00007A   EF           MOV     A,R7
   \   00007B   C3           CLR     C
   \   00007C   9403         SUBB    A,#0x3
   \   00007E   4098         JC      ??Button_Init_0
    139          
    140          	// Register for all key events - This app will handle all key events
    141          	RegisterForKeys( Button_TaskID );
   \   000080                ; Setup parameters for call to function RegisterForKeys
   \   000080   90....       MOV     DPTR,#Button_TaskID
   \   000083   E0           MOVX    A,@DPTR
   \   000084   F9           MOV     R1,A
   \   000085   12....       LCALL   ??RegisterForKeys?relay
    142           
    143          	//	ZDO_RegisterForZDOMsg( Button_TaskID, End_Device_Bind_rsp );
    144          	ZDO_RegisterForZDOMsg( Button_TaskID, Match_Desc_rsp );
   \   000088                ; Setup parameters for call to function ZDO_RegisterForZDOMsg
   \   000088   7A06         MOV     R2,#0x6
   \   00008A   7B80         MOV     R3,#-0x80
   \   00008C   90....       MOV     DPTR,#Button_TaskID
   \   00008F   E0           MOVX    A,@DPTR
   \   000090   F9           MOV     R1,A
   \   000091   12....       LCALL   ??ZDO_RegisterForZDOMsg?relay
    145          
    146          	HalLedSet ( HAL_LED_1, HAL_LED_MODE_ON );
   \   000094                ; Setup parameters for call to function HalLedSet
   \   000094   7A01         MOV     R2,#0x1
   \   000096   7901         MOV     R1,#0x1
   \   000098   12....       LCALL   ??HalLedSet?relay
    147                  HalLedSet ( HAL_LED_2, HAL_LED_MODE_ON );
   \   00009B                ; Setup parameters for call to function HalLedSet
   \   00009B   7A01         MOV     R2,#0x1
   \   00009D   7902         MOV     R1,#0x2
   \   00009F   12....       LCALL   ??HalLedSet?relay
    148                  HalLedSet ( HAL_LED_3, HAL_LED_MODE_ON );
   \   0000A2                ; Setup parameters for call to function HalLedSet
   \   0000A2   7A01         MOV     R2,#0x1
   \   0000A4   7904         MOV     R1,#0x4
   \   0000A6   12....       LCALL   ??HalLedSet?relay
    149          
    150          }
   \   0000A9                REQUIRE ?Subroutine0
   \   0000A9                ; // Fall through to label ?Subroutine0

   \                                 In  segment BANKED_CODE, align 1, keep-with-next
   \                     ?Subroutine0:
   \   000000   7F01         MOV     R7,#0x1
   \   000002   02....       LJMP    ?BANKED_LEAVE_XDATA
    151          
    152          /*********************************************************************
    153           * @fn      Button_ProcessEvent
    154           *
    155           * @brief   Generic Application Task event processor.  This function
    156           *          is called to process all events for the task.  Events
    157           *          include timers, messages and any other user defined events.
    158           *
    159           * @param   task_id  - The OSAL assigned task ID.
    160           * @param   events - events to process.  This is a bit map and can
    161           *                   contain more than one event.
    162           *
    163           * @return  none
    164           */

   \                                 In  segment BANKED_CODE, align 1, keep-with-next
    165          UINT16 Button_ProcessEvent( byte task_id, UINT16 events )
   \                     Button_ProcessEvent:
    166          {
   \   000000   74F2         MOV     A,#-0xe
   \   000002   12....       LCALL   ?BANKED_ENTER_XDATA
   \   000005                ; Saved register size: 14
   \   000005                ; Auto size: 0
   \   000005   8A..         MOV     ?V0 + 0,R2
   \   000007   8B..         MOV     ?V0 + 1,R3
    167              afIncomingMSGPacket_t *MSGpkt = NULL;
    168              (void)task_id;  // Intentionally unreferenced parameter
    169          
    170              if ( events & SYS_EVENT_MSG )
   \   000009   EB           MOV     A,R3
   \   00000A   5480         ANL     A,#0x80
   \   00000C   7003         JNZ     $+5
   \   00000E   02....       LJMP    ??Button_ProcessEvent_0 & 0xFFFF
    171              {
    172                  MSGpkt = (afIncomingMSGPacket_t *)osal_msg_receive( task_id );
   \   000011                ; Setup parameters for call to function osal_msg_receive
   \   000011   8016         SJMP    ??Button_ProcessEvent_1
    173                  while ( MSGpkt )
    174                  {
    175                    switch ( MSGpkt->hdr.event )
    176                    {
    177                      case KEY_CHANGE:
    178                          Button_HandleKeys( ((keyChange_t *)MSGpkt)->state, ((keyChange_t *)MSGpkt)->keys );
    179                          break;
    180                  
    181                      case AF_INCOMING_MSG_CMD:
    182                          Button_ReceiveDataIndication( MSGpkt->srcAddr.addr.shortAddr, MSGpkt->endPoint, MSGpkt->clusterId,
    183                                                  MSGpkt->cmd.DataLength, MSGpkt->cmd.Data);
    184                          break;
    185                        
    186                      case ZDO_MATCH_DESC_RSP_SENT:
    187                          Button_AllowBindConfirm( ((ZDO_MatchDescRspSent_t *)MSGpkt)->nwkAddr );
   \                     ??Button_ProcessEvent_2:
   \   000013                ; Setup parameters for call to function Sys_AllowBindConfirm
   \   000013   A3           INC     DPTR
   \   000014   A3           INC     DPTR
   \   000015   E0           MOVX    A,@DPTR
   \   000016   FA           MOV     R2,A
   \   000017   A3           INC     DPTR
   \   000018   E0           MOVX    A,@DPTR
   \   000019   FB           MOV     R3,A
   \   00001A   12....       LCALL   ??Sys_AllowBindConfirm?relay
    188                          break;
    189                    }
    190                    // Release the memory
    191                    osal_msg_deallocate( (uint8 *)MSGpkt );
   \                     ??Button_ProcessEvent_3:
   \   00001D                ; Setup parameters for call to function osal_msg_deallocate
   \   00001D   EE           MOV     A,R6
   \   00001E   FA           MOV     R2,A
   \   00001F   EF           MOV     A,R7
   \   000020   FB           MOV     R3,A
   \   000021   12....       LCALL   ??osal_msg_deallocate?relay
    192              
    193                    // Next
    194                    MSGpkt = (afIncomingMSGPacket_t *)osal_msg_receive( Button_TaskID );
   \   000024                ; Setup parameters for call to function osal_msg_receive
   \   000024   90....       MOV     DPTR,#Button_TaskID
   \   000027   E0           MOVX    A,@DPTR
   \   000028   F9           MOV     R1,A
   \                     ??Button_ProcessEvent_1:
   \   000029   12....       LCALL   ??osal_msg_receive?relay
   \   00002C   8A..         MOV     ?V0 + 4,R2
   \   00002E   8B..         MOV     ?V0 + 5,R3
   \   000030   AE..         MOV     R6,?V0 + 4
   \   000032   AF..         MOV     R7,?V0 + 5
   \   000034   EE           MOV     A,R6
   \   000035   4F           ORL     A,R7
   \   000036   6072         JZ      ??Button_ProcessEvent_4
   \   000038   8E82         MOV     DPL,R6
   \   00003A   8F83         MOV     DPH,R7
   \   00003C   E0           MOVX    A,@DPTR
   \   00003D   24E6         ADD     A,#-0x1a
   \   00003F   601C         JZ      ??Button_ProcessEvent_5
   \   000041   245A         ADD     A,#0x5a
   \   000043   6006         JZ      ??Button_ProcessEvent_6
   \   000045   24EE         ADD     A,#-0x12
   \   000047   60CA         JZ      ??Button_ProcessEvent_2
   \   000049   80D2         SJMP    ??Button_ProcessEvent_3
   \                     ??Button_ProcessEvent_6:
   \   00004B                ; Setup parameters for call to function Button_HandleKeys
   \   00004B   A3           INC     DPTR
   \   00004C   A3           INC     DPTR
   \   00004D   A3           INC     DPTR
   \   00004E   E0           MOVX    A,@DPTR
   \   00004F   FA           MOV     R2,A
   \   000050   8E82         MOV     DPL,R6
   \   000052   8F83         MOV     DPH,R7
   \   000054   A3           INC     DPTR
   \   000055   A3           INC     DPTR
   \   000056   E0           MOVX    A,@DPTR
   \   000057   F9           MOV     R1,A
   \   000058   12....       LCALL   ??Button_HandleKeys?relay
   \   00005B   80C0         SJMP    ??Button_ProcessEvent_3
   \                     ??Button_ProcessEvent_5:
   \   00005D                ; Setup parameters for call to function Button_ReceiveDataIndication
   \   00005D   EE           MOV     A,R6
   \   00005E   2422         ADD     A,#0x22
   \   000060   F582         MOV     DPL,A
   \   000062   EF           MOV     A,R7
   \   000063   3400         ADDC    A,#0x0
   \   000065   F583         MOV     DPH,A
   \   000067   12....       LCALL   ?PUSH_XSTACK8_X_TWO
   \   00006A   EE           MOV     A,R6
   \   00006B   2420         ADD     A,#0x20
   \   00006D   F582         MOV     DPL,A
   \   00006F   EF           MOV     A,R7
   \   000070   3400         ADDC    A,#0x0
   \   000072   F583         MOV     DPH,A
   \   000074   12....       LCALL   ?PUSH_XSTACK8_X_TWO
   \   000077   8E82         MOV     DPL,R6
   \   000079   8F83         MOV     DPH,R7
   \   00007B   A3           INC     DPTR
   \   00007C   A3           INC     DPTR
   \   00007D   A3           INC     DPTR
   \   00007E   A3           INC     DPTR
   \   00007F   E0           MOVX    A,@DPTR
   \   000080   FC           MOV     R4,A
   \   000081   A3           INC     DPTR
   \   000082   E0           MOVX    A,@DPTR
   \   000083   FD           MOV     R5,A
   \   000084   EE           MOV     A,R6
   \   000085   2414         ADD     A,#0x14
   \   000087   F582         MOV     DPL,A
   \   000089   EF           MOV     A,R7
   \   00008A   3400         ADDC    A,#0x0
   \   00008C   F583         MOV     DPH,A
   \   00008E   E0           MOVX    A,@DPTR
   \   00008F   F9           MOV     R1,A
   \   000090   8E82         MOV     DPL,R6
   \   000092   8F83         MOV     DPH,R7
   \   000094   A3           INC     DPTR
   \   000095   A3           INC     DPTR
   \   000096   A3           INC     DPTR
   \   000097   A3           INC     DPTR
   \   000098   A3           INC     DPTR
   \   000099   A3           INC     DPTR
   \   00009A   E0           MOVX    A,@DPTR
   \   00009B   FA           MOV     R2,A
   \   00009C   A3           INC     DPTR
   \   00009D   E0           MOVX    A,@DPTR
   \   00009E   FB           MOV     R3,A
   \   00009F   12....       LCALL   ??Button_ReceiveDataIndication?relay
   \   0000A2   7404         MOV     A,#0x4
   \   0000A4   12....       LCALL   ?DEALLOC_XSTACK8
   \   0000A7   02....       LJMP    ??Button_ProcessEvent_3 & 0xFFFF
    195                  }
    196                  return (events ^ SYS_EVENT_MSG);
   \                     ??Button_ProcessEvent_4:
   \   0000AA   AA..         MOV     R2,?V0 + 0
   \   0000AC   E5..         MOV     A,?V0 + 1
   \   0000AE   6480         XRL     A,#0x80
   \   0000B0   FB           MOV     R3,A
   \   0000B1   8004         SJMP    ??Button_ProcessEvent_7
    197              }
    198              return 0;
   \                     ??Button_ProcessEvent_0:
   \   0000B3   7A00         MOV     R2,#0x0
   \   0000B5   7B00         MOV     R3,#0x0
   \                     ??Button_ProcessEvent_7:
   \   0000B7   7F06         MOV     R7,#0x6
   \   0000B9   02....       LJMP    ?BANKED_LEAVE_XDATA
    199          }
    200          
    201          /*********************************************************************
    202           * @fn      Button_HandleKeys
    203           *
    204           * @brief   Handles all key events for this device.
    205           *
    206           * @param   shift - true if in shift/alt.
    207           * @param   keys - bit field for key events. Valid entries:
    208           *                 HAL_KEY_SW_4
    209           *                 HAL_KEY_SW_3
    210           *                 HAL_KEY_SW_2
    211           *                 HAL_KEY_SW_1
    212           *
    213           * @return  none
    214           */

   \                                 In  segment BANKED_CODE, align 1, keep-with-next
    215          void Button_HandleKeys( byte shift, byte keys )
   \                     Button_HandleKeys:
    216          {
   \   000000   74F7         MOV     A,#-0x9
   \   000002   12....       LCALL   ?BANKED_ENTER_XDATA
   \   000005                ; Saved register size: 9
   \   000005                ; Auto size: 0
   \   000005   E9           MOV     A,R1
   \   000006   FE           MOV     R6,A
   \   000007   EA           MOV     A,R2
   \   000008   FF           MOV     R7,A
    217            if(shift)
   \   000009   EE           MOV     A,R6
   \   00000A   601A         JZ      ??Button_HandleKeys_0
    218            {
    219                  if ( keys & HAL_KEY_SW_1 )
   \   00000C   EF           MOV     A,R7
   \   00000D   A2E0         MOV     C,0xE0 /* A   */.0
   \   00000F   5003         JNC     ??Button_HandleKeys_1
    220                  {
    221                    zb_SystemReset();
   \   000011                ; Setup parameters for call to function zb_SystemReset
   \   000011   12....       LCALL   ??zb_SystemReset?relay
    222                  }
    223                  if ( keys & HAL_KEY_SW_2 )
   \                     ??Button_HandleKeys_1:
   \   000014   EF           MOV     A,R7
   \   000015   A2E1         MOV     C,0xE0 /* A   */.1
   \   000017   5003         JNC     ??Button_HandleKeys_2
    224                  {
    225                    zb_SystemReset();
   \   000019                ; Setup parameters for call to function zb_SystemReset
   \   000019   12....       LCALL   ??zb_SystemReset?relay
    226                  }
    227                  if ( keys & HAL_KEY_SW_3 )
   \                     ??Button_HandleKeys_2:
   \   00001C   EF           MOV     A,R7
   \   00001D   A2E4         MOV     C,0xE0 /* A   */.4
   \   00001F   5020         JNC     ??Button_HandleKeys_3
    228                  {
    229                    zb_SystemReset();
   \   000021                ; Setup parameters for call to function zb_SystemReset
   \   000021   12....       LCALL   ??zb_SystemReset?relay
   \   000024   801B         SJMP    ??Button_HandleKeys_3
    230                  }
    231                  if ( keys & HAL_KEY_SW_4 )
    232                  {
    233                  }
    234                  if ( keys & HAL_KEY_SW_6 )  // Physical Button S1
    235                  {
    236                      // Send to Watch Endpoint ? Send to Button Endpoint ?
    237                  }
    238            }
    239            
    240            else
    241            {
    242          //	uint8 startOptions;
    243          //	uint8 logicalType;
    244          	// Shift is used to make each button/switch dual purpose.
    245          	if ( keys_shift )
   \                     ??Button_HandleKeys_0:
   \   000026   90....       MOV     DPTR,#keys_shift
   \   000029   E0           MOVX    A,@DPTR
   \   00002A   6015         JZ      ??Button_HandleKeys_3
    246          	{
    247          		// Allow Binding
    248          		if ( keys & HAL_KEY_SW_1 )
   \   00002C   EF           MOV     A,R7
   \   00002D   A2E0         MOV     C,0xE0 /* A   */.0
   \   00002F   5010         JNC     ??Button_HandleKeys_3
    249          		{
    250          			if(type_join)
   \   000031   90....       MOV     DPTR,#type_join
   \   000034   E0           MOVX    A,@DPTR
   \   000035   600A         JZ      ??Button_HandleKeys_3
    251          			{
    252          				Sys_AllowBind(10);
   \   000037                ; Setup parameters for call to function Sys_AllowBind
   \   000037   790A         MOV     R1,#0xa
   \   000039   12....       LCALL   ??Sys_AllowBind?relay
    253                                          
    254          			// osal_start_timerEx(Sys_TaskID, CLOSE_BIND_EVT, 10000);
    255          			
    256          				keys_shift = 0;
   \   00003C   90....       MOV     DPTR,#keys_shift
   \   00003F   E4           CLR     A
   \   000040   F0           MOVX    @DPTR,A
    257          			}
    258          			else
    259          			{
    260          				// wrong endpoint the presend send to
    261          			}
    262          		}
    263          		if ( keys & HAL_KEY_SW_2 )
    264          		{
    265          		}
    266          		if ( keys & HAL_KEY_SW_3 )
    267          		{
    268          		}
    269          		if ( keys & HAL_KEY_SW_4 )
    270          		{
    271          		}
    272          	}
    273          	else
    274          	{
    275          		if ( keys & HAL_KEY_SW_1 )
    276          		{
    277                            
    278                            /*
    279          		    if ( myAppState == APP_INIT )
    280          		    {
    281          		        // In the init state, keys are used to indicate the logical mode.
    282          		        // The Switch device is always an end-device
    283          		        logicalType = ZG_DEVICETYPE_ENDDEVICE;
    284          		        zb_WriteConfiguration(ZCD_NV_LOGICAL_TYPE, sizeof(uint8), &logicalType);
    285          
    286          		        // Do more configuration if necessary and then restart device with auto-start bit set
    287          
    288          		        zb_ReadConfiguration( ZCD_NV_STARTUP_OPTION, sizeof(uint8), &startOptions );
    289          		        startOptions = ZCD_STARTOPT_AUTO_START;
    290          		        zb_WriteConfiguration( ZCD_NV_STARTUP_OPTION, sizeof(uint8), &startOptions );
    291          		        zb_SystemReset();
    292          
    293              		    }*/
    294          		  //  else
    295          		//    {
    296          
    297          	//	    }
    298          		}
    299          
    300          		if ( keys & HAL_KEY_SW_2 )
    301          		{
    302          		/*
    303          			HalLedSet ( HAL_LED_4, HAL_LED_MODE_OFF );
    304          
    305          			// ÊÉ≥ÁªëÂÆöÂè¶‰∏Ä‰∏™Á´ØÁÇ?			dstAddr.addrMode = Addr16Bit;
    306          			dstAddr.addr.shortAddr = 0x0000; 
    307          			ZDP_EndDeviceBindReq( &dstAddr, NLME_GetShortAddr(), 
    308          														Button_epDesc.endPoint,
    309          														SENSORSYS_PROFID,
    310          														SENSORSYS_MAX_CLUSTERS, (cId_t *)Button_ClusterList,
    311          														SENSORSYS_MAX_CLUSTERS, (cId_t *)Button_ClusterList,
    312          														FALSE );*/
    313          		}
    314          
    315          		if ( keys & HAL_KEY_SW_3 )
    316          		{
    317          		}
    318          		
    319          		if ( keys & HAL_KEY_SW_4 )
    320          		{
    321          		/*	HalLedSet ( HAL_LED_4, HAL_LED_MODE_OFF );
    322          			dstAddr.addrMode = AddrBroadcast;
    323          			dstAddr.addr.shortAddr = NWK_BROADCAST_SHORTADDR;
    324          			ZDP_MatchDescReq( &dstAddr, NWK_BROADCAST_SHORTADDR,
    325          												SENSORSYS_PROFID,
    326          												SENSORSYS_MAX_CLUSTERS, (cId_t *)Button_ClusterList,
    327          												SENSORSYS_MAX_CLUSTERS, (cId_t *)Button_ClusterList,
    328          												FALSE );
    329          		*/
    330          		}
    331          	}
    332            }
    333          }
   \                     ??Button_HandleKeys_3:
   \   000041   02....       LJMP    ?Subroutine0 & 0xFFFF
    334          
    335          /******************************************************************************
    336           * @fn          Button_ReceiveDataIndication
    337           *
    338           * @brief       The SAPI_ReceiveDataIndication callback function is called
    339           *              asynchronously by the ZigBee stack to notify the application
    340           *              when data is received from a peer device.
    341           *
    342           * @param       source - The short address of the peer device that sent the data
    343           *              command - The commandId associated with the data
    344           *              len - The number of bytes in the pData parameter
    345           *              pData - The data sent by the peer device
    346           *
    347           * @return      none
    348           */

   \                                 In  segment BANKED_CODE, align 1, keep-with-next
    349          void Button_ReceiveDataIndication( uint16 source, uint8 endPoint, uint16 command, uint16 len, uint8 *pData  )
   \                     Button_ReceiveDataIndication:
    350          {
   \   000000   74F7         MOV     A,#-0x9
   \   000002   12....       LCALL   ?BANKED_ENTER_XDATA
   \   000005                ; Saved register size: 9
   \   000005                ; Auto size: 0
   \   000005   E9           MOV     A,R1
    351            // ButtonAction(endPoint-BUTTON_ENDPOINT, command);
    352            switch (endPoint)
   \   000006   24F6         ADD     A,#-0xa
   \   000008   6009         JZ      ??Button_ReceiveDataIndication_0
   \   00000A   14           DEC     A
   \   00000B   6039         JZ      ??Button_ReceiveDataIndication_1
   \   00000D   14           DEC     A
   \   00000E   6064         JZ      ??Button_ReceiveDataIndication_2
   \   000010   02....       LJMP    ??Button_ReceiveDataIndication_3 & 0xFFFF
    353            {
    354              case BUTTON_ENDPOINT:
    355                {
    356                  if (command == BUTTON_OPEN)
   \                     ??Button_ReceiveDataIndication_0:
   \   000013   7401         MOV     A,#0x1
   \   000015   6C           XRL     A,R4
   \   000016   7001         JNZ     ??Button_ReceiveDataIndication_4
   \   000018   ED           MOV     A,R5
   \                     ??Button_ReceiveDataIndication_4:
   \   000019   7009         JNZ     ??Button_ReceiveDataIndication_5
    357                  {
    358                      Button_HandleKeys( 1, HAL_KEY_SW_1 );
   \   00001B                ; Setup parameters for call to function Button_HandleKeys
   \   00001B   7A01         MOV     R2,#0x1
   \   00001D   7901         MOV     R1,#0x1
   \   00001F   12....       LCALL   ??Button_HandleKeys?relay
   \   000022   802A         SJMP    ??Button_ReceiveDataIndication_6
    359                  }
    360                  if (command == BUTTON_CLOSE)
   \                     ??Button_ReceiveDataIndication_5:
   \   000024   7402         MOV     A,#0x2
   \   000026   6C           XRL     A,R4
   \   000027   7001         JNZ     ??Button_ReceiveDataIndication_7
   \   000029   ED           MOV     A,R5
   \                     ??Button_ReceiveDataIndication_7:
   \   00002A   7009         JNZ     ??Button_ReceiveDataIndication_8
    361                  {
    362                      Button_HandleKeys( 1, HAL_KEY_SW_2 );
   \   00002C                ; Setup parameters for call to function Button_HandleKeys
   \   00002C   7A02         MOV     R2,#0x2
   \   00002E   7901         MOV     R1,#0x1
   \   000030   12....       LCALL   ??Button_HandleKeys?relay
   \   000033   802A         SJMP    ??Button_ReceiveDataIndication_9
    363                  }
    364                  if (command == BUTTON_TRIGGER)
   \                     ??Button_ReceiveDataIndication_8:
   \   000035   7403         MOV     A,#0x3
   \   000037   6C           XRL     A,R4
   \   000038   7001         JNZ     ??Button_ReceiveDataIndication_10
   \   00003A   ED           MOV     A,R5
   \                     ??Button_ReceiveDataIndication_10:
   \   00003B   702B         JNZ     ??Button_ReceiveDataIndication_11
    365                  {
    366                      Button_HandleKeys( 1, HAL_KEY_SW_3 );
   \   00003D                ; Setup parameters for call to function Button_HandleKeys
   \   00003D   7A10         MOV     R2,#0x10
   \   00003F   7901         MOV     R1,#0x1
   \   000041   12....       LCALL   ??Button_HandleKeys?relay
   \   000044   802A         SJMP    ??Button_ReceiveDataIndication_12
    367                  }
    368                }
    369              case (BUTTON_ENDPOINT+1):
    370                {
    371                  if (command == BUTTON_OPEN)
   \                     ??Button_ReceiveDataIndication_1:
   \   000046   7401         MOV     A,#0x1
   \   000048   6C           XRL     A,R4
   \   000049   7001         JNZ     ??Button_ReceiveDataIndication_13
   \   00004B   ED           MOV     A,R5
   \                     ??Button_ReceiveDataIndication_13:
   \   00004C   7009         JNZ     ??Button_ReceiveDataIndication_14
    372                  {
    373                      Button_HandleKeys( 1, HAL_KEY_SW_2 );
   \                     ??Button_ReceiveDataIndication_6:
   \   00004E                ; Setup parameters for call to function Button_HandleKeys
   \   00004E   7A02         MOV     R2,#0x2
   \                     ??Button_ReceiveDataIndication_15:
   \   000050   7901         MOV     R1,#0x1
   \   000052   12....       LCALL   ??Button_HandleKeys?relay
   \   000055   8025         SJMP    ??Button_ReceiveDataIndication_16
    374                  }
    375                  if (command == BUTTON_CLOSE)
   \                     ??Button_ReceiveDataIndication_14:
   \   000057   7402         MOV     A,#0x2
   \   000059   6C           XRL     A,R4
   \   00005A   7001         JNZ     ??Button_ReceiveDataIndication_17
   \   00005C   ED           MOV     A,R5
   \                     ??Button_ReceiveDataIndication_17:
   \   00005D   7009         JNZ     ??Button_ReceiveDataIndication_11
    376                  {
    377                      Button_HandleKeys( 1, HAL_KEY_SW_2 );
   \                     ??Button_ReceiveDataIndication_9:
   \   00005F                ; Setup parameters for call to function Button_HandleKeys
   \   00005F   7A02         MOV     R2,#0x2
   \   000061   7901         MOV     R1,#0x1
   \   000063   12....       LCALL   ??Button_HandleKeys?relay
   \   000066   8025         SJMP    ??Button_ReceiveDataIndication_18
    378                  }
    379                  if (command == BUTTON_TRIGGER)
   \                     ??Button_ReceiveDataIndication_11:
   \   000068   7403         MOV     A,#0x3
   \   00006A   6C           XRL     A,R4
   \   00006B   7001         JNZ     ??Button_ReceiveDataIndication_19
   \   00006D   ED           MOV     A,R5
   \                     ??Button_ReceiveDataIndication_19:
   \   00006E   7004         JNZ     ??Button_ReceiveDataIndication_2
    380                  {
    381                      Button_HandleKeys( 1, HAL_KEY_SW_3 );
   \                     ??Button_ReceiveDataIndication_12:
   \   000070                ; Setup parameters for call to function Button_HandleKeys
   \   000070   7A10         MOV     R2,#0x10
   \   000072   80DC         SJMP    ??Button_ReceiveDataIndication_15
    382                  }
    383                }
    384              case (BUTTON_ENDPOINT+2):
    385                {
    386                  if (command == BUTTON_OPEN)
   \                     ??Button_ReceiveDataIndication_2:
   \   000074   7401         MOV     A,#0x1
   \   000076   6C           XRL     A,R4
   \   000077   7001         JNZ     ??Button_ReceiveDataIndication_20
   \   000079   ED           MOV     A,R5
   \                     ??Button_ReceiveDataIndication_20:
   \   00007A   7009         JNZ     ??Button_ReceiveDataIndication_21
    387                  {
    388                      Button_HandleKeys( 1, HAL_KEY_SW_3 );
   \                     ??Button_ReceiveDataIndication_16:
   \   00007C                ; Setup parameters for call to function Button_HandleKeys
   \   00007C   7A10         MOV     R2,#0x10
   \                     ??Button_ReceiveDataIndication_22:
   \   00007E   7901         MOV     R1,#0x1
   \   000080   12....       LCALL   ??Button_HandleKeys?relay
   \   000083   8014         SJMP    ??Button_ReceiveDataIndication_3
    389                  } 
    390                  if (command == BUTTON_CLOSE)
   \                     ??Button_ReceiveDataIndication_21:
   \   000085   7402         MOV     A,#0x2
   \   000087   6C           XRL     A,R4
   \   000088   7001         JNZ     ??Button_ReceiveDataIndication_23
   \   00008A   ED           MOV     A,R5
   \                     ??Button_ReceiveDataIndication_23:
   \   00008B   7004         JNZ     ??Button_ReceiveDataIndication_24
    391                  {
    392                      Button_HandleKeys( 1, HAL_KEY_SW_2 );
   \                     ??Button_ReceiveDataIndication_18:
   \   00008D                ; Setup parameters for call to function Button_HandleKeys
   \   00008D   7A02         MOV     R2,#0x2
   \   00008F   80ED         SJMP    ??Button_ReceiveDataIndication_22
    393                  }
    394                  if (command == BUTTON_TRIGGER)
   \                     ??Button_ReceiveDataIndication_24:
   \   000091   7403         MOV     A,#0x3
   \   000093   6C           XRL     A,R4
   \   000094   7001         JNZ     ??Button_ReceiveDataIndication_25
   \   000096   ED           MOV     A,R5
   \                     ??Button_ReceiveDataIndication_25:
   \   000097   60E3         JZ      ??Button_ReceiveDataIndication_16
    395                  {
    396                      Button_HandleKeys( 1, HAL_KEY_SW_3 );
    397                  }
    398                }
    399            }
    400          }
   \                     ??Button_ReceiveDataIndication_3:
   \   000099   02....       LJMP    ?Subroutine0 & 0xFFFF

   \                                 In  segment XDATA_ID, align 1, keep-with-next
   \                     `?<Initializer for Button_ClusterList>`:
   \   000000   0010         DW 4096
   \   000002   0100         DW 1
   \   000004   0200         DW 2
   \   000006   0300         DW 3

   \                                 In  segment XDATA_ID, align 1, keep-with-next
   \                     `?<Initializer for Button_SimpleDesc>`:
   \   000000   0A           DB 10
   \   000001   040F         DW 3844
   \   000003   0100         DW 1
   \   000005   00           DB 0
   \   000006   04           DB 4
   \   000007   ....         DW Button_ClusterList
   \   000009   04           DB 4
   \   00000A   ....         DW Button_ClusterList
   \   00000C   00000000     DB 0, 0, 0, 0, 0, 0, 0, 0
   \            00000000
   \   000014   00000000     DB 0, 0, 0, 0, 0, 0, 0, 0
   \            00000000
   \   00001C   00000000     DB 0, 0, 0, 0, 0, 0, 0, 0
   \            00000000

   \                                 In  segment BANK_RELAYS, align 1
   \                     ??Button_Init?relay:
   \   000000   12....       LCALL   ?BDISPATCH
   \   000003   ......       DC24    Button_Init

   \                                 In  segment BANK_RELAYS, align 1
   \                     ??Button_ProcessEvent?relay:
   \   000000   12....       LCALL   ?BDISPATCH
   \   000003   ......       DC24    Button_ProcessEvent

   \                                 In  segment BANK_RELAYS, align 1
   \                     ??Button_HandleKeys?relay:
   \   000000   12....       LCALL   ?BDISPATCH
   \   000003   ......       DC24    Button_HandleKeys

   \                                 In  segment BANK_RELAYS, align 1
   \                     ??Button_ReceiveDataIndication?relay:
   \   000000   12....       LCALL   ?BDISPATCH
   \   000003   ......       DC24    Button_ReceiveDataIndication
    401          
    402          /******************************************************************************
    403           * @fn          Button_AllowBindConfirm
    404           *
    405           * @brief       Indicates when another device attempted to bind to this device
    406           *
    407           * @param
    408           *
    409           * @return      none
    410           */
    411          void Button_AllowBindConfirm( uint16 source )
    412          {
    413              Sys_AllowBindConfirm(source);
    414          }

   Maximum stack usage in bytes:

     Function                       ISTACK PSTACK XSTACK
     --------                       ------ ------ ------
     Button_HandleKeys                  0      0     23
       -> zb_SystemReset                0      0     18
       -> zb_SystemReset                0      0     18
       -> zb_SystemReset                0      0     18
       -> Sys_AllowBind                 0      0     18
     Button_Init                        1      0      9
       -> afRegister                    0      0     18
       -> RegisterForKeys               0      0     18
       -> ZDO_RegisterForZDOMsg         0      0     18
       -> HalLedSet                     0      0     18
       -> HalLedSet                     0      0     18
       -> HalLedSet                     0      0     18
     Button_ProcessEvent                0      0     18
       -> osal_msg_receive              0      0     28
       -> Sys_AllowBindConfirm          0      0     28
       -> osal_msg_deallocate           0      0     28
       -> osal_msg_receive              0      0     28
       -> Button_HandleKeys             0      0     28
       -> Button_ReceiveDataIndication
                                        0      0     36
     Button_ReceiveDataIndication       0      0     27
       -> Button_HandleKeys             0      0     18
       -> Button_HandleKeys             0      0     18
       -> Button_HandleKeys             0      0     18
       -> Button_HandleKeys             0      0     18
       -> Button_HandleKeys             0      0     18
       -> Button_HandleKeys             0      0     18
       -> Button_HandleKeys             0      0     18
       -> Button_HandleKeys             0      0     18


   Segment part sizes:

     Function/Label                        Bytes
     --------------                        -----
     buttonCnt                                1
     Button_ClusterList                       8
     Button_SimpleDesc                       36
     Button_epDesc                           18
     Button_TaskID                            1
     Button_DstAddr                          12
     Button_Init                            169
     ?Subroutine0                             5
     Button_ProcessEvent                    188
     Button_HandleKeys                       68
     Button_ReceiveDataIndication           156
     ?<Initializer for Button_ClusterList>    8
     ?<Initializer for Button_SimpleDesc>    36
     ??Button_Init?relay                      6
     ??Button_ProcessEvent?relay              6
     ??Button_HandleKeys?relay                6
     ??Button_ReceiveDataIndication?relay     6

 
 586 bytes in segment BANKED_CODE
  24 bytes in segment BANK_RELAYS
  44 bytes in segment XDATA_I
  44 bytes in segment XDATA_ID
  32 bytes in segment XDATA_Z
 
 654 bytes of CODE  memory
  76 bytes of XDATA memory

Errors: none
Warnings: none
