###############################################################################
#                                                                             #
# IAR C/C++ Compiler V8.10.3.10338/W32 for 8051         23/Feb/2018  15:47:26 #
# Copyright 2004-2011 IAR Systems AB.                                         #
#                                                                             #
#    Core               =  plain                                              #
#    Code model         =  banked                                             #
#    Data model         =  large                                              #
#    Calling convention =  xdata reentrant                                    #
#    Constant location  =  data                                               #
#    Dptr setup         =  1,16                                               #
#    Source file        =  D:\ProgramData\Hardware\zigbee\Projects\zstack\Sam #
#                          ples\SensorSys\Source\Motor_Coor.c                 #
#    Command line       =  -f D:\ProgramData\Hardware\zigbee\Projects\zstack\ #
#                          Samples\SensorSys\CC2530DB\..\..\..\Tools\CC2530DB #
#                          \f8wEndev.cfg (-DCPU32MHZ -DROOT=__near_func       #
#                          -DMAC_CFG_TX_DATA_MAX=3 -DMAC_CFG_TX_MAX=6         #
#                          -DMAC_CFG_RX_MAX=3) -f D:\ProgramData\Hardware\zig #
#                          bee\Projects\zstack\Samples\SensorSys\CC2530DB\..\ #
#                          ..\..\Tools\CC2530DB\f8wConfig.cfg (-DZIGBEEPRO    #
#                          -DSECURE=0 -DZG_SECURE_DYNAMIC=0 -DREFLECTOR       #
#                          -DDEFAULT_CHANLIST=0x00000800                      #
#                          -DZDAPP_CONFIG_PAN_ID=0xFFF1                       #
#                          -DNWK_START_DELAY=100 -DEXTENDED_JOINING_RANDOM_MA #
#                          SK=0x007F -DBEACON_REQUEST_DELAY=100               #
#                          -DBEACON_REQ_DELAY_MASK=0x00FF                     #
#                          -DLINK_STATUS_JITTER_MASK=0x007F                   #
#                          -DROUTE_EXPIRY_TIME=30 -DAPSC_ACK_WAIT_DURATION_PO #
#                          LLED=3000 -DNWK_INDIRECT_MSG_TIMEOUT=7             #
#                          -DMAX_RREQ_ENTRIES=8 -DAPSC_MAX_FRAME_RETRIES=3    #
#                          -DNWK_MAX_DATA_RETRIES=2                           #
#                          -DMAX_POLL_FAILURE_RETRIES=2 -DMAX_BCAST=9         #
#                          -DAPS_MAX_GROUPS=16 -DMAX_RTG_ENTRIES=40           #
#                          -DNWK_MAX_BINDING_ENTRIES=4                        #
#                          -DMAX_BINDING_CLUSTER_IDS=4 "-DDEFAULT_KEY={0x01,  #
#                          0x03, 0x05, 0x07, 0x09, 0x0B, 0x0D, 0x0F, 0x00,    #
#                          0x02, 0x04, 0x06, 0x08, 0x0A, 0x0C, 0x0D}"         #
#                          -DMAC_MAX_FRAME_SIZE=116                           #
#                          -DZDNWKMGR_MIN_TRANSMISSIONS=20 "-DCONST=const     #
#                          __code" -DGENERIC=__generic                        #
#                          -DRFD_RCVC_ALWAYS_ON=FALSE -DPOLL_RATE=1000        #
#                          -DQUEUED_POLL_RATE=100 -DRESPONSE_POLL_RATE=100)   #
#                          -DREJOIN_POLL_RATE=440 D:\ProgramData\Hardware\zig #
#                          bee\Projects\zstack\Samples\SensorSys\Source\Motor #
#                          _Coor.c -D NWK_AUTO_POLL -D HOLD_AUTO_START -D     #
#                          REFLECTOR -D POWER_SAVING -D NV_INIT -D            #
#                          xNV_RESTORE -D xZTOOL_P1 -D xMT_TASK -D            #
#                          xMT_SYS_FUNC -D xMT_SAPI_FUNC -D xMT_SAPI_CB_FUNC  #
#                          -lC D:\ProgramData\Hardware\zigbee\Projects\zstack #
#                          \Samples\SensorSys\CC2530DB\EndDeviceEB\List\ -lA  #
#                          D:\ProgramData\Hardware\zigbee\Projects\zstack\Sam #
#                          ples\SensorSys\CC2530DB\EndDeviceEB\List\          #
#                          --diag_suppress Pe001,Pa010 -o                     #
#                          D:\ProgramData\Hardware\zigbee\Projects\zstack\Sam #
#                          ples\SensorSys\CC2530DB\EndDeviceEB\Obj\ -e        #
#                          --no_code_motion --debug --core=plain --dptr=16,1  #
#                          --data_model=large --code_model=banked             #
#                          --calling_convention=xdata_reentrant               #
#                          --place_constants=data --nr_virtual_regs 16 -I     #
#                          D:\ProgramData\Hardware\zigbee\Projects\zstack\Sam #
#                          ples\SensorSys\CC2530DB\ -I                        #
#                          D:\ProgramData\Hardware\zigbee\Projects\zstack\Sam #
#                          ples\SensorSys\CC2530DB\..\Source\ -I              #
#                          D:\ProgramData\Hardware\zigbee\Projects\zstack\Sam #
#                          ples\SensorSys\CC2530DB\..\..\..\ZMain\TI2530DB\   #
#                          -I D:\ProgramData\Hardware\zigbee\Projects\zstack\ #
#                          Samples\SensorSys\CC2530DB\..\..\..\..\..\Componen #
#                          ts\hal\include\ -I D:\ProgramData\Hardware\zigbee\ #
#                          Projects\zstack\Samples\SensorSys\CC2530DB\..\..\. #
#                          .\..\..\Components\hal\target\CC2530EB\ -I         #
#                          D:\ProgramData\Hardware\zigbee\Projects\zstack\Sam #
#                          ples\SensorSys\CC2530DB\..\..\..\..\..\Components\ #
#                          mac\include\ -I D:\ProgramData\Hardware\zigbee\Pro #
#                          jects\zstack\Samples\SensorSys\CC2530DB\..\..\..\. #
#                          .\..\Components\mac\high_level\ -I                 #
#                          D:\ProgramData\Hardware\zigbee\Projects\zstack\Sam #
#                          ples\SensorSys\CC2530DB\..\..\..\..\..\Components\ #
#                          mac\low_level\srf04\ -I D:\ProgramData\Hardware\zi #
#                          gbee\Projects\zstack\Samples\SensorSys\CC2530DB\.. #
#                          \..\..\..\..\Components\mac\low_level\srf04\single #
#                          _chip\ -I D:\ProgramData\Hardware\zigbee\Projects\ #
#                          zstack\Samples\SensorSys\CC2530DB\..\..\..\..\..\C #
#                          omponents\mt\ -I D:\ProgramData\Hardware\zigbee\Pr #
#                          ojects\zstack\Samples\SensorSys\CC2530DB\..\..\..\ #
#                          ..\..\Components\osal\include\ -I                  #
#                          D:\ProgramData\Hardware\zigbee\Projects\zstack\Sam #
#                          ples\SensorSys\CC2530DB\..\..\..\..\..\Components\ #
#                          services\saddr\ -I D:\ProgramData\Hardware\zigbee\ #
#                          Projects\zstack\Samples\SensorSys\CC2530DB\..\..\. #
#                          .\..\..\Components\services\sdata\ -I              #
#                          D:\ProgramData\Hardware\zigbee\Projects\zstack\Sam #
#                          ples\SensorSys\CC2530DB\..\..\..\..\..\Components\ #
#                          stack\af\ -I D:\ProgramData\Hardware\zigbee\Projec #
#                          ts\zstack\Samples\SensorSys\CC2530DB\..\..\..\..\. #
#                          .\Components\stack\nwk\ -I                         #
#                          D:\ProgramData\Hardware\zigbee\Projects\zstack\Sam #
#                          ples\SensorSys\CC2530DB\..\..\..\..\..\Components\ #
#                          stack\sapi\ -I D:\ProgramData\Hardware\zigbee\Proj #
#                          ects\zstack\Samples\SensorSys\CC2530DB\..\..\..\.. #
#                          \..\Components\stack\sec\ -I                       #
#                          D:\ProgramData\Hardware\zigbee\Projects\zstack\Sam #
#                          ples\SensorSys\CC2530DB\..\..\..\..\..\Components\ #
#                          stack\sys\ -I D:\ProgramData\Hardware\zigbee\Proje #
#                          cts\zstack\Samples\SensorSys\CC2530DB\..\..\..\..\ #
#                          ..\Components\stack\zdo\ -I                        #
#                          D:\ProgramData\Hardware\zigbee\Projects\zstack\Sam #
#                          ples\SensorSys\CC2530DB\..\..\..\..\..\Components\ #
#                          zmac\ -I D:\ProgramData\Hardware\zigbee\Projects\z #
#                          stack\Samples\SensorSys\CC2530DB\..\..\..\..\..\Co #
#                          mponents\zmac\f8w\ -Ohz --require_prototypes       #
#    List file          =  D:\ProgramData\Hardware\zigbee\Projects\zstack\Sam #
#                          ples\SensorSys\CC2530DB\EndDeviceEB\List\Motor_Coo #
#                          r.lst                                              #
#    Object file        =  D:\ProgramData\Hardware\zigbee\Projects\zstack\Sam #
#                          ples\SensorSys\CC2530DB\EndDeviceEB\Obj\Motor_Coor #
#                          .r51                                               #
#                                                                             #
#                                                                             #
###############################################################################

D:\ProgramData\Hardware\zigbee\Projects\zstack\Samples\SensorSys\Source\Motor_Coor.c
      1          /*********************************************************************
      2           * INCLUDES
      3           */
      4          #include "OSAL.h"
      5          #include "AF.h"
      6          #include "ZDApp.h"
      7          #include "ZDObject.h"
      8          #include "ZDProfile.h"
      9          #include "sapi.h"
     10          
     11          #include "SensorSys_Coor.h"
     12          #include "device.h"
     13          #include "DebugTrace.h"
     14          
     15          #if !defined( WIN32 )
     16            #include "OnBoard.h"
     17          #endif
     18          
     19          /* HAL */
     20          #include "hal_led.h"
     21          #include "hal_uart.h"
     22          
     23          /*********************************************************************
     24           * MACROS
     25           */
     26          
     27          /*********************************************************************
     28           * CONSTANTS
     29           */
     30          
     31          /*********************************************************************
     32           * TYPEDEFS
     33           */
     34          
     35          /*********************************************************************
     36           * GLOBAL VARIABLES
     37           */

   \                                 In  segment XDATA_Z, align 1, keep-with-next
     38          byte Motor_TaskID;
   \                     Motor_TaskID:
   \   000000                DS 1
   \   000001                REQUIRE __INIT_XDATA_Z

   \                                 In  segment XDATA_Z, align 1, keep-with-next
     39          uint8 motorCnt;
   \                     motorCnt:
   \   000000                DS 1
   \   000001                REQUIRE __INIT_XDATA_Z
     40          
     41          
     42          // Motor Á´ØÁÇπÁöÑÁ∞áID
     43          // This list should be filled with Application specific Cluster IDs.

   \                                 In  segment XDATA_I, align 1, keep-with-next
     44          cId_t Motor_ClusterList[MOTOR_MAX_CLUSTERS] =
   \                     Motor_ClusterList:
   \   000000                DS 6
   \   000006                REQUIRE `?<Initializer for Motor_ClusterList>`
   \   000006                REQUIRE __INIT_XDATA_I
     45          {
     46              MOTOR_FORWARD,
     47              MOTOR_BACKWARD,
     48              MOTOR_STOP
     49          };
     50          
     51          // Motor Á´ØÁÇπÁÆÄÂçïÊèèËø∞Á¨¶

   \                                 In  segment XDATA_I, align 1, keep-with-next
     52          SimpleDescriptionFormat_t Motor_SimpleDesc[MOTOR_NUM_MAX] =
   \                     Motor_SimpleDesc:
   \   000000                DS 120
   \   000078                REQUIRE `?<Initializer for Motor_SimpleDesc>`
   \   000078                REQUIRE __INIT_XDATA_I
     53          {
     54          	MOTOR_ENDPOINT,           //  int Endpoint;
     55          	SYS_PROFID,                //  uint16 AppProfId[2];
     56          	SYS_DEVICEID,              //  uint16 AppDeviceId[2];
     57          	SYS_DEVICE_VERSION,        //  int   AppDevVer:4;
     58          	SYS_FLAGS,                 //  int   AppFlags:4;
     59          	0,                          //  byte  AppNumInClusters;
     60          	NULL,                       //  byte *pAppInClusterList;
     61          	MOTOR_MAX_CLUSTERS,          //  byte  AppNumInClusters;
     62          	(cId_t *)Motor_ClusterList   //  byte *pAppInClusterList;
     63          };
     64          

   \                                 In  segment XDATA_Z, align 1, keep-with-next
     65          endPointDesc_t Motor_epDesc[MOTOR_NUM_MAX];
   \                     Motor_epDesc:
   \   000000                DS 60
   \   00003C                REQUIRE __INIT_XDATA_Z
     66          
     67          /*********************************************************************
     68           * EXTERNAL VARIABLES
     69           */
     70          
     71          /*********************************************************************
     72           * EXTERNAL FUNCTIONS
     73           */
     74          
     75          /*********************************************************************
     76           * LOCAL VARIABLES
     77           */
     78          

   \                                 In  segment XDATA_Z, align 1, keep-with-next
     79          afAddrType_t Motor_DstAddr;
   \                     Motor_DstAddr:
   \   000000                DS 12
   \   00000C                REQUIRE __INIT_XDATA_Z
     80          
     81          /*********************************************************************
     82           * LOCAL FUNCTIONS
     83           */
     84          void Motor_Init( byte task_id );
     85          void Motor_ProcessZDOMsgs( zdoIncomingMsg_t *inMsg );
     86          
     87          void Motor_BindDevice ( uint8 create, uint8 endpoint, uint16 *commandId, uint8 *pDestination );
     88          
     89          static void SAPI_BindConfirm( uint16 commandId, uint8 status );
     90          /*********************************************************************
     91           * @fn      Motor_Init
     92           *
     93           * @brief   Initialization function for the Generic App Task.
     94           *          This is called during initialization and should contain
     95           *          any application specific initialization (ie. hardware
     96           *          initialization/setup, table initialization, power up
     97           *          notificaiton ... ).
     98           *
     99           * @param   task_id - the ID assigned by OSAL.  This ID should be
    100           *                    used to send messages and set timers.
    101           *
    102           * @return  none
    103           */

   \                                 In  segment BANKED_CODE, align 1, keep-with-next
    104          void Motor_Init( byte task_id )
   \                     Motor_Init:
    105          {
   \   000000   74F7         MOV     A,#-0x9
   \   000002   12....       LCALL   ?BANKED_ENTER_XDATA
   \   000005                ; Saved register size: 9
   \   000005                ; Auto size: 0
   \   000005   E9           MOV     A,R1
    106            char i;
    107            Motor_TaskID = task_id;
   \   000006   90....       MOV     DPTR,#Motor_TaskID
   \   000009   F0           MOVX    @DPTR,A
    108            motorCnt = 0;
   \   00000A   90....       MOV     DPTR,#motorCnt
   \   00000D   E4           CLR     A
   \   00000E   F0           MOVX    @DPTR,A
    109            
    110            // Device hardware initialization can be added here or in main() (Zmain.c).
    111            // If the hardware is application specific - add it here.
    112            // If the hardware is other parts of the device add it in main().
    113          
    114            Motor_DstAddr.addrMode = (afAddrMode_t)AddrNotPresent;
   \   00000F   90....       MOV     DPTR,#Motor_DstAddr + 8
   \   000012   F0           MOVX    @DPTR,A
    115            Motor_DstAddr.endPoint = 0;
   \   000013   A3           INC     DPTR
   \   000014   F0           MOVX    @DPTR,A
    116            Motor_DstAddr.addr.shortAddr = 0;
   \   000015   90....       MOV     DPTR,#Motor_DstAddr
   \   000018   F0           MOVX    @DPTR,A
   \   000019   A3           INC     DPTR
   \   00001A   F0           MOVX    @DPTR,A
    117          
    118              for( i=0; i<MOTOR_NUM_MAX; i++)
   \   00001B   FF           MOV     R7,A
    119              {
    120                  // Fill out the endpoint description.
    121                  Motor_epDesc[i].endPoint = MOTOR_ENDPOINT+i;
   \                     ??Motor_Init_0:
   \   00001C   8F82         MOV     DPL,R7
   \   00001E   A882         MOV     R0,DPL
   \   000020   E8           MOV     A,R0
   \   000021   75F006       MOV     B,#0x6
   \   000024   A4           MUL     AB
   \   000025   FA           MOV     R2,A
   \   000026   ABF0         MOV     R3,B
   \   000028   74..         MOV     A,#Motor_epDesc & 0xff
   \   00002A   2A           ADD     A,R2
   \   00002B   FA           MOV     R2,A
   \   00002C   74..         MOV     A,#(Motor_epDesc >> 8) & 0xff
   \   00002E   3B           ADDC    A,R3
   \   00002F   FB           MOV     R3,A
   \   000030   746E         MOV     A,#0x6e
   \   000032   2F           ADD     A,R7
   \   000033   8A82         MOV     DPL,R2
   \   000035   8B83         MOV     DPH,R3
   \   000037   F0           MOVX    @DPTR,A
    122                  Motor_epDesc[i].task_id = &Motor_TaskID;
   \   000038   A3           INC     DPTR
   \   000039   74..         MOV     A,#Motor_TaskID & 0xff
   \   00003B   F0           MOVX    @DPTR,A
   \   00003C   A3           INC     DPTR
   \   00003D   74..         MOV     A,#(Motor_TaskID >> 8) & 0xff
   \   00003F   F0           MOVX    @DPTR,A
    123                  Motor_SimpleDesc[i] = Motor_SimpleDesc[0];
   \   000040   E8           MOV     A,R0
   \   000041   75F00C       MOV     B,#0xc
   \   000044   A4           MUL     AB
   \   000045   F8           MOV     R0,A
   \   000046   A9F0         MOV     R1,B
   \   000048   74..         MOV     A,#Motor_SimpleDesc & 0xff
   \   00004A   28           ADD     A,R0
   \   00004B   F8           MOV     R0,A
   \   00004C   74..         MOV     A,#(Motor_SimpleDesc >> 8) & 0xff
   \   00004E   39           ADDC    A,R1
   \   00004F   F9           MOV     R1,A
   \   000050   90....       MOV     DPTR,#Motor_SimpleDesc
   \   000053   E8           MOV     A,R0
   \   000054   FC           MOV     R4,A
   \   000055   E9           MOV     A,R1
   \   000056   FD           MOV     R5,A
   \   000057   740C         MOV     A,#0xc
   \   000059   12....       LCALL   ?MOVE_LONG8_XDATA_XDATA
    124                  Motor_epDesc[i].simpleDesc
    125                                                      = (SimpleDescriptionFormat_t *)&(Motor_SimpleDesc[i]);
   \   00005C   8A82         MOV     DPL,R2
   \   00005E   8B83         MOV     DPH,R3
   \   000060   A3           INC     DPTR
   \   000061   A3           INC     DPTR
   \   000062   A3           INC     DPTR
   \   000063   E8           MOV     A,R0
   \   000064   F0           MOVX    @DPTR,A
   \   000065   A3           INC     DPTR
   \   000066   E9           MOV     A,R1
   \   000067   F0           MOVX    @DPTR,A
    126                  Motor_SimpleDesc[i].EndPoint += i;
   \   000068   8882         MOV     DPL,R0
   \   00006A   8983         MOV     DPH,R1
   \   00006C   E0           MOVX    A,@DPTR
   \   00006D   2F           ADD     A,R7
   \   00006E   F0           MOVX    @DPTR,A
    127                  Motor_epDesc[i].latencyReq = noLatencyReqs;
   \   00006F   8A82         MOV     DPL,R2
   \   000071   8B83         MOV     DPH,R3
   \   000073   A3           INC     DPTR
   \   000074   A3           INC     DPTR
   \   000075   A3           INC     DPTR
   \   000076   A3           INC     DPTR
   \   000077   A3           INC     DPTR
   \   000078   E4           CLR     A
   \   000079   F0           MOVX    @DPTR,A
    128                  
    129                  // Register the endpoint description with the AF
    130                  afRegister( &(Motor_epDesc[i]) );
   \   00007A                ; Setup parameters for call to function afRegister
   \   00007A   12....       LCALL   ??afRegister?relay
    131              }
   \   00007D   0F           INC     R7
   \   00007E   EF           MOV     A,R7
   \   00007F   C3           CLR     C
   \   000080   940A         SUBB    A,#0xa
   \   000082   4098         JC      ??Motor_Init_0
    132          
    133            sensor_bindInProgress = 0xffff;
   \   000084   90....       MOV     DPTR,#sensor_bindInProgress
   \   000087   74FF         MOV     A,#-0x1
   \   000089   F0           MOVX    @DPTR,A
   \   00008A   A3           INC     DPTR
   \   00008B   F0           MOVX    @DPTR,A
    134          
    135            ZDO_RegisterForZDOMsg( Motor_TaskID, Match_Desc_rsp );
   \   00008C                ; Setup parameters for call to function ZDO_RegisterForZDOMsg
   \   00008C   7A06         MOV     R2,#0x6
   \   00008E   7B80         MOV     R3,#-0x80
   \   000090   90....       MOV     DPTR,#Motor_TaskID
   \   000093   E0           MOVX    A,@DPTR
   \   000094   F9           MOV     R1,A
   \   000095   12....       LCALL   ??ZDO_RegisterForZDOMsg?relay
    136          }
   \   000098   7F01         MOV     R7,#0x1
   \   00009A   02....       LJMP    ?BANKED_LEAVE_XDATA
    137          
    138          /*********************************************************************
    139           * @fn      Motor_ProcessEvent
    140           *
    141           * @brief   Generic Application Task event processor.  This function
    142           *          is called to process all events for the task.  Events
    143           *          include timers, messages and any other user defined events.
    144           *
    145           * @param   task_id  - The OSAL assigned task ID.
    146           * @param   events - events to process.  This is a bit map and can
    147           *                   contain more than one event.
    148           *
    149           * @return  none
    150           */

   \                                 In  segment BANKED_CODE, align 1, keep-with-next
    151          UINT16 Motor_ProcessEvent( byte task_id, UINT16 events )
   \                     Motor_ProcessEvent:
    152          {
   \   000000   74F2         MOV     A,#-0xe
   \   000002   12....       LCALL   ?BANKED_ENTER_XDATA
   \   000005                ; Saved register size: 14
   \   000005                ; Auto size: 0
   \   000005   EA           MOV     A,R2
   \   000006   FE           MOV     R6,A
   \   000007   EB           MOV     A,R3
   \   000008   FF           MOV     R7,A
    153            afIncomingMSGPacket_t *MSGpkt = NULL;
    154          
    155            (void)task_id;  // Intentionally unreferenced parameter
    156          
    157            if ( events & SYS_EVENT_MSG )
   \   000009   5480         ANL     A,#0x80
   \   00000B   6035         JZ      ??Motor_ProcessEvent_0
    158            {
    159              MSGpkt = (afIncomingMSGPacket_t *)osal_msg_receive( task_id );
   \   00000D                ; Setup parameters for call to function osal_msg_receive
   \   00000D   801E         SJMP    ??Motor_ProcessEvent_1
    160              while ( MSGpkt )
    161              {
    162                switch ( MSGpkt->hdr.event )
   \                     ??Motor_ProcessEvent_2:
   \   00000F   85..82       MOV     DPL,?V0 + 0
   \   000012   85..83       MOV     DPH,?V0 + 1
   \   000015   E0           MOVX    A,@DPTR
   \   000016   64D3         XRL     A,#0xd3
   \   000018   7007         JNZ     ??Motor_ProcessEvent_3
    163                {
    164                  case ZDO_CB_MSG:  // Êî∂Âà∞Ë¢´ÁªëÂÆöËäÇÁÇπÁöÑrsp
    165                    Motor_ProcessZDOMsgs( (zdoIncomingMsg_t *)MSGpkt);
   \   00001A                ; Setup parameters for call to function Motor_ProcessZDOMsgs
   \   00001A   AA..         MOV     R2,?V0 + 0
   \   00001C   AB..         MOV     R3,?V0 + 1
   \   00001E   12....       LCALL   ??Motor_ProcessZDOMsgs?relay
    166                    break;
    167                }
    168                // Release the memory
    169                osal_msg_deallocate( (uint8 *)MSGpkt );
   \                     ??Motor_ProcessEvent_3:
   \   000021                ; Setup parameters for call to function osal_msg_deallocate
   \   000021   AA..         MOV     R2,?V0 + 0
   \   000023   AB..         MOV     R3,?V0 + 1
   \   000025   12....       LCALL   ??osal_msg_deallocate?relay
    170          
    171                // Next
    172                MSGpkt = (afIncomingMSGPacket_t *)osal_msg_receive( Motor_TaskID );
   \   000028                ; Setup parameters for call to function osal_msg_receive
   \   000028   90....       MOV     DPTR,#Motor_TaskID
   \   00002B   E0           MOVX    A,@DPTR
   \   00002C   F9           MOV     R1,A
   \                     ??Motor_ProcessEvent_1:
   \   00002D   12....       LCALL   ??osal_msg_receive?relay
   \   000030   8A..         MOV     ?V0 + 0,R2
   \   000032   8B..         MOV     ?V0 + 1,R3
    173              }
   \   000034   E5..         MOV     A,?V0 + 0
   \   000036   45..         ORL     A,?V0 + 1
   \   000038   70D5         JNZ     ??Motor_ProcessEvent_2
    174             return (events ^ SYS_EVENT_MSG);
   \   00003A   EE           MOV     A,R6
   \   00003B   FA           MOV     R2,A
   \   00003C   EF           MOV     A,R7
   \   00003D   6480         XRL     A,#0x80
   \                     ??Motor_ProcessEvent_4:
   \   00003F   FB           MOV     R3,A
   \   000040   8046         SJMP    ??Motor_ProcessEvent_5
    175            }
    176          
    177            if( events & MATCH_BIND_EVT ) // ÂπøÊí≠ match ÁªëÂÆö
   \                     ??Motor_ProcessEvent_0:
   \   000042   EE           MOV     A,R6
   \   000043   5402         ANL     A,#0x2
   \   000045   602E         JZ      ??Motor_ProcessEvent_6
    178            {
    179              if(motorCnt == MOTOR_NUM_MAX)
   \   000047   90....       MOV     DPTR,#motorCnt
   \   00004A   E0           MOVX    A,@DPTR
   \   00004B   640A         XRL     A,#0xa
   \   00004D   601F         JZ      ??Motor_ProcessEvent_7
    180              {
    181                  // do something
    182              }
    183              else
    184              {
    185                  Motor_BindDevice(TRUE, MOTOR_ENDPOINT+motorCnt, Motor_ClusterList, NULL); 
   \   00004F                ; Setup parameters for call to function Motor_BindDevice
   \   00004F   E4           CLR     A
   \   000050   F5..         MOV     ?V0 + 0,A
   \   000052   F5..         MOV     ?V0 + 1,A
   \   000054   78..         MOV     R0,#?V0 + 0
   \   000056   12....       LCALL   ?PUSH_XSTACK_I_TWO
   \   000059   7C..         MOV     R4,#Motor_ClusterList & 0xff
   \   00005B   7D..         MOV     R5,#(Motor_ClusterList >> 8) & 0xff
   \   00005D   90....       MOV     DPTR,#motorCnt
   \   000060   E0           MOVX    A,@DPTR
   \   000061   246E         ADD     A,#0x6e
   \   000063   FA           MOV     R2,A
   \   000064   7901         MOV     R1,#0x1
   \   000066   12....       LCALL   ??Motor_BindDevice?relay
   \   000069   7402         MOV     A,#0x2
   \   00006B   12....       LCALL   ?DEALLOC_XSTACK8
    186              }
    187              return (events ^ MATCH_BIND_EVT);
   \                     ??Motor_ProcessEvent_7:
   \   00006E   EE           MOV     A,R6
   \   00006F   6402         XRL     A,#0x2
   \                     ??Motor_ProcessEvent_8:
   \   000071   FA           MOV     R2,A
   \   000072   EF           MOV     A,R7
   \   000073   80CA         SJMP    ??Motor_ProcessEvent_4
    188            }
    189            
    190            if ( events & MOTOR_BIND_TIMER )
   \                     ??Motor_ProcessEvent_6:
   \   000075   EE           MOV     A,R6
   \   000076   5421         ANL     A,#0x21
   \   000078   600A         JZ      ??Motor_ProcessEvent_9
    191            {
    192              // Send bind confirm callback to application
    193              SAPI_BindConfirm( sensor_bindInProgress, ZB_TIMEOUT );
   \   00007A                ; Setup parameters for call to function Sys_BindConfirm
   \   00007A   7921         MOV     R1,#0x21
   \   00007C   12....       LCALL   ?Subroutine3 & 0xFFFF
    194              sensor_bindInProgress = 0xffff;
    195          
    196              return (events ^ MOTOR_BIND_TIMER);
   \                     ??CrossCallReturnLabel_4:
   \   00007F   EE           MOV     A,R6
   \   000080   6421         XRL     A,#0x21
   \   000082   80ED         SJMP    ??Motor_ProcessEvent_8
    197            }
    198            
    199            return 0;
   \                     ??Motor_ProcessEvent_9:
   \   000084   7A00         MOV     R2,#0x0
   \   000086   7B00         MOV     R3,#0x0
   \                     ??Motor_ProcessEvent_5:
   \   000088                REQUIRE ?Subroutine0
   \   000088                ; // Fall through to label ?Subroutine0
    200          }

   \                                 In  segment BANKED_CODE, align 1, keep-with-next
   \                     ?Subroutine0:
   \   000000   7F06         MOV     R7,#0x6
   \   000002   02....       LJMP    ?BANKED_LEAVE_XDATA

   \                                 In  segment BANKED_CODE, align 1, keep-with-next
   \                     ?Subroutine3:
   \   000000   90....       MOV     DPTR,#sensor_bindInProgress
   \   000003   E0           MOVX    A,@DPTR
   \   000004   FA           MOV     R2,A
   \   000005   A3           INC     DPTR
   \   000006   E0           MOVX    A,@DPTR
   \   000007   FB           MOV     R3,A
   \   000008   12....       LCALL   ??Sys_BindConfirm?relay
   \   00000B   90....       MOV     DPTR,#sensor_bindInProgress
   \   00000E   74FF         MOV     A,#-0x1
   \   000010   F0           MOVX    @DPTR,A
   \   000011   A3           INC     DPTR
   \   000012   F0           MOVX    @DPTR,A
   \   000013   22           RET
    201          
    202          /*********************************************************************
    203           * @fn      Motor_ProcessZDOMsgs()
    204           *
    205           * @brief   Process response messages
    206           *
    207           * @param   none
    208           *
    209           * @return  none
    210           */

   \                                 In  segment BANKED_CODE, align 1, keep-with-next
    211          void Motor_ProcessZDOMsgs( zdoIncomingMsg_t *inMsg )
   \                     Motor_ProcessZDOMsgs:
    212          {
   \   000000   74F6         MOV     A,#-0xa
   \   000002   12....       LCALL   ?BANKED_ENTER_XDATA
   \   000005                ; Saved register size: 10
   \   000005                ; Auto size: 9
   \   000005   74F7         MOV     A,#-0x9
   \   000007   12....       LCALL   ?ALLOC_XSTACK8
    213            switch ( inMsg->clusterID )
   \   00000A   EA           MOV     A,R2
   \   00000B   240C         ADD     A,#0xc
   \   00000D   F582         MOV     DPL,A
   \   00000F   EB           MOV     A,R3
   \   000010   3400         ADDC    A,#0x0
   \   000012   F583         MOV     DPH,A
   \   000014   E0           MOVX    A,@DPTR
   \   000015   6406         XRL     A,#0x6
   \   000017   7004         JNZ     ??Motor_ProcessZDOMsgs_0
   \   000019   A3           INC     DPTR
   \   00001A   E0           MOVX    A,@DPTR
   \   00001B   6480         XRL     A,#0x80
   \                     ??Motor_ProcessZDOMsgs_0:
   \   00001D   6003         JZ      $+5
   \   00001F   02....       LJMP    ??Motor_ProcessZDOMsgs_1 & 0xFFFF
    214            {
    215              case Match_Desc_rsp:
    216                {
    217                  zAddrType_t dstAddr;
    218                  ZDO_ActiveEndpointRsp_t *pRsp = ZDO_ParseEPListRsp( inMsg );
   \   000022                ; Setup parameters for call to function ZDO_ParseEPListRsp
   \   000022   12....       LCALL   ??ZDO_ParseEPListRsp?relay
   \   000025   8A..         MOV     ?V0 + 0,R2
   \   000027   8B..         MOV     ?V0 + 1,R3
   \   000029   AE..         MOV     R6,?V0 + 0
   \   00002B   AF..         MOV     R7,?V0 + 1
    219          
    220                  if ( sensor_bindInProgress != 0xffff )
   \   00002D   90....       MOV     DPTR,#sensor_bindInProgress
   \   000030   E0           MOVX    A,@DPTR
   \   000031   F4           CPL     A
   \   000032   7003         JNZ     ??Motor_ProcessZDOMsgs_2
   \   000034   A3           INC     DPTR
   \   000035   E0           MOVX    A,@DPTR
   \   000036   F4           CPL     A
   \                     ??Motor_ProcessZDOMsgs_2:
   \   000037   7003         JNZ     $+5
   \   000039   02....       LJMP    ??Motor_ProcessZDOMsgs_1 & 0xFFFF
    221                  {
    222                    // Create a binding table entry
    223                    dstAddr.addrMode = Addr16Bit;
   \   00003C   7408         MOV     A,#0x8
   \   00003E   12....       LCALL   ?XSTACK_DISP0_8
   \   000041   7402         MOV     A,#0x2
   \   000043   F0           MOVX    @DPTR,A
    224                    dstAddr.addr.shortAddr = pRsp->nwkAddr;
   \   000044   8E82         MOV     DPL,R6
   \   000046   8F83         MOV     DPH,R7
   \   000048   A3           INC     DPTR
   \   000049   E0           MOVX    A,@DPTR
   \   00004A   F8           MOV     R0,A
   \   00004B   A3           INC     DPTR
   \   00004C   E0           MOVX    A,@DPTR
   \   00004D   F9           MOV     R1,A
   \   00004E   85..82       MOV     DPL,?XSP + 0
   \   000051   85..83       MOV     DPH,?XSP + 1
   \   000054   E8           MOV     A,R0
   \   000055   F0           MOVX    @DPTR,A
   \   000056   A3           INC     DPTR
   \   000057   E9           MOV     A,R1
   \   000058   F0           MOVX    @DPTR,A
    225          
    226                    if ( APSME_BindRequest( Motor_epDesc[motorCnt].simpleDesc->EndPoint,
    227                               sensor_bindInProgress, &dstAddr, pRsp->epList[0] ) == ZSuccess )
   \   000059                ; Setup parameters for call to function APSME_BindRequest
   \   000059   8E82         MOV     DPL,R6
   \   00005B   8F83         MOV     DPH,R7
   \   00005D   A3           INC     DPTR
   \   00005E   A3           INC     DPTR
   \   00005F   A3           INC     DPTR
   \   000060   A3           INC     DPTR
   \   000061   E0           MOVX    A,@DPTR
   \   000062   F5..         MOV     ?V0 + 0,A
   \   000064   78..         MOV     R0,#?V0 + 0
   \   000066   12....       LCALL   ?PUSH_XSTACK_I_ONE
   \   000069   7401         MOV     A,#0x1
   \   00006B   12....       LCALL   ?XSTACK_DISP0_8
   \   00006E   AC82         MOV     R4,DPL
   \   000070   AD83         MOV     R5,DPH
   \   000072   90....       MOV     DPTR,#sensor_bindInProgress
   \   000075   12....       LCALL   ??Subroutine10_0 & 0xFFFF
   \                     ??CrossCallReturnLabel_13:
   \   000078   90....       MOV     DPTR,#motorCnt
   \   00007B   E0           MOVX    A,@DPTR
   \   00007C   75F006       MOV     B,#0x6
   \   00007F   A4           MUL     AB
   \   000080   F8           MOV     R0,A
   \   000081   85F0..       MOV     ?V0 + 0,B
   \   000084   A9..         MOV     R1,?V0 + 0
   \   000086   12....       LCALL   ?Subroutine7 & 0xFFFF
   \                     ??CrossCallReturnLabel_8:
   \   000089   F583         MOV     DPH,A
   \   00008B   8882         MOV     DPL,R0
   \   00008D   E0           MOVX    A,@DPTR
   \   00008E   F9           MOV     R1,A
   \   00008F   12....       LCALL   ??APSME_BindRequest?relay
   \   000092   7401         MOV     A,#0x1
   \   000094   12....       LCALL   ?DEALLOC_XSTACK8
   \   000097   E9           MOV     A,R1
   \   000098   702A         JNZ     ??Motor_ProcessZDOMsgs_1
    228                    {
    229                      osal_stop_timerEx(Motor_TaskID,  MOTOR_BIND_TIMER);
   \   00009A                ; Setup parameters for call to function osal_stop_timerEx
   \   00009A   7A21         MOV     R2,#0x21
   \   00009C   7B00         MOV     R3,#0x0
   \   00009E   90....       MOV     DPTR,#Motor_TaskID
   \   0000A1   E0           MOVX    A,@DPTR
   \   0000A2   F9           MOV     R1,A
   \   0000A3   12....       LCALL   ??osal_stop_timerEx?relay
    230                      osal_start_timerEx( ZDAppTaskID, ZDO_NWK_UPDATE_NV, 250 );
   \   0000A6                ; Setup parameters for call to function osal_start_timerEx
   \   0000A6   12....       LCALL   ?Subroutine5 & 0xFFFF
    231          
    232                      // Find IEEE addr
    233                      ZDP_IEEEAddrReq( pRsp->nwkAddr, ZDP_ADDR_REQTYPE_SINGLE, 0, 0 );
   \                     ??CrossCallReturnLabel_10:
   \   0000A9                ; Setup parameters for call to function ZDP_IEEEAddrReq
   \   0000A9   7D00         MOV     R5,#0x0
   \   0000AB   7C00         MOV     R4,#0x0
   \   0000AD   7900         MOV     R1,#0x0
   \   0000AF   8E82         MOV     DPL,R6
   \   0000B1   8F83         MOV     DPH,R7
   \   0000B3   12....       LCALL   ??Subroutine9_0 & 0xFFFF
   \                     ??CrossCallReturnLabel_14:
   \   0000B6   12....       LCALL   ??ZDP_IEEEAddrReq?relay
    234                      // Send bind confirm callback to application
    235                      Sys_BindConfirm( sensor_bindInProgress, ZB_SUCCESS );
   \   0000B9                ; Setup parameters for call to function Sys_BindConfirm
   \   0000B9   7900         MOV     R1,#0x0
   \   0000BB   12....       LCALL   ?Subroutine3 & 0xFFFF
    236                      sensor_bindInProgress = 0xffff;
    237                      motorCnt++;
   \                     ??CrossCallReturnLabel_5:
   \   0000BE   90....       MOV     DPTR,#motorCnt
   \   0000C1   E0           MOVX    A,@DPTR
   \   0000C2   04           INC     A
   \   0000C3   F0           MOVX    @DPTR,A
    238                    }
    239                  }
    240                }
    241              break;
    242            }
    243          }
   \                     ??Motor_ProcessZDOMsgs_1:
   \   0000C4   7409         MOV     A,#0x9
   \   0000C6   12....       LCALL   ?DEALLOC_XSTACK8
   \   0000C9   7F02         MOV     R7,#0x2
   \   0000CB   02....       LJMP    ?BANKED_LEAVE_XDATA

   \                                 In  segment BANKED_CODE, align 1, keep-with-next
   \                     ?Subroutine5:
   \   000000   7CFA         MOV     R4,#-0x6
   \   000002   7D00         MOV     R5,#0x0
   \   000004   7A00         MOV     R2,#0x0
   \   000006   7B02         MOV     R3,#0x2
   \   000008   90....       MOV     DPTR,#ZDAppTaskID
   \   00000B                REQUIRE ??Subroutine8_0
   \   00000B                ; // Fall through to label ??Subroutine8_0

   \                                 In  segment BANKED_CODE, align 1, keep-with-next
   \                     ??Subroutine8_0:
   \   000000   E0           MOVX    A,@DPTR
   \   000001   F9           MOV     R1,A
   \   000002   12....       LCALL   ??osal_start_timerEx?relay
   \   000005   22           RET

   \                                 In  segment BANKED_CODE, align 1, keep-with-next
   \                     ??Subroutine9_0:
   \   000000   A3           INC     DPTR
   \   000001                REQUIRE ??Subroutine10_0
   \   000001                ; // Fall through to label ??Subroutine10_0

   \                                 In  segment BANKED_CODE, align 1, keep-with-next
   \                     ??Subroutine10_0:
   \   000000   E0           MOVX    A,@DPTR
   \   000001   FA           MOV     R2,A
   \   000002   A3           INC     DPTR
   \   000003   E0           MOVX    A,@DPTR
   \   000004   FB           MOV     R3,A
   \   000005   22           RET

   \                                 In  segment BANKED_CODE, align 1, keep-with-next
   \                     ?Subroutine7:
   \   000000   74..         MOV     A,#(Motor_epDesc + 3) & 0xff
   \   000002   28           ADD     A,R0
   \   000003   F582         MOV     DPL,A
   \   000005   74..         MOV     A,#((Motor_epDesc + 3) >> 8) & 0xff
   \   000007   39           ADDC    A,R1
   \   000008   F583         MOV     DPH,A
   \   00000A   E0           MOVX    A,@DPTR
   \   00000B   F8           MOV     R0,A
   \   00000C   A3           INC     DPTR
   \   00000D   E0           MOVX    A,@DPTR
   \   00000E   22           RET
    244          
    245          /******************************************************************************
    246           * @fn          Motor_BindDevice
    247           *
    248           * @brief       The zb_BindDevice function establishes or removes a °Æbinding? *              between two devices.  Once bound, an application can send
    249           *              messages to a device by referencing the commandId for the
    250           *              binding.
    251           *
    252           * @param       create - TRUE to create a binding, FALSE to remove a binding
    253           *              commandId - The identifier of the binding
    254           *              pDestination - The 64-bit IEEE address of the device to bind to
    255           *
    256           * @return      The status of the bind operation is returned in the
    257           *              Sys_BindConfirm callback.
    258           */

   \                                 In  segment BANKED_CODE, align 1, keep-with-next
    259          void Motor_BindDevice ( uint8 create, uint8 endpoint, uint16 *commandId, uint8 *pDestination )
   \                     Motor_BindDevice:
    260          {
   \   000000   74F2         MOV     A,#-0xe
   \   000002   12....       LCALL   ?BANKED_ENTER_XDATA
   \   000005                ; Saved register size: 14
   \   000005                ; Auto size: 9
   \   000005   74F7         MOV     A,#-0x9
   \   000007   12....       LCALL   ?ALLOC_XSTACK8
   \   00000A   8A..         MOV     ?V0 + 0,R2
   \   00000C   8C..         MOV     ?V0 + 2,R4
   \   00000E   8D..         MOV     ?V0 + 3,R5
   \   000010   7417         MOV     A,#0x17
   \   000012   12....       LCALL   ?XSTACK_DISP0_8
   \   000015   E0           MOVX    A,@DPTR
   \   000016   FE           MOV     R6,A
   \   000017   A3           INC     DPTR
   \   000018   E0           MOVX    A,@DPTR
   \   000019   FF           MOV     R7,A
    261            zAddrType_t destination;
    262            uint8 ret = ZB_ALREADY_IN_PROGRESS;
    263          
    264            if ( create )
   \   00001A   E9           MOV     A,R1
   \   00001B   7003         JNZ     $+5
   \   00001D   02....       LJMP    ??Motor_BindDevice_0 & 0xFFFF
    265            {
    266              if (sensor_bindInProgress == 0xffff)
   \   000020   90....       MOV     DPTR,#sensor_bindInProgress
   \   000023   E0           MOVX    A,@DPTR
   \   000024   F4           CPL     A
   \   000025   7003         JNZ     ??Motor_BindDevice_1
   \   000027   A3           INC     DPTR
   \   000028   E0           MOVX    A,@DPTR
   \   000029   F4           CPL     A
   \                     ??Motor_BindDevice_1:
   \   00002A   6003         JZ      $+5
   \   00002C   02....       LJMP    ??CrossCallReturnLabel_11 & 0xFFFF
    267              {
    268                if ( pDestination )
   \   00002F   EE           MOV     A,R6
   \   000030   4F           ORL     A,R7
   \   000031   604E         JZ      ??Motor_BindDevice_2
    269                {
    270                  destination.addrMode = Addr64Bit;
   \   000033   7408         MOV     A,#0x8
   \   000035   12....       LCALL   ?XSTACK_DISP0_8
   \   000038   7403         MOV     A,#0x3
   \   00003A   F0           MOVX    @DPTR,A
    271                  osal_cpyExtAddr( destination.addr.extAddr, pDestination );
   \   00003B                ; Setup parameters for call to function sAddrExtCpy
   \   00003B   EE           MOV     A,R6
   \   00003C   FC           MOV     R4,A
   \   00003D   EF           MOV     A,R7
   \   00003E   FD           MOV     R5,A
   \   00003F   85..82       MOV     DPL,?XSP + 0
   \   000042   85..83       MOV     DPH,?XSP + 1
   \   000045   AA82         MOV     R2,DPL
   \   000047   AB83         MOV     R3,DPH
   \   000049   12....       LCALL   ??sAddrExtCpy?relay
    272                    // srcEndpoint, dstEndpoint
    273                  ret = APSME_BindRequest( endpoint, commandId[1],
    274                                                      &destination, endpoint );
    275          
    276                  if ( ret == ZSuccess )
   \   00004C                ; Setup parameters for call to function APSME_BindRequest
   \   00004C   E5..         MOV     A,?V0 + 0
   \   00004E   F5..         MOV     ?V0 + 4,A
   \   000050   78..         MOV     R0,#?V0 + 4
   \   000052   12....       LCALL   ?PUSH_XSTACK_I_ONE
   \   000055   7401         MOV     A,#0x1
   \   000057   12....       LCALL   ?XSTACK_DISP0_8
   \   00005A   AC82         MOV     R4,DPL
   \   00005C   AD83         MOV     R5,DPH
   \   00005E   12....       LCALL   ?Subroutine4 & 0xFFFF
   \                     ??CrossCallReturnLabel_15:
   \   000061   A9..         MOV     R1,?V0 + 0
   \   000063   12....       LCALL   ??APSME_BindRequest?relay
   \   000066   7401         MOV     A,#0x1
   \   000068   12....       LCALL   ?DEALLOC_XSTACK8
   \   00006B   E9           MOV     A,R1
   \   00006C   6003         JZ      $+5
   \   00006E   02....       LJMP    ??CrossCallReturnLabel_11 & 0xFFFF
    277                  {
    278                    // Find nwk addr
    279                    ZDP_NwkAddrReq(pDestination, ZDP_ADDR_REQTYPE_SINGLE, 0, 0 );
   \   000071                ; Setup parameters for call to function ZDP_NwkAddrReq
   \   000071   7D00         MOV     R5,#0x0
   \   000073   7C00         MOV     R4,#0x0
   \   000075   7900         MOV     R1,#0x0
   \   000077   EE           MOV     A,R6
   \   000078   FA           MOV     R2,A
   \   000079   EF           MOV     A,R7
   \   00007A   FB           MOV     R3,A
   \   00007B   12....       LCALL   ??ZDP_NwkAddrReq?relay
    280                    osal_start_timerEx( ZDAppTaskID, ZDO_NWK_UPDATE_NV, 250 );
   \   00007E                ; Setup parameters for call to function osal_start_timerEx
   \   00007E   02....       LJMP    ??Motor_BindDevice_3 & 0xFFFF
    281                  }
    282                }
    283                else
    284                {
    285                  ret = ZB_INVALID_PARAMETER;
    286                  destination.addrMode = Addr16Bit;
   \                     ??Motor_BindDevice_2:
   \   000081   7408         MOV     A,#0x8
   \   000083   12....       LCALL   ?XSTACK_DISP0_8
   \   000086   7402         MOV     A,#0x2
   \   000088   F0           MOVX    @DPTR,A
    287                  destination.addr.shortAddr = NWK_BROADCAST_SHORTADDR;
   \   000089   85..82       MOV     DPL,?XSP + 0
   \   00008C   85..83       MOV     DPH,?XSP + 1
   \   00008F   74FF         MOV     A,#-0x1
   \   000091   F0           MOVX    @DPTR,A
   \   000092   A3           INC     DPTR
   \   000093   F0           MOVX    @DPTR,A
   \   000094   12....       LCALL   ?Subroutine1 & 0xFFFF
   \                     ??CrossCallReturnLabel_0:
   \   000097   A3           INC     DPTR
   \   000098   A3           INC     DPTR
   \   000099   A3           INC     DPTR
   \   00009A   12....       LCALL   ?PUSH_XSTACK8_X_TWO
   \   00009D   8882         MOV     DPL,R0
   \   00009F   8983         MOV     DPH,R1
   \   0000A1   A3           INC     DPTR
   \   0000A2   A3           INC     DPTR
   \   0000A3   A3           INC     DPTR
   \   0000A4   A3           INC     DPTR
   \   0000A5   A3           INC     DPTR
   \   0000A6   A3           INC     DPTR
   \   0000A7   A3           INC     DPTR
   \   0000A8   A3           INC     DPTR
   \   0000A9   A3           INC     DPTR
   \   0000AA   E0           MOVX    A,@DPTR
   \   0000AB   FC           MOV     R4,A
   \   0000AC   AA..         MOV     R2,?V0 + 2
   \   0000AE   AB..         MOV     R3,?V0 + 3
   \   0000B0   7903         MOV     R1,#0x3
    288                  if ( ZDO_AnyClusterMatches( MOTOR_MAX_CLUSTERS, commandId, Motor_epDesc[motorCnt].simpleDesc->AppNumOutClusters,
    289                                                          Motor_epDesc[motorCnt].simpleDesc->pAppOutClusterList ) )
   \   0000B2   12....       LCALL   ??ZDO_AnyClusterMatches?relay
   \   0000B5   7402         MOV     A,#0x2
   \   0000B7   12....       LCALL   ?DEALLOC_XSTACK8
   \   0000BA   E9           MOV     A,R1
   \   0000BB   6024         JZ      ??Motor_BindDevice_4
    290                  {
    291                    // Try to match with a device in the allow bind mode
    292                    ret = ZDP_MatchDescReq( &destination, NWK_BROADCAST_SHORTADDR,
    293                        Motor_epDesc[motorCnt].simpleDesc->AppProfId, MOTOR_MAX_CLUSTERS, commandId, 0, (cId_t *)NULL, 0 );
   \   0000BD                ; Setup parameters for call to function ZDP_MatchDescReq
   \   0000BD   75..00       MOV     ?V0 + 4,#0x0
   \   0000C0   78..         MOV     R0,#?V0 + 4
   \   0000C2   12....       LCALL   ?PUSH_XSTACK_I_ONE
   \   0000C5   E4           CLR     A
   \   0000C6   F5..         MOV     ?V0 + 5,A
   \   0000C8   78..         MOV     R0,#?V0 + 4
   \   0000CA   12....       LCALL   ?PUSH_XSTACK_I_TWO
   \   0000CD   78..         MOV     R0,#?V0 + 4
   \   0000CF   12....       LCALL   ?PUSH_XSTACK_I_ONE
   \   0000D2   78..         MOV     R0,#?V0 + 2
   \   0000D4   12....       LCALL   ?PUSH_XSTACK_I_TWO
   \   0000D7   12....       LCALL   ?Subroutine2 & 0xFFFF
    294                  }
   \                     ??CrossCallReturnLabel_2:
   \   0000DA   12....       LCALL   ?PUSH_XSTACK8_X_TWO
   \   0000DD   7903         MOV     R1,#0x3
   \   0000DF   804A         SJMP    ??Motor_BindDevice_5
   \                     ??Motor_BindDevice_4:
   \   0000E1   12....       LCALL   ?Subroutine1 & 0xFFFF
   \                     ??CrossCallReturnLabel_1:
   \   0000E4   12....       LCALL   ?PUSH_XSTACK8_X_TWO
   \   0000E7   8882         MOV     DPL,R0
   \   0000E9   8983         MOV     DPH,R1
   \   0000EB   A3           INC     DPTR
   \   0000EC   A3           INC     DPTR
   \   0000ED   A3           INC     DPTR
   \   0000EE   A3           INC     DPTR
   \   0000EF   A3           INC     DPTR
   \   0000F0   A3           INC     DPTR
   \   0000F1   E0           MOVX    A,@DPTR
   \   0000F2   FC           MOV     R4,A
   \   0000F3   AA..         MOV     R2,?V0 + 2
   \   0000F5   AB..         MOV     R3,?V0 + 3
   \   0000F7   7901         MOV     R1,#0x1
    295                  else if ( ZDO_AnyClusterMatches( 1, commandId, Motor_epDesc[motorCnt].simpleDesc->AppNumInClusters,
    296                                                          Motor_epDesc[motorCnt].simpleDesc->pAppInClusterList ) )
   \   0000F9   12....       LCALL   ??ZDO_AnyClusterMatches?relay
   \   0000FC   7402         MOV     A,#0x2
   \   0000FE   12....       LCALL   ?DEALLOC_XSTACK8
   \   000101   E9           MOV     A,R1
   \   000102   607C         JZ      ??CrossCallReturnLabel_11
    297                  {
    298                    ret = ZDP_MatchDescReq( &destination, NWK_BROADCAST_SHORTADDR,
    299                        Motor_epDesc[motorCnt].simpleDesc->AppProfId, 0, (cId_t *)NULL, MOTOR_MAX_CLUSTERS, commandId, 0 );
   \   000104                ; Setup parameters for call to function ZDP_MatchDescReq
   \   000104   75..00       MOV     ?V0 + 4,#0x0
   \   000107   78..         MOV     R0,#?V0 + 4
   \   000109   12....       LCALL   ?PUSH_XSTACK_I_ONE
   \   00010C   78..         MOV     R0,#?V0 + 2
   \   00010E   12....       LCALL   ?PUSH_XSTACK_I_TWO
   \   000111   75..03       MOV     ?V0 + 4,#0x3
   \   000114   78..         MOV     R0,#?V0 + 4
   \   000116   12....       LCALL   ?PUSH_XSTACK_I_ONE
   \   000119   E4           CLR     A
   \   00011A   F5..         MOV     ?V0 + 4,A
   \   00011C   F5..         MOV     ?V0 + 5,A
   \   00011E   78..         MOV     R0,#?V0 + 4
   \   000120   12....       LCALL   ?PUSH_XSTACK_I_TWO
   \   000123   12....       LCALL   ?Subroutine2 & 0xFFFF
    300                  }
   \                     ??CrossCallReturnLabel_3:
   \   000126   12....       LCALL   ?PUSH_XSTACK8_X_TWO
   \   000129   7900         MOV     R1,#0x0
   \                     ??Motor_BindDevice_5:
   \   00012B   7CFF         MOV     R4,#-0x1
   \   00012D   7DFF         MOV     R5,#-0x1
   \   00012F   7408         MOV     A,#0x8
   \   000131   12....       LCALL   ?XSTACK_DISP0_8
   \   000134   AA82         MOV     R2,DPL
   \   000136   AB83         MOV     R3,DPH
   \   000138   12....       LCALL   ??ZDP_MatchDescReq?relay
   \   00013B   7408         MOV     A,#0x8
   \   00013D   12....       LCALL   ?DEALLOC_XSTACK8
   \   000140   E9           MOV     A,R1
    301          
    302                  if ( ret == ZB_SUCCESS )
   \   000141   703D         JNZ     ??CrossCallReturnLabel_11
    303                  {
    304                    // Set a timer to make sure bind completes
    305          #if ( ZG_BUILD_RTR_TYPE )
    306                    osal_start_timerEx(Motor_TaskID, MOTOR_BIND_TIMER, AIB_MaxBindingTime);
    307          #else
    308                    // AIB_MaxBindingTime is not defined for an End Device
    309                    osal_start_timerEx(Motor_TaskID, MOTOR_BIND_TIMER, zgApsDefaultMaxBindingTime);
   \   000143                ; Setup parameters for call to function osal_start_timerEx
   \   000143   90....       MOV     DPTR,#zgApsDefaultMaxBindingTime
   \   000146   E0           MOVX    A,@DPTR
   \   000147   FC           MOV     R4,A
   \   000148   A3           INC     DPTR
   \   000149   E0           MOVX    A,@DPTR
   \   00014A   FD           MOV     R5,A
   \   00014B   7A21         MOV     R2,#0x21
   \   00014D   7B00         MOV     R3,#0x0
   \   00014F   90....       MOV     DPTR,#Motor_TaskID
   \   000152   12....       LCALL   ??Subroutine8_0 & 0xFFFF
    310          #endif
    311                    sensor_bindInProgress = commandId[1];
   \                     ??CrossCallReturnLabel_12:
   \   000155   85..82       MOV     DPL,?V0 + 2
   \   000158   85..83       MOV     DPH,?V0 + 3
   \   00015B   A3           INC     DPTR
   \   00015C   A3           INC     DPTR
   \   00015D   E0           MOVX    A,@DPTR
   \   00015E   F8           MOV     R0,A
   \   00015F   A3           INC     DPTR
   \   000160   E0           MOVX    A,@DPTR
   \   000161   F9           MOV     R1,A
   \   000162   90....       MOV     DPTR,#sensor_bindInProgress
   \   000165   E8           MOV     A,R0
   \   000166   F0           MOVX    @DPTR,A
   \   000167   A3           INC     DPTR
   \   000168   E9           MOV     A,R1
   \   000169   F0           MOVX    @DPTR,A
    312                    return; // dont send cback event
   \   00016A   8014         SJMP    ??CrossCallReturnLabel_11
    313                  }
    314                }
    315              }
    316          
    317            //  SAPI_SendCback( SAPICB_BIND_CNF, ret, commandId );
    318            }
    319            else
    320            {
    321              // Remove local bindings for the commandId
    322              BindingEntry_t *pBind;
    323          
    324              // Loop through bindings an remove any that match the cluster
    325              while ( pBind = bindFind( endpoint, commandId[1], 0 ) )
    326              {
    327                bindRemoveEntry(pBind);
   \                     ??Motor_BindDevice_6:
   \   00016C                ; Setup parameters for call to function bindRemoveEntry
   \   00016C   12....       LCALL   ??bindRemoveEntry?relay
    328              }
   \                     ??Motor_BindDevice_0:
   \   00016F                ; Setup parameters for call to function bindFind
   \   00016F   7C00         MOV     R4,#0x0
   \   000171   12....       LCALL   ?Subroutine4 & 0xFFFF
   \                     ??CrossCallReturnLabel_16:
   \   000174   A9..         MOV     R1,?V0 + 0
   \   000176   12....       LCALL   ??bindFind?relay
   \   000179   EA           MOV     A,R2
   \   00017A   4B           ORL     A,R3
   \   00017B   70EF         JNZ     ??Motor_BindDevice_6
    329              osal_start_timerEx( ZDAppTaskID, ZDO_NWK_UPDATE_NV, 250 );
   \   00017D                ; Setup parameters for call to function osal_start_timerEx
    330            }
   \                     ??Motor_BindDevice_3:
   \   00017D   12....       LCALL   ?Subroutine5 & 0xFFFF
   \                     ??CrossCallReturnLabel_11:
   \   000180   7409         MOV     A,#0x9
   \   000182   12....       LCALL   ?DEALLOC_XSTACK8
   \   000185   02....       LJMP    ?Subroutine0 & 0xFFFF
    331            return;
    332          }

   \                                 In  segment BANKED_CODE, align 1, keep-with-next
   \                     ?Subroutine4:
   \   000000   85..82       MOV     DPL,?V0 + 2
   \   000003   85..83       MOV     DPH,?V0 + 3
   \   000006   A3           INC     DPTR
   \   000007                REQUIRE ??Subroutine9_0
   \   000007                ; // Fall through to label ??Subroutine9_0

   \                                 In  segment BANKED_CODE, align 1, keep-with-next
   \                     ?Subroutine2:
   \   000000   12....       LCALL   ?Subroutine6 & 0xFFFF
   \                     ??CrossCallReturnLabel_7:
   \   000003   F583         MOV     DPH,A
   \   000005   8882         MOV     DPL,R0
   \   000007   A3           INC     DPTR
   \   000008   22           RET

   \                                 In  segment BANKED_CODE, align 1, keep-with-next
   \                     ?Subroutine1:
   \   000000   12....       LCALL   ?Subroutine6 & 0xFFFF
   \                     ??CrossCallReturnLabel_6:
   \   000003   F9           MOV     R1,A
   \   000004                ; Setup parameters for call to function ZDO_AnyClusterMatches
   \   000004                ; Setup parameters for call to function ZDO_AnyClusterMatches
   \   000004   8882         MOV     DPL,R0
   \   000006   8983         MOV     DPH,R1
   \   000008   A3           INC     DPTR
   \   000009   A3           INC     DPTR
   \   00000A   A3           INC     DPTR
   \   00000B   A3           INC     DPTR
   \   00000C   A3           INC     DPTR
   \   00000D   A3           INC     DPTR
   \   00000E   A3           INC     DPTR
   \   00000F   22           RET

   \                                 In  segment BANKED_CODE, align 1, keep-with-next
   \                     ?Subroutine6:
   \   000000   90....       MOV     DPTR,#motorCnt
   \   000003   E0           MOVX    A,@DPTR
   \   000004   75F006       MOV     B,#0x6
   \   000007   A4           MUL     AB
   \   000008   F8           MOV     R0,A
   \   000009   A9F0         MOV     R1,B
   \   00000B   12....       LCALL   ?Subroutine7 & 0xFFFF
   \                     ??CrossCallReturnLabel_9:
   \   00000E   22           RET

   \                                 In  segment XDATA_ID, align 1, keep-with-next
   \                     `?<Initializer for Motor_ClusterList>`:
   \   000000   0100         DW 1
   \   000002   0200         DW 2
   \   000004   0300         DW 3

   \                                 In  segment XDATA_ID, align 1, keep-with-next
   \                     `?<Initializer for Motor_SimpleDesc>`:
   \   000000   6E           DB 110
   \   000001   040F         DW 3844
   \   000003   0100         DW 1
   \   000005   00           DB 0
   \   000006   00           DB 0
   \   000007   0000         DW 0H
   \   000009   03           DB 3
   \   00000A   ....         DW Motor_ClusterList
   \   00000C   00000000     DB 0, 0, 0, 0, 0, 0, 0, 0
   \            00000000
   \   000014   00000000     DB 0, 0, 0, 0, 0, 0, 0, 0
   \            00000000
   \   00001C   00000000     DB 0, 0, 0, 0, 0, 0, 0, 0
   \            00000000
   \   000024   00000000     DB 0, 0, 0, 0, 0, 0, 0, 0
   \            00000000
   \   00002C   00000000     DB 0, 0, 0, 0, 0, 0, 0, 0
   \            00000000
   \   000034   00000000     DB 0, 0, 0, 0, 0, 0, 0, 0
   \            00000000
   \   00003C   00000000     DB 0, 0, 0, 0, 0, 0, 0, 0
   \            00000000
   \   000044   00000000     DB 0, 0, 0, 0, 0, 0, 0, 0
   \            00000000
   \   00004C   00000000     DB 0, 0, 0, 0, 0, 0, 0, 0
   \            00000000
   \   000054   00000000     DB 0, 0, 0, 0, 0, 0, 0, 0
   \            00000000
   \   00005C   00000000     DB 0, 0, 0, 0, 0, 0, 0, 0
   \            00000000
   \   000064   00000000     DB 0, 0, 0, 0, 0, 0, 0, 0
   \            00000000
   \   00006C   00000000     DB 0, 0, 0, 0, 0, 0, 0, 0
   \            00000000
   \   000074   00000000     DB 0, 0, 0, 0

   \                                 In  segment BANK_RELAYS, align 1
   \                     ??Motor_Init?relay:
   \   000000   12....       LCALL   ?BDISPATCH
   \   000003   ......       DC24    Motor_Init

   \                                 In  segment BANK_RELAYS, align 1
   \                     ??Motor_ProcessEvent?relay:
   \   000000   12....       LCALL   ?BDISPATCH
   \   000003   ......       DC24    Motor_ProcessEvent

   \                                 In  segment BANK_RELAYS, align 1
   \                     ??Motor_ProcessZDOMsgs?relay:
   \   000000   12....       LCALL   ?BDISPATCH
   \   000003   ......       DC24    Motor_ProcessZDOMsgs

   \                                 In  segment BANK_RELAYS, align 1
   \                     ??Motor_BindDevice?relay:
   \   000000   12....       LCALL   ?BDISPATCH
   \   000003   ......       DC24    Motor_BindDevice
    333          
    334          
    335          /*********************************
    336           * CALLBACK FUNCTIONS   */
    337          /******************************************************************************
    338           * @fn          SAPI_BindConfirm
    339           *
    340           * @brief       The SAPI_BindConfirm callback is called by the ZigBee stack
    341           *              after a bind operation completes.
    342           *
    343           * @param       commandId - The command ID of the binding being confirmed.
    344           *              status - The status of the bind operation.
    345           *              allowBind - TRUE if the bind operation was initiated by a call
    346           *                          to zb_AllowBindRespones.  FALSE if the operation
    347           *                          was initiated by a call to ZB_BindDevice
    348           *
    349           * @return      none
    350           */
    351          void SAPI_BindConfirm( uint16 commandId, uint8 status )
    352          {
    353              Sys_BindConfirm( commandId, status );
    354          }

   Maximum stack usage in bytes:

     Function                   ISTACK PSTACK XSTACK
     --------                   ------ ------ ------
     Motor_BindDevice               0      0     47
       -> sAddrExtCpy               0      0     46
       -> APSME_BindRequest         0      0     48
       -> ZDP_NwkAddrReq            0      0     46
       -> osal_start_timerEx        0      0     46
       -> ZDO_AnyClusterMatches     0      0     50
       -> ZDP_MatchDescReq          0      0     62
       -> ZDO_AnyClusterMatches     0      0     50
       -> ZDP_MatchDescReq          0      0     62
       -> osal_start_timerEx        0      0     46
       -> bindRemoveEntry           0      0     46
       -> bindFind                  0      0     46
       -> osal_start_timerEx        0      0     46
     Motor_Init                     1      0      9
       -> afRegister                0      0     18
       -> ZDO_RegisterForZDOMsg     0      0     18
     Motor_ProcessEvent             0      0     16
       -> osal_msg_receive          0      0     28
       -> Motor_ProcessZDOMsgs      0      0     28
       -> osal_msg_deallocate       0      0     28
       -> osal_msg_receive          0      0     28
       -> Motor_BindDevice          0      0     32
       -> Sys_BindConfirm           0      0     28
     Motor_ProcessZDOMsgs           0      0     34
       -> ZDO_ParseEPListRsp        0      0     38
       -> APSME_BindRequest         0      0     40
       -> osal_stop_timerEx         0      0     38
       -> osal_start_timerEx        0      0     38
       -> ZDP_IEEEAddrReq           0      0     38
       -> Sys_BindConfirm           0      0     38


   Segment part sizes:

     Function/Label                       Bytes
     --------------                       -----
     Motor_TaskID                            1
     motorCnt                                1
     Motor_ClusterList                       6
     Motor_SimpleDesc                      120
     Motor_epDesc                           60
     Motor_DstAddr                          12
     Motor_Init                            157
     Motor_ProcessEvent                    136
     ?Subroutine0                            5
     ?Subroutine3                           20
     Motor_ProcessZDOMsgs                  206
     ?Subroutine5                           11
     ??Subroutine8_0                         6
     ??Subroutine9_0                         1
     ??Subroutine10_0                        6
     ?Subroutine7                           15
     Motor_BindDevice                      392
     ?Subroutine4                            7
     ?Subroutine2                            9
     ?Subroutine1                           16
     ?Subroutine6                           15
     ?<Initializer for Motor_ClusterList>    6
     ?<Initializer for Motor_SimpleDesc>   120
     ??Motor_Init?relay                      6
     ??Motor_ProcessEvent?relay              6
     ??Motor_ProcessZDOMsgs?relay            6
     ??Motor_BindDevice?relay                6

 
 1 002 bytes in segment BANKED_CODE
    24 bytes in segment BANK_RELAYS
   126 bytes in segment XDATA_I
   126 bytes in segment XDATA_ID
    74 bytes in segment XDATA_Z
 
 1 152 bytes of CODE  memory
   200 bytes of XDATA memory

Errors: none
Warnings: none
