///////////////////////////////////////////////////////////////////////////////
//                                                                            /
// IAR C/C++ Compiler V8.10.3.10338/W32 for 8051        07/Apr/2018  15:54:48 /
// Copyright 2004-2011 IAR Systems AB.                                        /
//                                                                            /
//    Core               =  plain                                             /
//    Code model         =  banked                                            /
//    Data model         =  large                                             /
//    Calling convention =  xdata reentrant                                   /
//    Constant location  =  data                                              /
//    Dptr setup         =  1,16                                              /
//    Source file        =  D:\ProgramData\Hardware\zigbee\Projects\zstack\Sa /
//                          mples\SensorSys\Source\SensorSys_Terminator.c     /
//    Command line       =  -f D:\ProgramData\Hardware\zigbee\Projects\zstack /
//                          \Samples\SensorSys\CC2530DB\..\..\..\Tools\CC2530 /
//                          DB\f8wEndev.cfg (-DCPU32MHZ -DROOT=__near_func    /
//                          -DMAC_CFG_TX_DATA_MAX=3 -DMAC_CFG_TX_MAX=6        /
//                          -DMAC_CFG_RX_MAX=3) -f D:\ProgramData\Hardware\zi /
//                          gbee\Projects\zstack\Samples\SensorSys\CC2530DB\. /
//                          .\..\..\Tools\CC2530DB\f8wConfig.cfg              /
//                          (-DZIGBEEPRO -DSECURE=0 -DZG_SECURE_DYNAMIC=0     /
//                          -DREFLECTOR -DDEFAULT_CHANLIST=0x00000800         /
//                          -DZDAPP_CONFIG_PAN_ID=0xFFF1                      /
//                          -DNWK_START_DELAY=100 -DEXTENDED_JOINING_RANDOM_M /
//                          ASK=0x007F -DBEACON_REQUEST_DELAY=100             /
//                          -DBEACON_REQ_DELAY_MASK=0x00FF                    /
//                          -DLINK_STATUS_JITTER_MASK=0x007F                  /
//                          -DROUTE_EXPIRY_TIME=30 -DAPSC_ACK_WAIT_DURATION_P /
//                          OLLED=3000 -DNWK_INDIRECT_MSG_TIMEOUT=7           /
//                          -DMAX_RREQ_ENTRIES=8 -DAPSC_MAX_FRAME_RETRIES=3   /
//                          -DNWK_MAX_DATA_RETRIES=2                          /
//                          -DMAX_POLL_FAILURE_RETRIES=2 -DMAX_BCAST=9        /
//                          -DAPS_MAX_GROUPS=16 -DMAX_RTG_ENTRIES=40          /
//                          -DNWK_MAX_BINDING_ENTRIES=4                       /
//                          -DMAX_BINDING_CLUSTER_IDS=4                       /
//                          "-DDEFAULT_KEY={0x01, 0x03, 0x05, 0x07, 0x09,     /
//                          0x0B, 0x0D, 0x0F, 0x00, 0x02, 0x04, 0x06, 0x08,   /
//                          0x0A, 0x0C, 0x0D}" -DMAC_MAX_FRAME_SIZE=116       /
//                          -DZDNWKMGR_MIN_TRANSMISSIONS=20 "-DCONST=const    /
//                          __code" -DGENERIC=__generic                       /
//                          -DRFD_RCVC_ALWAYS_ON=TRUE -DPOLL_RATE=1000        /
//                          -DQUEUED_POLL_RATE=100 -DRESPONSE_POLL_RATE=100)  /
//                          -DREJOIN_POLL_RATE=440 D:\ProgramData\Hardware\zi /
//                          gbee\Projects\zstack\Samples\SensorSys\Source\Sen /
//                          sorSys_Terminator.c -D NWK_AUTO_POLL -D           /
//                          HOLD_AUTO_START -D REFLECTOR -D POWER_SAVING -D   /
//                          NV_INIT -D xNV_RESTORE -D xZTOOL_P1 -D xMT_TASK   /
//                          -D xMT_SYS_FUNC -D xMT_SAPI_FUNC -D               /
//                          xMT_SAPI_CB_FUNC -lC D:\ProgramData\Hardware\zigb /
//                          ee\Projects\zstack\Samples\SensorSys\CC2530DB\End /
//                          DeviceEB\List\ -lA D:\ProgramData\Hardware\zigbee /
//                          \Projects\zstack\Samples\SensorSys\CC2530DB\EndDe /
//                          viceEB\List\ --diag_suppress Pe001,Pa010 -o       /
//                          D:\ProgramData\Hardware\zigbee\Projects\zstack\Sa /
//                          mples\SensorSys\CC2530DB\EndDeviceEB\Obj\ -e      /
//                          --no_code_motion --debug --core=plain             /
//                          --dptr=16,1 --data_model=large                    /
//                          --code_model=banked --calling_convention=xdata_re /
//                          entrant --place_constants=data --nr_virtual_regs  /
//                          16 -I D:\ProgramData\Hardware\zigbee\Projects\zst /
//                          ack\Samples\SensorSys\CC2530DB\ -I                /
//                          D:\ProgramData\Hardware\zigbee\Projects\zstack\Sa /
//                          mples\SensorSys\CC2530DB\..\Source\ -I            /
//                          D:\ProgramData\Hardware\zigbee\Projects\zstack\Sa /
//                          mples\SensorSys\CC2530DB\..\..\..\ZMain\TI2530DB\ /
//                           -I D:\ProgramData\Hardware\zigbee\Projects\zstac /
//                          k\Samples\SensorSys\CC2530DB\..\..\..\..\..\Compo /
//                          nents\hal\include\ -I D:\ProgramData\Hardware\zig /
//                          bee\Projects\zstack\Samples\SensorSys\CC2530DB\.. /
//                          \..\..\..\..\Components\hal\target\CC2530EB\ -I   /
//                          D:\ProgramData\Hardware\zigbee\Projects\zstack\Sa /
//                          mples\SensorSys\CC2530DB\..\..\..\..\..\Component /
//                          s\mac\include\ -I D:\ProgramData\Hardware\zigbee\ /
//                          Projects\zstack\Samples\SensorSys\CC2530DB\..\..\ /
//                          ..\..\..\Components\mac\high_level\ -I            /
//                          D:\ProgramData\Hardware\zigbee\Projects\zstack\Sa /
//                          mples\SensorSys\CC2530DB\..\..\..\..\..\Component /
//                          s\mac\low_level\srf04\ -I                         /
//                          D:\ProgramData\Hardware\zigbee\Projects\zstack\Sa /
//                          mples\SensorSys\CC2530DB\..\..\..\..\..\Component /
//                          s\mac\low_level\srf04\single_chip\ -I             /
//                          D:\ProgramData\Hardware\zigbee\Projects\zstack\Sa /
//                          mples\SensorSys\CC2530DB\..\..\..\..\..\Component /
//                          s\mt\ -I D:\ProgramData\Hardware\zigbee\Projects\ /
//                          zstack\Samples\SensorSys\CC2530DB\..\..\..\..\..\ /
//                          Components\osal\include\ -I                       /
//                          D:\ProgramData\Hardware\zigbee\Projects\zstack\Sa /
//                          mples\SensorSys\CC2530DB\..\..\..\..\..\Component /
//                          s\services\saddr\ -I D:\ProgramData\Hardware\zigb /
//                          ee\Projects\zstack\Samples\SensorSys\CC2530DB\..\ /
//                          ..\..\..\..\Components\services\sdata\ -I         /
//                          D:\ProgramData\Hardware\zigbee\Projects\zstack\Sa /
//                          mples\SensorSys\CC2530DB\..\..\..\..\..\Component /
//                          s\stack\af\ -I D:\ProgramData\Hardware\zigbee\Pro /
//                          jects\zstack\Samples\SensorSys\CC2530DB\..\..\..\ /
//                          ..\..\Components\stack\nwk\ -I                    /
//                          D:\ProgramData\Hardware\zigbee\Projects\zstack\Sa /
//                          mples\SensorSys\CC2530DB\..\..\..\..\..\Component /
//                          s\stack\sapi\ -I D:\ProgramData\Hardware\zigbee\P /
//                          rojects\zstack\Samples\SensorSys\CC2530DB\..\..\. /
//                          .\..\..\Components\stack\sec\ -I                  /
//                          D:\ProgramData\Hardware\zigbee\Projects\zstack\Sa /
//                          mples\SensorSys\CC2530DB\..\..\..\..\..\Component /
//                          s\stack\sys\ -I D:\ProgramData\Hardware\zigbee\Pr /
//                          ojects\zstack\Samples\SensorSys\CC2530DB\..\..\.. /
//                          \..\..\Components\stack\zdo\ -I                   /
//                          D:\ProgramData\Hardware\zigbee\Projects\zstack\Sa /
//                          mples\SensorSys\CC2530DB\..\..\..\..\..\Component /
//                          s\zmac\ -I D:\ProgramData\Hardware\zigbee\Project /
//                          s\zstack\Samples\SensorSys\CC2530DB\..\..\..\..\. /
//                          .\Components\zmac\f8w\ -Ohz --require_prototypes  /
//    List file          =  D:\ProgramData\Hardware\zigbee\Projects\zstack\Sa /
//                          mples\SensorSys\CC2530DB\EndDeviceEB\List\SensorS /
//                          ys_Terminator.s51                                 /
//                                                                            /
//                                                                            /
///////////////////////////////////////////////////////////////////////////////

        NAME SensorSys_Terminator

        RTMODEL "__SystemLibrary", "CLib"
        RTMODEL "__calling_convention", "xdata_reentrant"
        RTMODEL "__code_model", "banked"
        RTMODEL "__core", "plain"
        RTMODEL "__data_model", "large"
        RTMODEL "__dptr_size", "16"
        RTMODEL "__extended_stack", "disabled"
        RTMODEL "__location_for_constants", "data"
        RTMODEL "__number_of_dptrs", "1"
        RTMODEL "__rt_version", "1"

        RSEG DOVERLAY:DATA:NOROOT(0)
        RSEG IOVERLAY:IDATA:NOROOT(0)
        RSEG ISTACK:IDATA:NOROOT(0)
        RSEG PSTACK:XDATA:NOROOT(0)
        RSEG XSTACK:XDATA:NOROOT(0)

        EXTERN ?ALLOC_XSTACK8
        EXTERN ?BANKED_ENTER_XDATA
        EXTERN ?BANKED_LEAVE_XDATA
        EXTERN ?BDISPATCH
        EXTERN ?BRET
        EXTERN ?DEALLOC_XSTACK8
        EXTERN ?PUSH_XSTACK_I_ONE
        EXTERN ?PUSH_XSTACK_I_THREE
        EXTERN ?PUSH_XSTACK_I_TWO
        EXTERN ?V0
        EXTERN ?XSP
        EXTERN ?XSTACK_DISP0_8
        EXTERN __INIT_XDATA_I
        EXTERN __INIT_XDATA_Z

        PUBLIC ??Sys_AllowBind?relay
        FUNCTION ??Sys_AllowBind?relay,0203H
        PUBLIC ??Sys_AllowBindConfirm?relay
        FUNCTION ??Sys_AllowBindConfirm?relay,0203H
        PUBLIC ??Sys_Init?relay
        FUNCTION ??Sys_Init?relay,0203H
        PUBLIC ??Sys_MessageMSGCB?relay
        FUNCTION ??Sys_MessageMSGCB?relay,0203H
        PUBLIC ??Sys_ProcessEvent?relay
        FUNCTION ??Sys_ProcessEvent?relay,0203H
        PUBLIC ??Sys_SendCback?relay
        FUNCTION ??Sys_SendCback?relay,0203H
        PUBLIC ??Sys_SendDataConfirm?relay
        FUNCTION ??Sys_SendDataConfirm?relay,0203H
        PUBLIC ??Sys_SendDataRequest?relay
        FUNCTION ??Sys_SendDataRequest?relay,0203H
        PUBLIC ??Type2EP?relay
        FUNCTION ??Type2EP?relay,0203H
        PUBLIC ??osalInitTasks?relay
        FUNCTION ??osalInitTasks?relay,0203H
        PUBLIC ??zb_FindDeviceConfirm?relay
        FUNCTION ??zb_FindDeviceConfirm?relay,0203H
        PUBLIC ??zb_HandleOsalEvent?relay
        FUNCTION ??zb_HandleOsalEvent?relay,0203H
        PUBLIC ??zb_StartConfirm?relay
        FUNCTION ??zb_StartConfirm?relay,0203H
        PUBLIC AppTitle
        PUBLIC Sys_AllowBind
        FUNCTION Sys_AllowBind,021203H
        ARGFRAME XSTACK, 0, STACK
        LOCFRAME XSTACK, 9, STACK
        PUBLIC Sys_AllowBindConfirm
        FUNCTION Sys_AllowBindConfirm,021203H
        ARGFRAME XSTACK, 0, STACK
        LOCFRAME ISTACK, 2, STACK
        PUBLIC Sys_ClusterList
        PUBLIC Sys_Init
        FUNCTION Sys_Init,021203H
        ARGFRAME XSTACK, 0, STACK
        ARGFRAME IOVERLAY, 0, STATIC
        ARGFRAME DOVERLAY, 0, STATIC
        LOCFRAME XSTACK, 9, STACK
        PUBLIC Sys_MessageMSGCB
        FUNCTION Sys_MessageMSGCB,021203H
        ARGFRAME XSTACK, 14, STACK
        ARGFRAME IOVERLAY, 0, STATIC
        ARGFRAME DOVERLAY, 0, STATIC
        LOCFRAME XSTACK, 18, STACK
        PUBLIC Sys_NwkState
        PUBLIC Sys_ProcessEvent
        FUNCTION Sys_ProcessEvent,021603H
        ARGFRAME XSTACK, 0, STACK
        LOCFRAME XSTACK, 14, STACK
        PUBLIC Sys_SendCback
        FUNCTION Sys_SendCback,021203H
        ARGFRAME XSTACK, 28, STACK
        ARGFRAME IOVERLAY, 0, STATIC
        ARGFRAME DOVERLAY, 0, STATIC
        LOCFRAME ISTACK, 1, STACK
        LOCFRAME XSTACK, 12, STACK
        PUBLIC Sys_SendDataConfirm
        FUNCTION Sys_SendDataConfirm,0203H
        ARGFRAME XSTACK, 0, STACK
        PUBLIC Sys_SendDataRequest
        FUNCTION Sys_SendDataRequest,021203H
        ARGFRAME XSTACK, 7, STACK
        LOCFRAME ISTACK, 1, STACK
        LOCFRAME XSTACK, 37, STACK
        PUBLIC Sys_SimpleDesc
        PUBLIC Sys_TaskID
        PUBLIC Sys_TransID
        PUBLIC Sys_epDesc
        PUBLIC Type2EP
        FUNCTION Type2EP,0203H
        ARGFRAME XSTACK, 15, STACK
        ARGFRAME IOVERLAY, 0, STATIC
        ARGFRAME DOVERLAY, 0, STATIC
        LOCFRAME ISTACK, 2, STACK
        PUBLIC Zb_ClusterList
        PUBLIC keys_shift
        PUBLIC myAppState
        PUBLIC osalInitTasks
        FUNCTION osalInitTasks,021203H
        ARGFRAME XSTACK, 0, STACK
        LOCFRAME ISTACK, 2, STACK
        PUBLIC sysSeqNumber
        PUBLIC tasksArr
        PUBLIC tasksCnt
        PUBLIC tasksEvents
        PUBLIC type_join
        PUBLIC zb_FindDeviceConfirm
        FUNCTION zb_FindDeviceConfirm,0203H
        ARGFRAME XSTACK, 0, STACK
        PUBLIC zb_HandleOsalEvent
        FUNCTION zb_HandleOsalEvent,0203H
        ARGFRAME XSTACK, 0, STACK
        PUBLIC zb_SimpleDesc
        PUBLIC zb_StartConfirm
        FUNCTION zb_StartConfirm,0203H
        ARGFRAME XSTACK, 0, STACK
        LOCFRAME ISTACK, 2, STACK
        
        CFI Names cfiNames0
        CFI StackFrame CFA_SP SP IDATA
        CFI StackFrame CFA_PSP16 PSP16 XDATA
        CFI StackFrame CFA_XSP16 XSP16 XDATA
        CFI StaticOverlayFrame CFA_IOVERLAY IOVERLAY
        CFI StaticOverlayFrame CFA_DOVERLAY DOVERLAY
        CFI Resource `PSW.CY`:1, `B.BR0`:1, `B.BR1`:1, `B.BR2`:1, `B.BR3`:1
        CFI Resource `B.BR4`:1, `B.BR5`:1, `B.BR6`:1, `B.BR7`:1, `VB.BR8`:1
        CFI Resource `VB.BR9`:1, `VB.BR10`:1, `VB.BR11`:1, `VB.BR12`:1
        CFI Resource `VB.BR13`:1, `VB.BR14`:1, `VB.BR15`:1, VB:8, B:8, A:8
        CFI Resource PSW:8, DPL0:8, DPH0:8, R0:8, R1:8, R2:8, R3:8, R4:8, R5:8
        CFI Resource R6:8, R7:8, V0:8, V1:8, V2:8, V3:8, V4:8, V5:8, V6:8, V7:8
        CFI Resource V8:8, V9:8, V10:8, V11:8, V12:8, V13:8, V14:8, V15:8, SP:8
        CFI Resource PSPH:8, PSPL:8, PSP16:16, XSPH:8, XSPL:8, XSP16:16
        CFI VirtualResource ?RET:24
        CFI Resource ?BRET_EXT:8
        CFI VirtualResource ?RET_HIGH:8, ?RET_LOW:8
        CFI ResourceParts PSP16 PSPH, PSPL
        CFI ResourceParts XSP16 XSPH, XSPL
        CFI ResourceParts ?RET ?BRET_EXT, ?RET_HIGH, ?RET_LOW
        CFI EndNames cfiNames0
        
        CFI Common cfiCommon0 Using cfiNames0
        CFI CodeAlign 1
        CFI DataAlign -1
        CFI ReturnAddress ?RET CODE
        CFI CFA_DOVERLAY Used
        CFI CFA_IOVERLAY Used
        CFI CFA_SP SP+-3
        CFI CFA_PSP16 PSP16+0
        CFI CFA_XSP16 XSP16+0
        CFI `PSW.CY` SameValue
        CFI `B.BR0` SameValue
        CFI `B.BR1` SameValue
        CFI `B.BR2` SameValue
        CFI `B.BR3` SameValue
        CFI `B.BR4` SameValue
        CFI `B.BR5` SameValue
        CFI `B.BR6` SameValue
        CFI `B.BR7` SameValue
        CFI `VB.BR8` SameValue
        CFI `VB.BR9` SameValue
        CFI `VB.BR10` SameValue
        CFI `VB.BR11` SameValue
        CFI `VB.BR12` SameValue
        CFI `VB.BR13` SameValue
        CFI `VB.BR14` SameValue
        CFI `VB.BR15` SameValue
        CFI VB SameValue
        CFI B Undefined
        CFI A Undefined
        CFI PSW SameValue
        CFI DPL0 SameValue
        CFI DPH0 SameValue
        CFI R0 Undefined
        CFI R1 Undefined
        CFI R2 Undefined
        CFI R3 Undefined
        CFI R4 Undefined
        CFI R5 Undefined
        CFI R6 SameValue
        CFI R7 SameValue
        CFI V0 SameValue
        CFI V1 SameValue
        CFI V2 SameValue
        CFI V3 SameValue
        CFI V4 SameValue
        CFI V5 SameValue
        CFI V6 SameValue
        CFI V7 SameValue
        CFI V8 SameValue
        CFI V9 SameValue
        CFI V10 SameValue
        CFI V11 SameValue
        CFI V12 SameValue
        CFI V13 SameValue
        CFI V14 SameValue
        CFI V15 SameValue
        CFI PSPH Undefined
        CFI PSPL Undefined
        CFI XSPH Undefined
        CFI XSPL Undefined
        CFI ?RET Concat
        CFI ?BRET_EXT Frame(CFA_SP, 3)
        CFI ?RET_HIGH Frame(CFA_SP, 2)
        CFI ?RET_LOW Frame(CFA_SP, 1)
        CFI EndCommon cfiCommon0
        
        
        CFI Common cfiCommon1 Using cfiNames0
        CFI CodeAlign 1
        CFI DataAlign -1
        CFI ReturnAddress ?RET CODE
        CFI CFA_DOVERLAY Used
        CFI CFA_IOVERLAY Used
        CFI CFA_SP SP+-2
        CFI CFA_PSP16 PSP16+0
        CFI CFA_XSP16 XSP16+0
        CFI `PSW.CY` SameValue
        CFI `B.BR0` SameValue
        CFI `B.BR1` SameValue
        CFI `B.BR2` SameValue
        CFI `B.BR3` SameValue
        CFI `B.BR4` SameValue
        CFI `B.BR5` SameValue
        CFI `B.BR6` SameValue
        CFI `B.BR7` SameValue
        CFI `VB.BR8` SameValue
        CFI `VB.BR9` SameValue
        CFI `VB.BR10` SameValue
        CFI `VB.BR11` SameValue
        CFI `VB.BR12` SameValue
        CFI `VB.BR13` SameValue
        CFI `VB.BR14` SameValue
        CFI `VB.BR15` SameValue
        CFI VB SameValue
        CFI B SameValue
        CFI A SameValue
        CFI PSW SameValue
        CFI DPL0 SameValue
        CFI DPH0 SameValue
        CFI R0 SameValue
        CFI R1 SameValue
        CFI R2 SameValue
        CFI R3 SameValue
        CFI R4 SameValue
        CFI R5 SameValue
        CFI R6 SameValue
        CFI R7 SameValue
        CFI V0 SameValue
        CFI V1 SameValue
        CFI V2 SameValue
        CFI V3 SameValue
        CFI V4 SameValue
        CFI V5 SameValue
        CFI V6 SameValue
        CFI V7 SameValue
        CFI V8 SameValue
        CFI V9 SameValue
        CFI V10 SameValue
        CFI V11 SameValue
        CFI V12 SameValue
        CFI V13 SameValue
        CFI V14 SameValue
        CFI V15 SameValue
        CFI PSPH Undefined
        CFI PSPL Undefined
        CFI XSPH Undefined
        CFI XSPL Undefined
        CFI ?RET Concat
        CFI ?BRET_EXT SameValue
        CFI ?RET_HIGH Frame(CFA_SP, 2)
        CFI ?RET_LOW Frame(CFA_SP, 1)
        CFI EndCommon cfiCommon1
        
afRegister          SYMBOL "afRegister"
HalLedSet           SYMBOL "HalLedSet"
osal_msg_receive    SYMBOL "osal_msg_receive"
osal_msg_deallocate SYMBOL "osal_msg_deallocate"
osal_memcpy         SYMBOL "osal_memcpy"
osal_memcmp         SYMBOL "osal_memcmp"
osal_start_timerEx  SYMBOL "osal_start_timerEx"
afSetMatch          SYMBOL "afSetMatch"
NLME_IsAddressBroadcast SYMBOL "NLME_IsAddressBroadcast"
AF_DataRequest      SYMBOL "AF_DataRequest"
osal_msg_allocate   SYMBOL "osal_msg_allocate"
osal_msg_send       SYMBOL "osal_msg_send"
osal_mem_alloc      SYMBOL "osal_mem_alloc"
osal_memset         SYMBOL "osal_memset"
macTaskInit         SYMBOL "macTaskInit"
nwk_init            SYMBOL "nwk_init"
Hal_Init            SYMBOL "Hal_Init"
APS_Init            SYMBOL "APS_Init"
ZDApp_Init          SYMBOL "ZDApp_Init"
Key_Init            SYMBOL "Key_Init"
Motor_Init          SYMBOL "Motor_Init"
Switch_Init         SYMBOL "Switch_Init"
SAPI_Init           SYMBOL "SAPI_Init"
??AF_DataRequest?relay SYMBOL "?relay", AF_DataRequest
??APS_Init?relay    SYMBOL "?relay", APS_Init
`?<Name APS_event_loop 25>` SYMBOL "APS_event_loop"
??APS_event_loop?relay SYMBOL "?relay", `?<Name APS_event_loop 25>`
??HalLedSet?relay   SYMBOL "?relay", HalLedSet
??Hal_Init?relay    SYMBOL "?relay", Hal_Init
`?<Name Hal_ProcessEvent 29>` SYMBOL "Hal_ProcessEvent"
??Hal_ProcessEvent?relay SYMBOL "?relay", `?<Name Hal_ProcessEvent 29>`
??Key_Init?relay    SYMBOL "?relay", Key_Init
`?<Name Key_ProcessEvent 32>` SYMBOL "Key_ProcessEvent"
??Key_ProcessEvent?relay SYMBOL "?relay", `?<Name Key_ProcessEvent 32>`
??Motor_Init?relay  SYMBOL "?relay", Motor_Init
`?<Name Motor_ProcessEvent 35>` SYMBOL "Motor_ProcessEvent"
??Motor_ProcessEvent?relay SYMBOL "?relay", `?<Name Motor_ProcessEvent 35>`
??NLME_IsAddressBroadcast?relay SYMBOL "?relay", NLME_IsAddressBroadcast
??SAPI_Init?relay   SYMBOL "?relay", SAPI_Init
`?<Name SAPI_ProcessEvent 39>` SYMBOL "SAPI_ProcessEvent"
??SAPI_ProcessEvent?relay SYMBOL "?relay", `?<Name SAPI_ProcessEvent 39>`
??Switch_Init?relay SYMBOL "?relay", Switch_Init
`?<Name Switch_ProcessEvent 42>` SYMBOL "Switch_ProcessEvent"
??Switch_ProcessEvent?relay SYMBOL "?relay", `?<Name Switch_ProcessEvent 42>`
??ZDApp_Init?relay  SYMBOL "?relay", ZDApp_Init
`?<Name ZDApp_event_loop 45>` SYMBOL "ZDApp_event_loop"
??ZDApp_event_loop?relay SYMBOL "?relay", `?<Name ZDApp_event_loop 45>`
??afRegister?relay  SYMBOL "?relay", afRegister
??afSetMatch?relay  SYMBOL "?relay", afSetMatch
`?<Name macEventLoop 49>` SYMBOL "macEventLoop"
??macEventLoop?relay SYMBOL "?relay", `?<Name macEventLoop 49>`
??macTaskInit?relay SYMBOL "?relay", macTaskInit
`?<Name nwk_event_loop 52>` SYMBOL "nwk_event_loop"
??nwk_event_loop?relay SYMBOL "?relay", `?<Name nwk_event_loop 52>`
??nwk_init?relay    SYMBOL "?relay", nwk_init
??osal_mem_alloc?relay SYMBOL "?relay", osal_mem_alloc
??osal_memcmp?relay SYMBOL "?relay", osal_memcmp
??osal_memcpy?relay SYMBOL "?relay", osal_memcpy
??osal_memset?relay SYMBOL "?relay", osal_memset
??osal_msg_allocate?relay SYMBOL "?relay", osal_msg_allocate
??osal_msg_deallocate?relay SYMBOL "?relay", osal_msg_deallocate
??osal_msg_receive?relay SYMBOL "?relay", osal_msg_receive
??osal_msg_send?relay SYMBOL "?relay", osal_msg_send
??osal_start_timerEx?relay SYMBOL "?relay", osal_start_timerEx
Sys_AllowBind       SYMBOL "Sys_AllowBind"
??Sys_AllowBind?relay SYMBOL "?relay", Sys_AllowBind
Sys_AllowBindConfirm SYMBOL "Sys_AllowBindConfirm"
??Sys_AllowBindConfirm?relay SYMBOL "?relay", Sys_AllowBindConfirm
Sys_Init            SYMBOL "Sys_Init"
??Sys_Init?relay    SYMBOL "?relay", Sys_Init
Sys_MessageMSGCB    SYMBOL "Sys_MessageMSGCB"
??Sys_MessageMSGCB?relay SYMBOL "?relay", Sys_MessageMSGCB
Sys_ProcessEvent    SYMBOL "Sys_ProcessEvent"
??Sys_ProcessEvent?relay SYMBOL "?relay", Sys_ProcessEvent
Sys_SendCback       SYMBOL "Sys_SendCback"
??Sys_SendCback?relay SYMBOL "?relay", Sys_SendCback
Sys_SendDataConfirm SYMBOL "Sys_SendDataConfirm"
??Sys_SendDataConfirm?relay SYMBOL "?relay", Sys_SendDataConfirm
Sys_SendDataRequest SYMBOL "Sys_SendDataRequest"
??Sys_SendDataRequest?relay SYMBOL "?relay", Sys_SendDataRequest
Type2EP             SYMBOL "Type2EP"
??Type2EP?relay     SYMBOL "?relay", Type2EP
osalInitTasks       SYMBOL "osalInitTasks"
??osalInitTasks?relay SYMBOL "?relay", osalInitTasks
zb_FindDeviceConfirm SYMBOL "zb_FindDeviceConfirm"
??zb_FindDeviceConfirm?relay SYMBOL "?relay", zb_FindDeviceConfirm
zb_HandleOsalEvent  SYMBOL "zb_HandleOsalEvent"
??zb_HandleOsalEvent?relay SYMBOL "?relay", zb_HandleOsalEvent
zb_StartConfirm     SYMBOL "zb_StartConfirm"
??zb_StartConfirm?relay SYMBOL "?relay", zb_StartConfirm

        EXTERN afRegister
        FUNCTION afRegister,0202H
        ARGFRAME ISTACK, 0, STACK
        ARGFRAME PSTACK, 0, STACK
        ARGFRAME XSTACK, 9, STACK
        ARGFRAME IOVERLAY, 0, STATIC
        ARGFRAME DOVERLAY, 0, STATIC
        EXTERN HalLedSet
        FUNCTION HalLedSet,0202H
        ARGFRAME ISTACK, 2, STACK
        ARGFRAME PSTACK, 0, STACK
        ARGFRAME XSTACK, 15, STACK
        ARGFRAME IOVERLAY, 0, STATIC
        ARGFRAME DOVERLAY, 0, STATIC
        EXTERN osal_msg_receive
        FUNCTION osal_msg_receive,0202H
        ARGFRAME ISTACK, 0, STACK
        ARGFRAME PSTACK, 0, STACK
        ARGFRAME XSTACK, 14, STACK
        ARGFRAME IOVERLAY, 0, STATIC
        ARGFRAME DOVERLAY, 0, STATIC
        EXTERN osal_msg_deallocate
        FUNCTION osal_msg_deallocate,0202H
        ARGFRAME ISTACK, 0, STACK
        ARGFRAME PSTACK, 0, STACK
        ARGFRAME XSTACK, 14, STACK
        ARGFRAME IOVERLAY, 0, STATIC
        ARGFRAME DOVERLAY, 0, STATIC
        EXTERN osal_memcpy
        FUNCTION osal_memcpy,0202H
        ARGFRAME ISTACK, 0, STACK
        ARGFRAME PSTACK, 0, STACK
        ARGFRAME XSTACK, 18, STACK
        ARGFRAME IOVERLAY, 0, STATIC
        ARGFRAME DOVERLAY, 0, STATIC
        EXTERN osal_memcmp
        FUNCTION osal_memcmp,0202H
        ARGFRAME ISTACK, 0, STACK
        ARGFRAME PSTACK, 0, STACK
        ARGFRAME XSTACK, 18, STACK
        ARGFRAME IOVERLAY, 0, STATIC
        ARGFRAME DOVERLAY, 0, STATIC
        EXTERN osal_start_timerEx
        FUNCTION osal_start_timerEx,0202H
        ARGFRAME ISTACK, 2, STACK
        ARGFRAME PSTACK, 0, STACK
        ARGFRAME XSTACK, 15, STACK
        ARGFRAME IOVERLAY, 0, STATIC
        ARGFRAME DOVERLAY, 0, STATIC
        EXTERN afSetMatch
        FUNCTION afSetMatch,0202H
        ARGFRAME ISTACK, 0, STACK
        ARGFRAME PSTACK, 0, STACK
        ARGFRAME XSTACK, 9, STACK
        ARGFRAME IOVERLAY, 0, STATIC
        ARGFRAME DOVERLAY, 0, STATIC
        EXTERN NLME_IsAddressBroadcast
        FUNCTION NLME_IsAddressBroadcast,0202H
        ARGFRAME ISTACK, 0, STACK
        ARGFRAME PSTACK, 0, STACK
        ARGFRAME XSTACK, 28, STACK
        ARGFRAME IOVERLAY, 0, STATIC
        ARGFRAME DOVERLAY, 0, STATIC
        EXTERN AF_DataRequest
        FUNCTION AF_DataRequest,0202H
        ARGFRAME ISTACK, 0, STACK
        ARGFRAME PSTACK, 0, STACK
        ARGFRAME XSTACK, 37, STACK
        ARGFRAME IOVERLAY, 0, STATIC
        ARGFRAME DOVERLAY, 0, STATIC
        EXTERN osal_msg_allocate
        FUNCTION osal_msg_allocate,0202H
        ARGFRAME ISTACK, 0, STACK
        ARGFRAME PSTACK, 0, STACK
        ARGFRAME XSTACK, 12, STACK
        ARGFRAME IOVERLAY, 0, STATIC
        ARGFRAME DOVERLAY, 0, STATIC
        EXTERN osal_msg_send
        FUNCTION osal_msg_send,0202H
        ARGFRAME ISTACK, 0, STACK
        ARGFRAME PSTACK, 0, STACK
        ARGFRAME XSTACK, 12, STACK
        ARGFRAME IOVERLAY, 0, STATIC
        ARGFRAME DOVERLAY, 0, STATIC
        EXTERN osal_mem_alloc
        FUNCTION osal_mem_alloc,0202H
        ARGFRAME ISTACK, 2, STACK
        ARGFRAME PSTACK, 0, STACK
        ARGFRAME XSTACK, 0, STACK
        ARGFRAME IOVERLAY, 0, STATIC
        ARGFRAME DOVERLAY, 0, STATIC
        EXTERN osal_memset
        FUNCTION osal_memset,0202H
        ARGFRAME ISTACK, 2, STACK
        ARGFRAME PSTACK, 0, STACK
        ARGFRAME XSTACK, 0, STACK
        ARGFRAME IOVERLAY, 0, STATIC
        ARGFRAME DOVERLAY, 0, STATIC
        EXTERN macTaskInit
        FUNCTION macTaskInit,0202H
        ARGFRAME ISTACK, 2, STACK
        ARGFRAME PSTACK, 0, STACK
        ARGFRAME XSTACK, 0, STACK
        ARGFRAME IOVERLAY, 0, STATIC
        ARGFRAME DOVERLAY, 0, STATIC
        EXTERN nwk_init
        FUNCTION nwk_init,0202H
        ARGFRAME ISTACK, 2, STACK
        ARGFRAME PSTACK, 0, STACK
        ARGFRAME XSTACK, 0, STACK
        ARGFRAME IOVERLAY, 0, STATIC
        ARGFRAME DOVERLAY, 0, STATIC
        EXTERN Hal_Init
        FUNCTION Hal_Init,0202H
        ARGFRAME ISTACK, 2, STACK
        ARGFRAME PSTACK, 0, STACK
        ARGFRAME XSTACK, 0, STACK
        ARGFRAME IOVERLAY, 0, STATIC
        ARGFRAME DOVERLAY, 0, STATIC
        EXTERN APS_Init
        FUNCTION APS_Init,0202H
        ARGFRAME ISTACK, 2, STACK
        ARGFRAME PSTACK, 0, STACK
        ARGFRAME XSTACK, 0, STACK
        ARGFRAME IOVERLAY, 0, STATIC
        ARGFRAME DOVERLAY, 0, STATIC
        EXTERN ZDApp_Init
        FUNCTION ZDApp_Init,0202H
        ARGFRAME ISTACK, 2, STACK
        ARGFRAME PSTACK, 0, STACK
        ARGFRAME XSTACK, 0, STACK
        ARGFRAME IOVERLAY, 0, STATIC
        ARGFRAME DOVERLAY, 0, STATIC
        EXTERN Key_Init
        FUNCTION Key_Init,0202H
        ARGFRAME ISTACK, 2, STACK
        ARGFRAME PSTACK, 0, STACK
        ARGFRAME XSTACK, 0, STACK
        ARGFRAME IOVERLAY, 0, STATIC
        ARGFRAME DOVERLAY, 0, STATIC
        EXTERN Motor_Init
        FUNCTION Motor_Init,0202H
        ARGFRAME ISTACK, 2, STACK
        ARGFRAME PSTACK, 0, STACK
        ARGFRAME XSTACK, 0, STACK
        ARGFRAME IOVERLAY, 0, STATIC
        ARGFRAME DOVERLAY, 0, STATIC
        EXTERN Switch_Init
        FUNCTION Switch_Init,0202H
        ARGFRAME ISTACK, 2, STACK
        ARGFRAME PSTACK, 0, STACK
        ARGFRAME XSTACK, 0, STACK
        ARGFRAME IOVERLAY, 0, STATIC
        ARGFRAME DOVERLAY, 0, STATIC
        EXTERN SAPI_Init
        FUNCTION SAPI_Init,0202H
        ARGFRAME ISTACK, 2, STACK
        ARGFRAME PSTACK, 0, STACK
        ARGFRAME XSTACK, 0, STACK
        ARGFRAME IOVERLAY, 0, STATIC
        ARGFRAME DOVERLAY, 0, STATIC
        EXTERN ??AF_DataRequest?relay
        FUNCTION ??AF_DataRequest?relay,00H
        EXTERN ??APS_Init?relay
        FUNCTION ??APS_Init?relay,00H
        EXTERN ??APS_event_loop?relay
        FUNCTION ??APS_event_loop?relay,00H
        EXTERN ??HalLedSet?relay
        FUNCTION ??HalLedSet?relay,00H
        EXTERN ??Hal_Init?relay
        FUNCTION ??Hal_Init?relay,00H
        EXTERN ??Hal_ProcessEvent?relay
        FUNCTION ??Hal_ProcessEvent?relay,00H
        EXTERN ??Key_Init?relay
        FUNCTION ??Key_Init?relay,00H
        EXTERN ??Key_ProcessEvent?relay
        FUNCTION ??Key_ProcessEvent?relay,00H
        EXTERN ??Motor_Init?relay
        FUNCTION ??Motor_Init?relay,00H
        EXTERN ??Motor_ProcessEvent?relay
        FUNCTION ??Motor_ProcessEvent?relay,00H
        EXTERN ??NLME_IsAddressBroadcast?relay
        FUNCTION ??NLME_IsAddressBroadcast?relay,00H
        EXTERN ??SAPI_Init?relay
        FUNCTION ??SAPI_Init?relay,00H
        EXTERN ??SAPI_ProcessEvent?relay
        FUNCTION ??SAPI_ProcessEvent?relay,00H
        EXTERN ??Switch_Init?relay
        FUNCTION ??Switch_Init?relay,00H
        EXTERN ??Switch_ProcessEvent?relay
        FUNCTION ??Switch_ProcessEvent?relay,00H
        EXTERN ??ZDApp_Init?relay
        FUNCTION ??ZDApp_Init?relay,00H
        EXTERN ??ZDApp_event_loop?relay
        FUNCTION ??ZDApp_event_loop?relay,00H
        EXTERN ??afRegister?relay
        FUNCTION ??afRegister?relay,00H
        EXTERN ??afSetMatch?relay
        FUNCTION ??afSetMatch?relay,00H
        EXTERN ??macEventLoop?relay
        FUNCTION ??macEventLoop?relay,00H
        EXTERN ??macTaskInit?relay
        FUNCTION ??macTaskInit?relay,00H
        EXTERN ??nwk_event_loop?relay
        FUNCTION ??nwk_event_loop?relay,00H
        EXTERN ??nwk_init?relay
        FUNCTION ??nwk_init?relay,00H
        EXTERN ??osal_mem_alloc?relay
        FUNCTION ??osal_mem_alloc?relay,00H
        EXTERN ??osal_memcmp?relay
        FUNCTION ??osal_memcmp?relay,00H
        EXTERN ??osal_memcpy?relay
        FUNCTION ??osal_memcpy?relay,00H
        EXTERN ??osal_memset?relay
        FUNCTION ??osal_memset?relay,00H
        EXTERN ??osal_msg_allocate?relay
        FUNCTION ??osal_msg_allocate?relay,00H
        EXTERN ??osal_msg_deallocate?relay
        FUNCTION ??osal_msg_deallocate?relay,00H
        EXTERN ??osal_msg_receive?relay
        FUNCTION ??osal_msg_receive?relay,00H
        EXTERN ??osal_msg_send?relay
        FUNCTION ??osal_msg_send?relay,00H
        EXTERN ??osal_start_timerEx?relay
        FUNCTION ??osal_start_timerEx?relay,00H
        EXTERN keyCnt
        EXTERN motorCnt
        EXTERN swCnt

// D:\ProgramData\Hardware\zigbee\Projects\zstack\Samples\SensorSys\Source\SensorSys_Terminator.c
//    1 /**************************************************************************************************
//    2 	Filename:       SensorSys.c
//    3 	Revised:        $Date: 2009-03-18 15:56:27 -0700 (Wed, 18 Mar 2009) $
//    4 	Revision:       $Revision: 19453 $
//    5 
//    6 	Description:    Generic Application (no Profile).
//    7 
//    8 
//    9 	Copyright 2004-2009 Texas Instruments Incorporated. All rights reserved.
//   10 
//   11 	IMPORTANT: Your use of this Software is limited to those specific rights
//   12 	granted under the terms of a software license agreement between the user
//   13 	who downloaded the software, his/her employer (which must be your employer)
//   14 	and Texas Instruments Incorporated (the "License").  You may not use this
//   15 	Software unless you agree to abide by the terms of the License. The License
//   16 	limits your use, and you acknowledge, that the Software may not be modified,
//   17 	copied or distributed unless embedded on a Texas Instruments microcontroller
//   18 	or used solely and exclusively in conjunction with a Texas Instruments radio
//   19 	frequency transceiver, which is integrated into your product.  Other than for
//   20 	the foregoing purpose, you may not use, reproduce, copy, prepare derivative
//   21 	works of, modify, distribute, perform, display or sell this Software and/or
//   22 	its documentation for any purpose.
//   23 
//   24 	YOU FURTHER ACKNOWLEDGE AND AGREE THAT THE SOFTWARE AND DOCUMENTATION ARE
//   25 	PROVIDED AS IS?WITHOUT WARRANTY OF ANY KIND, EITHER EXPRESS OR IMPLIED, 
//   26 	INCLUDING WITHOUT LIMITATION, ANY WARRANTY OF MERCHANTABILITY, TITLE, 
//   27 	NON-INFRINGEMENT AND FITNESS FOR A PARTICULAR PURPOSE. IN NO EVENT SHALL
//   28 	TEXAS INSTRUMENTS OR ITS LICENSORS BE LIABLE OR OBLIGATED UNDER CONTRACT,
//   29 	NEGLIGENCE, STRICT LIABILITY, CONTRIBUTION, BREACH OF WARRANTY, OR OTHER
//   30 	LEGAL EQUITABLE THEORY ANY DIRECT OR INDIRECT DAMAGES OR EXPENSES
//   31 	INCLUDING BUT NOT LIMITED TO ANY INCIDENTAL, SPECIAL, INDIRECT, PUNITIVE
//   32 	OR CONSEQUENTIAL DAMAGES, LOST PROFITS OR LOST DATA, COST OF PROCUREMENT
//   33 	OF SUBSTITUTE GOODS, TECHNOLOGY, SERVICES, OR ANY CLAIMS BY THIRD PARTIES
//   34 	(INCLUDING BUT NOT LIMITED TO ANY DEFENSE THEREOF), OR OTHER SIMILAR COSTS.
//   35 
//   36 	Should you have any questions regarding your right to use this Software,
//   37 	contact Texas Instruments Incorporated at www.TI.com. 
//   38 **************************************************************************************************/
//   39 
//   40 /*********************************************************************
//   41 	This application isn't intended to do anything useful, it is
//   42 	intended to be a simple example of an application's structure.
//   43 
//   44 	This application sends "Hello World" to another "Generic"
//   45 	application every 15 seconds.  The application will also
//   46 	receive "Hello World" packets.
//   47 
//   48 	The "Hello World" messages are sent/received as MSG type message.
//   49 
//   50 	This applications doesn't have a profile, so it handles everything
//   51 	directly - itself.
//   52 
//   53 	Key control:
//   54 		SW1:
//   55 		SW2:  initiates end device binding
//   56 		SW3:
//   57 		SW4:  initiates a match description request
//   58 *********************************************************************/
//   59 
//   60 /*********************************************************************
//   61  * INCLUDES
//   62  */
//   63 #include "AF.h"
//   64 #include "ZDObject.h"
//   65 #include "ZDProfile.h"
//   66 #include "sapi.h"
//   67 
//   68 #include "SensorSys_End.h"
//   69 #include "device.h"
//   70 #include "DebugTrace.h"
//   71 
//   72 #if !defined( WIN32 )
//   73 	#include "OnBoard.h"
//   74 #endif
//   75 
//   76 /* HAL */
//   77 #include "hal_led.h"
//   78 #include "hal_key.h"
//   79 #include "hal_uart.h"
//   80 
//   81 // for SendDataRequest func
//   82 #include "NLMEDE.h"
//   83 #include "nwk_util.h"
//   84 
//   85 #include "nwk.h"
//   86 #include "APS.h"
//   87 #include "ZDApp.h"
//   88 #include "OSAL.h"
//   89 #include "OSAL_Tasks.h"
//   90 #include "ZComDef.h"
//   91 #include "hal_drivers.h"
//   92 
//   93 /*********************************************************************
//   94  * MACROS
//   95  */
//   96 // Message ID's for application user messages must be in 0xE0-0xEF range
//   97 //#define ZB_USER_MSG                       0xE0
//   98 #define SYSCB_DATA_CNF   0xE0
//   99 /*********************************************************************
//  100  * CONSTANTS
//  101  */
//  102 
//  103 /*********************************************************************
//  104  * TYPEDEFS
//  105  */
//  106 
//  107 /*********************************************************************
//  108  * GLOBAL VARIABLES
//  109  */

        RSEG XDATA_Z:XDATA:NOROOT(0)
        DATA8
//  110 uint8 sysSeqNumber = 0;    // 在端点间数据交流时被使用zb_SendDataRequest
sysSeqNumber:
        DS 1
        REQUIRE __INIT_XDATA_Z

        RSEG XDATA_I:XDATA:NOROOT(0)
        DATA8
`?<Constant "bind">`:
        DS 5
        REQUIRE `?<Initializer for <Constant "bind">>`
        REQUIRE __INIT_XDATA_I

        RSEG XDATA_I:XDATA:NOROOT(0)
//  111 uint8 AppTitle[]="SensorAPP"; //应用程序名称
AppTitle:
        DATA8
        DS 10
        REQUIRE `?<Initializer for AppTitle>`
        REQUIRE __INIT_XDATA_I
//  112 
//  113 // Sys 端点的簇ID
//  114 // This list should be filled with Application specific Cluster IDs.

        RSEG XDATA_I:XDATA:NOROOT(0)
        DATA16
//  115 const cId_t Sys_ClusterList[SYS_MAX_CLUSTERS] =
Sys_ClusterList:
        DS 2
        REQUIRE `?<Initializer for Sys_ClusterList>`
        REQUIRE __INIT_XDATA_I
//  116 {
//  117   SYS_CLUSTERID
//  118 };
//  119 

        RSEG XDATA_I:XDATA:NOROOT(0)
        DATA16
//  120 const cId_t Zb_ClusterList[ZB_MAX_CLUSTERS] =
Zb_ClusterList:
        DS 2
        REQUIRE `?<Initializer for Zb_ClusterList>`
        REQUIRE __INIT_XDATA_I
//  121 {
//  122   ZB_CLUSTERID
//  123 };
//  124 
//  125 // Sys 端点简单描述符

        RSEG XDATA_I:XDATA:NOROOT(0)
        DATA8
//  126 const SimpleDescriptionFormat_t Sys_SimpleDesc =
Sys_SimpleDesc:
        DS 12
        REQUIRE `?<Initializer for Sys_SimpleDesc>`
        REQUIRE __INIT_XDATA_I
//  127 {
//  128 	SYS_ENDPOINT,           //  int Endpoint;
//  129 	SYS_PROFID,                //  uint16 AppProfId[2];
//  130 	SYS_DEVICEID,              //  uint16 AppDeviceId[2];
//  131 	SYS_DEVICE_VERSION,        //  int   AppDevVer:4;
//  132 	SYS_FLAGS,                 //  int   AppFlags:4;
//  133 	SYS_MAX_CLUSTERS,          //  byte  AppNumInClusters;
//  134 	(cId_t *)Sys_ClusterList,  //  byte *pAppInClusterList;
//  135 	SYS_MAX_CLUSTERS,          //  byte  AppNumInClusters;
//  136 	(cId_t *)Sys_ClusterList   //  byte *pAppInClusterList;
//  137 };
//  138 

        RSEG XDATA_I:XDATA:NOROOT(0)
        DATA8
//  139 const SimpleDescriptionFormat_t zb_SimpleDesc =
zb_SimpleDesc:
        DS 12
        REQUIRE `?<Initializer for zb_SimpleDesc>`
        REQUIRE __INIT_XDATA_I
//  140 {
//  141 	ZB_ENDPOINT,           //  int Endpoint;
//  142 	SYS_PROFID,                //  uint16 AppProfId[2];
//  143 	SYS_DEVICEID,              //  uint16 AppDeviceId[2];
//  144 	SYS_DEVICE_VERSION,        //  int   AppDevVer:4;
//  145 	SYS_FLAGS,                 //  int   AppFlags:4;
//  146 	ZB_MAX_CLUSTERS,          //  byte  AppNumInClusters;
//  147 	(cId_t *)Zb_ClusterList,  //  byte *pAppInClusterList;
//  148 	ZB_MAX_CLUSTERS,          //  byte  AppNumInClusters;
//  149 	(cId_t *)Zb_ClusterList   //  byte *pAppInClusterList;
//  150 };
//  151 
//  152 // This is the Endpoint/Interface description.  It is defined here, but
//  153 // filled-in in Key_Init().  Another way to go would be to fill
//  154 // in the structure here and make it a "const" (in code space).  The
//  155 // way it's defined in this sample app it is define in RAM.

        RSEG XDATA_Z:XDATA:NOROOT(0)
        DATA8
//  156 endPointDesc_t Sys_epDesc;
Sys_epDesc:
        DS 6
        REQUIRE __INIT_XDATA_Z
//  157 
//  158 /*********************************************************************
//  159  * EXTERNAL VARIABLES
//  160  */
//  161 
//  162 /*********************************************************************
//  163  * EXTERNAL FUNCTIONS
//  164  */
//  165 
//  166 /*********************************************************************
//  167  * LOCAL VARIABLES
//  168  */

        RSEG XDATA_Z:XDATA:NOROOT(0)
        DATA8
//  169 uint8 myAppState = APP_INIT;
myAppState:
        DS 1
        REQUIRE __INIT_XDATA_Z

        RSEG XDATA_Z:XDATA:NOROOT(0)
        DATA8
//  170 uint8 keys_shift = 0;
keys_shift:
        DS 1
        REQUIRE __INIT_XDATA_Z

        RSEG XDATA_Z:XDATA:NOROOT(0)
        DATA8
//  171 uint8 type_join;		// Which type of EndPoint want to match
type_join:
        DS 1
        REQUIRE __INIT_XDATA_Z
//  172 

        RSEG XDATA_Z:XDATA:NOROOT(0)
        DATA8
//  173 byte Sys_TaskID;
Sys_TaskID:
        DS 1
        REQUIRE __INIT_XDATA_Z
//  174 

        RSEG XDATA_Z:XDATA:NOROOT(0)
        DATA8
//  175 devStates_t Sys_NwkState;   // 节点现在的网络状态
Sys_NwkState:
        DS 1
        REQUIRE __INIT_XDATA_Z
//  176 

        RSEG XDATA_Z:XDATA:NOROOT(0)
        DATA8
//  177 byte Sys_TransID;  // 数据包的发送ID，每发一个自增1
Sys_TransID:
        DS 1
        REQUIRE __INIT_XDATA_Z
//  178 
//  179 // afAddrType_t Broadcast_DstAddr;
//  180 
//  181 /*********************************************************************
//  182  * LOCAL FUNCTIONS
//  183  */
//  184 void Sys_Init( byte task_id );
//  185 
//  186 UINT16 Sys_ProcessEvent( byte task_id, UINT16 events );
//  187 
//  188 void Sys_AllowBind ( uint8 timeout );
//  189 
//  190 void Sys_MessageMSGCB( afIncomingMSGPacket_t *pckt, byte task_id );
//  191 void Sys_AllowBindConfirm( uint16 source );
//  192 void Sys_SendDataConfirm( uint8 handle, uint8 status );
//  193 void Sys_SendCback( uint8 event, uint8 status, uint16 data );
//  194 // void Sys_SendMessage( byte task_id );
//  195 
//  196 /*********************************************************************
//  197  * NETWORK LAYER CALLBACKS
//  198  */
//  199 
//  200 /*********************************************************************
//  201  * PUBLIC FUNCTIONS
//  202  */
//  203 
//  204 /*********************************************************************
//  205  * @fn      Sys_Init
//  206  *
//  207  * @brief   Initialization function for the Generic App Task.
//  208  *          This is called during initialization and should contain
//  209  *          any application specific initialization (ie. hardware
//  210  *          initialization/setup, table initialization, power up
//  211  *          notificaiton ... ).
//  212  *
//  213  * @param   task_id - the ID assigned by OSAL.  This ID should be
//  214  *                    used to send messages and set timers.
//  215  *
//  216  * @return  none
//  217  */

        RSEG BANKED_CODE:CODE:NOROOT(0)
//  218 void Sys_Init( byte task_id )
Sys_Init:
        CFI Block cfiBlock0 Using cfiCommon0
        CFI Function Sys_Init
        CODE
//  219 {
        FUNCALL Sys_Init, afRegister
        LOCFRAME ISTACK, 0, STACK
        LOCFRAME PSTACK, 0, STACK
        LOCFRAME XSTACK, 9, STACK
        LOCFRAME IOVERLAY, 0, STATIC
        LOCFRAME DOVERLAY, 0, STATIC
        ARGFRAME ISTACK, 0, STACK
        ARGFRAME PSTACK, 0, STACK
        ARGFRAME XSTACK, 9, STACK
        ARGFRAME IOVERLAY, 0, STATIC
        ARGFRAME DOVERLAY, 0, STATIC
        FUNCALL Sys_Init, HalLedSet
        LOCFRAME ISTACK, 0, STACK
        LOCFRAME PSTACK, 0, STACK
        LOCFRAME XSTACK, 9, STACK
        LOCFRAME IOVERLAY, 0, STATIC
        LOCFRAME DOVERLAY, 0, STATIC
        ARGFRAME ISTACK, 0, STACK
        ARGFRAME PSTACK, 0, STACK
        ARGFRAME XSTACK, 9, STACK
        ARGFRAME IOVERLAY, 0, STATIC
        ARGFRAME DOVERLAY, 0, STATIC
        FUNCALL Sys_Init, HalLedSet
        LOCFRAME ISTACK, 0, STACK
        LOCFRAME PSTACK, 0, STACK
        LOCFRAME XSTACK, 9, STACK
        LOCFRAME IOVERLAY, 0, STATIC
        LOCFRAME DOVERLAY, 0, STATIC
        ARGFRAME ISTACK, 0, STACK
        ARGFRAME PSTACK, 0, STACK
        ARGFRAME XSTACK, 9, STACK
        ARGFRAME IOVERLAY, 0, STATIC
        ARGFRAME DOVERLAY, 0, STATIC
        FUNCALL Sys_Init, HalLedSet
        LOCFRAME ISTACK, 0, STACK
        LOCFRAME PSTACK, 0, STACK
        LOCFRAME XSTACK, 9, STACK
        LOCFRAME IOVERLAY, 0, STATIC
        LOCFRAME DOVERLAY, 0, STATIC
        ARGFRAME ISTACK, 0, STACK
        ARGFRAME PSTACK, 0, STACK
        ARGFRAME XSTACK, 9, STACK
        ARGFRAME IOVERLAY, 0, STATIC
        ARGFRAME DOVERLAY, 0, STATIC
        MOV     A,#-0x9
        LCALL   ?BANKED_ENTER_XDATA
        CFI DPH0 load(1, XDATA, add(CFA_XSP16, literal(-1)))
        CFI DPL0 load(1, XDATA, add(CFA_XSP16, literal(-2)))
        CFI ?BRET_EXT load(1, XDATA, add(CFA_XSP16, literal(-3)))
        CFI ?RET_HIGH load(1, XDATA, add(CFA_XSP16, literal(-4)))
        CFI ?RET_LOW load(1, XDATA, add(CFA_XSP16, literal(-5)))
        CFI R7 load(1, XDATA, add(CFA_XSP16, literal(-6)))
        CFI V0 load(1, XDATA, add(CFA_XSP16, literal(-7)))
        CFI VB load(1, XDATA, add(CFA_XSP16, literal(-8)))
        CFI R6 load(1, XDATA, add(CFA_XSP16, literal(-9)))
        CFI CFA_SP SP+0
        CFI CFA_XSP16 add(XSP16, 9)
        ; Saved register size: 9
        ; Auto size: 0
        MOV     A,R1
//  220   Sys_TaskID = task_id;
        MOV     DPTR,#Sys_TaskID
        MOVX    @DPTR,A
//  221 
//  222   // Device hardware initialization can be added here or in main() (Zmain.c).
//  223   // If the hardware is application specific - add it here.
//  224   // If the hardware is other parts of the device add it in main().
//  225 
//  226   // Broadcast_DstAddr.addrMode = (afAddrMode_t)AddrBroadcast;
//  227   // Broadcast_DstAddr.endPoint = SYS_ENDPOINT;
//  228   // Broadcast_DstAddr.addr.shortAddr = 0xFFFF;
//  229 
//  230   // Fill out the endpoint description.
//  231   Sys_epDesc.endPoint = SYS_ENDPOINT;
        MOV     DPTR,#Sys_epDesc
        MOV     A,#0x2
        MOVX    @DPTR,A
//  232   Sys_epDesc.task_id = &Sys_TaskID;
        INC     DPTR
        MOV     A,#Sys_TaskID & 0xff
        MOVX    @DPTR,A
        INC     DPTR
        MOV     A,#(Sys_TaskID >> 8) & 0xff
        MOVX    @DPTR,A
//  233   Sys_epDesc.simpleDesc
//  234             = (SimpleDescriptionFormat_t *)&Sys_SimpleDesc;
        INC     DPTR
        MOV     A,#Sys_SimpleDesc & 0xff
        MOVX    @DPTR,A
        INC     DPTR
        MOV     A,#(Sys_SimpleDesc >> 8) & 0xff
        MOVX    @DPTR,A
//  235   Sys_epDesc.latencyReq = noLatencyReqs;
        INC     DPTR
        CLR     A
        MOVX    @DPTR,A
//  236 
//  237   // Register the endpoint description with the AF
//  238   afRegister( &Sys_epDesc );
        ; Setup parameters for call to function afRegister
        MOV     R2,#Sys_epDesc & 0xff
        MOV     R3,#(Sys_epDesc >> 8) & 0xff
        LCALL   ??afRegister?relay
//  239 
//  240   type_join = 0;
        MOV     DPTR,#type_join
        CLR     A
        MOVX    @DPTR,A
//  241   // Set device as Enddevice
//  242   //zgDeviceLogicalType = ZG_DEVICETYPE_ENDDEVICE;
//  243 
//  244   // To Update the display...
//  245   HalLedSet ( HAL_LED_1, HAL_LED_MODE_ON );
        ; Setup parameters for call to function HalLedSet
        LCALL   ?Subroutine3 & 0xFFFF
        CFI EndBlock cfiBlock0
//  246   HalLedSet ( HAL_LED_2, HAL_LED_MODE_ON );
//  247   HalLedSet ( HAL_LED_3, HAL_LED_MODE_ON );
//  248 }
??CrossCallReturnLabel_2:
        REQUIRE ?Subroutine0
        ; // Fall through to label ?Subroutine0

        RSEG BANKED_CODE:CODE:NOROOT(0)
?Subroutine0:
        CFI Block cfiBlock1 Using cfiCommon0
        CFI NoFunction
        CFI CFA_SP SP+0
        CFI CFA_XSP16 add(XSP16, 9)
        CFI VB load(1, XDATA, add(CFA_XSP16, literal(-8)))
        CFI DPL0 load(1, XDATA, add(CFA_XSP16, literal(-2)))
        CFI DPH0 load(1, XDATA, add(CFA_XSP16, literal(-1)))
        CFI R6 load(1, XDATA, add(CFA_XSP16, literal(-9)))
        CFI R7 load(1, XDATA, add(CFA_XSP16, literal(-6)))
        CFI V0 load(1, XDATA, add(CFA_XSP16, literal(-7)))
        CFI ?BRET_EXT load(1, XDATA, add(CFA_XSP16, literal(-3)))
        CFI ?RET_HIGH load(1, XDATA, add(CFA_XSP16, literal(-4)))
        CFI ?RET_LOW load(1, XDATA, add(CFA_XSP16, literal(-5)))
        MOV     R7,#0x1
        LJMP    ?BANKED_LEAVE_XDATA
        CFI EndBlock cfiBlock1
//  249 
//  250 /*********************************************************************
//  251  * @fn      Sys_ProcessEvent
//  252  *
//  253  * @brief   Generic Application Task event processor.  This function
//  254  *          is called to process all events for the task.  Events
//  255  *          include timers, messages and any other user defined events.
//  256  *
//  257  * @param   task_id  - The OSAL assigned task ID.
//  258  * @param   events - events to process.  This is a bit map and can
//  259  *                   contain more than one event.
//  260  *
//  261  * @return  none
//  262  */

        RSEG BANKED_CODE:CODE:NOROOT(0)
//  263 UINT16 Sys_ProcessEvent( byte task_id, UINT16 events )
Sys_ProcessEvent:
        CFI Block cfiBlock2 Using cfiCommon0
        CFI Function Sys_ProcessEvent
        CODE
//  264 {
        FUNCALL Sys_ProcessEvent, osal_msg_receive
        LOCFRAME ISTACK, 0, STACK
        LOCFRAME PSTACK, 0, STACK
        LOCFRAME XSTACK, 14, STACK
        LOCFRAME IOVERLAY, 0, STATIC
        LOCFRAME DOVERLAY, 0, STATIC
        ARGFRAME ISTACK, 0, STACK
        ARGFRAME PSTACK, 0, STACK
        ARGFRAME XSTACK, 14, STACK
        ARGFRAME IOVERLAY, 0, STATIC
        ARGFRAME DOVERLAY, 0, STATIC
        FUNCALL Sys_ProcessEvent, osal_msg_deallocate
        LOCFRAME ISTACK, 0, STACK
        LOCFRAME PSTACK, 0, STACK
        LOCFRAME XSTACK, 14, STACK
        LOCFRAME IOVERLAY, 0, STATIC
        LOCFRAME DOVERLAY, 0, STATIC
        ARGFRAME ISTACK, 0, STACK
        ARGFRAME PSTACK, 0, STACK
        ARGFRAME XSTACK, 14, STACK
        ARGFRAME IOVERLAY, 0, STATIC
        ARGFRAME DOVERLAY, 0, STATIC
        FUNCALL Sys_ProcessEvent, osal_msg_receive
        LOCFRAME ISTACK, 0, STACK
        LOCFRAME PSTACK, 0, STACK
        LOCFRAME XSTACK, 14, STACK
        LOCFRAME IOVERLAY, 0, STATIC
        LOCFRAME DOVERLAY, 0, STATIC
        ARGFRAME ISTACK, 0, STACK
        ARGFRAME PSTACK, 0, STACK
        ARGFRAME XSTACK, 14, STACK
        ARGFRAME IOVERLAY, 0, STATIC
        ARGFRAME DOVERLAY, 0, STATIC
        FUNCALL Sys_ProcessEvent, Sys_MessageMSGCB
        LOCFRAME ISTACK, 0, STACK
        LOCFRAME PSTACK, 0, STACK
        LOCFRAME XSTACK, 14, STACK
        LOCFRAME IOVERLAY, 0, STATIC
        LOCFRAME DOVERLAY, 0, STATIC
        ARGFRAME ISTACK, 0, STACK
        ARGFRAME PSTACK, 0, STACK
        ARGFRAME XSTACK, 14, STACK
        ARGFRAME IOVERLAY, 0, STATIC
        ARGFRAME DOVERLAY, 0, STATIC
        FUNCALL Sys_ProcessEvent, HalLedSet
        LOCFRAME ISTACK, 0, STACK
        LOCFRAME PSTACK, 0, STACK
        LOCFRAME XSTACK, 14, STACK
        LOCFRAME IOVERLAY, 0, STATIC
        LOCFRAME DOVERLAY, 0, STATIC
        ARGFRAME ISTACK, 0, STACK
        ARGFRAME PSTACK, 0, STACK
        ARGFRAME XSTACK, 14, STACK
        ARGFRAME IOVERLAY, 0, STATIC
        ARGFRAME DOVERLAY, 0, STATIC
        FUNCALL Sys_ProcessEvent, HalLedSet
        LOCFRAME ISTACK, 0, STACK
        LOCFRAME PSTACK, 0, STACK
        LOCFRAME XSTACK, 14, STACK
        LOCFRAME IOVERLAY, 0, STATIC
        LOCFRAME DOVERLAY, 0, STATIC
        ARGFRAME ISTACK, 0, STACK
        ARGFRAME PSTACK, 0, STACK
        ARGFRAME XSTACK, 14, STACK
        ARGFRAME IOVERLAY, 0, STATIC
        ARGFRAME DOVERLAY, 0, STATIC
        FUNCALL Sys_ProcessEvent, HalLedSet
        LOCFRAME ISTACK, 0, STACK
        LOCFRAME PSTACK, 0, STACK
        LOCFRAME XSTACK, 14, STACK
        LOCFRAME IOVERLAY, 0, STATIC
        LOCFRAME DOVERLAY, 0, STATIC
        ARGFRAME ISTACK, 0, STACK
        ARGFRAME PSTACK, 0, STACK
        ARGFRAME XSTACK, 14, STACK
        ARGFRAME IOVERLAY, 0, STATIC
        ARGFRAME DOVERLAY, 0, STATIC
        FUNCALL Sys_ProcessEvent, HalLedSet
        LOCFRAME ISTACK, 0, STACK
        LOCFRAME PSTACK, 0, STACK
        LOCFRAME XSTACK, 14, STACK
        LOCFRAME IOVERLAY, 0, STATIC
        LOCFRAME DOVERLAY, 0, STATIC
        ARGFRAME ISTACK, 0, STACK
        ARGFRAME PSTACK, 0, STACK
        ARGFRAME XSTACK, 14, STACK
        ARGFRAME IOVERLAY, 0, STATIC
        ARGFRAME DOVERLAY, 0, STATIC
        MOV     A,#-0xe
        LCALL   ?BANKED_ENTER_XDATA
        CFI DPH0 load(1, XDATA, add(CFA_XSP16, literal(-1)))
        CFI DPL0 load(1, XDATA, add(CFA_XSP16, literal(-2)))
        CFI ?BRET_EXT load(1, XDATA, add(CFA_XSP16, literal(-3)))
        CFI ?RET_HIGH load(1, XDATA, add(CFA_XSP16, literal(-4)))
        CFI ?RET_LOW load(1, XDATA, add(CFA_XSP16, literal(-5)))
        CFI R7 load(1, XDATA, add(CFA_XSP16, literal(-6)))
        CFI V5 load(1, XDATA, add(CFA_XSP16, literal(-7)))
        CFI V4 load(1, XDATA, add(CFA_XSP16, literal(-8)))
        CFI V3 load(1, XDATA, add(CFA_XSP16, literal(-9)))
        CFI V2 load(1, XDATA, add(CFA_XSP16, literal(-10)))
        CFI V1 load(1, XDATA, add(CFA_XSP16, literal(-11)))
        CFI V0 load(1, XDATA, add(CFA_XSP16, literal(-12)))
        CFI VB load(1, XDATA, add(CFA_XSP16, literal(-13)))
        CFI R6 load(1, XDATA, add(CFA_XSP16, literal(-14)))
        CFI CFA_SP SP+0
        CFI CFA_XSP16 add(XSP16, 14)
        ; Saved register size: 14
        ; Auto size: 0
        MOV     ?V0 + 2,R1
        MOV     A,R2
        MOV     R6,A
        MOV     A,R3
        MOV     R7,A
//  265 	afIncomingMSGPacket_t *MSGpkt = NULL;
//  266 	afDataConfirm_t *afDataConfirm;
//  267 
//  268 	// Data Confirmation message fields
//  269 	byte sentEP;
//  270 	ZStatus_t sentStatus;
//  271 	byte sentTransID;       // This should match the value sent
//  272 
//  273 	if ( events & SYS_EVENT_MSG )
        ANL     A,#0x80
        JZ      ??Sys_ProcessEvent_0
//  274 	{
//  275 		MSGpkt = (afIncomingMSGPacket_t *)osal_msg_receive( task_id );
        ; Setup parameters for call to function osal_msg_receive
        SJMP    ??Sys_ProcessEvent_1
//  276 		while ( MSGpkt )
//  277 		{
//  278 			switch ( MSGpkt->hdr.event )
//  279 			{
//  280 				case AF_DATA_CONFIRM_CMD: // 判断信息是否发送成功
//  281 					// This message is received as a confirmation of a data packet sent.
//  282 					// The status is of ZStatus_t type [defined in ZComDef.h]
//  283 					// The message fields are defined in AF.h
//  284 					afDataConfirm = (afDataConfirm_t *)MSGpkt;
//  285 					sentEP = afDataConfirm->endpoint;
//  286 					sentStatus = afDataConfirm->hdr.status;
//  287 					sentTransID = afDataConfirm->transID;
//  288 					(void)sentEP;
//  289 					(void)sentTransID;
//  290 
//  291 					// Action taken when confirmation is received.
//  292 					if ( sentStatus != ZSuccess )
//  293 					{
//  294 						// The data wasn't delivered -- Do something
//  295 					}
//  296 					break;
//  297 
//  298 				case AF_INCOMING_MSG_CMD:   // 接收信息
//  299 					Sys_MessageMSGCB( MSGpkt, task_id );
//  300 					break;
//  301 
//  302 				case ZDO_STATE_CHANGE:      // 设备网络状态改变
//  303 					Sys_NwkState = (devStates_t)(MSGpkt->hdr.status);
??Sys_ProcessEvent_2:
        INC     DPTR
        MOVX    A,@DPTR
        MOV     DPTR,#Sys_NwkState
        MOVX    @DPTR,A
//  304 					if ( (Sys_NwkState == DEV_ROUTER)
//  305 							|| (Sys_NwkState == DEV_END_DEVICE) )
//  306 					{
//  307 						;
//  308 					}
//  309 					break;
//  310                                 case SYSCB_DATA_CNF:        // Data sent CoNFirm CallBack function
//  311                                       Sys_SendDataConfirm( (uint8)((sys_CbackEvent_t *)MSGpkt)->data,
//  312                                                                 ((sys_CbackEvent_t *)MSGpkt)->hdr.status );
//  313                                       break;
//  314                   
//  315 				default:
//  316 					break;
//  317 			}
//  318 
//  319 			// Release the memory
//  320 			osal_msg_deallocate( (uint8 *)MSGpkt );
??Sys_ProcessEvent_3:
        ; Setup parameters for call to function osal_msg_deallocate
        MOV     R2,?V0 + 0
        MOV     R3,?V0 + 1
        LCALL   ??osal_msg_deallocate?relay
//  321 
//  322 			// Next
//  323 			MSGpkt = (afIncomingMSGPacket_t *)osal_msg_receive( Sys_TaskID );
        ; Setup parameters for call to function osal_msg_receive
        MOV     DPTR,#Sys_TaskID
        MOVX    A,@DPTR
        MOV     R1,A
??Sys_ProcessEvent_1:
        LCALL   ??osal_msg_receive?relay
        MOV     ?V0 + 0,R2
        MOV     ?V0 + 1,R3
        MOV     A,?V0 + 0
        ORL     A,?V0 + 1
        JZ      ??Sys_ProcessEvent_4
        MOV     DPL,?V0 + 0
        MOV     DPH,?V0 + 1
        MOVX    A,@DPTR
        ADD     A,#-0x1a
        JZ      ??Sys_ProcessEvent_5
        ADD     A,#0x49
        JZ      ??Sys_ProcessEvent_2
        SJMP    ??Sys_ProcessEvent_3
??Sys_ProcessEvent_5:
        ; Setup parameters for call to function Sys_MessageMSGCB
        MOV     R1,?V0 + 2
        MOV     R2,?V0 + 0
        MOV     R3,?V0 + 1
        LCALL   ??Sys_MessageMSGCB?relay
        SJMP    ??Sys_ProcessEvent_3
//  324 		}
//  325 	  // return unprocessed events
//  326 		return (events ^ SYS_EVENT_MSG);
??Sys_ProcessEvent_4:
        MOV     A,R6
        MOV     R2,A
        MOV     A,R7
        XRL     A,#0x80
??Sys_ProcessEvent_6:
        MOV     R3,A
        SJMP    ??Sys_ProcessEvent_7
//  327 	}
//  328 	if(events & CLOSE_LED3_EVT)
??Sys_ProcessEvent_0:
        MOV     A,R6
        ANL     A,#0x4
        JZ      ??Sys_ProcessEvent_8
//  329 	{
//  330 		HalLedSet(HAL_LED_3, HAL_LED_MODE_ON);  //Close LED3
        ; Setup parameters for call to function HalLedSet
        MOV     R2,#0x1
        MOV     R1,#0x4
        LCALL   ??HalLedSet?relay
//  331 		return (events ^ CLOSE_LED3_EVT);
        MOV     A,R6
        XRL     A,#0x4
??Sys_ProcessEvent_9:
        MOV     R2,A
        MOV     A,R7
        SJMP    ??Sys_ProcessEvent_6
//  332 	}
//  333 
//  334 	if(events & CLOSE_LIGHT_EVT)
??Sys_ProcessEvent_8:
        MOV     A,R6
        ANL     A,#0x8
        JZ      ??Sys_ProcessEvent_10
//  335 	{
//  336             HalLedSet ( HAL_LED_1, HAL_LED_MODE_ON );
        ; Setup parameters for call to function HalLedSet
        LCALL   ?Subroutine3 & 0xFFFF
//  337             HalLedSet ( HAL_LED_2, HAL_LED_MODE_ON );
//  338             HalLedSet ( HAL_LED_3, HAL_LED_MODE_ON );
//  339 	    return (events ^ CLOSE_LIGHT_EVT);
??CrossCallReturnLabel_3:
        MOV     A,R6
        XRL     A,#0x8
        SJMP    ??Sys_ProcessEvent_9
//  340 	}
//  341 	// Discard unknown events
//  342 	return 0;
??Sys_ProcessEvent_10:
        MOV     R2,#0x0
        MOV     R3,#0x0
??Sys_ProcessEvent_7:
        MOV     R7,#0x6
        LJMP    ?BANKED_LEAVE_XDATA
        CFI EndBlock cfiBlock2
//  343 }

        RSEG BANKED_CODE:CODE:NOROOT(0)
?Subroutine3:
        CFI Block cfiCond3 Using cfiCommon0
        CFI NoFunction
        CFI Conditional ??CrossCallReturnLabel_2
        CFI R6 load(1, XDATA, add(CFA_XSP16, literal(-9)))
        CFI VB load(1, XDATA, add(CFA_XSP16, literal(-8)))
        CFI V0 load(1, XDATA, add(CFA_XSP16, literal(-7)))
        CFI R7 load(1, XDATA, add(CFA_XSP16, literal(-6)))
        CFI ?RET_LOW load(1, XDATA, add(CFA_XSP16, literal(-5)))
        CFI ?RET_HIGH load(1, XDATA, add(CFA_XSP16, literal(-4)))
        CFI ?BRET_EXT load(1, XDATA, add(CFA_XSP16, literal(-3)))
        CFI DPL0 load(1, XDATA, add(CFA_XSP16, literal(-2)))
        CFI DPH0 load(1, XDATA, add(CFA_XSP16, literal(-1)))
        CFI CFA_SP SP+0
        CFI CFA_XSP16 add(XSP16, 9)
        CFI Block cfiCond4 Using cfiCommon0
        CFI (cfiCond4) NoFunction
        CFI (cfiCond4) Conditional ??CrossCallReturnLabel_3
        CFI (cfiCond4) R6 load(1, XDATA, add(CFA_XSP16, literal(-14)))
        CFI (cfiCond4) VB load(1, XDATA, add(CFA_XSP16, literal(-13)))
        CFI (cfiCond4) V0 load(1, XDATA, add(CFA_XSP16, literal(-12)))
        CFI (cfiCond4) V1 load(1, XDATA, add(CFA_XSP16, literal(-11)))
        CFI (cfiCond4) V2 load(1, XDATA, add(CFA_XSP16, literal(-10)))
        CFI (cfiCond4) V3 load(1, XDATA, add(CFA_XSP16, literal(-9)))
        CFI (cfiCond4) V4 load(1, XDATA, add(CFA_XSP16, literal(-8)))
        CFI (cfiCond4) V5 load(1, XDATA, add(CFA_XSP16, literal(-7)))
        CFI (cfiCond4) R7 load(1, XDATA, add(CFA_XSP16, literal(-6)))
        CFI (cfiCond4) ?RET_LOW load(1, XDATA, add(CFA_XSP16, literal(-5)))
        CFI (cfiCond4) ?RET_HIGH load(1, XDATA, add(CFA_XSP16, literal(-4)))
        CFI (cfiCond4) ?BRET_EXT load(1, XDATA, add(CFA_XSP16, literal(-3)))
        CFI (cfiCond4) DPL0 load(1, XDATA, add(CFA_XSP16, literal(-2)))
        CFI (cfiCond4) DPH0 load(1, XDATA, add(CFA_XSP16, literal(-1)))
        CFI (cfiCond4) CFA_SP SP+0
        CFI (cfiCond4) CFA_XSP16 add(XSP16, 14)
        CFI Block cfiPicker5 Using cfiCommon1
        CFI (cfiPicker5) NoFunction
        CFI (cfiPicker5) Picker
        MOV     R2,#0x1
        MOV     R1,#0x1
        LCALL   ??HalLedSet?relay
        ; Setup parameters for call to function HalLedSet
        ; Setup parameters for call to function HalLedSet
        MOV     R2,#0x1
        MOV     R1,#0x2
        LCALL   ??HalLedSet?relay
        ; Setup parameters for call to function HalLedSet
        ; Setup parameters for call to function HalLedSet
        MOV     R2,#0x1
        MOV     R1,#0x4
        LCALL   ??HalLedSet?relay
        RET
        CFI EndBlock cfiCond3
        CFI EndBlock cfiCond4
        CFI EndBlock cfiPicker5
//  344 
//  345 
//  346 /*********************************************************************
//  347  * LOCAL FUNCTIONS
//  348  */
//  349 
//  350 /*********************************************************************
//  351  * @fn      Type2EP
//  352  *
//  353  * @brief   query for device type's corresponding endpoint number
//  354  *
//  355  * @param   type : which device type want to bind
//  356  *
//  357  * @return  Corresponding Endpoint number
//  358  */

        RSEG BANKED_CODE:CODE:NOROOT(0)
//  359 uint8 Type2EP(uint8 type)
Type2EP:
        CFI Block cfiBlock6 Using cfiCommon0
        CFI Function Type2EP
        CODE
//  360 {
        PUSH    DPL
        CFI DPL0 Frame(CFA_SP, 4)
        CFI CFA_SP SP+-4
        PUSH    DPH
        CFI DPH0 Frame(CFA_SP, 5)
        CFI CFA_SP SP+-5
        ; Saved register size: 2
        ; Auto size: 0
        MOV     A,R1
//  361     switch(type)
        DEC     A
        JZ      ??Type2EP_0
        DEC     A
        JZ      ??Type2EP_1
        ADD     A,#-0x2
        JZ      ??Type2EP_2
        SJMP    ??Type2EP_3
//  362     {
//  363         case KEY_TYPE_ID:
//  364           {
//  365                 // 10~59
//  366                 if(keyCnt == KEY_NUM_MAX)
??Type2EP_0:
        MOV     DPTR,#keyCnt
        MOVX    A,@DPTR
        XRL     A,#0xa
        JNZ     ??Type2EP_4
//  367                 {
//  368                     return 0;     // error
??Type2EP_3:
        MOV     R1,#0x0
        SJMP    ??Type2EP_5
//  369                 }
//  370                 keyCnt++;
??Type2EP_4:
        MOVX    A,@DPTR
        INC     A
        MOVX    @DPTR,A
//  371                 return (KEY_ENDPOINT+keyCnt-1);
        ADD     A,#0x9
        SJMP    ??Type2EP_6
//  372           }
//  373         case SWITCH_TYPE_ID:
//  374           {
//  375                 // 60~109
//  376                 if(swCnt == SWITCH_NUM_MAX)
??Type2EP_2:
        MOV     DPTR,#swCnt
        MOVX    A,@DPTR
        XRL     A,#0x5
        JZ      ??Type2EP_3
//  377                 {
//  378                     return 0;     // error
//  379                 }
//  380                 swCnt++;
        MOVX    A,@DPTR
        INC     A
        MOVX    @DPTR,A
//  381                 return (SWITCH_ENDPOINT+swCnt-1);
        ADD     A,#0x3b
        SJMP    ??Type2EP_6
//  382           }
//  383         case MOTOR_TYPE_ID:
//  384           {
//  385                 // 110~119
//  386                 if(motorCnt == MOTOR_NUM_MAX)
??Type2EP_1:
        MOV     DPTR,#motorCnt
        MOVX    A,@DPTR
        XRL     A,#0x2
        JZ      ??Type2EP_3
//  387                 {
//  388                   return 0;     // error
//  389                 }
//  390                 motorCnt++;
        MOVX    A,@DPTR
        INC     A
        MOVX    @DPTR,A
//  391                 return (MOTOR_ENDPOINT+motorCnt-1);
        ADD     A,#0x6d
??Type2EP_6:
        MOV     R1,A
//  392           }
//  393     }
??Type2EP_5:
        LJMP    ?Subroutine1 & 0xFFFF
        CFI EndBlock cfiBlock6
//  394     return 0;
//  395 }
//  396 
//  397 
//  398 /*********************************************************************
//  399  * @fn      Sys_MessageMSGCB
//  400  *
//  401  * @brief   Data message processor callback.  This function processes
//  402  *          any incoming data - probably from other devices.  So, based
//  403  *          on cluster ID, perform the intended action.
//  404  *
//  405  * @param   none
//  406  *
//  407  * @return  none
//  408  */

        RSEG BANKED_CODE:CODE:NOROOT(0)
//  409 void Sys_MessageMSGCB( afIncomingMSGPacket_t *pkt, byte task_id )
Sys_MessageMSGCB:
        CFI Block cfiBlock7 Using cfiCommon0
        CFI Function Sys_MessageMSGCB
        CODE
//  410 {
        FUNCALL Sys_MessageMSGCB, osal_memcpy
        LOCFRAME ISTACK, 0, STACK
        LOCFRAME PSTACK, 0, STACK
        LOCFRAME XSTACK, 18, STACK
        LOCFRAME IOVERLAY, 0, STATIC
        LOCFRAME DOVERLAY, 0, STATIC
        ARGFRAME ISTACK, 0, STACK
        ARGFRAME PSTACK, 0, STACK
        ARGFRAME XSTACK, 18, STACK
        ARGFRAME IOVERLAY, 0, STATIC
        ARGFRAME DOVERLAY, 0, STATIC
        FUNCALL Sys_MessageMSGCB, osal_memcmp
        LOCFRAME ISTACK, 0, STACK
        LOCFRAME PSTACK, 0, STACK
        LOCFRAME XSTACK, 18, STACK
        LOCFRAME IOVERLAY, 0, STATIC
        LOCFRAME DOVERLAY, 0, STATIC
        ARGFRAME ISTACK, 0, STACK
        ARGFRAME PSTACK, 0, STACK
        ARGFRAME XSTACK, 18, STACK
        ARGFRAME IOVERLAY, 0, STATIC
        ARGFRAME DOVERLAY, 0, STATIC
        FUNCALL Sys_MessageMSGCB, Type2EP
        LOCFRAME ISTACK, 0, STACK
        LOCFRAME PSTACK, 0, STACK
        LOCFRAME XSTACK, 15, STACK
        LOCFRAME IOVERLAY, 0, STATIC
        LOCFRAME DOVERLAY, 0, STATIC
        ARGFRAME ISTACK, 0, STACK
        ARGFRAME PSTACK, 0, STACK
        ARGFRAME XSTACK, 15, STACK
        ARGFRAME IOVERLAY, 0, STATIC
        ARGFRAME DOVERLAY, 0, STATIC
        FUNCALL Sys_MessageMSGCB, HalLedSet
        LOCFRAME ISTACK, 0, STACK
        LOCFRAME PSTACK, 0, STACK
        LOCFRAME XSTACK, 15, STACK
        LOCFRAME IOVERLAY, 0, STATIC
        LOCFRAME DOVERLAY, 0, STATIC
        ARGFRAME ISTACK, 0, STACK
        ARGFRAME PSTACK, 0, STACK
        ARGFRAME XSTACK, 15, STACK
        ARGFRAME IOVERLAY, 0, STATIC
        ARGFRAME DOVERLAY, 0, STATIC
        FUNCALL Sys_MessageMSGCB, osal_start_timerEx
        LOCFRAME ISTACK, 0, STACK
        LOCFRAME PSTACK, 0, STACK
        LOCFRAME XSTACK, 15, STACK
        LOCFRAME IOVERLAY, 0, STATIC
        LOCFRAME DOVERLAY, 0, STATIC
        ARGFRAME ISTACK, 0, STACK
        ARGFRAME PSTACK, 0, STACK
        ARGFRAME XSTACK, 15, STACK
        ARGFRAME IOVERLAY, 0, STATIC
        ARGFRAME DOVERLAY, 0, STATIC
        MOV     A,#-0xb
        LCALL   ?BANKED_ENTER_XDATA
        CFI DPH0 load(1, XDATA, add(CFA_XSP16, literal(-1)))
        CFI DPL0 load(1, XDATA, add(CFA_XSP16, literal(-2)))
        CFI ?BRET_EXT load(1, XDATA, add(CFA_XSP16, literal(-3)))
        CFI ?RET_HIGH load(1, XDATA, add(CFA_XSP16, literal(-4)))
        CFI ?RET_LOW load(1, XDATA, add(CFA_XSP16, literal(-5)))
        CFI R7 load(1, XDATA, add(CFA_XSP16, literal(-6)))
        CFI V2 load(1, XDATA, add(CFA_XSP16, literal(-7)))
        CFI V1 load(1, XDATA, add(CFA_XSP16, literal(-8)))
        CFI V0 load(1, XDATA, add(CFA_XSP16, literal(-9)))
        CFI VB load(1, XDATA, add(CFA_XSP16, literal(-10)))
        CFI R6 load(1, XDATA, add(CFA_XSP16, literal(-11)))
        CFI CFA_SP SP+0
        CFI CFA_XSP16 add(XSP16, 11)
        ; Saved register size: 11
        ; Auto size: 4
        MOV     A,#-0x4
        LCALL   ?ALLOC_XSTACK8
        CFI CFA_XSP16 add(XSP16, 15)
        MOV     A,R2
        MOV     R6,A
        MOV     A,R3
        MOV     R7,A
//  411 	switch ( pkt->clusterId )
        MOV     DPL,R6
        MOV     DPH,R7
        INC     DPTR
        INC     DPTR
        INC     DPTR
        INC     DPTR
        MOVX    A,@DPTR
        XRL     A,#0x1
        JNZ     ??Sys_MessageMSGCB_0
        INC     DPTR
        MOVX    A,@DPTR
??Sys_MessageMSGCB_0:
        JNZ     ??Sys_MessageMSGCB_1
//  412 	{
//  413 		case SYS_CLUSTERID:
//  414                 {
//  415 			char flag[4];
//  416 			osal_memcpy( flag, pkt->cmd.Data, 4 );
        ; Setup parameters for call to function osal_memcpy
        LCALL   ?Subroutine4 & 0xFFFF
??CrossCallReturnLabel_4:
        MOV     ?V0 + 0,A
        INC     DPTR
        MOVX    A,@DPTR
        MOV     ?V0 + 1,A
        MOV     ?V0 + 2,#0x0
        MOV     R0,#?V0 + 0
        LCALL   ?PUSH_XSTACK_I_THREE
        CFI CFA_XSP16 add(XSP16, 18)
        MOV     R4,#0x4
        MOV     R5,#0x0
        MOV     A,#0x3
        LCALL   ?XSTACK_DISP0_8
        MOV     R2,DPL
        MOV     R3,DPH
        LCALL   ??osal_memcpy?relay
        MOV     A,#0x3
        LCALL   ?DEALLOC_XSTACK8
        CFI CFA_XSP16 add(XSP16, 15)
//  417 			if( osal_memcmp( flag, "bind", 4) )
        ; Setup parameters for call to function osal_memcmp
        MOV     ?V0 + 0,#`?<Constant "bind">` & 0xff
        MOV     ?V0 + 1,#(`?<Constant "bind">` >> 8) & 0xff
        MOV     R0,#?V0 + 0
        LCALL   ?PUSH_XSTACK_I_THREE
        CFI CFA_XSP16 add(XSP16, 18)
        MOV     R4,#0x4
        MOV     R5,#0x0
        MOV     A,#0x3
        LCALL   ?XSTACK_DISP0_8
        MOV     R1,DPL
        MOV     R2,DPH
        MOV     R3,#0x0
        LCALL   ??osal_memcmp?relay
        MOV     A,#0x3
        LCALL   ?DEALLOC_XSTACK8
        CFI CFA_XSP16 add(XSP16, 15)
        MOV     A,R1
        JZ      ??Sys_MessageMSGCB_1
//  418 			{
//  419 				if( pkt->cmd.Data[4] & MY_DEVICE )
//  420 				{
//  421                                         type_join = Type2EP(pkt->cmd.Data[4]);  // query for this type's corresponding endpoint number
        ; Setup parameters for call to function Type2EP
        LCALL   ?Subroutine4 & 0xFFFF
??CrossCallReturnLabel_5:
        MOV     R0,A
        INC     DPTR
        MOVX    A,@DPTR
        MOV     DPH,A
        MOV     DPL,R0
        INC     DPTR
        INC     DPTR
        INC     DPTR
        INC     DPTR
        MOVX    A,@DPTR
        MOV     R1,A
        LCALL   ??Type2EP?relay
        MOV     A,R1
        MOV     DPTR,#type_join
        MOVX    @DPTR,A
//  422                                         if(!type_join)
        JZ      ??Sys_MessageMSGCB_1
//  423                                         {
//  424                                             // faild to add endpoint
//  425                                         }
//  426                                         else
//  427                                         {
//  428                                             HalLedSet ( HAL_LED_3, HAL_LED_MODE_OFF );  // OPEN LED3
        ; Setup parameters for call to function HalLedSet
        MOV     R2,#0x0
        LCALL   ?Subroutine2 & 0xFFFF
//  429                                             osal_start_timerEx(Sys_TaskID, CLOSE_LED3_EVT, 5000);    // Close LED3 after 5s
//  430        					    keys_shift = 1;
??CrossCallReturnLabel_0:
        MOV     DPTR,#keys_shift
        MOV     A,#0x1
        MOVX    @DPTR,A
//  431                                         }
//  432 				}
//  433 			}
//  434 #if defined( WIN32 )
//  435 			WPRINTSTR( pkt->cmd.Data );
//  436 #endif
//  437 			break;
//  438                 }
//  439 	}
//  440 }
??Sys_MessageMSGCB_1:
        MOV     A,#0x4
        LCALL   ?DEALLOC_XSTACK8
        CFI CFA_XSP16 add(XSP16, 11)
        MOV     R7,#0x3
        LJMP    ?BANKED_LEAVE_XDATA
        CFI EndBlock cfiBlock7

        RSEG BANKED_CODE:CODE:NOROOT(0)
?Subroutine4:
        CFI Block cfiCond8 Using cfiCommon0
        CFI NoFunction
        CFI Conditional ??CrossCallReturnLabel_4
        CFI R6 load(1, XDATA, add(CFA_XSP16, literal(-11)))
        CFI VB load(1, XDATA, add(CFA_XSP16, literal(-10)))
        CFI V0 load(1, XDATA, add(CFA_XSP16, literal(-9)))
        CFI V1 load(1, XDATA, add(CFA_XSP16, literal(-8)))
        CFI V2 load(1, XDATA, add(CFA_XSP16, literal(-7)))
        CFI R7 load(1, XDATA, add(CFA_XSP16, literal(-6)))
        CFI ?RET_LOW load(1, XDATA, add(CFA_XSP16, literal(-5)))
        CFI ?RET_HIGH load(1, XDATA, add(CFA_XSP16, literal(-4)))
        CFI ?BRET_EXT load(1, XDATA, add(CFA_XSP16, literal(-3)))
        CFI DPL0 load(1, XDATA, add(CFA_XSP16, literal(-2)))
        CFI DPH0 load(1, XDATA, add(CFA_XSP16, literal(-1)))
        CFI CFA_SP SP+0
        CFI CFA_XSP16 add(XSP16, 15)
        CFI Block cfiCond9 Using cfiCommon0
        CFI (cfiCond9) NoFunction
        CFI (cfiCond9) Conditional ??CrossCallReturnLabel_5
        CFI (cfiCond9) R6 load(1, XDATA, add(CFA_XSP16, literal(-11)))
        CFI (cfiCond9) VB load(1, XDATA, add(CFA_XSP16, literal(-10)))
        CFI (cfiCond9) V0 load(1, XDATA, add(CFA_XSP16, literal(-9)))
        CFI (cfiCond9) V1 load(1, XDATA, add(CFA_XSP16, literal(-8)))
        CFI (cfiCond9) V2 load(1, XDATA, add(CFA_XSP16, literal(-7)))
        CFI (cfiCond9) R7 load(1, XDATA, add(CFA_XSP16, literal(-6)))
        CFI (cfiCond9) ?RET_LOW load(1, XDATA, add(CFA_XSP16, literal(-5)))
        CFI (cfiCond9) ?RET_HIGH load(1, XDATA, add(CFA_XSP16, literal(-4)))
        CFI (cfiCond9) ?BRET_EXT load(1, XDATA, add(CFA_XSP16, literal(-3)))
        CFI (cfiCond9) DPL0 load(1, XDATA, add(CFA_XSP16, literal(-2)))
        CFI (cfiCond9) DPH0 load(1, XDATA, add(CFA_XSP16, literal(-1)))
        CFI (cfiCond9) CFA_SP SP+0
        CFI (cfiCond9) CFA_XSP16 add(XSP16, 15)
        CFI Block cfiPicker10 Using cfiCommon1
        CFI (cfiPicker10) NoFunction
        CFI (cfiPicker10) Picker
        MOV     A,R6
        ADD     A,#0x22
        MOV     DPL,A
        MOV     A,R7
        ADDC    A,#0x0
        MOV     DPH,A
        MOVX    A,@DPTR
        RET
        CFI EndBlock cfiCond8
        CFI EndBlock cfiCond9
        CFI EndBlock cfiPicker10
//  441 
//  442 /******************************************************************************
//  443  * @fn          Sys_AllowBind
//  444  *
//  445  * @brief       The zb_AllowBind function puts the device into the
//  446  *              Allow Binding Mode for a given period of time.  A peer device
//  447  *              can establish a binding to a device in the Allow Binding Mode
//  448  *              by calling zb_BindDevice with a destination address of NULL
//  449  *
//  450  * @param       timeout - The number of seconds to remain in the allow binding
//  451  *                        mode.  Valid values range from 1 through 65.
//  452  *                        If 0, the Allow Bind mode will be set false without TO
//  453  *                        If greater than 64, the Allow Bind mode will be true
//  454  *
//  455  * @return      ZB_SUCCESS if the device entered the allow bind mode, else
//  456  *              an error code.
//  457  */
//  458 

        RSEG BANKED_CODE:CODE:NOROOT(0)
//  459 void Sys_AllowBind ( uint8 timeout )
Sys_AllowBind:
        CFI Block cfiBlock11 Using cfiCommon0
        CFI Function Sys_AllowBind
        CODE
//  460 {
        FUNCALL Sys_AllowBind, afSetMatch
        LOCFRAME ISTACK, 0, STACK
        LOCFRAME PSTACK, 0, STACK
        LOCFRAME XSTACK, 9, STACK
        LOCFRAME IOVERLAY, 0, STATIC
        LOCFRAME DOVERLAY, 0, STATIC
        ARGFRAME ISTACK, 0, STACK
        ARGFRAME PSTACK, 0, STACK
        ARGFRAME XSTACK, 9, STACK
        ARGFRAME IOVERLAY, 0, STATIC
        ARGFRAME DOVERLAY, 0, STATIC
        FUNCALL Sys_AllowBind, afSetMatch
        LOCFRAME ISTACK, 0, STACK
        LOCFRAME PSTACK, 0, STACK
        LOCFRAME XSTACK, 9, STACK
        LOCFRAME IOVERLAY, 0, STATIC
        LOCFRAME DOVERLAY, 0, STATIC
        ARGFRAME ISTACK, 0, STACK
        ARGFRAME PSTACK, 0, STACK
        ARGFRAME XSTACK, 9, STACK
        ARGFRAME IOVERLAY, 0, STATIC
        ARGFRAME DOVERLAY, 0, STATIC
        FUNCALL Sys_AllowBind, HalLedSet
        LOCFRAME ISTACK, 0, STACK
        LOCFRAME PSTACK, 0, STACK
        LOCFRAME XSTACK, 9, STACK
        LOCFRAME IOVERLAY, 0, STATIC
        LOCFRAME DOVERLAY, 0, STATIC
        ARGFRAME ISTACK, 0, STACK
        ARGFRAME PSTACK, 0, STACK
        ARGFRAME XSTACK, 9, STACK
        ARGFRAME IOVERLAY, 0, STATIC
        ARGFRAME DOVERLAY, 0, STATIC
        MOV     A,#-0x9
        LCALL   ?BANKED_ENTER_XDATA
        CFI DPH0 load(1, XDATA, add(CFA_XSP16, literal(-1)))
        CFI DPL0 load(1, XDATA, add(CFA_XSP16, literal(-2)))
        CFI ?BRET_EXT load(1, XDATA, add(CFA_XSP16, literal(-3)))
        CFI ?RET_HIGH load(1, XDATA, add(CFA_XSP16, literal(-4)))
        CFI ?RET_LOW load(1, XDATA, add(CFA_XSP16, literal(-5)))
        CFI R7 load(1, XDATA, add(CFA_XSP16, literal(-6)))
        CFI V0 load(1, XDATA, add(CFA_XSP16, literal(-7)))
        CFI VB load(1, XDATA, add(CFA_XSP16, literal(-8)))
        CFI R6 load(1, XDATA, add(CFA_XSP16, literal(-9)))
        CFI CFA_SP SP+0
        CFI CFA_XSP16 add(XSP16, 9)
        ; Saved register size: 9
        ; Auto size: 0
        MOV     A,R1
        MOV     R6,A
//  461   if ( timeout == 0 )
        JNZ     ??Sys_AllowBind_0
//  462   {
//  463     afSetMatch(type_join, FALSE);
        ; Setup parameters for call to function afSetMatch
        MOV     R2,#0x0
        MOV     DPTR,#type_join
        MOVX    A,@DPTR
        MOV     R1,A
        LCALL   ??afSetMatch?relay
        SJMP    ??Sys_AllowBind_1
//  464   }
//  465   else
//  466   {
//  467     afSetMatch(type_join, TRUE);
??Sys_AllowBind_0:
        ; Setup parameters for call to function afSetMatch
        MOV     R2,#0x1
        MOV     DPTR,#type_join
        MOVX    A,@DPTR
        MOV     R1,A
        LCALL   ??afSetMatch?relay
//  468     if ( timeout != 0xFF )
        MOV     A,#-0x1
        XRL     A,R6
        JZ      ??Sys_AllowBind_1
//  469     {
//  470       if ( timeout > 64 )
//  471       {
//  472         timeout = 64;
//  473       }
//  474       HalLedSet ( HAL_LED_3, HAL_LED_MODE_ON );    // Close LED3
        ; Setup parameters for call to function HalLedSet
        MOV     R2,#0x1
        MOV     R1,#0x4
        LCALL   ??HalLedSet?relay
//  475     }
//  476   }
//  477   return;
??Sys_AllowBind_1:
        LJMP    ?Subroutine0 & 0xFFFF
        CFI EndBlock cfiBlock11
//  478 }
//  479 
//  480 /******************************************************************************
//  481  * @fn          Sys_AllowBindConfirm
//  482  *
//  483  * @brief       Indicates when another device attempted to bind to this device
//  484  *              Shut Up allowbind after 1s.
//  485  *
//  486  * @param
//  487  *
//  488  * @return      none
//  489  */

        RSEG BANKED_CODE:CODE:NOROOT(0)
//  490 void Sys_AllowBindConfirm( uint16 source )
Sys_AllowBindConfirm:
        CFI Block cfiBlock12 Using cfiCommon0
        CFI Function Sys_AllowBindConfirm
        CODE
//  491 {
        FUNCALL Sys_AllowBindConfirm, HalLedSet
        LOCFRAME ISTACK, 2, STACK
        LOCFRAME PSTACK, 0, STACK
        LOCFRAME XSTACK, 0, STACK
        LOCFRAME IOVERLAY, 0, STATIC
        LOCFRAME DOVERLAY, 0, STATIC
        ARGFRAME ISTACK, 2, STACK
        ARGFRAME PSTACK, 0, STACK
        ARGFRAME XSTACK, 0, STACK
        ARGFRAME IOVERLAY, 0, STATIC
        ARGFRAME DOVERLAY, 0, STATIC
        FUNCALL Sys_AllowBindConfirm, osal_start_timerEx
        LOCFRAME ISTACK, 2, STACK
        LOCFRAME PSTACK, 0, STACK
        LOCFRAME XSTACK, 0, STACK
        LOCFRAME IOVERLAY, 0, STATIC
        LOCFRAME DOVERLAY, 0, STATIC
        ARGFRAME ISTACK, 2, STACK
        ARGFRAME PSTACK, 0, STACK
        ARGFRAME XSTACK, 0, STACK
        ARGFRAME IOVERLAY, 0, STATIC
        ARGFRAME DOVERLAY, 0, STATIC
        PUSH    DPL
        CFI DPL0 Frame(CFA_SP, 4)
        CFI CFA_SP SP+-4
        PUSH    DPH
        CFI DPH0 Frame(CFA_SP, 5)
        CFI CFA_SP SP+-5
        ; Saved register size: 2
        ; Auto size: 0
//  492     type_join = 0;
        MOV     DPTR,#type_join
        CLR     A
        MOVX    @DPTR,A
//  493     HalLedSet ( HAL_LED_3, HAL_LED_MODE_OFF );
        ; Setup parameters for call to function HalLedSet
        MOV     R2,A
        LCALL   ?Subroutine2 & 0xFFFF
//  494     
//  495     osal_start_timerEx(Sys_TaskID, CLOSE_LED3_EVT, 5000);    // Close LED3 after 3s
//  496 }
??CrossCallReturnLabel_1:
        LJMP    ?Subroutine1 & 0xFFFF
        CFI EndBlock cfiBlock12

        RSEG BANKED_CODE:CODE:NOROOT(0)
?Subroutine2:
        CFI Block cfiCond13 Using cfiCommon0
        CFI NoFunction
        CFI Conditional ??CrossCallReturnLabel_0
        CFI R6 load(1, XDATA, add(CFA_XSP16, literal(-11)))
        CFI VB load(1, XDATA, add(CFA_XSP16, literal(-10)))
        CFI V0 load(1, XDATA, add(CFA_XSP16, literal(-9)))
        CFI V1 load(1, XDATA, add(CFA_XSP16, literal(-8)))
        CFI V2 load(1, XDATA, add(CFA_XSP16, literal(-7)))
        CFI R7 load(1, XDATA, add(CFA_XSP16, literal(-6)))
        CFI ?RET_LOW load(1, XDATA, add(CFA_XSP16, literal(-5)))
        CFI ?RET_HIGH load(1, XDATA, add(CFA_XSP16, literal(-4)))
        CFI ?BRET_EXT load(1, XDATA, add(CFA_XSP16, literal(-3)))
        CFI DPL0 load(1, XDATA, add(CFA_XSP16, literal(-2)))
        CFI DPH0 load(1, XDATA, add(CFA_XSP16, literal(-1)))
        CFI CFA_SP SP+0
        CFI CFA_XSP16 add(XSP16, 15)
        CFI Block cfiCond14 Using cfiCommon0
        CFI (cfiCond14) NoFunction
        CFI (cfiCond14) Conditional ??CrossCallReturnLabel_1
        CFI (cfiCond14) DPL0 Frame(CFA_SP, 4)
        CFI (cfiCond14) DPH0 Frame(CFA_SP, 5)
        CFI (cfiCond14) CFA_SP SP+-5
        CFI Block cfiPicker15 Using cfiCommon1
        CFI (cfiPicker15) NoFunction
        CFI (cfiPicker15) Picker
        MOV     R1,#0x4
        LCALL   ??HalLedSet?relay
        ; Setup parameters for call to function osal_start_timerEx
        ; Setup parameters for call to function osal_start_timerEx
        MOV     R4,#-0x78
        MOV     R5,#0x13
        MOV     R2,#0x4
        MOV     R3,#0x0
        MOV     DPTR,#Sys_TaskID
        MOVX    A,@DPTR
        MOV     R1,A
        LCALL   ??osal_start_timerEx?relay
        RET
        CFI EndBlock cfiCond13
        CFI EndBlock cfiCond14
        CFI EndBlock cfiPicker15
//  497 
//  498 /*********************************************************************
//  499  * @fn      Sys_SendMessage
//  500  *
//  501  * @brief   Send message.
//  502  *
//  503  * @param   none
//  504  *
//  505  * @return  none
//  506  *//*
//  507 void Sys_SendMessage( void )
//  508 {
//  509   afAddrType_t dstAddr;
//  510 
//  511   dstAddr.addr.shortAddr = 0x0000;      // Send to Coordinator
//  512   dstAddr.addrMode = (afAddrMode_t)Addr16Bit;
//  513   dstAddr.endPoint = Sys_epDesc.simpleDesc->EndPoint;
//  514   
//  515 	char theMessageData[] = "";
//  516 
//  517 	if ( AF_DataRequest( &dstAddr, &Sys_epDesc,
//  518                                              SYS_CLUSTERID,
//  519                                              (byte)osal_strlen( theMessageData ) + 1,
//  520                                              (byte *)&theMessageData,
//  521                                              &Sys_TransID,
//  522                                              AF_DISCV_ROUTE, AF_DEFAULT_RADIUS ) == afStatus_SUCCESS )
//  523 	{
//  524 		// Successfully requested to be sent.
//  525 	}
//  526 	else
//  527 	{
//  528 		// Error occurred in request to send.
//  529 	}
//  530 }
//  531 */
//  532 /******************************************************************************
//  533  * @fn          Sys_SendDataRequest
//  534  *
//  535  * @brief       The Sys_SendDataRequest function initiates transmission of data
//  536  *              to a peer device
//  537  *
//  538  * @param       destination - The destination of the data.  The destination can
//  539  *                            be one of the following:
//  540  *                            - 16-Bit short address of device [0-0xfffD]
//  541  *                            - ZB_BROADCAST_ADDR sends the data to all devices
//  542  *                              in the network.
//  543  *                            - ZB_BINDING_ADDR sends the data to a previously
//  544  *                              bound device.
//  545  *
//  546  *              commandId - The command ID to send with the message.  If the
//  547  *                          SYS_BINDING_ADDR destination is used, this parameter
//  548  *                          also indicates the binding to use.
//  549  *
//  550  *              len - The size of the pData buffer in bytes
//  551  *              handle - A handle used to identify the send data request.
//  552  *              txOptions - TRUE if requesting acknowledgement from the destination.
//  553  *              radius - The max number of hops the packet can travel through
//  554  *                       before it is dropped.
//  555  *
//  556  * @return      none
//  557  */

        RSEG BANKED_CODE:CODE:NOROOT(0)
//  558 void Sys_SendDataRequest ( uint16 destination, endPointDesc_t *epDesc, uint16 commandId, uint8 len,
Sys_SendDataRequest:
        CFI Block cfiBlock16 Using cfiCommon0
        CFI Function Sys_SendDataRequest
        CODE
//  559                           uint8 *pData, uint8 handle, uint8 txOptions, uint8 radius )
//  560 {
        FUNCALL Sys_SendDataRequest, NLME_IsAddressBroadcast
        LOCFRAME ISTACK, 0, STACK
        LOCFRAME PSTACK, 0, STACK
        LOCFRAME XSTACK, 28, STACK
        LOCFRAME IOVERLAY, 0, STATIC
        LOCFRAME DOVERLAY, 0, STATIC
        ARGFRAME ISTACK, 0, STACK
        ARGFRAME PSTACK, 0, STACK
        ARGFRAME XSTACK, 28, STACK
        ARGFRAME IOVERLAY, 0, STATIC
        ARGFRAME DOVERLAY, 0, STATIC
        FUNCALL Sys_SendDataRequest, AF_DataRequest
        LOCFRAME ISTACK, 0, STACK
        LOCFRAME PSTACK, 0, STACK
        LOCFRAME XSTACK, 37, STACK
        LOCFRAME IOVERLAY, 0, STATIC
        LOCFRAME DOVERLAY, 0, STATIC
        ARGFRAME ISTACK, 0, STACK
        ARGFRAME PSTACK, 0, STACK
        ARGFRAME XSTACK, 37, STACK
        ARGFRAME IOVERLAY, 0, STATIC
        ARGFRAME DOVERLAY, 0, STATIC
        FUNCALL Sys_SendDataRequest, Sys_SendCback
        LOCFRAME ISTACK, 0, STACK
        LOCFRAME PSTACK, 0, STACK
        LOCFRAME XSTACK, 28, STACK
        LOCFRAME IOVERLAY, 0, STATIC
        LOCFRAME DOVERLAY, 0, STATIC
        ARGFRAME ISTACK, 0, STACK
        ARGFRAME PSTACK, 0, STACK
        ARGFRAME XSTACK, 28, STACK
        ARGFRAME IOVERLAY, 0, STATIC
        ARGFRAME DOVERLAY, 0, STATIC
        MOV     A,#-0x10
        LCALL   ?BANKED_ENTER_XDATA
        CFI DPH0 load(1, XDATA, add(CFA_XSP16, literal(-1)))
        CFI DPL0 load(1, XDATA, add(CFA_XSP16, literal(-2)))
        CFI ?BRET_EXT load(1, XDATA, add(CFA_XSP16, literal(-3)))
        CFI ?RET_HIGH load(1, XDATA, add(CFA_XSP16, literal(-4)))
        CFI ?RET_LOW load(1, XDATA, add(CFA_XSP16, literal(-5)))
        CFI R7 load(1, XDATA, add(CFA_XSP16, literal(-6)))
        CFI V7 load(1, XDATA, add(CFA_XSP16, literal(-7)))
        CFI V6 load(1, XDATA, add(CFA_XSP16, literal(-8)))
        CFI V5 load(1, XDATA, add(CFA_XSP16, literal(-9)))
        CFI V4 load(1, XDATA, add(CFA_XSP16, literal(-10)))
        CFI V3 load(1, XDATA, add(CFA_XSP16, literal(-11)))
        CFI V2 load(1, XDATA, add(CFA_XSP16, literal(-12)))
        CFI V1 load(1, XDATA, add(CFA_XSP16, literal(-13)))
        CFI V0 load(1, XDATA, add(CFA_XSP16, literal(-14)))
        CFI VB load(1, XDATA, add(CFA_XSP16, literal(-15)))
        CFI R6 load(1, XDATA, add(CFA_XSP16, literal(-16)))
        CFI CFA_SP SP+0
        CFI CFA_XSP16 add(XSP16, 16)
        ; Saved register size: 16
        ; Auto size: 12
        MOV     A,#-0xc
        LCALL   ?ALLOC_XSTACK8
        CFI CFA_XSP16 add(XSP16, 28)
        MOV     A,R4
        MOV     R6,A
        MOV     A,R5
        MOV     R7,A
        MOV     ?V0 + 7,R1
        MOV     A,#0x1c
        LCALL   ?XSTACK_DISP0_8
        MOVX    A,@DPTR
        MOV     ?V0 + 2,A
        INC     DPTR
        MOVX    A,@DPTR
        MOV     ?V0 + 3,A
        MOV     A,#0x1e
        LCALL   ?XSTACK_DISP0_8
        MOVX    A,@DPTR
        MOV     ?V0 + 4,A
        INC     DPTR
        MOVX    A,@DPTR
        MOV     ?V0 + 5,A
        MOV     A,#0x21
        LCALL   ?XSTACK_DISP0_8
        MOVX    A,@DPTR
        MOV     ?V0 + 6,A
        MOV     A,#0x22
        LCALL   ?XSTACK_DISP0_8
        MOVX    A,@DPTR
        MOV     ?V0 + 0,A
//  561   afStatus_t status;
//  562   afAddrType_t dstAddr;
//  563 
//  564   txOptions |= AF_DISCV_ROUTE;
        MOV     A,?V0 + 6
        SETB    0xE0 /* A   */.5
        MOV     ?V0 + 6,A
//  565 
//  566   // Set the destination address
//  567   if (destination == SYS_BINDING_ADDR)
        MOV     A,#-0x2
        XRL     A,R2
        JNZ     ??Sys_SendDataRequest_0
        MOV     A,#-0x1
        XRL     A,R3
??Sys_SendDataRequest_0:
        JNZ     ??Sys_SendDataRequest_1
//  568   {
//  569     // Binding
//  570     dstAddr.addrMode = afAddrNotPresent;
        MOV     A,#0x8
        LCALL   ?XSTACK_DISP0_8
        CLR     A
        MOVX    @DPTR,A
        SJMP    ??Sys_SendDataRequest_2
//  571   } 
//  572   else
//  573   {
//  574     // Use short address
//  575     dstAddr.addr.shortAddr = destination;
??Sys_SendDataRequest_1:
        MOV     DPL,?XSP + 0
        MOV     DPH,?XSP + 1
        MOV     A,R2
        MOVX    @DPTR,A
        INC     DPTR
        MOV     A,R3
        MOVX    @DPTR,A
//  576     dstAddr.addrMode = afAddr16Bit;
        MOV     A,#0x8
        LCALL   ?XSTACK_DISP0_8
        MOV     A,#0x2
        MOVX    @DPTR,A
//  577 
//  578     if ( ADDR_NOT_BCAST != NLME_IsAddressBroadcast( destination ) )
        ; Setup parameters for call to function NLME_IsAddressBroadcast
        LCALL   ??NLME_IsAddressBroadcast?relay
        MOV     A,R1
        JZ      ??Sys_SendDataRequest_2
//  579     {
//  580       txOptions &= ~AF_ACK_REQUEST;
        MOV     A,?V0 + 6
        CLR     0xE0 /* A   */.4
        MOV     ?V0 + 6,A
//  581     }
//  582   }
//  583 
//  584   dstAddr.panId = 0;                                    // Not an inter-pan message.
??Sys_SendDataRequest_2:
        MOV     A,#0xa
        LCALL   ?XSTACK_DISP0_8
        CLR     A
        MOVX    @DPTR,A
        INC     DPTR
        MOVX    @DPTR,A
//  585   dstAddr.endPoint = epDesc->simpleDesc->EndPoint;  // Set the endpoint.
        MOV     DPL,R6
        MOV     DPH,R7
        INC     DPTR
        INC     DPTR
        INC     DPTR
        MOVX    A,@DPTR
        MOV     R0,A
        INC     DPTR
        MOVX    A,@DPTR
        MOV     DPH,A
        MOV     DPL,R0
        MOVX    A,@DPTR
        PUSH    A
        CFI CFA_SP SP+-1
        MOV     A,#0x9
        LCALL   ?XSTACK_DISP0_8
        POP     A
        CFI CFA_SP SP+0
        MOVX    @DPTR,A
//  586 
//  587   
//  588   // Send the message
//  589   status = AF_DataRequest(&dstAddr, epDesc, commandId, len,
//  590                           pData, &handle, txOptions, radius);
        ; Setup parameters for call to function AF_DataRequest
        MOV     R0,#?V0 + 0
        LCALL   ?PUSH_XSTACK_I_ONE
        CFI CFA_XSP16 add(XSP16, 29)
        MOV     A,#0x21
        LCALL   ?XSTACK_DISP0_8
        MOV     ?V0 + 0,DPL
        MOV     ?V0 + 1,DPH
        MOV     R0,#?V0 + 0
        LCALL   ?PUSH_XSTACK_I_TWO
        CFI CFA_XSP16 add(XSP16, 31)
        MOV     R0,#?V0 + 4
        LCALL   ?PUSH_XSTACK_I_TWO
        CFI CFA_XSP16 add(XSP16, 33)
        MOV     ?V0 + 0,?V0 + 7
        MOV     ?V0 + 1,#0x0
        MOV     R0,#?V0 + 0
        LCALL   ?PUSH_XSTACK_I_TWO
        CFI CFA_XSP16 add(XSP16, 35)
        MOV     R0,#?V0 + 2
        LCALL   ?PUSH_XSTACK_I_TWO
        CFI CFA_XSP16 add(XSP16, 37)
        MOV     R1,?V0 + 6
        MOV     A,R6
        MOV     R4,A
        MOV     A,R7
        MOV     R5,A
        MOV     A,#0x9
        LCALL   ?XSTACK_DISP0_8
        MOV     R2,DPL
        MOV     R3,DPH
        LCALL   ??AF_DataRequest?relay
        MOV     A,#0x9
        LCALL   ?DEALLOC_XSTACK8
        CFI CFA_XSP16 add(XSP16, 28)
        MOV     A,R1
        MOV     R2,A
//  591 
//  592   if (status != afStatus_SUCCESS)
        JZ      ??Sys_SendDataRequest_3
//  593   {
//  594     Sys_SendCback( SYSCB_DATA_CNF, status, handle );
        ; Setup parameters for call to function Sys_SendCback
        MOV     A,#0x20
        LCALL   ?XSTACK_DISP0_8
        MOVX    A,@DPTR
        MOV     R4,A
        MOV     R5,#0x0
        MOV     R1,#-0x20
        LCALL   ??Sys_SendCback?relay
//  595   }
//  596 }
??Sys_SendDataRequest_3:
        MOV     A,#0xc
        LCALL   ?DEALLOC_XSTACK8
        CFI CFA_XSP16 add(XSP16, 16)
        MOV     R7,#0x8
        LJMP    ?BANKED_LEAVE_XDATA
        CFI EndBlock cfiBlock16
//  597 
//  598 /*********************************************************************
//  599  * CBack FUNCTIONS
//  600  */
//  601 
//  602 /*********************************************************************
//  603  * @fn      SAPI_SendCback
//  604  *
//  605  * @brief   Sends a message to the sapi task ( itself ) so that a
//  606  *           callback can be generated later.
//  607  *
//  608  * @return  none
//  609  */

        RSEG BANKED_CODE:CODE:NOROOT(0)
//  610 void Sys_SendCback( uint8 event, uint8 status, uint16 data )
Sys_SendCback:
        CFI Block cfiBlock17 Using cfiCommon0
        CFI Function Sys_SendCback
        CODE
//  611 {
        FUNCALL Sys_SendCback, osal_msg_allocate
        LOCFRAME ISTACK, 0, STACK
        LOCFRAME PSTACK, 0, STACK
        LOCFRAME XSTACK, 12, STACK
        LOCFRAME IOVERLAY, 0, STATIC
        LOCFRAME DOVERLAY, 0, STATIC
        ARGFRAME ISTACK, 0, STACK
        ARGFRAME PSTACK, 0, STACK
        ARGFRAME XSTACK, 12, STACK
        ARGFRAME IOVERLAY, 0, STATIC
        ARGFRAME DOVERLAY, 0, STATIC
        FUNCALL Sys_SendCback, osal_msg_send
        LOCFRAME ISTACK, 0, STACK
        LOCFRAME PSTACK, 0, STACK
        LOCFRAME XSTACK, 12, STACK
        LOCFRAME IOVERLAY, 0, STATIC
        LOCFRAME DOVERLAY, 0, STATIC
        ARGFRAME ISTACK, 0, STACK
        ARGFRAME PSTACK, 0, STACK
        ARGFRAME XSTACK, 12, STACK
        ARGFRAME IOVERLAY, 0, STATIC
        ARGFRAME DOVERLAY, 0, STATIC
        MOV     A,#-0xc
        LCALL   ?BANKED_ENTER_XDATA
        CFI DPH0 load(1, XDATA, add(CFA_XSP16, literal(-1)))
        CFI DPL0 load(1, XDATA, add(CFA_XSP16, literal(-2)))
        CFI ?BRET_EXT load(1, XDATA, add(CFA_XSP16, literal(-3)))
        CFI ?RET_HIGH load(1, XDATA, add(CFA_XSP16, literal(-4)))
        CFI ?RET_LOW load(1, XDATA, add(CFA_XSP16, literal(-5)))
        CFI R7 load(1, XDATA, add(CFA_XSP16, literal(-6)))
        CFI V3 load(1, XDATA, add(CFA_XSP16, literal(-7)))
        CFI V2 load(1, XDATA, add(CFA_XSP16, literal(-8)))
        CFI V1 load(1, XDATA, add(CFA_XSP16, literal(-9)))
        CFI V0 load(1, XDATA, add(CFA_XSP16, literal(-10)))
        CFI VB load(1, XDATA, add(CFA_XSP16, literal(-11)))
        CFI R6 load(1, XDATA, add(CFA_XSP16, literal(-12)))
        CFI CFA_SP SP+0
        CFI CFA_XSP16 add(XSP16, 12)
        ; Saved register size: 12
        ; Auto size: 0
        MOV     ?V0 + 0,R1
        MOV     ?V0 + 1,R2
        MOV     A,R4
        MOV     R6,A
        MOV     A,R5
        MOV     R7,A
//  612   sapi_CbackEvent_t *pMsg;
//  613 
//  614   pMsg = (sapi_CbackEvent_t *)osal_msg_allocate( sizeof(sapi_CbackEvent_t) );
        ; Setup parameters for call to function osal_msg_allocate
        MOV     R2,#0x4
        MOV     R3,#0x0
        LCALL   ??osal_msg_allocate?relay
//  615   if( pMsg )
        MOV     A,R2
        ORL     A,R3
        JZ      ??Sys_SendCback_0
//  616   {
//  617     pMsg->hdr.event = event;
        MOV     DPL,R2
        MOV     DPH,R3
        MOV     A,?V0 + 0
        MOVX    @DPTR,A
//  618     pMsg->hdr.status = status;
        INC     DPTR
        MOV     A,?V0 + 1
        MOVX    @DPTR,A
//  619     pMsg->data = data;
        MOV     DPL,R2
        MOV     DPH,R3
        INC     DPTR
        INC     DPTR
        MOV     A,R6
        MOVX    @DPTR,A
        INC     DPTR
        MOV     A,R7
        MOVX    @DPTR,A
//  620 
//  621     osal_msg_send( Sys_TaskID, (uint8 *)pMsg );
        ; Setup parameters for call to function osal_msg_send
        MOV     DPTR,#Sys_TaskID
        MOVX    A,@DPTR
        MOV     R1,A
        LCALL   ??osal_msg_send?relay
//  622   }
//  623 
//  624 }
??Sys_SendCback_0:
        MOV     R7,#0x4
        LJMP    ?BANKED_LEAVE_XDATA
        CFI EndBlock cfiBlock17
//  625 
//  626 /*********************************************************************
//  627 *********************************************************************/
//  628 /******************************************************************************
//  629  * @fn          zb_StartConfirm
//  630  *
//  631  * @brief       The zb_StartConfirm callback is called by the ZigBee stack
//  632  *              after a start request operation completes
//  633  *
//  634  * @param       status - The status of the start operation.  Status of
//  635  *                       ZB_SUCCESS indicates the start operation completed
//  636  *                       successfully.  Else the status is an error code.
//  637  *
//  638  * @return      none
//  639  */

        RSEG BANKED_CODE:CODE:NOROOT(0)
//  640 void zb_StartConfirm( uint8 status )
zb_StartConfirm:
        CFI Block cfiBlock18 Using cfiCommon0
        CFI Function zb_StartConfirm
        CODE
//  641 {
        PUSH    DPL
        CFI DPL0 Frame(CFA_SP, 4)
        CFI CFA_SP SP+-4
        PUSH    DPH
        CFI DPH0 Frame(CFA_SP, 5)
        CFI CFA_SP SP+-5
        ; Saved register size: 2
        ; Auto size: 0
//  642   if ( status == ZB_SUCCESS )
        MOV     A,R1
        JNZ     ??zb_StartConfirm_0
//  643   {
//  644         myAppState = APP_START;
        MOV     DPTR,#myAppState
        MOV     A,#0x1
        MOVX    @DPTR,A
        CFI EndBlock cfiBlock18
//  645   }
//  646   else
//  647   {
//  648   }
//  649 }
??zb_StartConfirm_0:
        REQUIRE ?Subroutine1
        ; // Fall through to label ?Subroutine1

        RSEG BANKED_CODE:CODE:NOROOT(0)
?Subroutine1:
        CFI Block cfiBlock19 Using cfiCommon0
        CFI NoFunction
        CFI CFA_SP SP+-5
        CFI DPL0 Frame(CFA_SP, 4)
        CFI DPH0 Frame(CFA_SP, 5)
        POP     DPH
        CFI CFA_SP SP+-4
        CFI DPH0 SameValue
        POP     DPL
        CFI CFA_SP SP+-3
        CFI DPL0 SameValue
        LJMP    ?BRET
        CFI EndBlock cfiBlock19
//  650 
//  651 /******************************************************************************
//  652  * @fn          zb_FindDeviceConfirm
//  653  *
//  654  * @brief       The zb_FindDeviceConfirm callback function is called by the
//  655  *              ZigBee stack when a find device operation completes.
//  656  *
//  657  * @param       searchType - The type of search that was performed.
//  658  *              searchKey - Value that the search was executed on.
//  659  *              result - The result of the search.
//  660  *
//  661  * @return      none
//  662  */

        RSEG BANKED_CODE:CODE:NOROOT(0)
//  663 void zb_FindDeviceConfirm( uint8 searchType, uint8 *searchKey, uint8 *result )
zb_FindDeviceConfirm:
        CFI Block cfiBlock20 Using cfiCommon0
        CFI Function zb_FindDeviceConfirm
        CODE
//  664 {
        ; Saved register size: 0
        ; Auto size: 0
//  665 }
        LJMP    ?BRET
        CFI EndBlock cfiBlock20
//  666 

        RSEG BANKED_CODE:CODE:NOROOT(0)
//  667 void zb_HandleOsalEvent( uint16 event )
zb_HandleOsalEvent:
        CFI Block cfiBlock21 Using cfiCommon0
        CFI Function zb_HandleOsalEvent
        CODE
//  668 {
        ; Saved register size: 0
        ; Auto size: 0
//  669 
//  670 }
        LJMP    ?BRET
        CFI EndBlock cfiBlock21
//  671 /******************************************************************************
//  672  * @fn          Sys_SendDataConfirm
//  673  *
//  674  * @brief       The zb_SendDataConfirm callback function is called by the
//  675  *              ZigBee after a send data operation completes
//  676  *
//  677  * @param       handle - The handle identifying the data transmission.
//  678  *              status - The status of the operation.
//  679  *
//  680  * @return      none
//  681  */

        RSEG BANKED_CODE:CODE:NOROOT(0)
//  682 void Sys_SendDataConfirm( uint8 handle, uint8 status )
Sys_SendDataConfirm:
        CFI Block cfiBlock22 Using cfiCommon0
        CFI Function Sys_SendDataConfirm
        CODE
//  683 {
        ; Saved register size: 0
        ; Auto size: 0
//  684 }
        LJMP    ?BRET
        CFI EndBlock cfiBlock22
//  685 // The order in this table must be identical to the task initialization calls below in osalInitTask.
//  686 

        RSEG XDATA_I:XDATA:NOROOT(0)
        DATA8
//  687 const pTaskEventHandlerFn tasksArr[] = {
tasksArr:
        DS 20
        REQUIRE `?<Initializer for tasksArr>`
        REQUIRE __INIT_XDATA_I
//  688   macEventLoop,
//  689   nwk_event_loop,
//  690   Hal_ProcessEvent,
//  691 #if defined( MT_TASK )
//  692   MT_ProcessEvent,
//  693 #endif
//  694   APS_event_loop,
//  695   ZDApp_event_loop,
//  696 
//  697   Sys_ProcessEvent,
//  698   Key_ProcessEvent,
//  699   Motor_ProcessEvent,
//  700   Switch_ProcessEvent,
//  701   SAPI_ProcessEvent
//  702 };
//  703 

        RSEG XDATA_I:XDATA:NOROOT(0)
        DATA8
//  704 const uint8 tasksCnt = sizeof( tasksArr ) / sizeof( tasksArr[0] );
tasksCnt:
        DS 1
        REQUIRE `?<Initializer for tasksCnt>`
        REQUIRE __INIT_XDATA_I

        RSEG XDATA_Z:XDATA:NOROOT(0)
        DATA16
//  705 uint16 *tasksEvents;
tasksEvents:
        DS 2
        REQUIRE __INIT_XDATA_Z
//  706 
//  707 
//  708 
//  709 /*********************************************************************
//  710  * @fn      osalInitTasks
//  711  *
//  712  * @brief   This function invokes the initialization function for each task.
//  713  *
//  714  * @param   void
//  715  *
//  716  * @return  none
//  717  */

        RSEG BANKED_CODE:CODE:NOROOT(0)
//  718 void osalInitTasks( void )
osalInitTasks:
        CFI Block cfiBlock23 Using cfiCommon0
        CFI Function osalInitTasks
        CODE
//  719 {
        FUNCALL osalInitTasks, osal_mem_alloc
        LOCFRAME ISTACK, 2, STACK
        LOCFRAME PSTACK, 0, STACK
        LOCFRAME XSTACK, 0, STACK
        LOCFRAME IOVERLAY, 0, STATIC
        LOCFRAME DOVERLAY, 0, STATIC
        ARGFRAME ISTACK, 2, STACK
        ARGFRAME PSTACK, 0, STACK
        ARGFRAME XSTACK, 0, STACK
        ARGFRAME IOVERLAY, 0, STATIC
        ARGFRAME DOVERLAY, 0, STATIC
        FUNCALL osalInitTasks, osal_memset
        LOCFRAME ISTACK, 2, STACK
        LOCFRAME PSTACK, 0, STACK
        LOCFRAME XSTACK, 0, STACK
        LOCFRAME IOVERLAY, 0, STATIC
        LOCFRAME DOVERLAY, 0, STATIC
        ARGFRAME ISTACK, 2, STACK
        ARGFRAME PSTACK, 0, STACK
        ARGFRAME XSTACK, 0, STACK
        ARGFRAME IOVERLAY, 0, STATIC
        ARGFRAME DOVERLAY, 0, STATIC
        FUNCALL osalInitTasks, macTaskInit
        LOCFRAME ISTACK, 2, STACK
        LOCFRAME PSTACK, 0, STACK
        LOCFRAME XSTACK, 0, STACK
        LOCFRAME IOVERLAY, 0, STATIC
        LOCFRAME DOVERLAY, 0, STATIC
        ARGFRAME ISTACK, 2, STACK
        ARGFRAME PSTACK, 0, STACK
        ARGFRAME XSTACK, 0, STACK
        ARGFRAME IOVERLAY, 0, STATIC
        ARGFRAME DOVERLAY, 0, STATIC
        FUNCALL osalInitTasks, nwk_init
        LOCFRAME ISTACK, 2, STACK
        LOCFRAME PSTACK, 0, STACK
        LOCFRAME XSTACK, 0, STACK
        LOCFRAME IOVERLAY, 0, STATIC
        LOCFRAME DOVERLAY, 0, STATIC
        ARGFRAME ISTACK, 2, STACK
        ARGFRAME PSTACK, 0, STACK
        ARGFRAME XSTACK, 0, STACK
        ARGFRAME IOVERLAY, 0, STATIC
        ARGFRAME DOVERLAY, 0, STATIC
        FUNCALL osalInitTasks, Hal_Init
        LOCFRAME ISTACK, 2, STACK
        LOCFRAME PSTACK, 0, STACK
        LOCFRAME XSTACK, 0, STACK
        LOCFRAME IOVERLAY, 0, STATIC
        LOCFRAME DOVERLAY, 0, STATIC
        ARGFRAME ISTACK, 2, STACK
        ARGFRAME PSTACK, 0, STACK
        ARGFRAME XSTACK, 0, STACK
        ARGFRAME IOVERLAY, 0, STATIC
        ARGFRAME DOVERLAY, 0, STATIC
        FUNCALL osalInitTasks, APS_Init
        LOCFRAME ISTACK, 2, STACK
        LOCFRAME PSTACK, 0, STACK
        LOCFRAME XSTACK, 0, STACK
        LOCFRAME IOVERLAY, 0, STATIC
        LOCFRAME DOVERLAY, 0, STATIC
        ARGFRAME ISTACK, 2, STACK
        ARGFRAME PSTACK, 0, STACK
        ARGFRAME XSTACK, 0, STACK
        ARGFRAME IOVERLAY, 0, STATIC
        ARGFRAME DOVERLAY, 0, STATIC
        FUNCALL osalInitTasks, ZDApp_Init
        LOCFRAME ISTACK, 2, STACK
        LOCFRAME PSTACK, 0, STACK
        LOCFRAME XSTACK, 0, STACK
        LOCFRAME IOVERLAY, 0, STATIC
        LOCFRAME DOVERLAY, 0, STATIC
        ARGFRAME ISTACK, 2, STACK
        ARGFRAME PSTACK, 0, STACK
        ARGFRAME XSTACK, 0, STACK
        ARGFRAME IOVERLAY, 0, STATIC
        ARGFRAME DOVERLAY, 0, STATIC
        FUNCALL osalInitTasks, Sys_Init
        LOCFRAME ISTACK, 2, STACK
        LOCFRAME PSTACK, 0, STACK
        LOCFRAME XSTACK, 0, STACK
        LOCFRAME IOVERLAY, 0, STATIC
        LOCFRAME DOVERLAY, 0, STATIC
        ARGFRAME ISTACK, 2, STACK
        ARGFRAME PSTACK, 0, STACK
        ARGFRAME XSTACK, 0, STACK
        ARGFRAME IOVERLAY, 0, STATIC
        ARGFRAME DOVERLAY, 0, STATIC
        FUNCALL osalInitTasks, Key_Init
        LOCFRAME ISTACK, 2, STACK
        LOCFRAME PSTACK, 0, STACK
        LOCFRAME XSTACK, 0, STACK
        LOCFRAME IOVERLAY, 0, STATIC
        LOCFRAME DOVERLAY, 0, STATIC
        ARGFRAME ISTACK, 2, STACK
        ARGFRAME PSTACK, 0, STACK
        ARGFRAME XSTACK, 0, STACK
        ARGFRAME IOVERLAY, 0, STATIC
        ARGFRAME DOVERLAY, 0, STATIC
        FUNCALL osalInitTasks, Motor_Init
        LOCFRAME ISTACK, 2, STACK
        LOCFRAME PSTACK, 0, STACK
        LOCFRAME XSTACK, 0, STACK
        LOCFRAME IOVERLAY, 0, STATIC
        LOCFRAME DOVERLAY, 0, STATIC
        ARGFRAME ISTACK, 2, STACK
        ARGFRAME PSTACK, 0, STACK
        ARGFRAME XSTACK, 0, STACK
        ARGFRAME IOVERLAY, 0, STATIC
        ARGFRAME DOVERLAY, 0, STATIC
        FUNCALL osalInitTasks, Switch_Init
        LOCFRAME ISTACK, 2, STACK
        LOCFRAME PSTACK, 0, STACK
        LOCFRAME XSTACK, 0, STACK
        LOCFRAME IOVERLAY, 0, STATIC
        LOCFRAME DOVERLAY, 0, STATIC
        ARGFRAME ISTACK, 2, STACK
        ARGFRAME PSTACK, 0, STACK
        ARGFRAME XSTACK, 0, STACK
        ARGFRAME IOVERLAY, 0, STATIC
        ARGFRAME DOVERLAY, 0, STATIC
        FUNCALL osalInitTasks, SAPI_Init
        LOCFRAME ISTACK, 2, STACK
        LOCFRAME PSTACK, 0, STACK
        LOCFRAME XSTACK, 0, STACK
        LOCFRAME IOVERLAY, 0, STATIC
        LOCFRAME DOVERLAY, 0, STATIC
        ARGFRAME ISTACK, 2, STACK
        ARGFRAME PSTACK, 0, STACK
        ARGFRAME XSTACK, 0, STACK
        ARGFRAME IOVERLAY, 0, STATIC
        ARGFRAME DOVERLAY, 0, STATIC
        PUSH    DPL
        CFI DPL0 Frame(CFA_SP, 4)
        CFI CFA_SP SP+-4
        PUSH    DPH
        CFI DPH0 Frame(CFA_SP, 5)
        CFI CFA_SP SP+-5
        ; Saved register size: 2
        ; Auto size: 0
//  720   uint8 taskID = 0;
//  721 
//  722   tasksEvents = (uint16 *)osal_mem_alloc( sizeof( uint16 ) * tasksCnt);
        ; Setup parameters for call to function osal_mem_alloc
        MOV     R2,#0x14
        MOV     R3,#0x0
        LCALL   ??osal_mem_alloc?relay
        MOV     DPTR,#tasksEvents
        MOV     A,R2
        MOVX    @DPTR,A
        INC     DPTR
        MOV     A,R3
        MOVX    @DPTR,A
//  723   osal_memset( tasksEvents, 0, (sizeof( uint16 ) * tasksCnt));
        ; Setup parameters for call to function osal_memset
        MOV     R4,#0x14
        MOV     R5,#0x0
        MOV     R1,#0x0
        LCALL   ??osal_memset?relay
//  724 
//  725   macTaskInit( taskID++ );
        ; Setup parameters for call to function macTaskInit
        MOV     R1,#0x0
        LCALL   ??macTaskInit?relay
//  726   nwk_init( taskID++ );
        ; Setup parameters for call to function nwk_init
        MOV     R1,#0x1
        LCALL   ??nwk_init?relay
//  727   Hal_Init( taskID++ );
        ; Setup parameters for call to function Hal_Init
        MOV     R1,#0x2
        LCALL   ??Hal_Init?relay
//  728 #if defined( MT_TASK )
//  729   MT_TaskInit( taskID++ );
//  730 #endif
//  731   APS_Init( taskID++ );
        ; Setup parameters for call to function APS_Init
        MOV     R1,#0x3
        LCALL   ??APS_Init?relay
//  732   ZDApp_Init( taskID++ );
        ; Setup parameters for call to function ZDApp_Init
        MOV     R1,#0x4
        LCALL   ??ZDApp_Init?relay
//  733   Sys_Init( taskID++ );
        ; Setup parameters for call to function Sys_Init
        MOV     R1,#0x5
        LCALL   ??Sys_Init?relay
//  734   Key_Init( taskID++ );
        ; Setup parameters for call to function Key_Init
        MOV     R1,#0x6
        LCALL   ??Key_Init?relay
//  735   Motor_Init( taskID++ );
        ; Setup parameters for call to function Motor_Init
        MOV     R1,#0x7
        LCALL   ??Motor_Init?relay
//  736   Switch_Init( taskID++ );
        ; Setup parameters for call to function Switch_Init
        MOV     R1,#0x8
        LCALL   ??Switch_Init?relay
//  737   SAPI_Init( taskID );
        ; Setup parameters for call to function SAPI_Init
        MOV     R1,#0x9
        LCALL   ??SAPI_Init?relay
//  738 }
        SJMP    ?Subroutine1
        CFI EndBlock cfiBlock23

        RSEG XDATA_ID:CODE:NOROOT(0)
`?<Initializer for <Constant "bind">>`:
        DB "bind"

        RSEG XDATA_ID:CODE:NOROOT(0)
`?<Initializer for AppTitle>`:
        DB "SensorAPP"

        RSEG XDATA_ID:CODE:NOROOT(0)
`?<Initializer for Sys_ClusterList>`:
        DATA16
        DW 1

        RSEG XDATA_ID:CODE:NOROOT(0)
`?<Initializer for Zb_ClusterList>`:
        DATA16
        DW 2

        RSEG XDATA_ID:CODE:NOROOT(0)
`?<Initializer for Sys_SimpleDesc>`:
        DATA8
        DB 2
        DATA16
        DW 3844
        DW 1
        DATA8
        DB 0
        DB 1
        DATA16
        DW Sys_ClusterList
        DATA8
        DB 1
        DATA16
        DW Sys_ClusterList

        RSEG XDATA_ID:CODE:NOROOT(0)
`?<Initializer for zb_SimpleDesc>`:
        DATA8
        DB 3
        DATA16
        DW 3844
        DW 1
        DATA8
        DB 0
        DB 1
        DATA16
        DW Zb_ClusterList
        DATA8
        DB 1
        DATA16
        DW Zb_ClusterList

        RSEG XDATA_ID:CODE:NOROOT(0)
`?<Initializer for tasksArr>`:
        DATA16
        DW ??macEventLoop?relay
        DW ??nwk_event_loop?relay
        DW ??Hal_ProcessEvent?relay
        DW ??APS_event_loop?relay
        DW ??ZDApp_event_loop?relay
        DW ??Sys_ProcessEvent?relay
        DW ??Key_ProcessEvent?relay
        DW ??Motor_ProcessEvent?relay
        DW ??Switch_ProcessEvent?relay
        DW ??SAPI_ProcessEvent?relay

        RSEG XDATA_ID:CODE:NOROOT(0)
`?<Initializer for tasksCnt>`:
        DATA8
        DB 10

        RSEG BANK_RELAYS:CODE:REORDER:NOROOT(0)
??Sys_Init?relay:
        LCALL   ?BDISPATCH
        DATA
        DC24    Sys_Init

        RSEG BANK_RELAYS:CODE:REORDER:NOROOT(0)
??Sys_ProcessEvent?relay:
        LCALL   ?BDISPATCH
        DATA
        DC24    Sys_ProcessEvent

        RSEG BANK_RELAYS:CODE:REORDER:NOROOT(0)
??Type2EP?relay:
        LCALL   ?BDISPATCH
        DATA
        DC24    Type2EP

        RSEG BANK_RELAYS:CODE:REORDER:NOROOT(0)
??Sys_MessageMSGCB?relay:
        LCALL   ?BDISPATCH
        DATA
        DC24    Sys_MessageMSGCB

        RSEG BANK_RELAYS:CODE:REORDER:NOROOT(0)
??Sys_AllowBind?relay:
        LCALL   ?BDISPATCH
        DATA
        DC24    Sys_AllowBind

        RSEG BANK_RELAYS:CODE:REORDER:NOROOT(0)
??Sys_AllowBindConfirm?relay:
        LCALL   ?BDISPATCH
        DATA
        DC24    Sys_AllowBindConfirm

        RSEG BANK_RELAYS:CODE:REORDER:NOROOT(0)
??Sys_SendDataRequest?relay:
        LCALL   ?BDISPATCH
        DATA
        DC24    Sys_SendDataRequest

        RSEG BANK_RELAYS:CODE:REORDER:NOROOT(0)
??Sys_SendCback?relay:
        LCALL   ?BDISPATCH
        DATA
        DC24    Sys_SendCback

        RSEG BANK_RELAYS:CODE:REORDER:NOROOT(0)
??zb_StartConfirm?relay:
        LCALL   ?BDISPATCH
        DATA
        DC24    zb_StartConfirm

        RSEG BANK_RELAYS:CODE:REORDER:NOROOT(0)
??zb_FindDeviceConfirm?relay:
        LCALL   ?BDISPATCH
        DATA
        DC24    zb_FindDeviceConfirm

        RSEG BANK_RELAYS:CODE:REORDER:NOROOT(0)
??zb_HandleOsalEvent?relay:
        LCALL   ?BDISPATCH
        DATA
        DC24    zb_HandleOsalEvent

        RSEG BANK_RELAYS:CODE:REORDER:NOROOT(0)
??Sys_SendDataConfirm?relay:
        LCALL   ?BDISPATCH
        DATA
        DC24    Sys_SendDataConfirm

        RSEG BANK_RELAYS:CODE:REORDER:NOROOT(0)
??osalInitTasks?relay:
        LCALL   ?BDISPATCH
        DATA
        DC24    osalInitTasks

        END
// 
// 927 bytes in segment BANKED_CODE
//  78 bytes in segment BANK_RELAYS
//  64 bytes in segment XDATA_I
//  64 bytes in segment XDATA_ID
//  15 bytes in segment XDATA_Z
// 
// 1 069 bytes of CODE  memory
//    79 bytes of XDATA memory
//
//Errors: none
//Warnings: none
