###############################################################################
#                                                                             #
# IAR C/C++ Compiler V8.10.3.10338/W32 for 8051         06/Apr/2018  14:22:27 #
# Copyright 2004-2011 IAR Systems AB.                                         #
#                                                                             #
#    Core               =  plain                                              #
#    Code model         =  banked                                             #
#    Data model         =  large                                              #
#    Calling convention =  xdata reentrant                                    #
#    Constant location  =  data                                               #
#    Dptr setup         =  1,16                                               #
#    Source file        =  D:\ProgramData\Hardware\zigbee\Projects\zstack\Sam #
#                          ples\SensorSys\Source\SensorSys_Terminator.c       #
#    Command line       =  -f D:\ProgramData\Hardware\zigbee\Projects\zstack\ #
#                          Samples\SensorSys\CC2530DB\..\..\..\Tools\CC2530DB #
#                          \f8wEndev.cfg (-DCPU32MHZ -DROOT=__near_func       #
#                          -DMAC_CFG_TX_DATA_MAX=3 -DMAC_CFG_TX_MAX=6         #
#                          -DMAC_CFG_RX_MAX=3) -f D:\ProgramData\Hardware\zig #
#                          bee\Projects\zstack\Samples\SensorSys\CC2530DB\..\ #
#                          ..\..\Tools\CC2530DB\f8wConfig.cfg (-DZIGBEEPRO    #
#                          -DSECURE=0 -DZG_SECURE_DYNAMIC=0 -DREFLECTOR       #
#                          -DDEFAULT_CHANLIST=0x00000800                      #
#                          -DZDAPP_CONFIG_PAN_ID=0xFFF1                       #
#                          -DNWK_START_DELAY=100 -DEXTENDED_JOINING_RANDOM_MA #
#                          SK=0x007F -DBEACON_REQUEST_DELAY=100               #
#                          -DBEACON_REQ_DELAY_MASK=0x00FF                     #
#                          -DLINK_STATUS_JITTER_MASK=0x007F                   #
#                          -DROUTE_EXPIRY_TIME=30 -DAPSC_ACK_WAIT_DURATION_PO #
#                          LLED=3000 -DNWK_INDIRECT_MSG_TIMEOUT=7             #
#                          -DMAX_RREQ_ENTRIES=8 -DAPSC_MAX_FRAME_RETRIES=3    #
#                          -DNWK_MAX_DATA_RETRIES=2                           #
#                          -DMAX_POLL_FAILURE_RETRIES=2 -DMAX_BCAST=9         #
#                          -DAPS_MAX_GROUPS=16 -DMAX_RTG_ENTRIES=40           #
#                          -DNWK_MAX_BINDING_ENTRIES=4                        #
#                          -DMAX_BINDING_CLUSTER_IDS=4 "-DDEFAULT_KEY={0x01,  #
#                          0x03, 0x05, 0x07, 0x09, 0x0B, 0x0D, 0x0F, 0x00,    #
#                          0x02, 0x04, 0x06, 0x08, 0x0A, 0x0C, 0x0D}"         #
#                          -DMAC_MAX_FRAME_SIZE=116                           #
#                          -DZDNWKMGR_MIN_TRANSMISSIONS=20 "-DCONST=const     #
#                          __code" -DGENERIC=__generic                        #
#                          -DRFD_RCVC_ALWAYS_ON=TRUE -DPOLL_RATE=1000         #
#                          -DQUEUED_POLL_RATE=100 -DRESPONSE_POLL_RATE=100)   #
#                          -DREJOIN_POLL_RATE=440 D:\ProgramData\Hardware\zig #
#                          bee\Projects\zstack\Samples\SensorSys\Source\Senso #
#                          rSys_Terminator.c -D NWK_AUTO_POLL -D              #
#                          HOLD_AUTO_START -D REFLECTOR -D POWER_SAVING -D    #
#                          NV_INIT -D xNV_RESTORE -D xZTOOL_P1 -D xMT_TASK    #
#                          -D xMT_SYS_FUNC -D xMT_SAPI_FUNC -D                #
#                          xMT_SAPI_CB_FUNC -lC D:\ProgramData\Hardware\zigbe #
#                          e\Projects\zstack\Samples\SensorSys\CC2530DB\EndDe #
#                          viceEB\List\ -lA D:\ProgramData\Hardware\zigbee\Pr #
#                          ojects\zstack\Samples\SensorSys\CC2530DB\EndDevice #
#                          EB\List\ --diag_suppress Pe001,Pa010 -o            #
#                          D:\ProgramData\Hardware\zigbee\Projects\zstack\Sam #
#                          ples\SensorSys\CC2530DB\EndDeviceEB\Obj\ -e        #
#                          --no_code_motion --debug --core=plain --dptr=16,1  #
#                          --data_model=large --code_model=banked             #
#                          --calling_convention=xdata_reentrant               #
#                          --place_constants=data --nr_virtual_regs 16 -I     #
#                          D:\ProgramData\Hardware\zigbee\Projects\zstack\Sam #
#                          ples\SensorSys\CC2530DB\ -I                        #
#                          D:\ProgramData\Hardware\zigbee\Projects\zstack\Sam #
#                          ples\SensorSys\CC2530DB\..\Source\ -I              #
#                          D:\ProgramData\Hardware\zigbee\Projects\zstack\Sam #
#                          ples\SensorSys\CC2530DB\..\..\..\ZMain\TI2530DB\   #
#                          -I D:\ProgramData\Hardware\zigbee\Projects\zstack\ #
#                          Samples\SensorSys\CC2530DB\..\..\..\..\..\Componen #
#                          ts\hal\include\ -I D:\ProgramData\Hardware\zigbee\ #
#                          Projects\zstack\Samples\SensorSys\CC2530DB\..\..\. #
#                          .\..\..\Components\hal\target\CC2530EB\ -I         #
#                          D:\ProgramData\Hardware\zigbee\Projects\zstack\Sam #
#                          ples\SensorSys\CC2530DB\..\..\..\..\..\Components\ #
#                          mac\include\ -I D:\ProgramData\Hardware\zigbee\Pro #
#                          jects\zstack\Samples\SensorSys\CC2530DB\..\..\..\. #
#                          .\..\Components\mac\high_level\ -I                 #
#                          D:\ProgramData\Hardware\zigbee\Projects\zstack\Sam #
#                          ples\SensorSys\CC2530DB\..\..\..\..\..\Components\ #
#                          mac\low_level\srf04\ -I D:\ProgramData\Hardware\zi #
#                          gbee\Projects\zstack\Samples\SensorSys\CC2530DB\.. #
#                          \..\..\..\..\Components\mac\low_level\srf04\single #
#                          _chip\ -I D:\ProgramData\Hardware\zigbee\Projects\ #
#                          zstack\Samples\SensorSys\CC2530DB\..\..\..\..\..\C #
#                          omponents\mt\ -I D:\ProgramData\Hardware\zigbee\Pr #
#                          ojects\zstack\Samples\SensorSys\CC2530DB\..\..\..\ #
#                          ..\..\Components\osal\include\ -I                  #
#                          D:\ProgramData\Hardware\zigbee\Projects\zstack\Sam #
#                          ples\SensorSys\CC2530DB\..\..\..\..\..\Components\ #
#                          services\saddr\ -I D:\ProgramData\Hardware\zigbee\ #
#                          Projects\zstack\Samples\SensorSys\CC2530DB\..\..\. #
#                          .\..\..\Components\services\sdata\ -I              #
#                          D:\ProgramData\Hardware\zigbee\Projects\zstack\Sam #
#                          ples\SensorSys\CC2530DB\..\..\..\..\..\Components\ #
#                          stack\af\ -I D:\ProgramData\Hardware\zigbee\Projec #
#                          ts\zstack\Samples\SensorSys\CC2530DB\..\..\..\..\. #
#                          .\Components\stack\nwk\ -I                         #
#                          D:\ProgramData\Hardware\zigbee\Projects\zstack\Sam #
#                          ples\SensorSys\CC2530DB\..\..\..\..\..\Components\ #
#                          stack\sapi\ -I D:\ProgramData\Hardware\zigbee\Proj #
#                          ects\zstack\Samples\SensorSys\CC2530DB\..\..\..\.. #
#                          \..\Components\stack\sec\ -I                       #
#                          D:\ProgramData\Hardware\zigbee\Projects\zstack\Sam #
#                          ples\SensorSys\CC2530DB\..\..\..\..\..\Components\ #
#                          stack\sys\ -I D:\ProgramData\Hardware\zigbee\Proje #
#                          cts\zstack\Samples\SensorSys\CC2530DB\..\..\..\..\ #
#                          ..\Components\stack\zdo\ -I                        #
#                          D:\ProgramData\Hardware\zigbee\Projects\zstack\Sam #
#                          ples\SensorSys\CC2530DB\..\..\..\..\..\Components\ #
#                          zmac\ -I D:\ProgramData\Hardware\zigbee\Projects\z #
#                          stack\Samples\SensorSys\CC2530DB\..\..\..\..\..\Co #
#                          mponents\zmac\f8w\ -Ohz --require_prototypes       #
#    List file          =  D:\ProgramData\Hardware\zigbee\Projects\zstack\Sam #
#                          ples\SensorSys\CC2530DB\EndDeviceEB\List\SensorSys #
#                          _Terminator.lst                                    #
#    Object file        =  D:\ProgramData\Hardware\zigbee\Projects\zstack\Sam #
#                          ples\SensorSys\CC2530DB\EndDeviceEB\Obj\SensorSys_ #
#                          Terminator.r51                                     #
#                                                                             #
#                                                                             #
###############################################################################

D:\ProgramData\Hardware\zigbee\Projects\zstack\Samples\SensorSys\Source\SensorSys_Terminator.c
      1          /**************************************************************************************************
      2          	Filename:       SensorSys.c
      3          	Revised:        $Date: 2009-03-18 15:56:27 -0700 (Wed, 18 Mar 2009) $
      4          	Revision:       $Revision: 19453 $
      5          
      6          	Description:    Generic Application (no Profile).
      7          
      8          
      9          	Copyright 2004-2009 Texas Instruments Incorporated. All rights reserved.
     10          
     11          	IMPORTANT: Your use of this Software is limited to those specific rights
     12          	granted under the terms of a software license agreement between the user
     13          	who downloaded the software, his/her employer (which must be your employer)
     14          	and Texas Instruments Incorporated (the "License").  You may not use this
     15          	Software unless you agree to abide by the terms of the License. The License
     16          	limits your use, and you acknowledge, that the Software may not be modified,
     17          	copied or distributed unless embedded on a Texas Instruments microcontroller
     18          	or used solely and exclusively in conjunction with a Texas Instruments radio
     19          	frequency transceiver, which is integrated into your product.  Other than for
     20          	the foregoing purpose, you may not use, reproduce, copy, prepare derivative
     21          	works of, modify, distribute, perform, display or sell this Software and/or
     22          	its documentation for any purpose.
     23          
     24          	YOU FURTHER ACKNOWLEDGE AND AGREE THAT THE SOFTWARE AND DOCUMENTATION ARE
     25          	PROVIDED AS IS?WITHOUT WARRANTY OF ANY KIND, EITHER EXPRESS OR IMPLIED, 
     26          	INCLUDING WITHOUT LIMITATION, ANY WARRANTY OF MERCHANTABILITY, TITLE, 
     27          	NON-INFRINGEMENT AND FITNESS FOR A PARTICULAR PURPOSE. IN NO EVENT SHALL
     28          	TEXAS INSTRUMENTS OR ITS LICENSORS BE LIABLE OR OBLIGATED UNDER CONTRACT,
     29          	NEGLIGENCE, STRICT LIABILITY, CONTRIBUTION, BREACH OF WARRANTY, OR OTHER
     30          	LEGAL EQUITABLE THEORY ANY DIRECT OR INDIRECT DAMAGES OR EXPENSES
     31          	INCLUDING BUT NOT LIMITED TO ANY INCIDENTAL, SPECIAL, INDIRECT, PUNITIVE
     32          	OR CONSEQUENTIAL DAMAGES, LOST PROFITS OR LOST DATA, COST OF PROCUREMENT
     33          	OF SUBSTITUTE GOODS, TECHNOLOGY, SERVICES, OR ANY CLAIMS BY THIRD PARTIES
     34          	(INCLUDING BUT NOT LIMITED TO ANY DEFENSE THEREOF), OR OTHER SIMILAR COSTS.
     35          
     36          	Should you have any questions regarding your right to use this Software,
     37          	contact Texas Instruments Incorporated at www.TI.com. 
     38          **************************************************************************************************/
     39          
     40          /*********************************************************************
     41          	This application isn't intended to do anything useful, it is
     42          	intended to be a simple example of an application's structure.
     43          
     44          	This application sends "Hello World" to another "Generic"
     45          	application every 15 seconds.  The application will also
     46          	receive "Hello World" packets.
     47          
     48          	The "Hello World" messages are sent/received as MSG type message.
     49          
     50          	This applications doesn't have a profile, so it handles everything
     51          	directly - itself.
     52          
     53          	Key control:
     54          		SW1:
     55          		SW2:  initiates end device binding
     56          		SW3:
     57          		SW4:  initiates a match description request
     58          *********************************************************************/
     59          
     60          /*********************************************************************
     61           * INCLUDES
     62           */
     63          #include "AF.h"
     64          #include "ZDObject.h"
     65          #include "ZDProfile.h"
     66          #include "sapi.h"
     67          
     68          #include "SensorSys_End.h"
     69          #include "device.h"
     70          #include "DebugTrace.h"
     71          
     72          #if !defined( WIN32 )
     73          	#include "OnBoard.h"
     74          #endif
     75          
     76          /* HAL */
     77          #include "hal_led.h"
     78          #include "hal_key.h"
     79          #include "hal_uart.h"
     80          
     81          #include "nwk.h"
     82          #include "APS.h"
     83          #include "ZDApp.h"
     84          #include "OSAL.h"
     85          #include "OSAL_Tasks.h"
     86          #include "ZComDef.h"
     87          #include "hal_drivers.h"
     88          
     89          /*********************************************************************
     90           * MACROS
     91           */
     92          
     93          /*********************************************************************
     94           * CONSTANTS
     95           */
     96          
     97          /*********************************************************************
     98           * TYPEDEFS
     99           */
    100          
    101          /*********************************************************************
    102           * GLOBAL VARIABLES
    103           */

   \                                 In  segment XDATA_I, align 1, keep-with-next
    104          uint8 AppTitle[]="SensorAPP"; //应用程序名称
   \                     AppTitle:
   \   000000                DS 10
   \   00000A                REQUIRE `?<Initializer for AppTitle>`
   \   00000A                REQUIRE __INIT_XDATA_I
    105          
    106          // Sys 端点的簇ID
    107          // This list should be filled with Application specific Cluster IDs.

   \                                 In  segment XDATA_I, align 1, keep-with-next
    108          const cId_t Sys_ClusterList[SYS_MAX_CLUSTERS] =
   \                     Sys_ClusterList:
   \   000000                DS 2
   \   000002                REQUIRE `?<Initializer for Sys_ClusterList>`
   \   000002                REQUIRE __INIT_XDATA_I
    109          {
    110            SYS_CLUSTERID
    111          };
    112          

   \                                 In  segment XDATA_I, align 1, keep-with-next
    113          const cId_t Zb_ClusterList[ZB_MAX_CLUSTERS] =
   \                     Zb_ClusterList:
   \   000000                DS 2
   \   000002                REQUIRE `?<Initializer for Zb_ClusterList>`
   \   000002                REQUIRE __INIT_XDATA_I
    114          {
    115            ZB_CLUSTERID
    116          };
    117          
    118          // Sys 端点简单描述符

   \                                 In  segment XDATA_I, align 1, keep-with-next
    119          const SimpleDescriptionFormat_t Sys_SimpleDesc =
   \                     Sys_SimpleDesc:
   \   000000                DS 12
   \   00000C                REQUIRE `?<Initializer for Sys_SimpleDesc>`
   \   00000C                REQUIRE __INIT_XDATA_I
    120          {
    121          	SYS_ENDPOINT,           //  int Endpoint;
    122          	SYS_PROFID,                //  uint16 AppProfId[2];
    123          	SYS_DEVICEID,              //  uint16 AppDeviceId[2];
    124          	SYS_DEVICE_VERSION,        //  int   AppDevVer:4;
    125          	SYS_FLAGS,                 //  int   AppFlags:4;
    126          	SYS_MAX_CLUSTERS,          //  byte  AppNumInClusters;
    127          	(cId_t *)Sys_ClusterList,  //  byte *pAppInClusterList;
    128          	SYS_MAX_CLUSTERS,          //  byte  AppNumInClusters;
    129          	(cId_t *)Sys_ClusterList   //  byte *pAppInClusterList;
    130          };
    131          

   \                                 In  segment XDATA_I, align 1, keep-with-next
    132          const SimpleDescriptionFormat_t zb_SimpleDesc =
   \                     zb_SimpleDesc:
   \   000000                DS 12
   \   00000C                REQUIRE `?<Initializer for zb_SimpleDesc>`
   \   00000C                REQUIRE __INIT_XDATA_I
    133          {
    134          	ZB_ENDPOINT,           //  int Endpoint;
    135          	SYS_PROFID,                //  uint16 AppProfId[2];
    136          	SYS_DEVICEID,              //  uint16 AppDeviceId[2];
    137          	SYS_DEVICE_VERSION,        //  int   AppDevVer:4;
    138          	SYS_FLAGS,                 //  int   AppFlags:4;
    139          	ZB_MAX_CLUSTERS,          //  byte  AppNumInClusters;
    140          	(cId_t *)Zb_ClusterList,  //  byte *pAppInClusterList;
    141          	ZB_MAX_CLUSTERS,          //  byte  AppNumInClusters;
    142          	(cId_t *)Zb_ClusterList   //  byte *pAppInClusterList;
    143          };
    144          
    145          // This is the Endpoint/Interface description.  It is defined here, but
    146          // filled-in in Button_Init().  Another way to go would be to fill
    147          // in the structure here and make it a "const" (in code space).  The
    148          // way it's defined in this sample app it is define in RAM.

   \                                 In  segment XDATA_Z, align 1, keep-with-next
    149          endPointDesc_t Sys_epDesc;
   \                     Sys_epDesc:
   \   000000                DS 6
   \   000006                REQUIRE __INIT_XDATA_Z
    150          
    151          /*********************************************************************
    152           * EXTERNAL VARIABLES
    153           */
    154          
    155          /*********************************************************************
    156           * EXTERNAL FUNCTIONS
    157           */
    158          
    159          /*********************************************************************
    160           * LOCAL VARIABLES
    161           */

   \                                 In  segment XDATA_Z, align 1, keep-with-next
    162          uint8 myAppState = APP_INIT;
   \                     myAppState:
   \   000000                DS 1
   \   000001                REQUIRE __INIT_XDATA_Z

   \                                 In  segment XDATA_Z, align 1, keep-with-next
    163          uint8 keys_shift = 0;
   \                     keys_shift:
   \   000000                DS 1
   \   000001                REQUIRE __INIT_XDATA_Z

   \                                 In  segment XDATA_Z, align 1, keep-with-next
    164          uint8 type_join;		// Which type of EndPoint want to match
   \                     type_join:
   \   000000                DS 1
   \   000001                REQUIRE __INIT_XDATA_Z
    165          

   \                                 In  segment XDATA_Z, align 1, keep-with-next
    166          byte Sys_TaskID;
   \                     Sys_TaskID:
   \   000000                DS 1
   \   000001                REQUIRE __INIT_XDATA_Z
    167          

   \                                 In  segment XDATA_Z, align 1, keep-with-next
    168          devStates_t Sys_NwkState;   // 节点现在的网络状态
   \                     Sys_NwkState:
   \   000000                DS 1
   \   000001                REQUIRE __INIT_XDATA_Z
    169          

   \                                 In  segment XDATA_Z, align 1, keep-with-next
    170          byte Sys_TransID;  // 数据包的发送ID，每发一个自增1
   \                     Sys_TransID:
   \   000000                DS 1
   \   000001                REQUIRE __INIT_XDATA_Z
    171          
    172          // afAddrType_t Broadcast_DstAddr;
    173          
    174          /*********************************************************************
    175           * LOCAL FUNCTIONS
    176           */
    177          void Sys_Init( byte task_id );
    178          
    179          UINT16 Sys_ProcessEvent( byte task_id, UINT16 events );
    180          
    181          void Sys_AllowBind ( uint8 timeout );
    182          
    183          void Sys_MessageMSGCB( afIncomingMSGPacket_t *pckt, byte task_id );
    184          void Sys_AllowBindConfirm( uint16 source );
    185          // void Sys_SendMessage( byte task_id );
    186          
    187          /*********************************************************************
    188           * NETWORK LAYER CALLBACKS
    189           */
    190          
    191          /*********************************************************************
    192           * PUBLIC FUNCTIONS
    193           */
    194          
    195          /*********************************************************************
    196           * @fn      Sys_Init
    197           *
    198           * @brief   Initialization function for the Generic App Task.
    199           *          This is called during initialization and should contain
    200           *          any application specific initialization (ie. hardware
    201           *          initialization/setup, table initialization, power up
    202           *          notificaiton ... ).
    203           *
    204           * @param   task_id - the ID assigned by OSAL.  This ID should be
    205           *                    used to send messages and set timers.
    206           *
    207           * @return  none
    208           */

   \                                 In  segment BANKED_CODE, align 1, keep-with-next
    209          void Sys_Init( byte task_id )
   \                     Sys_Init:
    210          {
   \   000000   74F7         MOV     A,#-0x9
   \   000002   12....       LCALL   ?BANKED_ENTER_XDATA
   \   000005                ; Saved register size: 9
   \   000005                ; Auto size: 0
   \   000005   E9           MOV     A,R1
    211            Sys_TaskID = task_id;
   \   000006   90....       MOV     DPTR,#Sys_TaskID
   \   000009   F0           MOVX    @DPTR,A
    212          
    213            // Device hardware initialization can be added here or in main() (Zmain.c).
    214            // If the hardware is application specific - add it here.
    215            // If the hardware is other parts of the device add it in main().
    216          
    217            // Broadcast_DstAddr.addrMode = (afAddrMode_t)AddrBroadcast;
    218            // Broadcast_DstAddr.endPoint = SYS_ENDPOINT;
    219            // Broadcast_DstAddr.addr.shortAddr = 0xFFFF;
    220          
    221            // Fill out the endpoint description.
    222            Sys_epDesc.endPoint = SYS_ENDPOINT;
   \   00000A   90....       MOV     DPTR,#Sys_epDesc
   \   00000D   7402         MOV     A,#0x2
   \   00000F   F0           MOVX    @DPTR,A
    223            Sys_epDesc.task_id = &Sys_TaskID;
   \   000010   A3           INC     DPTR
   \   000011   74..         MOV     A,#Sys_TaskID & 0xff
   \   000013   F0           MOVX    @DPTR,A
   \   000014   A3           INC     DPTR
   \   000015   74..         MOV     A,#(Sys_TaskID >> 8) & 0xff
   \   000017   F0           MOVX    @DPTR,A
    224            Sys_epDesc.simpleDesc
    225                      = (SimpleDescriptionFormat_t *)&Sys_SimpleDesc;
   \   000018   A3           INC     DPTR
   \   000019   74..         MOV     A,#Sys_SimpleDesc & 0xff
   \   00001B   F0           MOVX    @DPTR,A
   \   00001C   A3           INC     DPTR
   \   00001D   74..         MOV     A,#(Sys_SimpleDesc >> 8) & 0xff
   \   00001F   F0           MOVX    @DPTR,A
    226            Sys_epDesc.latencyReq = noLatencyReqs;
   \   000020   A3           INC     DPTR
   \   000021   E4           CLR     A
   \   000022   F0           MOVX    @DPTR,A
    227          
    228            // Register the endpoint description with the AF
    229            afRegister( &Sys_epDesc );
   \   000023                ; Setup parameters for call to function afRegister
   \   000023   7A..         MOV     R2,#Sys_epDesc & 0xff
   \   000025   7B..         MOV     R3,#(Sys_epDesc >> 8) & 0xff
   \   000027   12....       LCALL   ??afRegister?relay
    230          
    231            type_join = 0;
   \   00002A   90....       MOV     DPTR,#type_join
   \   00002D   E4           CLR     A
   \   00002E   F0           MOVX    @DPTR,A
    232            // Set device as Enddevice
    233            //zgDeviceLogicalType = ZG_DEVICETYPE_ENDDEVICE;
    234          
    235            // To Update the display...
    236          }
   \   00002F                REQUIRE ?Subroutine0
   \   00002F                ; // Fall through to label ?Subroutine0

   \                                 In  segment BANKED_CODE, align 1, keep-with-next
   \                     ?Subroutine0:
   \   000000   7F01         MOV     R7,#0x1
   \   000002   02....       LJMP    ?BANKED_LEAVE_XDATA
    237          
    238          /*********************************************************************
    239           * @fn      Sys_ProcessEvent
    240           *
    241           * @brief   Generic Application Task event processor.  This function
    242           *          is called to process all events for the task.  Events
    243           *          include timers, messages and any other user defined events.
    244           *
    245           * @param   task_id  - The OSAL assigned task ID.
    246           * @param   events - events to process.  This is a bit map and can
    247           *                   contain more than one event.
    248           *
    249           * @return  none
    250           */

   \                                 In  segment BANKED_CODE, align 1, keep-with-next
    251          UINT16 Sys_ProcessEvent( byte task_id, UINT16 events )
   \                     Sys_ProcessEvent:
    252          {
   \   000000   74F2         MOV     A,#-0xe
   \   000002   12....       LCALL   ?BANKED_ENTER_XDATA
   \   000005                ; Saved register size: 14
   \   000005                ; Auto size: 0
   \   000005   89..         MOV     ?V0 + 2,R1
   \   000007   EA           MOV     A,R2
   \   000008   FE           MOV     R6,A
   \   000009   EB           MOV     A,R3
   \   00000A   FF           MOV     R7,A
    253          	afIncomingMSGPacket_t *MSGpkt = NULL;
    254          	afDataConfirm_t *afDataConfirm;
    255          
    256          	// Data Confirmation message fields
    257          	byte sentEP;
    258          	ZStatus_t sentStatus;
    259          	byte sentTransID;       // This should match the value sent
    260          
    261          	if ( events & SYS_EVENT_MSG )
   \   00000B   5480         ANL     A,#0x80
   \   00000D   6045         JZ      ??Sys_ProcessEvent_0
    262          	{
    263          		MSGpkt = (afIncomingMSGPacket_t *)osal_msg_receive( task_id );
   \   00000F                ; Setup parameters for call to function osal_msg_receive
   \   00000F   8012         SJMP    ??Sys_ProcessEvent_1
    264          		while ( MSGpkt )
    265          		{
    266          			switch ( MSGpkt->hdr.event )
    267          			{
    268          				case AF_DATA_CONFIRM_CMD: // 判断信息是否发送成功
    269          					// This message is received as a confirmation of a data packet sent.
    270          					// The status is of ZStatus_t type [defined in ZComDef.h]
    271          					// The message fields are defined in AF.h
    272          					afDataConfirm = (afDataConfirm_t *)MSGpkt;
    273          					sentEP = afDataConfirm->endpoint;
    274          					sentStatus = afDataConfirm->hdr.status;
    275          					sentTransID = afDataConfirm->transID;
    276          					(void)sentEP;
    277          					(void)sentTransID;
    278          
    279          					// Action taken when confirmation is received.
    280          					if ( sentStatus != ZSuccess )
    281          					{
    282          						// The data wasn't delivered -- Do something
    283          					}
    284          					break;
    285          
    286          				case AF_INCOMING_MSG_CMD:   // 接收信息
    287          					Sys_MessageMSGCB( MSGpkt, task_id );
    288          					break;
    289          
    290          				case ZDO_STATE_CHANGE:      // 设备网络状态改变
    291          					Sys_NwkState = (devStates_t)(MSGpkt->hdr.status);
   \                     ??Sys_ProcessEvent_2:
   \   000011   A3           INC     DPTR
   \   000012   E0           MOVX    A,@DPTR
   \   000013   90....       MOV     DPTR,#Sys_NwkState
   \   000016   F0           MOVX    @DPTR,A
    292          					if ( (Sys_NwkState == DEV_ROUTER)
    293          							|| (Sys_NwkState == DEV_END_DEVICE) )
    294          					{
    295          						;
    296          					}
    297          					break;
    298                            
    299          				default:
    300          					break;
    301          			}
    302          
    303          			// Release the memory
    304          			osal_msg_deallocate( (uint8 *)MSGpkt );
   \                     ??Sys_ProcessEvent_3:
   \   000017                ; Setup parameters for call to function osal_msg_deallocate
   \   000017   AA..         MOV     R2,?V0 + 0
   \   000019   AB..         MOV     R3,?V0 + 1
   \   00001B   12....       LCALL   ??osal_msg_deallocate?relay
    305          
    306          			// Next
    307          			MSGpkt = (afIncomingMSGPacket_t *)osal_msg_receive( Sys_TaskID );
   \   00001E                ; Setup parameters for call to function osal_msg_receive
   \   00001E   90....       MOV     DPTR,#Sys_TaskID
   \   000021   E0           MOVX    A,@DPTR
   \   000022   F9           MOV     R1,A
   \                     ??Sys_ProcessEvent_1:
   \   000023   12....       LCALL   ??osal_msg_receive?relay
   \   000026   8A..         MOV     ?V0 + 0,R2
   \   000028   8B..         MOV     ?V0 + 1,R3
   \   00002A   E5..         MOV     A,?V0 + 0
   \   00002C   45..         ORL     A,?V0 + 1
   \   00002E   601C         JZ      ??Sys_ProcessEvent_4
   \   000030   85..82       MOV     DPL,?V0 + 0
   \   000033   85..83       MOV     DPH,?V0 + 1
   \   000036   E0           MOVX    A,@DPTR
   \   000037   24E6         ADD     A,#-0x1a
   \   000039   6006         JZ      ??Sys_ProcessEvent_5
   \   00003B   2449         ADD     A,#0x49
   \   00003D   60D2         JZ      ??Sys_ProcessEvent_2
   \   00003F   80D6         SJMP    ??Sys_ProcessEvent_3
   \                     ??Sys_ProcessEvent_5:
   \   000041                ; Setup parameters for call to function Sys_MessageMSGCB
   \   000041   A9..         MOV     R1,?V0 + 2
   \   000043   AA..         MOV     R2,?V0 + 0
   \   000045   AB..         MOV     R3,?V0 + 1
   \   000047   12....       LCALL   ??Sys_MessageMSGCB?relay
   \   00004A   80CB         SJMP    ??Sys_ProcessEvent_3
    308          		}
    309          	  // return unprocessed events
    310          		return (events ^ SYS_EVENT_MSG);
   \                     ??Sys_ProcessEvent_4:
   \   00004C   EE           MOV     A,R6
   \   00004D   FA           MOV     R2,A
   \   00004E   EF           MOV     A,R7
   \   00004F   6480         XRL     A,#0x80
   \                     ??Sys_ProcessEvent_6:
   \   000051   FB           MOV     R3,A
   \   000052   8036         SJMP    ??Sys_ProcessEvent_7
    311          	}
    312          	if(events & CLOSE_LED3_EVT)
   \                     ??Sys_ProcessEvent_0:
   \   000054   EE           MOV     A,R6
   \   000055   5404         ANL     A,#0x4
   \   000057   600E         JZ      ??Sys_ProcessEvent_8
    313          	{
    314          		HalLedSet(HAL_LED_3, HAL_LED_MODE_ON);  //Close LED3
   \   000059                ; Setup parameters for call to function HalLedSet
   \   000059   7A01         MOV     R2,#0x1
   \   00005B   7904         MOV     R1,#0x4
   \   00005D   12....       LCALL   ??HalLedSet?relay
    315          		return (events ^ CLOSE_LED3_EVT);
   \   000060   EE           MOV     A,R6
   \   000061   6404         XRL     A,#0x4
   \                     ??Sys_ProcessEvent_9:
   \   000063   FA           MOV     R2,A
   \   000064   EF           MOV     A,R7
   \   000065   80EA         SJMP    ??Sys_ProcessEvent_6
    316          	}
    317          
    318          	if(events & CLOSE_LIGHT_EVT)
   \                     ??Sys_ProcessEvent_8:
   \   000067   EE           MOV     A,R6
   \   000068   5408         ANL     A,#0x8
   \   00006A   601A         JZ      ??Sys_ProcessEvent_10
    319          	{
    320                      HalLedSet ( HAL_LED_1, HAL_LED_MODE_ON );
   \   00006C                ; Setup parameters for call to function HalLedSet
   \   00006C   7A01         MOV     R2,#0x1
   \   00006E   7901         MOV     R1,#0x1
   \   000070   12....       LCALL   ??HalLedSet?relay
    321                      HalLedSet ( HAL_LED_2, HAL_LED_MODE_ON );
   \   000073                ; Setup parameters for call to function HalLedSet
   \   000073   7A01         MOV     R2,#0x1
   \   000075   7902         MOV     R1,#0x2
   \   000077   12....       LCALL   ??HalLedSet?relay
    322                      HalLedSet ( HAL_LED_3, HAL_LED_MODE_ON );
   \   00007A                ; Setup parameters for call to function HalLedSet
   \   00007A   7A01         MOV     R2,#0x1
   \   00007C   7904         MOV     R1,#0x4
   \   00007E   12....       LCALL   ??HalLedSet?relay
    323          	    return (events ^ CLOSE_LIGHT_EVT);
   \   000081   EE           MOV     A,R6
   \   000082   6408         XRL     A,#0x8
   \   000084   80DD         SJMP    ??Sys_ProcessEvent_9
    324          	}
    325          	// Discard unknown events
    326          	return 0;
   \                     ??Sys_ProcessEvent_10:
   \   000086   7A00         MOV     R2,#0x0
   \   000088   7B00         MOV     R3,#0x0
   \                     ??Sys_ProcessEvent_7:
   \   00008A   7F06         MOV     R7,#0x6
   \   00008C   02....       LJMP    ?BANKED_LEAVE_XDATA
    327          }
    328          
    329          
    330          /*********************************************************************
    331           * LOCAL FUNCTIONS
    332           */
    333          
    334          /*********************************************************************
    335           * @fn      Type2EP
    336           *
    337           * @brief   query for device type's corresponding endpoint number
    338           *
    339           * @param   type : which device type want to bind
    340           *
    341           * @return  Corresponding Endpoint number
    342           */

   \                                 In  segment BANKED_CODE, align 1, keep-with-next
    343          uint8 Type2EP(uint8 type)
   \                     Type2EP:
    344          {
   \   000000   C082         PUSH    DPL
   \   000002   C083         PUSH    DPH
   \   000004                ; Saved register size: 2
   \   000004                ; Auto size: 0
   \   000004   E9           MOV     A,R1
    345              switch(type)
   \   000005   14           DEC     A
   \   000006   6009         JZ      ??Type2EP_0
   \   000008   14           DEC     A
   \   000009   6028         JZ      ??Type2EP_1
   \   00000B   24FE         ADD     A,#-0x2
   \   00000D   6015         JZ      ??Type2EP_2
   \   00000F   8008         SJMP    ??Type2EP_3
    346              {
    347                  case BUTTON_TYPE_ID:
    348                    {
    349                          // 10~59
    350                          if(buttonCnt == BUTTON_NUM_MAX)
   \                     ??Type2EP_0:
   \   000011   90....       MOV     DPTR,#buttonCnt
   \   000014   E0           MOVX    A,@DPTR
   \   000015   6403         XRL     A,#0x3
   \   000017   7004         JNZ     ??Type2EP_4
    351                          {
    352                              return 0;     // error
   \                     ??Type2EP_3:
   \   000019   7900         MOV     R1,#0x0
   \   00001B   8024         SJMP    ??Type2EP_5
    353                          }
    354                          buttonCnt++;
   \                     ??Type2EP_4:
   \   00001D   E0           MOVX    A,@DPTR
   \   00001E   04           INC     A
   \   00001F   F0           MOVX    @DPTR,A
    355                          return (BUTTON_ENDPOINT+buttonCnt-1);
   \   000020   2409         ADD     A,#0x9
   \   000022   801C         SJMP    ??Type2EP_6
    356                    }
    357                  case SWITCH_TYPE_ID:
    358                    {
    359                          // 60~109
    360                          if(swCnt == SWITCH_NUM_MAX)
   \                     ??Type2EP_2:
   \   000024   90....       MOV     DPTR,#swCnt
   \   000027   E0           MOVX    A,@DPTR
   \   000028   6405         XRL     A,#0x5
   \   00002A   60ED         JZ      ??Type2EP_3
    361                          {
    362                              return 0;     // error
    363                          }
    364                          swCnt++;
   \   00002C   E0           MOVX    A,@DPTR
   \   00002D   04           INC     A
   \   00002E   F0           MOVX    @DPTR,A
    365                          return (SWITCH_ENDPOINT+swCnt-1);
   \   00002F   243B         ADD     A,#0x3b
   \   000031   800D         SJMP    ??Type2EP_6
    366                    }
    367                  case MOTOR_TYPE_ID:
    368                    {
    369                          // 110~119
    370                          if(motorCnt == MOTOR_NUM_MAX)
   \                     ??Type2EP_1:
   \   000033   90....       MOV     DPTR,#motorCnt
   \   000036   E0           MOVX    A,@DPTR
   \   000037   6402         XRL     A,#0x2
   \   000039   60DE         JZ      ??Type2EP_3
    371                          {
    372                            return 0;     // error
    373                          }
    374                          motorCnt++;
   \   00003B   E0           MOVX    A,@DPTR
   \   00003C   04           INC     A
   \   00003D   F0           MOVX    @DPTR,A
    375                          return (MOTOR_ENDPOINT+motorCnt-1);
   \   00003E   246D         ADD     A,#0x6d
   \                     ??Type2EP_6:
   \   000040   F9           MOV     R1,A
    376                    }
    377              }
   \                     ??Type2EP_5:
   \   000041   02....       LJMP    ?Subroutine1 & 0xFFFF
    378              return 0;
    379          }

   \                                 In  segment BANKED_CODE, align 1, keep-with-next
   \                     ?Subroutine1:
   \   000000   D083         POP     DPH
   \   000002   D082         POP     DPL
   \   000004   02....       LJMP    ?BRET
    380          
    381          
    382          /*********************************************************************
    383           * @fn      Sys_MessageMSGCB
    384           *
    385           * @brief   Data message processor callback.  This function processes
    386           *          any incoming data - probably from other devices.  So, based
    387           *          on cluster ID, perform the intended action.
    388           *
    389           * @param   none
    390           *
    391           * @return  none
    392           */

   \                                 In  segment BANKED_CODE, align 1, keep-with-next
    393          void Sys_MessageMSGCB( afIncomingMSGPacket_t *pkt, byte task_id )
   \                     Sys_MessageMSGCB:
    394          {
   \   000000   74F5         MOV     A,#-0xb
   \   000002   12....       LCALL   ?BANKED_ENTER_XDATA
   \   000005                ; Saved register size: 11
   \   000005                ; Auto size: 4
   \   000005   74FC         MOV     A,#-0x4
   \   000007   12....       LCALL   ?ALLOC_XSTACK8
   \   00000A   EA           MOV     A,R2
   \   00000B   FE           MOV     R6,A
   \   00000C   EB           MOV     A,R3
   \   00000D   FF           MOV     R7,A
    395          	switch ( pkt->clusterId )
   \   00000E   8E82         MOV     DPL,R6
   \   000010   8F83         MOV     DPH,R7
   \   000012   A3           INC     DPTR
   \   000013   A3           INC     DPTR
   \   000014   A3           INC     DPTR
   \   000015   A3           INC     DPTR
   \   000016   E0           MOVX    A,@DPTR
   \   000017   6401         XRL     A,#0x1
   \   000019   7002         JNZ     ??Sys_MessageMSGCB_0
   \   00001B   A3           INC     DPTR
   \   00001C   E0           MOVX    A,@DPTR
   \                     ??Sys_MessageMSGCB_0:
   \   00001D   7070         JNZ     ??Sys_MessageMSGCB_1
    396          	{
    397          		case SYS_CLUSTERID:
    398                          {
    399          			char flag[4];
    400          			osal_memcpy( flag, pkt->cmd.Data, 4 );
   \   00001F                ; Setup parameters for call to function osal_memcpy
   \   00001F   12....       LCALL   ?Subroutine3 & 0xFFFF
   \                     ??CrossCallReturnLabel_2:
   \   000022   F5..         MOV     ?V0 + 0,A
   \   000024   A3           INC     DPTR
   \   000025   E0           MOVX    A,@DPTR
   \   000026   F5..         MOV     ?V0 + 1,A
   \   000028   75..00       MOV     ?V0 + 2,#0x0
   \   00002B   78..         MOV     R0,#?V0 + 0
   \   00002D   12....       LCALL   ?PUSH_XSTACK_I_THREE
   \   000030   7C04         MOV     R4,#0x4
   \   000032   7D00         MOV     R5,#0x0
   \   000034   7403         MOV     A,#0x3
   \   000036   12....       LCALL   ?XSTACK_DISP0_8
   \   000039   AA82         MOV     R2,DPL
   \   00003B   AB83         MOV     R3,DPH
   \   00003D   12....       LCALL   ??osal_memcpy?relay
   \   000040   7403         MOV     A,#0x3
   \   000042   12....       LCALL   ?DEALLOC_XSTACK8
    401          			if( osal_memcmp( flag, "bind", 4) )
   \   000045                ; Setup parameters for call to function osal_memcmp
   \   000045   75....       MOV     ?V0 + 0,#`?<Constant "bind">` & 0xff
   \   000048   75....       MOV     ?V0 + 1,#(`?<Constant "bind">` >> 8) & 0xff
   \   00004B   78..         MOV     R0,#?V0 + 0
   \   00004D   12....       LCALL   ?PUSH_XSTACK_I_THREE
   \   000050   7C04         MOV     R4,#0x4
   \   000052   7D00         MOV     R5,#0x0
   \   000054   7403         MOV     A,#0x3
   \   000056   12....       LCALL   ?XSTACK_DISP0_8
   \   000059   A982         MOV     R1,DPL
   \   00005B   AA83         MOV     R2,DPH
   \   00005D   7B00         MOV     R3,#0x0
   \   00005F   12....       LCALL   ??osal_memcmp?relay
   \   000062   7403         MOV     A,#0x3
   \   000064   12....       LCALL   ?DEALLOC_XSTACK8
   \   000067   E9           MOV     A,R1
   \   000068   6025         JZ      ??Sys_MessageMSGCB_1
    402          			{
    403          				if( pkt->cmd.Data[4] & MY_DEVICE )
    404          				{
    405                                                  type_join = Type2EP(pkt->cmd.Data[4]);  // query for this type's corresponding endpoint number
   \   00006A                ; Setup parameters for call to function Type2EP
   \   00006A   12....       LCALL   ?Subroutine3 & 0xFFFF
   \                     ??CrossCallReturnLabel_3:
   \   00006D   F8           MOV     R0,A
   \   00006E   A3           INC     DPTR
   \   00006F   E0           MOVX    A,@DPTR
   \   000070   F583         MOV     DPH,A
   \   000072   8882         MOV     DPL,R0
   \   000074   A3           INC     DPTR
   \   000075   A3           INC     DPTR
   \   000076   A3           INC     DPTR
   \   000077   A3           INC     DPTR
   \   000078   E0           MOVX    A,@DPTR
   \   000079   F9           MOV     R1,A
   \   00007A   12....       LCALL   ??Type2EP?relay
   \   00007D   E9           MOV     A,R1
   \   00007E   90....       MOV     DPTR,#type_join
   \   000081   F0           MOVX    @DPTR,A
    406                                                  if(!type_join)
   \   000082   600B         JZ      ??Sys_MessageMSGCB_1
    407                                                  {
    408                                                      // faild to add endpoint
    409                                                  }
    410                                                  else
    411                                                  {
    412                                                      HalLedSet ( HAL_LED_3, HAL_LED_MODE_OFF );  // OPEN LED3
   \   000084                ; Setup parameters for call to function HalLedSet
   \   000084   7A00         MOV     R2,#0x0
   \   000086   12....       LCALL   ?Subroutine2 & 0xFFFF
    413                                                      osal_start_timerEx(Sys_TaskID, CLOSE_LED3_EVT, 5000);    // Close LED3 after 5s
    414                 					    keys_shift = 1;
   \                     ??CrossCallReturnLabel_0:
   \   000089   90....       MOV     DPTR,#keys_shift
   \   00008C   7401         MOV     A,#0x1
   \   00008E   F0           MOVX    @DPTR,A
    415                                                  }
    416          				}
    417          			}
    418          #if defined( WIN32 )
    419          			WPRINTSTR( pkt->cmd.Data );
    420          #endif
    421          			break;
    422                          }
    423          	}
    424          }
   \                     ??Sys_MessageMSGCB_1:
   \   00008F   7404         MOV     A,#0x4
   \   000091   12....       LCALL   ?DEALLOC_XSTACK8
   \   000094   7F03         MOV     R7,#0x3
   \   000096   02....       LJMP    ?BANKED_LEAVE_XDATA

   \                                 In  segment BANKED_CODE, align 1, keep-with-next
   \                     ?Subroutine3:
   \   000000   EE           MOV     A,R6
   \   000001   2422         ADD     A,#0x22
   \   000003   F582         MOV     DPL,A
   \   000005   EF           MOV     A,R7
   \   000006   3400         ADDC    A,#0x0
   \   000008   F583         MOV     DPH,A
   \   00000A   E0           MOVX    A,@DPTR
   \   00000B   22           RET

   \                                 In  segment BANKED_CODE, align 1, keep-with-next
   \                     ?Subroutine2:
   \   000000   7904         MOV     R1,#0x4
   \   000002   12....       LCALL   ??HalLedSet?relay
   \   000005                ; Setup parameters for call to function osal_start_timerEx
   \   000005                ; Setup parameters for call to function osal_start_timerEx
   \   000005   7C88         MOV     R4,#-0x78
   \   000007   7D13         MOV     R5,#0x13
   \   000009   7A04         MOV     R2,#0x4
   \   00000B   7B00         MOV     R3,#0x0
   \   00000D   90....       MOV     DPTR,#Sys_TaskID
   \   000010   E0           MOVX    A,@DPTR
   \   000011   F9           MOV     R1,A
   \   000012   12....       LCALL   ??osal_start_timerEx?relay
   \   000015   22           RET
    425          
    426          /******************************************************************************
    427           * @fn          Sys_AllowBind
    428           *
    429           * @brief       The zb_AllowBind function puts the device into the
    430           *              Allow Binding Mode for a given period of time.  A peer device
    431           *              can establish a binding to a device in the Allow Binding Mode
    432           *              by calling zb_BindDevice with a destination address of NULL
    433           *
    434           * @param       timeout - The number of seconds to remain in the allow binding
    435           *                        mode.  Valid values range from 1 through 65.
    436           *                        If 0, the Allow Bind mode will be set false without TO
    437           *                        If greater than 64, the Allow Bind mode will be true
    438           *
    439           * @return      ZB_SUCCESS if the device entered the allow bind mode, else
    440           *              an error code.
    441           */
    442          

   \                                 In  segment BANKED_CODE, align 1, keep-with-next
    443          void Sys_AllowBind ( uint8 timeout )
   \                     Sys_AllowBind:
    444          {
   \   000000   74F7         MOV     A,#-0x9
   \   000002   12....       LCALL   ?BANKED_ENTER_XDATA
   \   000005                ; Saved register size: 9
   \   000005                ; Auto size: 0
   \   000005   E9           MOV     A,R1
   \   000006   FE           MOV     R6,A
    445            if ( timeout == 0 )
   \   000007   700C         JNZ     ??Sys_AllowBind_0
    446            {
    447              afSetMatch(type_join, FALSE);
   \   000009                ; Setup parameters for call to function afSetMatch
   \   000009   7A00         MOV     R2,#0x0
   \   00000B   90....       MOV     DPTR,#type_join
   \   00000E   E0           MOVX    A,@DPTR
   \   00000F   F9           MOV     R1,A
   \   000010   12....       LCALL   ??afSetMatch?relay
   \   000013   8016         SJMP    ??Sys_AllowBind_1
    448            }
    449            else
    450            {
    451              afSetMatch(type_join, TRUE);
   \                     ??Sys_AllowBind_0:
   \   000015                ; Setup parameters for call to function afSetMatch
   \   000015   7A01         MOV     R2,#0x1
   \   000017   90....       MOV     DPTR,#type_join
   \   00001A   E0           MOVX    A,@DPTR
   \   00001B   F9           MOV     R1,A
   \   00001C   12....       LCALL   ??afSetMatch?relay
    452              if ( timeout != 0xFF )
   \   00001F   74FF         MOV     A,#-0x1
   \   000021   6E           XRL     A,R6
   \   000022   6007         JZ      ??Sys_AllowBind_1
    453              {
    454                if ( timeout > 64 )
    455                {
    456                  timeout = 64;
    457                }
    458                HalLedSet ( HAL_LED_3, HAL_LED_MODE_ON );    // Close LED3
   \   000024                ; Setup parameters for call to function HalLedSet
   \   000024   7A01         MOV     R2,#0x1
   \   000026   7904         MOV     R1,#0x4
   \   000028   12....       LCALL   ??HalLedSet?relay
    459              }
    460            }
    461            return;
   \                     ??Sys_AllowBind_1:
   \   00002B   02....       LJMP    ?Subroutine0 & 0xFFFF
    462          }
    463          
    464          /******************************************************************************
    465           * @fn          Button_AllowBindConfirm
    466           *
    467           * @brief       Indicates when another device attempted to bind to this device
    468           *              Shut Up allowbind after 1s.
    469           *
    470           * @param
    471           *
    472           * @return      none
    473           */

   \                                 In  segment BANKED_CODE, align 1, keep-with-next
    474          void Sys_AllowBindConfirm( uint16 source )
   \                     Sys_AllowBindConfirm:
    475          {
   \   000000   C082         PUSH    DPL
   \   000002   C083         PUSH    DPH
   \   000004                ; Saved register size: 2
   \   000004                ; Auto size: 0
    476              type_join = 0;
   \   000004   90....       MOV     DPTR,#type_join
   \   000007   E4           CLR     A
   \   000008   F0           MOVX    @DPTR,A
    477              HalLedSet ( HAL_LED_3, HAL_LED_MODE_OFF );
   \   000009                ; Setup parameters for call to function HalLedSet
   \   000009   FA           MOV     R2,A
   \   00000A   12....       LCALL   ?Subroutine2 & 0xFFFF
    478              osal_start_timerEx(Sys_TaskID, CLOSE_LED3_EVT, 5000);    // Close LED3 after 3s
    479          }
   \                     ??CrossCallReturnLabel_1:
   \   00000D   80..         SJMP    ?Subroutine1
    480          
    481          /*********************************************************************
    482           * @fn      Sys_SendMessage
    483           *
    484           * @brief   Send message.
    485           *
    486           * @param   none
    487           *
    488           * @return  none
    489           *//*
    490          void Sys_SendMessage( void )
    491          {
    492          	char theMessageData[] = "";
    493          
    494          	if ( AF_DataRequest( &Button_DstAddr, &Button_epDesc,
    495          											 button_CLUSTERID,
    496          											 (byte)osal_strlen( theMessageData ) + 1,
    497          											 (byte *)&theMessageData,
    498          											 &Sys_TransID,
    499          											 AF_DISCV_ROUTE, AF_DEFAULT_RADIUS ) == afStatus_SUCCESS )
    500          	{
    501          		// Successfully requested to be sent.
    502          	}
    503          	else
    504          	{
    505          		// Error occurred in request to send.
    506          	}
    507          }
    508          */
    509          
    510          /*********************************************************************
    511          *********************************************************************/
    512          /******************************************************************************
    513           * @fn          zb_StartConfirm
    514           *
    515           * @brief       The zb_StartConfirm callback is called by the ZigBee stack
    516           *              after a start request operation completes
    517           *
    518           * @param       status - The status of the start operation.  Status of
    519           *                       ZB_SUCCESS indicates the start operation completed
    520           *                       successfully.  Else the status is an error code.
    521           *
    522           * @return      none
    523           */

   \                                 In  segment BANKED_CODE, align 1, keep-with-next
    524          void zb_StartConfirm( uint8 status )
   \                     zb_StartConfirm:
    525          {
   \   000000   C082         PUSH    DPL
   \   000002   C083         PUSH    DPH
   \   000004                ; Saved register size: 2
   \   000004                ; Auto size: 0
    526            if ( status == ZB_SUCCESS )
   \   000004   E9           MOV     A,R1
   \   000005   7006         JNZ     ??zb_StartConfirm_0
    527            {
    528                  myAppState = APP_START;
   \   000007   90....       MOV     DPTR,#myAppState
   \   00000A   7401         MOV     A,#0x1
   \   00000C   F0           MOVX    @DPTR,A
    529            }
    530            else
    531            {
    532            }
    533          }
   \                     ??zb_StartConfirm_0:
   \   00000D                REQUIRE ?Subroutine1
   \   00000D                ; // Fall through to label ?Subroutine1
    534          
    535          /******************************************************************************
    536           * @fn          zb_FindDeviceConfirm
    537           *
    538           * @brief       The zb_FindDeviceConfirm callback function is called by the
    539           *              ZigBee stack when a find device operation completes.
    540           *
    541           * @param       searchType - The type of search that was performed.
    542           *              searchKey - Value that the search was executed on.
    543           *              result - The result of the search.
    544           *
    545           * @return      none
    546           */

   \                                 In  segment BANKED_CODE, align 1, keep-with-next
    547          void zb_FindDeviceConfirm( uint8 searchType, uint8 *searchKey, uint8 *result )
   \                     zb_FindDeviceConfirm:
    548          {
   \   000000                ; Saved register size: 0
   \   000000                ; Auto size: 0
    549          }
   \   000000   02....       LJMP    ?BRET
    550          

   \                                 In  segment BANKED_CODE, align 1, keep-with-next
    551          void zb_HandleOsalEvent( uint16 event )
   \                     zb_HandleOsalEvent:
    552          {
   \   000000                ; Saved register size: 0
   \   000000                ; Auto size: 0
    553          
    554          }
   \   000000   02....       LJMP    ?BRET
    555          
    556          // The order in this table must be identical to the task initialization calls below in osalInitTask.
    557          

   \                                 In  segment XDATA_I, align 1, keep-with-next
    558          const pTaskEventHandlerFn tasksArr[] = {
   \                     tasksArr:
   \   000000                DS 20
   \   000014                REQUIRE `?<Initializer for tasksArr>`
   \   000014                REQUIRE __INIT_XDATA_I
    559            macEventLoop,
    560            nwk_event_loop,
    561            Hal_ProcessEvent,
    562          #if defined( MT_TASK )
    563            MT_ProcessEvent,
    564          #endif
    565            APS_event_loop,
    566            ZDApp_event_loop,
    567          
    568            Sys_ProcessEvent,
    569            Button_ProcessEvent,
    570            Motor_ProcessEvent,
    571            Switch_ProcessEvent,
    572            SAPI_ProcessEvent
    573          };
    574          

   \                                 In  segment XDATA_I, align 1, keep-with-next
    575          const uint8 tasksCnt = sizeof( tasksArr ) / sizeof( tasksArr[0] );
   \                     tasksCnt:
   \   000000                DS 1
   \   000001                REQUIRE `?<Initializer for tasksCnt>`
   \   000001                REQUIRE __INIT_XDATA_I

   \                                 In  segment XDATA_Z, align 1, keep-with-next
    576          uint16 *tasksEvents;
   \                     tasksEvents:
   \   000000                DS 2
   \   000002                REQUIRE __INIT_XDATA_Z
    577          
    578          
    579          
    580          /*********************************************************************
    581           * @fn      osalInitTasks
    582           *
    583           * @brief   This function invokes the initialization function for each task.
    584           *
    585           * @param   void
    586           *
    587           * @return  none
    588           */

   \                                 In  segment BANKED_CODE, align 1, keep-with-next
    589          void osalInitTasks( void )
   \                     osalInitTasks:
    590          {
   \   000000   C082         PUSH    DPL
   \   000002   C083         PUSH    DPH
   \   000004                ; Saved register size: 2
   \   000004                ; Auto size: 0
    591            uint8 taskID = 0;
    592          
    593            tasksEvents = (uint16 *)osal_mem_alloc( sizeof( uint16 ) * tasksCnt);
   \   000004                ; Setup parameters for call to function osal_mem_alloc
   \   000004   7A14         MOV     R2,#0x14
   \   000006   7B00         MOV     R3,#0x0
   \   000008   12....       LCALL   ??osal_mem_alloc?relay
   \   00000B   90....       MOV     DPTR,#tasksEvents
   \   00000E   EA           MOV     A,R2
   \   00000F   F0           MOVX    @DPTR,A
   \   000010   A3           INC     DPTR
   \   000011   EB           MOV     A,R3
   \   000012   F0           MOVX    @DPTR,A
    594            osal_memset( tasksEvents, 0, (sizeof( uint16 ) * tasksCnt));
   \   000013                ; Setup parameters for call to function osal_memset
   \   000013   7C14         MOV     R4,#0x14
   \   000015   7D00         MOV     R5,#0x0
   \   000017   7900         MOV     R1,#0x0
   \   000019   12....       LCALL   ??osal_memset?relay
    595          
    596            macTaskInit( taskID++ );
   \   00001C                ; Setup parameters for call to function macTaskInit
   \   00001C   7900         MOV     R1,#0x0
   \   00001E   12....       LCALL   ??macTaskInit?relay
    597            nwk_init( taskID++ );
   \   000021                ; Setup parameters for call to function nwk_init
   \   000021   7901         MOV     R1,#0x1
   \   000023   12....       LCALL   ??nwk_init?relay
    598            Hal_Init( taskID++ );
   \   000026                ; Setup parameters for call to function Hal_Init
   \   000026   7902         MOV     R1,#0x2
   \   000028   12....       LCALL   ??Hal_Init?relay
    599          #if defined( MT_TASK )
    600            MT_TaskInit( taskID++ );
    601          #endif
    602            APS_Init( taskID++ );
   \   00002B                ; Setup parameters for call to function APS_Init
   \   00002B   7903         MOV     R1,#0x3
   \   00002D   12....       LCALL   ??APS_Init?relay
    603            ZDApp_Init( taskID++ );
   \   000030                ; Setup parameters for call to function ZDApp_Init
   \   000030   7904         MOV     R1,#0x4
   \   000032   12....       LCALL   ??ZDApp_Init?relay
    604            Sys_Init( taskID++ );
   \   000035                ; Setup parameters for call to function Sys_Init
   \   000035   7905         MOV     R1,#0x5
   \   000037   12....       LCALL   ??Sys_Init?relay
    605            Button_Init( taskID++ );
   \   00003A                ; Setup parameters for call to function Button_Init
   \   00003A   7906         MOV     R1,#0x6
   \   00003C   12....       LCALL   ??Button_Init?relay
    606            Motor_Init( taskID++ );
   \   00003F                ; Setup parameters for call to function Motor_Init
   \   00003F   7907         MOV     R1,#0x7
   \   000041   12....       LCALL   ??Motor_Init?relay
    607            Switch_Init( taskID++ );
   \   000044                ; Setup parameters for call to function Switch_Init
   \   000044   7908         MOV     R1,#0x8
   \   000046   12....       LCALL   ??Switch_Init?relay
    608            SAPI_Init( taskID );
   \   000049                ; Setup parameters for call to function SAPI_Init
   \   000049   7909         MOV     R1,#0x9
   \   00004B   12....       LCALL   ??SAPI_Init?relay
    609          }
   \   00004E   80..         SJMP    ?Subroutine1

   \                                 In  segment XDATA_ID, align 1, keep-with-next
   \                     `?<Initializer for <Constant "bind">>`:
   \   000000   62696E64     DB "bind"
   \            00      

   \                                 In  segment XDATA_ID, align 1, keep-with-next
   \                     `?<Initializer for AppTitle>`:
   \   000000   53656E73     DB "SensorAPP"
   \            6F724150
   \            5000    

   \                                 In  segment XDATA_ID, align 1, keep-with-next
   \                     `?<Initializer for Sys_ClusterList>`:
   \   000000   0100         DW 1

   \                                 In  segment XDATA_ID, align 1, keep-with-next
   \                     `?<Initializer for Zb_ClusterList>`:
   \   000000   0200         DW 2

   \                                 In  segment XDATA_ID, align 1, keep-with-next
   \                     `?<Initializer for Sys_SimpleDesc>`:
   \   000000   02           DB 2
   \   000001   040F         DW 3844
   \   000003   0100         DW 1
   \   000005   00           DB 0
   \   000006   01           DB 1
   \   000007   ....         DW Sys_ClusterList
   \   000009   01           DB 1
   \   00000A   ....         DW Sys_ClusterList

   \                                 In  segment XDATA_ID, align 1, keep-with-next
   \                     `?<Initializer for zb_SimpleDesc>`:
   \   000000   03           DB 3
   \   000001   040F         DW 3844
   \   000003   0100         DW 1
   \   000005   00           DB 0
   \   000006   01           DB 1
   \   000007   ....         DW Zb_ClusterList
   \   000009   01           DB 1
   \   00000A   ....         DW Zb_ClusterList

   \                                 In  segment XDATA_ID, align 1, keep-with-next
   \                     `?<Initializer for tasksArr>`:
   \   000000   ....         DW ??macEventLoop?relay
   \   000002   ....         DW ??nwk_event_loop?relay
   \   000004   ....         DW ??Hal_ProcessEvent?relay
   \   000006   ....         DW ??APS_event_loop?relay
   \   000008   ....         DW ??ZDApp_event_loop?relay
   \   00000A   ....         DW ??Sys_ProcessEvent?relay
   \   00000C   ....         DW ??Button_ProcessEvent?relay
   \   00000E   ....         DW ??Motor_ProcessEvent?relay
   \   000010   ....         DW ??Switch_ProcessEvent?relay
   \   000012   ....         DW ??SAPI_ProcessEvent?relay

   \                                 In  segment XDATA_ID, align 1, keep-with-next
   \                     `?<Initializer for tasksCnt>`:
   \   000000   0A           DB 10

   \                                 In  segment BANK_RELAYS, align 1
   \                     ??Sys_Init?relay:
   \   000000   12....       LCALL   ?BDISPATCH
   \   000003   ......       DC24    Sys_Init

   \                                 In  segment BANK_RELAYS, align 1
   \                     ??Sys_ProcessEvent?relay:
   \   000000   12....       LCALL   ?BDISPATCH
   \   000003   ......       DC24    Sys_ProcessEvent

   \                                 In  segment BANK_RELAYS, align 1
   \                     ??Type2EP?relay:
   \   000000   12....       LCALL   ?BDISPATCH
   \   000003   ......       DC24    Type2EP

   \                                 In  segment BANK_RELAYS, align 1
   \                     ??Sys_MessageMSGCB?relay:
   \   000000   12....       LCALL   ?BDISPATCH
   \   000003   ......       DC24    Sys_MessageMSGCB

   \                                 In  segment BANK_RELAYS, align 1
   \                     ??Sys_AllowBind?relay:
   \   000000   12....       LCALL   ?BDISPATCH
   \   000003   ......       DC24    Sys_AllowBind

   \                                 In  segment BANK_RELAYS, align 1
   \                     ??Sys_AllowBindConfirm?relay:
   \   000000   12....       LCALL   ?BDISPATCH
   \   000003   ......       DC24    Sys_AllowBindConfirm

   \                                 In  segment BANK_RELAYS, align 1
   \                     ??zb_StartConfirm?relay:
   \   000000   12....       LCALL   ?BDISPATCH
   \   000003   ......       DC24    zb_StartConfirm

   \                                 In  segment BANK_RELAYS, align 1
   \                     ??zb_FindDeviceConfirm?relay:
   \   000000   12....       LCALL   ?BDISPATCH
   \   000003   ......       DC24    zb_FindDeviceConfirm

   \                                 In  segment BANK_RELAYS, align 1
   \                     ??zb_HandleOsalEvent?relay:
   \   000000   12....       LCALL   ?BDISPATCH
   \   000003   ......       DC24    zb_HandleOsalEvent

   \                                 In  segment BANK_RELAYS, align 1
   \                     ??osalInitTasks?relay:
   \   000000   12....       LCALL   ?BDISPATCH
   \   000003   ......       DC24    osalInitTasks

   \                                 In  segment XDATA_I, align 1, keep-with-next
   \                     `?<Constant "bind">`:
   \   000000                DS 5
   \   000005                REQUIRE `?<Initializer for <Constant "bind">>`
   \   000005                REQUIRE __INIT_XDATA_I

   Maximum stack usage in bytes:

     Function                 ISTACK PSTACK XSTACK
     --------                 ------ ------ ------
     Sys_AllowBind                0      0      9
       -> afSetMatch              0      0     18
       -> afSetMatch              0      0     18
       -> HalLedSet               0      0     18
     Sys_AllowBindConfirm         2      0      0
       -> HalLedSet               4      0      0
       -> osal_start_timerEx      4      0      0
     Sys_Init                     0      0      9
       -> afRegister              0      0     18
     Sys_MessageMSGCB             0      0     32
       -> osal_memcpy             0      0     36
       -> osal_memcmp             0      0     36
       -> Type2EP                 0      0     30
       -> HalLedSet               0      0     30
       -> osal_start_timerEx      0      0     30
     Sys_ProcessEvent             0      0     14
       -> osal_msg_receive        0      0     28
       -> osal_msg_deallocate     0      0     28
       -> osal_msg_receive        0      0     28
       -> Sys_MessageMSGCB        0      0     28
       -> HalLedSet               0      0     28
       -> HalLedSet               0      0     28
       -> HalLedSet               0      0     28
       -> HalLedSet               0      0     28
     Type2EP                      2      0     15
     osalInitTasks                2      0      0
       -> osal_mem_alloc          4      0      0
       -> osal_memset             4      0      0
       -> macTaskInit             4      0      0
       -> nwk_init                4      0      0
       -> Hal_Init                4      0      0
       -> APS_Init                4      0      0
       -> ZDApp_Init              4      0      0
       -> Sys_Init                4      0      0
       -> Button_Init             4      0      0
       -> Motor_Init              4      0      0
       -> Switch_Init             4      0      0
       -> SAPI_Init               4      0      0
     zb_FindDeviceConfirm         0      0      0
     zb_HandleOsalEvent           0      0      0
     zb_StartConfirm              2      0      0


   Segment part sizes:

     Function/Label                       Bytes
     --------------                       -----
     AppTitle                               10
     Sys_ClusterList                         2
     Zb_ClusterList                          2
     Sys_SimpleDesc                         12
     zb_SimpleDesc                          12
     Sys_epDesc                              6
     myAppState                              1
     keys_shift                              1
     type_join                               1
     Sys_TaskID                              1
     Sys_NwkState                            1
     Sys_TransID                             1
     Sys_Init                               47
     ?Subroutine0                            5
     Sys_ProcessEvent                      143
     Type2EP                                68
     ?Subroutine1                            7
     Sys_MessageMSGCB                      153
     ?Subroutine3                           12
     ?Subroutine2                           22
     Sys_AllowBind                          46
     Sys_AllowBindConfirm                   15
     zb_StartConfirm                        13
     zb_FindDeviceConfirm                    3
     zb_HandleOsalEvent                      3
     tasksArr                               20
     tasksCnt                                1
     tasksEvents                             2
     osalInitTasks                          80
     ?<Initializer for <Constant "bind">>    5
     ?<Initializer for AppTitle>            10
     ?<Initializer for Sys_ClusterList>      2
     ?<Initializer for Zb_ClusterList>       2
     ?<Initializer for Sys_SimpleDesc>      12
     ?<Initializer for zb_SimpleDesc>       12
     ?<Initializer for tasksArr>            20
     ?<Initializer for tasksCnt>             1
     ??Sys_Init?relay                        6
     ??Sys_ProcessEvent?relay                6
     ??Type2EP?relay                         6
     ??Sys_MessageMSGCB?relay                6
     ??Sys_AllowBind?relay                   6
     ??Sys_AllowBindConfirm?relay            6
     ??zb_StartConfirm?relay                 6
     ??zb_FindDeviceConfirm?relay            6
     ??zb_HandleOsalEvent?relay              6
     ??osalInitTasks?relay                   6
     ?<Constant "bind">                      5

 
 617 bytes in segment BANKED_CODE
  60 bytes in segment BANK_RELAYS
  64 bytes in segment XDATA_I
  64 bytes in segment XDATA_ID
  14 bytes in segment XDATA_Z
 
 741 bytes of CODE  memory
  78 bytes of XDATA memory

Errors: none
Warnings: none
