///////////////////////////////////////////////////////////////////////////////
//                                                                            /
// IAR C/C++ Compiler V8.10.3.10338/W32 for 8051        01/Sep/2017  22:48:46 /
// Copyright 2004-2011 IAR Systems AB.                                        /
//                                                                            /
//    Core               =  plain                                             /
//    Code model         =  banked                                            /
//    Data model         =  large                                             /
//    Calling convention =  xdata reentrant                                   /
//    Constant location  =  data_rom                                          /
//    Dptr setup         =  1,16                                              /
//    Source file        =  D:\ProgramData\Hardware\zigbee\Projects\zstack\Sa /
//                          mples\SensorSys\Source\SensorSys_Terminator.c     /
//    Command line       =  -f D:\ProgramData\Hardware\zigbee\Projects\zstack /
//                          \Samples\SensorSys\CC2530DB\..\..\..\Tools\CC2530 /
//                          DB\f8wEndev.cfg (-DCPU32MHZ -DROOT=__near_func    /
//                          -DMAC_CFG_TX_DATA_MAX=3 -DMAC_CFG_TX_MAX=6        /
//                          -DMAC_CFG_RX_MAX=3) -f D:\ProgramData\Hardware\zi /
//                          gbee\Projects\zstack\Samples\SensorSys\CC2530DB\. /
//                          .\..\..\Tools\CC2530DB\f8wConfig.cfg              /
//                          (-DZIGBEEPRO -DSECURE=0 -DZG_SECURE_DYNAMIC=0     /
//                          -DREFLECTOR -DDEFAULT_CHANLIST=0x00000800         /
//                          -DZDAPP_CONFIG_PAN_ID=0xFFF1                      /
//                          -DNWK_START_DELAY=100 -DEXTENDED_JOINING_RANDOM_M /
//                          ASK=0x007F -DBEACON_REQUEST_DELAY=100             /
//                          -DBEACON_REQ_DELAY_MASK=0x00FF                    /
//                          -DLINK_STATUS_JITTER_MASK=0x007F                  /
//                          -DROUTE_EXPIRY_TIME=30 -DAPSC_ACK_WAIT_DURATION_P /
//                          OLLED=3000 -DNWK_INDIRECT_MSG_TIMEOUT=7           /
//                          -DMAX_RREQ_ENTRIES=8 -DAPSC_MAX_FRAME_RETRIES=3   /
//                          -DNWK_MAX_DATA_RETRIES=2                          /
//                          -DMAX_POLL_FAILURE_RETRIES=2 -DMAX_BCAST=9        /
//                          -DAPS_MAX_GROUPS=16 -DMAX_RTG_ENTRIES=40          /
//                          -DNWK_MAX_BINDING_ENTRIES=4                       /
//                          -DMAX_BINDING_CLUSTER_IDS=4                       /
//                          "-DDEFAULT_KEY={0x01, 0x03, 0x05, 0x07, 0x09,     /
//                          0x0B, 0x0D, 0x0F, 0x00, 0x02, 0x04, 0x06, 0x08,   /
//                          0x0A, 0x0C, 0x0D}" -DMAC_MAX_FRAME_SIZE=116       /
//                          -DZDNWKMGR_MIN_TRANSMISSIONS=20 "-DCONST=const    /
//                          __code" -DGENERIC=__generic                       /
//                          -DRFD_RCVC_ALWAYS_ON=FALSE -DPOLL_RATE=1000       /
//                          -DQUEUED_POLL_RATE=100 -DRESPONSE_POLL_RATE=100)  /
//                          -DREJOIN_POLL_RATE=440 D:\ProgramData\Hardware\zi /
//                          gbee\Projects\zstack\Samples\SensorSys\Source\Sen /
//                          sorSys_Terminator.c -D NWK_AUTO_POLL -D           /
//                          HOLD_AUTO_START -D REFLECTOR -D POWER_SAVING -D   /
//                          NV_INIT -D xNV_RESTORE -D xZTOOL_P1 -D xMT_TASK   /
//                          -D xMT_SYS_FUNC -D xMT_SAPI_FUNC -D               /
//                          xMT_SAPI_CB_FUNC -lC D:\ProgramData\Hardware\zigb /
//                          ee\Projects\zstack\Samples\SensorSys\CC2530DB\End /
//                          DeviceEB\List\ -lA D:\ProgramData\Hardware\zigbee /
//                          \Projects\zstack\Samples\SensorSys\CC2530DB\EndDe /
//                          viceEB\List\ --diag_suppress Pe001,Pa010 -o       /
//                          D:\ProgramData\Hardware\zigbee\Projects\zstack\Sa /
//                          mples\SensorSys\CC2530DB\EndDeviceEB\Obj\ -e      /
//                          --no_code_motion --debug --core=plain             /
//                          --dptr=16,1 --data_model=large                    /
//                          --code_model=banked --calling_convention=xdata_re /
//                          entrant --place_constants=data_rom                /
//                          --nr_virtual_regs 16 -I                           /
//                          D:\ProgramData\Hardware\zigbee\Projects\zstack\Sa /
//                          mples\SensorSys\CC2530DB\ -I                      /
//                          D:\ProgramData\Hardware\zigbee\Projects\zstack\Sa /
//                          mples\SensorSys\CC2530DB\..\Source\ -I            /
//                          D:\ProgramData\Hardware\zigbee\Projects\zstack\Sa /
//                          mples\SensorSys\CC2530DB\..\..\..\ZMain\TI2530DB\ /
//                           -I D:\ProgramData\Hardware\zigbee\Projects\zstac /
//                          k\Samples\SensorSys\CC2530DB\..\..\..\..\..\Compo /
//                          nents\hal\include\ -I D:\ProgramData\Hardware\zig /
//                          bee\Projects\zstack\Samples\SensorSys\CC2530DB\.. /
//                          \..\..\..\..\Components\hal\target\CC2530EB\ -I   /
//                          D:\ProgramData\Hardware\zigbee\Projects\zstack\Sa /
//                          mples\SensorSys\CC2530DB\..\..\..\..\..\Component /
//                          s\mac\include\ -I D:\ProgramData\Hardware\zigbee\ /
//                          Projects\zstack\Samples\SensorSys\CC2530DB\..\..\ /
//                          ..\..\..\Components\mac\high_level\ -I            /
//                          D:\ProgramData\Hardware\zigbee\Projects\zstack\Sa /
//                          mples\SensorSys\CC2530DB\..\..\..\..\..\Component /
//                          s\mac\low_level\srf04\ -I                         /
//                          D:\ProgramData\Hardware\zigbee\Projects\zstack\Sa /
//                          mples\SensorSys\CC2530DB\..\..\..\..\..\Component /
//                          s\mac\low_level\srf04\single_chip\ -I             /
//                          D:\ProgramData\Hardware\zigbee\Projects\zstack\Sa /
//                          mples\SensorSys\CC2530DB\..\..\..\..\..\Component /
//                          s\mt\ -I D:\ProgramData\Hardware\zigbee\Projects\ /
//                          zstack\Samples\SensorSys\CC2530DB\..\..\..\..\..\ /
//                          Components\osal\include\ -I                       /
//                          D:\ProgramData\Hardware\zigbee\Projects\zstack\Sa /
//                          mples\SensorSys\CC2530DB\..\..\..\..\..\Component /
//                          s\services\saddr\ -I D:\ProgramData\Hardware\zigb /
//                          ee\Projects\zstack\Samples\SensorSys\CC2530DB\..\ /
//                          ..\..\..\..\Components\services\sdata\ -I         /
//                          D:\ProgramData\Hardware\zigbee\Projects\zstack\Sa /
//                          mples\SensorSys\CC2530DB\..\..\..\..\..\Component /
//                          s\stack\af\ -I D:\ProgramData\Hardware\zigbee\Pro /
//                          jects\zstack\Samples\SensorSys\CC2530DB\..\..\..\ /
//                          ..\..\Components\stack\nwk\ -I                    /
//                          D:\ProgramData\Hardware\zigbee\Projects\zstack\Sa /
//                          mples\SensorSys\CC2530DB\..\..\..\..\..\Component /
//                          s\stack\sapi\ -I D:\ProgramData\Hardware\zigbee\P /
//                          rojects\zstack\Samples\SensorSys\CC2530DB\..\..\. /
//                          .\..\..\Components\stack\sec\ -I                  /
//                          D:\ProgramData\Hardware\zigbee\Projects\zstack\Sa /
//                          mples\SensorSys\CC2530DB\..\..\..\..\..\Component /
//                          s\stack\sys\ -I D:\ProgramData\Hardware\zigbee\Pr /
//                          ojects\zstack\Samples\SensorSys\CC2530DB\..\..\.. /
//                          \..\..\Components\stack\zdo\ -I                   /
//                          D:\ProgramData\Hardware\zigbee\Projects\zstack\Sa /
//                          mples\SensorSys\CC2530DB\..\..\..\..\..\Component /
//                          s\zmac\ -I D:\ProgramData\Hardware\zigbee\Project /
//                          s\zstack\Samples\SensorSys\CC2530DB\..\..\..\..\. /
//                          .\Components\zmac\f8w\ -Ohz --require_prototypes  /
//    List file          =  D:\ProgramData\Hardware\zigbee\Projects\zstack\Sa /
//                          mples\SensorSys\CC2530DB\EndDeviceEB\List\SensorS /
//                          ys_Terminator.s51                                 /
//                                                                            /
//                                                                            /
///////////////////////////////////////////////////////////////////////////////

        NAME SensorSys_Terminator

        RTMODEL "__SystemLibrary", "CLib"
        RTMODEL "__calling_convention", "xdata_reentrant"
        RTMODEL "__code_model", "banked"
        RTMODEL "__core", "plain"
        RTMODEL "__data_model", "large"
        RTMODEL "__dptr_size", "16"
        RTMODEL "__extended_stack", "disabled"
        RTMODEL "__location_for_constants", "data"
        RTMODEL "__number_of_dptrs", "1"
        RTMODEL "__rt_version", "1"

        RSEG DOVERLAY:DATA:NOROOT(0)
        RSEG IOVERLAY:IDATA:NOROOT(0)
        RSEG ISTACK:IDATA:NOROOT(0)
        RSEG PSTACK:XDATA:NOROOT(0)
        RSEG XSTACK:XDATA:NOROOT(0)

        EXTERN ?ALLOC_XSTACK8
        EXTERN ?BANKED_ENTER_XDATA
        EXTERN ?BANKED_LEAVE_XDATA
        EXTERN ?BDISPATCH
        EXTERN ?BRET
        EXTERN ?DEALLOC_XSTACK8
        EXTERN ?PUSH_XSTACK_I_THREE
        EXTERN ?V0
        EXTERN ?XSTACK_DISP0_8
        EXTERN __INIT_XDATA_I
        EXTERN __INIT_XDATA_Z

        PUBLIC ??Button_HandleKeys?relay
        FUNCTION ??Button_HandleKeys?relay,0203H
        PUBLIC ??Button_Init?relay
        FUNCTION ??Button_Init?relay,0203H
        PUBLIC ??Button_ProcessEvent?relay
        FUNCTION ??Button_ProcessEvent?relay,0203H
        PUBLIC ??Sys_Init?relay
        FUNCTION ??Sys_Init?relay,0203H
        PUBLIC ??Sys_MessageMSGCB?relay
        FUNCTION ??Sys_MessageMSGCB?relay,0203H
        PUBLIC ??Sys_ProcessEvent?relay
        FUNCTION ??Sys_ProcessEvent?relay,0203H
        PUBLIC ??zb_AllowBindConfirm?relay
        FUNCTION ??zb_AllowBindConfirm?relay,0203H
        PUBLIC ??zb_BindConfirm?relay
        FUNCTION ??zb_BindConfirm?relay,0203H
        PUBLIC ??zb_FindDeviceConfirm?relay
        FUNCTION ??zb_FindDeviceConfirm?relay,0203H
        PUBLIC ??zb_HandleOsalEvent?relay
        FUNCTION ??zb_HandleOsalEvent?relay,0203H
        PUBLIC ??zb_ReceiveDataIndication?relay
        FUNCTION ??zb_ReceiveDataIndication?relay,0203H
        PUBLIC ??zb_SendDataConfirm?relay
        FUNCTION ??zb_SendDataConfirm?relay,0203H
        PUBLIC ??zb_StartConfirm?relay
        FUNCTION ??zb_StartConfirm?relay,0203H
        PUBLIC AppTitle
        PUBLIC Broadcast_DstAddr
        PUBLIC Button_ClusterList
        PUBLIC Button_DstAddr
        PUBLIC Button_HandleKeys
        FUNCTION Button_HandleKeys,021203H
        ARGFRAME XSTACK, 14, STACK
        ARGFRAME IOVERLAY, 0, STATIC
        ARGFRAME DOVERLAY, 0, STATIC
        LOCFRAME XSTACK, 9, STACK
        PUBLIC Button_Init
        FUNCTION Button_Init,021203H
        ARGFRAME XSTACK, 0, STACK
        LOCFRAME XSTACK, 9, STACK
        PUBLIC Button_ProcessEvent
        FUNCTION Button_ProcessEvent,021203H
        ARGFRAME XSTACK, 0, STACK
        LOCFRAME XSTACK, 14, STACK
        PUBLIC Button_SimpleDesc
        PUBLIC Button_TaskID
        PUBLIC Button_epDesc
        PUBLIC SensorSys_NwkState
        PUBLIC SensorSys_TransID
        PUBLIC Sys_ClusterList
        PUBLIC Sys_Init
        FUNCTION Sys_Init,021203H
        ARGFRAME XSTACK, 0, STACK
        LOCFRAME XSTACK, 9, STACK
        PUBLIC Sys_MessageMSGCB
        FUNCTION Sys_MessageMSGCB,021203H
        ARGFRAME XSTACK, 14, STACK
        ARGFRAME IOVERLAY, 0, STATIC
        ARGFRAME DOVERLAY, 0, STATIC
        LOCFRAME XSTACK, 18, STACK
        PUBLIC Sys_ProcessEvent
        FUNCTION Sys_ProcessEvent,021203H
        ARGFRAME XSTACK, 0, STACK
        LOCFRAME XSTACK, 14, STACK
        PUBLIC Sys_SimpleDesc
        PUBLIC Sys_TaskID
        PUBLIC Sys_epDesc
        PUBLIC Zb_ClusterList
        PUBLIC zb_AllowBindConfirm
        FUNCTION zb_AllowBindConfirm,0203H
        ARGFRAME XSTACK, 0, STACK
        PUBLIC zb_BindConfirm
        FUNCTION zb_BindConfirm,0203H
        ARGFRAME XSTACK, 0, STACK
        PUBLIC zb_FindDeviceConfirm
        FUNCTION zb_FindDeviceConfirm,0203H
        ARGFRAME XSTACK, 0, STACK
        PUBLIC zb_HandleOsalEvent
        FUNCTION zb_HandleOsalEvent,0203H
        ARGFRAME XSTACK, 0, STACK
        PUBLIC zb_ReceiveDataIndication
        FUNCTION zb_ReceiveDataIndication,021203H
        ARGFRAME XSTACK, 4, STACK
        LOCFRAME ISTACK, 2, STACK
        PUBLIC zb_SendDataConfirm
        FUNCTION zb_SendDataConfirm,0203H
        ARGFRAME XSTACK, 0, STACK
        PUBLIC zb_SimpleDesc
        PUBLIC zb_StartConfirm
        FUNCTION zb_StartConfirm,021203H
        ARGFRAME XSTACK, 0, STACK
        LOCFRAME XSTACK, 9, STACK
        
        CFI Names cfiNames0
        CFI StackFrame CFA_SP SP IDATA
        CFI StackFrame CFA_PSP16 PSP16 XDATA
        CFI StackFrame CFA_XSP16 XSP16 XDATA
        CFI StaticOverlayFrame CFA_IOVERLAY IOVERLAY
        CFI StaticOverlayFrame CFA_DOVERLAY DOVERLAY
        CFI Resource `PSW.CY`:1, `B.BR0`:1, `B.BR1`:1, `B.BR2`:1, `B.BR3`:1
        CFI Resource `B.BR4`:1, `B.BR5`:1, `B.BR6`:1, `B.BR7`:1, `VB.BR8`:1
        CFI Resource `VB.BR9`:1, `VB.BR10`:1, `VB.BR11`:1, `VB.BR12`:1
        CFI Resource `VB.BR13`:1, `VB.BR14`:1, `VB.BR15`:1, VB:8, B:8, A:8
        CFI Resource PSW:8, DPL0:8, DPH0:8, R0:8, R1:8, R2:8, R3:8, R4:8, R5:8
        CFI Resource R6:8, R7:8, V0:8, V1:8, V2:8, V3:8, V4:8, V5:8, V6:8, V7:8
        CFI Resource V8:8, V9:8, V10:8, V11:8, V12:8, V13:8, V14:8, V15:8, SP:8
        CFI Resource PSPH:8, PSPL:8, PSP16:16, XSPH:8, XSPL:8, XSP16:16
        CFI VirtualResource ?RET:24
        CFI Resource ?BRET_EXT:8
        CFI VirtualResource ?RET_HIGH:8, ?RET_LOW:8
        CFI ResourceParts PSP16 PSPH, PSPL
        CFI ResourceParts XSP16 XSPH, XSPL
        CFI ResourceParts ?RET ?BRET_EXT, ?RET_HIGH, ?RET_LOW
        CFI EndNames cfiNames0
        
        CFI Common cfiCommon0 Using cfiNames0
        CFI CodeAlign 1
        CFI DataAlign -1
        CFI ReturnAddress ?RET CODE
        CFI CFA_DOVERLAY Used
        CFI CFA_IOVERLAY Used
        CFI CFA_SP SP+-3
        CFI CFA_PSP16 PSP16+0
        CFI CFA_XSP16 XSP16+0
        CFI `PSW.CY` SameValue
        CFI `B.BR0` SameValue
        CFI `B.BR1` SameValue
        CFI `B.BR2` SameValue
        CFI `B.BR3` SameValue
        CFI `B.BR4` SameValue
        CFI `B.BR5` SameValue
        CFI `B.BR6` SameValue
        CFI `B.BR7` SameValue
        CFI `VB.BR8` SameValue
        CFI `VB.BR9` SameValue
        CFI `VB.BR10` SameValue
        CFI `VB.BR11` SameValue
        CFI `VB.BR12` SameValue
        CFI `VB.BR13` SameValue
        CFI `VB.BR14` SameValue
        CFI `VB.BR15` SameValue
        CFI VB SameValue
        CFI B Undefined
        CFI A Undefined
        CFI PSW SameValue
        CFI DPL0 SameValue
        CFI DPH0 SameValue
        CFI R0 Undefined
        CFI R1 Undefined
        CFI R2 Undefined
        CFI R3 Undefined
        CFI R4 Undefined
        CFI R5 Undefined
        CFI R6 SameValue
        CFI R7 SameValue
        CFI V0 SameValue
        CFI V1 SameValue
        CFI V2 SameValue
        CFI V3 SameValue
        CFI V4 SameValue
        CFI V5 SameValue
        CFI V6 SameValue
        CFI V7 SameValue
        CFI V8 SameValue
        CFI V9 SameValue
        CFI V10 SameValue
        CFI V11 SameValue
        CFI V12 SameValue
        CFI V13 SameValue
        CFI V14 SameValue
        CFI V15 SameValue
        CFI PSPH Undefined
        CFI PSPL Undefined
        CFI XSPH Undefined
        CFI XSPL Undefined
        CFI ?RET Concat
        CFI ?BRET_EXT Frame(CFA_SP, 3)
        CFI ?RET_HIGH Frame(CFA_SP, 2)
        CFI ?RET_LOW Frame(CFA_SP, 1)
        CFI EndCommon cfiCommon0
        
        
        CFI Common cfiCommon1 Using cfiNames0
        CFI CodeAlign 1
        CFI DataAlign -1
        CFI ReturnAddress ?RET CODE
        CFI CFA_DOVERLAY Used
        CFI CFA_IOVERLAY Used
        CFI CFA_SP SP+-2
        CFI CFA_PSP16 PSP16+0
        CFI CFA_XSP16 XSP16+0
        CFI `PSW.CY` SameValue
        CFI `B.BR0` SameValue
        CFI `B.BR1` SameValue
        CFI `B.BR2` SameValue
        CFI `B.BR3` SameValue
        CFI `B.BR4` SameValue
        CFI `B.BR5` SameValue
        CFI `B.BR6` SameValue
        CFI `B.BR7` SameValue
        CFI `VB.BR8` SameValue
        CFI `VB.BR9` SameValue
        CFI `VB.BR10` SameValue
        CFI `VB.BR11` SameValue
        CFI `VB.BR12` SameValue
        CFI `VB.BR13` SameValue
        CFI `VB.BR14` SameValue
        CFI `VB.BR15` SameValue
        CFI VB SameValue
        CFI B SameValue
        CFI A SameValue
        CFI PSW SameValue
        CFI DPL0 SameValue
        CFI DPH0 SameValue
        CFI R0 SameValue
        CFI R1 SameValue
        CFI R2 SameValue
        CFI R3 SameValue
        CFI R4 SameValue
        CFI R5 SameValue
        CFI R6 SameValue
        CFI R7 SameValue
        CFI V0 SameValue
        CFI V1 SameValue
        CFI V2 SameValue
        CFI V3 SameValue
        CFI V4 SameValue
        CFI V5 SameValue
        CFI V6 SameValue
        CFI V7 SameValue
        CFI V8 SameValue
        CFI V9 SameValue
        CFI V10 SameValue
        CFI V11 SameValue
        CFI V12 SameValue
        CFI V13 SameValue
        CFI V14 SameValue
        CFI V15 SameValue
        CFI PSPH Undefined
        CFI PSPL Undefined
        CFI XSPH Undefined
        CFI XSPL Undefined
        CFI ?RET Concat
        CFI ?BRET_EXT SameValue
        CFI ?RET_HIGH Frame(CFA_SP, 2)
        CFI ?RET_LOW Frame(CFA_SP, 1)
        CFI EndCommon cfiCommon1
        
afRegister          SYMBOL "afRegister"
HalLedSet           SYMBOL "HalLedSet"
RegisterForKeys     SYMBOL "RegisterForKeys"
ZDO_RegisterForZDOMsg SYMBOL "ZDO_RegisterForZDOMsg"
osal_msg_receive    SYMBOL "osal_msg_receive"
osal_start_timerEx  SYMBOL "osal_start_timerEx"
osal_msg_deallocate SYMBOL "osal_msg_deallocate"
zb_AllowBind        SYMBOL "zb_AllowBind"
osal_memcpy         SYMBOL "osal_memcpy"
osal_memcmp         SYMBOL "osal_memcmp"
??HalLedSet?relay   SYMBOL "?relay", HalLedSet
??RegisterForKeys?relay SYMBOL "?relay", RegisterForKeys
??ZDO_RegisterForZDOMsg?relay SYMBOL "?relay", ZDO_RegisterForZDOMsg
??afRegister?relay  SYMBOL "?relay", afRegister
??osal_memcmp?relay SYMBOL "?relay", osal_memcmp
??osal_memcpy?relay SYMBOL "?relay", osal_memcpy
??osal_msg_deallocate?relay SYMBOL "?relay", osal_msg_deallocate
??osal_msg_receive?relay SYMBOL "?relay", osal_msg_receive
??osal_start_timerEx?relay SYMBOL "?relay", osal_start_timerEx
??zb_AllowBind?relay SYMBOL "?relay", zb_AllowBind
Button_HandleKeys   SYMBOL "Button_HandleKeys"
??Button_HandleKeys?relay SYMBOL "?relay", Button_HandleKeys
Button_Init         SYMBOL "Button_Init"
??Button_Init?relay SYMBOL "?relay", Button_Init
Button_ProcessEvent SYMBOL "Button_ProcessEvent"
??Button_ProcessEvent?relay SYMBOL "?relay", Button_ProcessEvent
Sys_Init            SYMBOL "Sys_Init"
??Sys_Init?relay    SYMBOL "?relay", Sys_Init
Sys_MessageMSGCB    SYMBOL "Sys_MessageMSGCB"
??Sys_MessageMSGCB?relay SYMBOL "?relay", Sys_MessageMSGCB
Sys_ProcessEvent    SYMBOL "Sys_ProcessEvent"
??Sys_ProcessEvent?relay SYMBOL "?relay", Sys_ProcessEvent
zb_AllowBindConfirm SYMBOL "zb_AllowBindConfirm"
??zb_AllowBindConfirm?relay SYMBOL "?relay", zb_AllowBindConfirm
zb_BindConfirm      SYMBOL "zb_BindConfirm"
??zb_BindConfirm?relay SYMBOL "?relay", zb_BindConfirm
zb_FindDeviceConfirm SYMBOL "zb_FindDeviceConfirm"
??zb_FindDeviceConfirm?relay SYMBOL "?relay", zb_FindDeviceConfirm
zb_HandleOsalEvent  SYMBOL "zb_HandleOsalEvent"
??zb_HandleOsalEvent?relay SYMBOL "?relay", zb_HandleOsalEvent
zb_ReceiveDataIndication SYMBOL "zb_ReceiveDataIndication"
??zb_ReceiveDataIndication?relay SYMBOL "?relay", zb_ReceiveDataIndication
zb_SendDataConfirm  SYMBOL "zb_SendDataConfirm"
??zb_SendDataConfirm?relay SYMBOL "?relay", zb_SendDataConfirm
zb_StartConfirm     SYMBOL "zb_StartConfirm"
??zb_StartConfirm?relay SYMBOL "?relay", zb_StartConfirm

        EXTERN afRegister
        FUNCTION afRegister,0202H
        ARGFRAME ISTACK, 0, STACK
        ARGFRAME PSTACK, 0, STACK
        ARGFRAME XSTACK, 9, STACK
        ARGFRAME IOVERLAY, 0, STATIC
        ARGFRAME DOVERLAY, 0, STATIC
        EXTERN HalLedSet
        FUNCTION HalLedSet,0202H
        ARGFRAME ISTACK, 2, STACK
        ARGFRAME PSTACK, 0, STACK
        ARGFRAME XSTACK, 15, STACK
        ARGFRAME IOVERLAY, 0, STATIC
        ARGFRAME DOVERLAY, 0, STATIC
        EXTERN RegisterForKeys
        FUNCTION RegisterForKeys,0202H
        ARGFRAME ISTACK, 0, STACK
        ARGFRAME PSTACK, 0, STACK
        ARGFRAME XSTACK, 9, STACK
        ARGFRAME IOVERLAY, 0, STATIC
        ARGFRAME DOVERLAY, 0, STATIC
        EXTERN ZDO_RegisterForZDOMsg
        FUNCTION ZDO_RegisterForZDOMsg,0202H
        ARGFRAME ISTACK, 0, STACK
        ARGFRAME PSTACK, 0, STACK
        ARGFRAME XSTACK, 9, STACK
        ARGFRAME IOVERLAY, 0, STATIC
        ARGFRAME DOVERLAY, 0, STATIC
        EXTERN osal_msg_receive
        FUNCTION osal_msg_receive,0202H
        ARGFRAME ISTACK, 0, STACK
        ARGFRAME PSTACK, 0, STACK
        ARGFRAME XSTACK, 14, STACK
        ARGFRAME IOVERLAY, 0, STATIC
        ARGFRAME DOVERLAY, 0, STATIC
        EXTERN osal_start_timerEx
        FUNCTION osal_start_timerEx,0202H
        ARGFRAME ISTACK, 0, STACK
        ARGFRAME PSTACK, 0, STACK
        ARGFRAME XSTACK, 14, STACK
        ARGFRAME IOVERLAY, 0, STATIC
        ARGFRAME DOVERLAY, 0, STATIC
        EXTERN osal_msg_deallocate
        FUNCTION osal_msg_deallocate,0202H
        ARGFRAME ISTACK, 0, STACK
        ARGFRAME PSTACK, 0, STACK
        ARGFRAME XSTACK, 14, STACK
        ARGFRAME IOVERLAY, 0, STATIC
        ARGFRAME DOVERLAY, 0, STATIC
        EXTERN zb_AllowBind
        FUNCTION zb_AllowBind,0202H
        ARGFRAME ISTACK, 0, STACK
        ARGFRAME PSTACK, 0, STACK
        ARGFRAME XSTACK, 9, STACK
        ARGFRAME IOVERLAY, 0, STATIC
        ARGFRAME DOVERLAY, 0, STATIC
        EXTERN osal_memcpy
        FUNCTION osal_memcpy,0202H
        ARGFRAME ISTACK, 0, STACK
        ARGFRAME PSTACK, 0, STACK
        ARGFRAME XSTACK, 18, STACK
        ARGFRAME IOVERLAY, 0, STATIC
        ARGFRAME DOVERLAY, 0, STATIC
        EXTERN osal_memcmp
        FUNCTION osal_memcmp,0202H
        ARGFRAME ISTACK, 0, STACK
        ARGFRAME PSTACK, 0, STACK
        ARGFRAME XSTACK, 18, STACK
        ARGFRAME IOVERLAY, 0, STATIC
        ARGFRAME DOVERLAY, 0, STATIC
        EXTERN ??HalLedSet?relay
        FUNCTION ??HalLedSet?relay,00H
        EXTERN ??RegisterForKeys?relay
        FUNCTION ??RegisterForKeys?relay,00H
        EXTERN ??ZDO_RegisterForZDOMsg?relay
        FUNCTION ??ZDO_RegisterForZDOMsg?relay,00H
        EXTERN ??afRegister?relay
        FUNCTION ??afRegister?relay,00H
        EXTERN ??osal_memcmp?relay
        FUNCTION ??osal_memcmp?relay,00H
        EXTERN ??osal_memcpy?relay
        FUNCTION ??osal_memcpy?relay,00H
        EXTERN ??osal_msg_deallocate?relay
        FUNCTION ??osal_msg_deallocate?relay,00H
        EXTERN ??osal_msg_receive?relay
        FUNCTION ??osal_msg_receive?relay,00H
        EXTERN ??osal_start_timerEx?relay
        FUNCTION ??osal_start_timerEx?relay,00H
        EXTERN ??zb_AllowBind?relay
        FUNCTION ??zb_AllowBind?relay,00H
        EXTERN zgDeviceLogicalType

// D:\ProgramData\Hardware\zigbee\Projects\zstack\Samples\SensorSys\Source\SensorSys_Terminator.c
//    1 /**************************************************************************************************
//    2 	Filename:       SensorSys.c
//    3 	Revised:        $Date: 2009-03-18 15:56:27 -0700 (Wed, 18 Mar 2009) $
//    4 	Revision:       $Revision: 19453 $
//    5 
//    6 	Description:    Generic Application (no Profile).
//    7 
//    8 
//    9 	Copyright 2004-2009 Texas Instruments Incorporated. All rights reserved.
//   10 
//   11 	IMPORTANT: Your use of this Software is limited to those specific rights
//   12 	granted under the terms of a software license agreement between the user
//   13 	who downloaded the software, his/her employer (which must be your employer)
//   14 	and Texas Instruments Incorporated (the "License").  You may not use this
//   15 	Software unless you agree to abide by the terms of the License. The License
//   16 	limits your use, and you acknowledge, that the Software may not be modified,
//   17 	copied or distributed unless embedded on a Texas Instruments microcontroller
//   18 	or used solely and exclusively in conjunction with a Texas Instruments radio
//   19 	frequency transceiver, which is integrated into your product.  Other than for
//   20 	the foregoing purpose, you may not use, reproduce, copy, prepare derivative
//   21 	works of, modify, distribute, perform, display or sell this Software and/or
//   22 	its documentation for any purpose.
//   23 
//   24 	YOU FURTHER ACKNOWLEDGE AND AGREE THAT THE SOFTWARE AND DOCUMENTATION ARE
//   25 	PROVIDED AS IS?WITHOUT WARRANTY OF ANY KIND, EITHER EXPRESS OR IMPLIED, 
//   26 	INCLUDING WITHOUT LIMITATION, ANY WARRANTY OF MERCHANTABILITY, TITLE, 
//   27 	NON-INFRINGEMENT AND FITNESS FOR A PARTICULAR PURPOSE. IN NO EVENT SHALL
//   28 	TEXAS INSTRUMENTS OR ITS LICENSORS BE LIABLE OR OBLIGATED UNDER CONTRACT,
//   29 	NEGLIGENCE, STRICT LIABILITY, CONTRIBUTION, BREACH OF WARRANTY, OR OTHER
//   30 	LEGAL EQUITABLE THEORY ANY DIRECT OR INDIRECT DAMAGES OR EXPENSES
//   31 	INCLUDING BUT NOT LIMITED TO ANY INCIDENTAL, SPECIAL, INDIRECT, PUNITIVE
//   32 	OR CONSEQUENTIAL DAMAGES, LOST PROFITS OR LOST DATA, COST OF PROCUREMENT
//   33 	OF SUBSTITUTE GOODS, TECHNOLOGY, SERVICES, OR ANY CLAIMS BY THIRD PARTIES
//   34 	(INCLUDING BUT NOT LIMITED TO ANY DEFENSE THEREOF), OR OTHER SIMILAR COSTS.
//   35 
//   36 	Should you have any questions regarding your right to use this Software,
//   37 	contact Texas Instruments Incorporated at www.TI.com. 
//   38 **************************************************************************************************/
//   39 
//   40 /*********************************************************************
//   41 	This application isn't intended to do anything useful, it is
//   42 	intended to be a simple example of an application's structure.
//   43 
//   44 	This application sends "Hello World" to another "Generic"
//   45 	application every 15 seconds.  The application will also
//   46 	receive "Hello World" packets.
//   47 
//   48 	The "Hello World" messages are sent/received as MSG type message.
//   49 
//   50 	This applications doesn't have a profile, so it handles everything
//   51 	directly - itself.
//   52 
//   53 	Key control:
//   54 		SW1:
//   55 		SW2:  initiates end device binding
//   56 		SW3:
//   57 		SW4:  initiates a match description request
//   58 *********************************************************************/
//   59 
//   60 /*********************************************************************
//   61  * INCLUDES
//   62  */
//   63 #include "OSAL.h"
//   64 #include "AF.h"
//   65 #include "ZDApp.h"
//   66 #include "ZDObject.h"
//   67 #include "ZDProfile.h"
//   68 #include "sapi.h"
//   69 
//   70 #include "SensorSys.h"
//   71 #include "DebugTrace.h"
//   72 
//   73 #if !defined( WIN32 )
//   74 	#include "OnBoard.h"
//   75 #endif
//   76 
//   77 /* HAL */
//   78 #include "hal_led.h"
//   79 #include "hal_key.h"
//   80 #include "hal_uart.h"
//   81 
//   82 /*********************************************************************
//   83  * MACROS
//   84  */
//   85 
//   86 /*********************************************************************
//   87  * CONSTANTS
//   88  */
//   89 
//   90 /*********************************************************************
//   91  * TYPEDEFS
//   92  */
//   93 #define MY_DEVICE		BUTTON_TYPE_ID
//   94 
//   95 /*********************************************************************
//   96  * GLOBAL VARIABLES
//   97  */

        RSEG XDATA_I:XDATA:NOROOT(0)
//   98 uint8 AppTitle[]="SensorAPP"; //应用程序名称
AppTitle:
        DATA8
        DS 10
        REQUIRE `?<Initializer for AppTitle>`
        REQUIRE __INIT_XDATA_I
//   99 
//  100 // Sys 端点的簇ID
//  101 // This list should be filled with Application specific Cluster IDs.

        RSEG XDATA_ROM_C:CONST:REORDER:NOROOT(0)
        DATA16
//  102 const cId_t Sys_ClusterList[SYS_MAX_CLUSTERS] =
Sys_ClusterList:
        DW 1
//  103 {
//  104   SYS_CLUSTERID
//  105 };
//  106 
//  107 // Button 端点的簇ID
//  108 // This list should be filled with Application specific Cluster IDs.

        RSEG XDATA_ROM_C:CONST:REORDER:NOROOT(0)
        DATA32
//  109 const cId_t Button_ClusterList[BUTTON_MAX_CLUSTERS] =
Button_ClusterList:
        DATA16
        DW 3
        DW 0
//  110 {
//  111 	BUTTON_CLUSTERID
//  112 };
//  113 

        RSEG XDATA_ROM_C:CONST:REORDER:NOROOT(0)
        DATA8
//  114 const cId_t Zb_ClusterList[ZB_MAX_CLUSTERS] =
Zb_ClusterList:
        DATA16
        DW 2
        DW 0
        DW 0
        DW 0
//  115 {
//  116   ZB_CLUSTERID
//  117 };
//  118 
//  119 // Sys 端点简单描述符

        RSEG XDATA_ROM_C:CONST:REORDER:NOROOT(0)
        DATA8
//  120 const SimpleDescriptionFormat_t Sys_SimpleDesc =
Sys_SimpleDesc:
        DB 2
        DATA16
        DW 3844
        DW 1
        DATA8
        DB 0
        DB 1
        DATA16
        DW Sys_ClusterList
        DATA8
        DB 1
        DATA16
        DW Sys_ClusterList
//  121 {
//  122 	SYS_ENDPOINT,           //  int Endpoint;
//  123 	SYS_PROFID,                //  uint16 AppProfId[2];
//  124 	SYS_DEVICEID,              //  uint16 AppDeviceId[2];
//  125 	SYS_DEVICE_VERSION,        //  int   AppDevVer:4;
//  126 	SYS_FLAGS,                 //  int   AppFlags:4;
//  127 	SYS_MAX_CLUSTERS,          //  byte  AppNumInClusters;
//  128 	(cId_t *)Sys_ClusterList,  //  byte *pAppInClusterList;
//  129 	SYS_MAX_CLUSTERS,          //  byte  AppNumInClusters;
//  130 	(cId_t *)Sys_ClusterList   //  byte *pAppInClusterList;
//  131 };
//  132 
//  133 // Button 端点简单描述符

        RSEG XDATA_ROM_C:CONST:REORDER:NOROOT(0)
        DATA8
//  134 const SimpleDescriptionFormat_t Button_SimpleDesc =
Button_SimpleDesc:
        DB 10
        DATA16
        DW 3844
        DW 1
        DATA8
        DB 0
        DB 0
        DATA16
        DW 0H
        DATA8
        DB 2
        DATA16
        DW Button_ClusterList
//  135 {
//  136 	BUTTON_ENDPOINT,           //  int Endpoint;
//  137 	SYS_PROFID,                //  uint16 AppProfId[2];
//  138 	SYS_DEVICEID,              //  uint16 AppDeviceId[2];
//  139 	SYS_DEVICE_VERSION,        //  int   AppDevVer:4;
//  140 	SYS_FLAGS,                 //  int   AppFlags:4;
//  141 	0,          			   //  byte  AppNumInClusters;
//  142 	NULL,  					   //  byte *pAppInClusterList;
//  143 	BUTTON_MAX_CLUSTERS,          //  byte  AppNumInClusters;
//  144 	(cId_t *)Button_ClusterList   //  byte *pAppInClusterList;
//  145 };
//  146 

        RSEG XDATA_ROM_C:CONST:REORDER:NOROOT(0)
        DATA8
//  147 const SimpleDescriptionFormat_t zb_SimpleDesc =
zb_SimpleDesc:
        DB 3
        DATA16
        DW 3844
        DW 1
        DATA8
        DB 0
        DB 4
        DATA16
        DW Zb_ClusterList
        DATA8
        DB 4
        DATA16
        DW Zb_ClusterList
//  148 {
//  149 	ZB_ENDPOINT,           //  int Endpoint;
//  150 	SYS_PROFID,                //  uint16 AppProfId[2];
//  151 	SYS_DEVICEID,              //  uint16 AppDeviceId[2];
//  152 	SYS_DEVICE_VERSION,        //  int   AppDevVer:4;
//  153 	SYS_FLAGS,                 //  int   AppFlags:4;
//  154 	ZB_MAX_CLUSTERS,          //  byte  AppNumInClusters;
//  155 	(cId_t *)Zb_ClusterList,  //  byte *pAppInClusterList;
//  156 	ZB_MAX_CLUSTERS,          //  byte  AppNumInClusters;
//  157 	(cId_t *)Zb_ClusterList   //  byte *pAppInClusterList;
//  158 };
//  159 
//  160 // This is the Endpoint/Interface description.  It is defined here, but
//  161 // filled-in in Button_Init().  Another way to go would be to fill
//  162 // in the structure here and make it a "const" (in code space).  The
//  163 // way it's defined in this sample app it is define in RAM.

        RSEG XDATA_Z:XDATA:NOROOT(0)
        DATA8
//  164 endPointDesc_t Sys_epDesc;
Sys_epDesc:
        DS 6
        REQUIRE __INIT_XDATA_Z

        RSEG XDATA_Z:XDATA:NOROOT(0)
        DATA8
//  165 endPointDesc_t Button_epDesc;
Button_epDesc:
        DS 6
        REQUIRE __INIT_XDATA_Z
//  166 
//  167 /*********************************************************************
//  168  * EXTERNAL VARIABLES
//  169  */
//  170 
//  171 /*********************************************************************
//  172  * EXTERNAL FUNCTIONS
//  173  */
//  174 
//  175 /*********************************************************************
//  176  * LOCAL VARIABLES
//  177  */

        RSEG XDATA_Z:XDATA:NOROOT(0)
        DATA8
//  178 static uint8 myAppState = APP_INIT;
myAppState:
        DS 1
        REQUIRE __INIT_XDATA_Z

        RSEG XDATA_Z:XDATA:NOROOT(0)
        DATA8
//  179 static uint8 keys_shift = 0;
keys_shift:
        DS 1
        REQUIRE __INIT_XDATA_Z
//  180 

        RSEG XDATA_Z:XDATA:NOROOT(0)
        DATA8
//  181 byte Sys_TaskID;
Sys_TaskID:
        DS 1
        REQUIRE __INIT_XDATA_Z

        RSEG XDATA_Z:XDATA:NOROOT(0)
        DATA8
//  182 byte Button_TaskID;   // Task ID for internal task/event processing
Button_TaskID:
        DS 1
        REQUIRE __INIT_XDATA_Z
//  183 										// This variable will be received when
//  184 										// Button_Init() is called.
//  185 

        RSEG XDATA_Z:XDATA:NOROOT(0)
        DATA8
//  186 devStates_t SensorSys_NwkState;   // 节点现在的网络状态
SensorSys_NwkState:
        DS 1
        REQUIRE __INIT_XDATA_Z
//  187 
//  188 

        RSEG XDATA_Z:XDATA:NOROOT(0)
        DATA8
//  189 byte SensorSys_TransID;  // 数据包的发送ID，每发一个自增1
SensorSys_TransID:
        DS 1
        REQUIRE __INIT_XDATA_Z
//  190 

        RSEG XDATA_Z:XDATA:NOROOT(0)
        DATA8
//  191 afAddrType_t Broadcast_DstAddr;
Broadcast_DstAddr:
        DS 12
        REQUIRE __INIT_XDATA_Z

        RSEG XDATA_Z:XDATA:NOROOT(0)
        DATA8
//  192 afAddrType_t Button_DstAddr;
Button_DstAddr:
        DS 12
        REQUIRE __INIT_XDATA_Z
//  193 
//  194 /*********************************************************************
//  195  * LOCAL FUNCTIONS
//  196  */
//  197 void Sys_Init( byte task_id );
//  198 void Button_Init( byte task_id );
//  199 void Button_HandleKeys( byte keys );
//  200 UINT16 Sys_ProcessEvent( byte task_id, UINT16 events );
//  201 void Sys_MessageMSGCB( afIncomingMSGPacket_t *pckt, byte task_id );
//  202 // void Sys_SendMessage( byte task_id );
//  203 void zb_ReceiveDataIndication( uint16 source, uint16 command, uint16 len, uint8 *pData  );
//  204 
//  205 /*********************************************************************
//  206  * NETWORK LAYER CALLBACKS
//  207  */
//  208 
//  209 /*********************************************************************
//  210  * PUBLIC FUNCTIONS
//  211  */
//  212 
//  213 /*********************************************************************
//  214  * @fn      Sys_Init
//  215  *
//  216  * @brief   Initialization function for the Generic App Task.
//  217  *          This is called during initialization and should contain
//  218  *          any application specific initialization (ie. hardware
//  219  *          initialization/setup, table initialization, power up
//  220  *          notificaiton ... ).
//  221  *
//  222  * @param   task_id - the ID assigned by OSAL.  This ID should be
//  223  *                    used to send messages and set timers.
//  224  *
//  225  * @return  none
//  226  */

        RSEG BANKED_CODE:CODE:NOROOT(0)
//  227 void Sys_Init( byte task_id )
Sys_Init:
        CFI Block cfiBlock0 Using cfiCommon0
        CFI Function Sys_Init
        CODE
//  228 {
        FUNCALL Sys_Init, afRegister
        LOCFRAME ISTACK, 0, STACK
        LOCFRAME PSTACK, 0, STACK
        LOCFRAME XSTACK, 9, STACK
        LOCFRAME IOVERLAY, 0, STATIC
        LOCFRAME DOVERLAY, 0, STATIC
        ARGFRAME ISTACK, 0, STACK
        ARGFRAME PSTACK, 0, STACK
        ARGFRAME XSTACK, 9, STACK
        ARGFRAME IOVERLAY, 0, STATIC
        ARGFRAME DOVERLAY, 0, STATIC
        FUNCALL Sys_Init, HalLedSet
        LOCFRAME ISTACK, 0, STACK
        LOCFRAME PSTACK, 0, STACK
        LOCFRAME XSTACK, 9, STACK
        LOCFRAME IOVERLAY, 0, STATIC
        LOCFRAME DOVERLAY, 0, STATIC
        ARGFRAME ISTACK, 0, STACK
        ARGFRAME PSTACK, 0, STACK
        ARGFRAME XSTACK, 9, STACK
        ARGFRAME IOVERLAY, 0, STATIC
        ARGFRAME DOVERLAY, 0, STATIC
        FUNCALL Sys_Init, HalLedSet
        LOCFRAME ISTACK, 0, STACK
        LOCFRAME PSTACK, 0, STACK
        LOCFRAME XSTACK, 9, STACK
        LOCFRAME IOVERLAY, 0, STATIC
        LOCFRAME DOVERLAY, 0, STATIC
        ARGFRAME ISTACK, 0, STACK
        ARGFRAME PSTACK, 0, STACK
        ARGFRAME XSTACK, 9, STACK
        ARGFRAME IOVERLAY, 0, STATIC
        ARGFRAME DOVERLAY, 0, STATIC
        FUNCALL Sys_Init, HalLedSet
        LOCFRAME ISTACK, 0, STACK
        LOCFRAME PSTACK, 0, STACK
        LOCFRAME XSTACK, 9, STACK
        LOCFRAME IOVERLAY, 0, STATIC
        LOCFRAME DOVERLAY, 0, STATIC
        ARGFRAME ISTACK, 0, STACK
        ARGFRAME PSTACK, 0, STACK
        ARGFRAME XSTACK, 9, STACK
        ARGFRAME IOVERLAY, 0, STATIC
        ARGFRAME DOVERLAY, 0, STATIC
        MOV     A,#-0x9
        LCALL   ?BANKED_ENTER_XDATA
        CFI DPH0 load(1, XDATA, add(CFA_XSP16, literal(-1)))
        CFI DPL0 load(1, XDATA, add(CFA_XSP16, literal(-2)))
        CFI ?BRET_EXT load(1, XDATA, add(CFA_XSP16, literal(-3)))
        CFI ?RET_HIGH load(1, XDATA, add(CFA_XSP16, literal(-4)))
        CFI ?RET_LOW load(1, XDATA, add(CFA_XSP16, literal(-5)))
        CFI R7 load(1, XDATA, add(CFA_XSP16, literal(-6)))
        CFI V0 load(1, XDATA, add(CFA_XSP16, literal(-7)))
        CFI VB load(1, XDATA, add(CFA_XSP16, literal(-8)))
        CFI R6 load(1, XDATA, add(CFA_XSP16, literal(-9)))
        CFI CFA_SP SP+0
        CFI CFA_XSP16 add(XSP16, 9)
        ; Saved register size: 9
        ; Auto size: 0
        MOV     A,R1
//  229   Sys_TaskID = task_id;
        MOV     DPTR,#Sys_TaskID
        MOVX    @DPTR,A
//  230 
//  231   // Device hardware initialization can be added here or in main() (Zmain.c).
//  232   // If the hardware is application specific - add it here.
//  233   // If the hardware is other parts of the device add it in main().
//  234 
//  235   Broadcast_DstAddr.addrMode = (afAddrMode_t)AddrBroadcast;
        MOV     DPTR,#Broadcast_DstAddr + 8
        MOV     A,#0xf
        MOVX    @DPTR,A
//  236   Broadcast_DstAddr.endPoint = SYS_ENDPOINT;
        INC     DPTR
        MOV     A,#0x2
        MOVX    @DPTR,A
//  237   Broadcast_DstAddr.addr.shortAddr = 0xFFFF;
        MOV     DPTR,#Broadcast_DstAddr
        MOV     A,#-0x1
        MOVX    @DPTR,A
        INC     DPTR
        MOVX    @DPTR,A
//  238 
//  239   // Fill out the endpoint description.
//  240   Sys_epDesc.endPoint = SYS_ENDPOINT;
        MOV     DPTR,#Sys_epDesc
        MOV     A,#0x2
        MOVX    @DPTR,A
//  241   Sys_epDesc.task_id = &Sys_TaskID;
        INC     DPTR
        MOV     A,#Sys_TaskID & 0xff
        MOVX    @DPTR,A
        INC     DPTR
        MOV     A,#(Sys_TaskID >> 8) & 0xff
        MOVX    @DPTR,A
//  242   Sys_epDesc.simpleDesc
//  243             = (SimpleDescriptionFormat_t *)&Sys_SimpleDesc;
        INC     DPTR
        MOV     A,#Sys_SimpleDesc & 0xff
        MOVX    @DPTR,A
        INC     DPTR
        MOV     A,#(Sys_SimpleDesc >> 8) & 0xff
        MOVX    @DPTR,A
//  244   Sys_epDesc.latencyReq = noLatencyReqs;
        INC     DPTR
        CLR     A
        MOVX    @DPTR,A
//  245 
//  246   // Register the endpoint description with the AF
//  247   afRegister( &Sys_epDesc );
        ; Setup parameters for call to function afRegister
        MOV     R2,#Sys_epDesc & 0xff
        MOV     R3,#(Sys_epDesc >> 8) & 0xff
        LCALL   ??afRegister?relay
//  248 
//  249   HalLedSet ( HAL_LED_1, HAL_LED_MODE_ON );
        ; Setup parameters for call to function HalLedSet
        MOV     R2,#0x1
        MOV     R1,#0x1
        LCALL   ??HalLedSet?relay
//  250   HalLedSet ( HAL_LED_2, HAL_LED_MODE_ON );
        ; Setup parameters for call to function HalLedSet
        MOV     R2,#0x1
        MOV     R1,#0x2
        LCALL   ??HalLedSet?relay
//  251   HalLedSet ( HAL_LED_3, HAL_LED_MODE_ON );
        ; Setup parameters for call to function HalLedSet
        MOV     R2,#0x1
        MOV     R1,#0x4
        LCALL   ??HalLedSet?relay
//  252 
//  253   // Set device as Enddevice
//  254   zgDeviceLogicalType = ZG_DEVICETYPE_ENDDEVICE;
        MOV     DPTR,#zgDeviceLogicalType
        MOV     A,#0x2
        MOVX    @DPTR,A
//  255 
//  256   // To Update the display...
//  257 }
        LJMP    ?Subroutine0 & 0xFFFF
        CFI EndBlock cfiBlock0
//  258 
//  259 /*********************************************************************
//  260  * @fn      Button_Init
//  261  *
//  262  * @brief   Initialization function for the Generic App Task.
//  263  *          This is called during initialization and should contain
//  264  *          any application specific initialization (ie. hardware
//  265  *          initialization/setup, table initialization, power up
//  266  *          notificaiton ... ).
//  267  *
//  268  * @param   task_id - the ID assigned by OSAL.  This ID should be
//  269  *                    used to send messages and set timers.
//  270  *
//  271  * @return  none
//  272  */

        RSEG BANKED_CODE:CODE:NOROOT(0)
//  273 void Button_Init( byte task_id )
Button_Init:
        CFI Block cfiBlock1 Using cfiCommon0
        CFI Function Button_Init
        CODE
//  274 {
        FUNCALL Button_Init, afRegister
        LOCFRAME ISTACK, 0, STACK
        LOCFRAME PSTACK, 0, STACK
        LOCFRAME XSTACK, 9, STACK
        LOCFRAME IOVERLAY, 0, STATIC
        LOCFRAME DOVERLAY, 0, STATIC
        ARGFRAME ISTACK, 0, STACK
        ARGFRAME PSTACK, 0, STACK
        ARGFRAME XSTACK, 9, STACK
        ARGFRAME IOVERLAY, 0, STATIC
        ARGFRAME DOVERLAY, 0, STATIC
        FUNCALL Button_Init, RegisterForKeys
        LOCFRAME ISTACK, 0, STACK
        LOCFRAME PSTACK, 0, STACK
        LOCFRAME XSTACK, 9, STACK
        LOCFRAME IOVERLAY, 0, STATIC
        LOCFRAME DOVERLAY, 0, STATIC
        ARGFRAME ISTACK, 0, STACK
        ARGFRAME PSTACK, 0, STACK
        ARGFRAME XSTACK, 9, STACK
        ARGFRAME IOVERLAY, 0, STATIC
        ARGFRAME DOVERLAY, 0, STATIC
        FUNCALL Button_Init, ZDO_RegisterForZDOMsg
        LOCFRAME ISTACK, 0, STACK
        LOCFRAME PSTACK, 0, STACK
        LOCFRAME XSTACK, 9, STACK
        LOCFRAME IOVERLAY, 0, STATIC
        LOCFRAME DOVERLAY, 0, STATIC
        ARGFRAME ISTACK, 0, STACK
        ARGFRAME PSTACK, 0, STACK
        ARGFRAME XSTACK, 9, STACK
        ARGFRAME IOVERLAY, 0, STATIC
        ARGFRAME DOVERLAY, 0, STATIC
        MOV     A,#-0x9
        LCALL   ?BANKED_ENTER_XDATA
        CFI DPH0 load(1, XDATA, add(CFA_XSP16, literal(-1)))
        CFI DPL0 load(1, XDATA, add(CFA_XSP16, literal(-2)))
        CFI ?BRET_EXT load(1, XDATA, add(CFA_XSP16, literal(-3)))
        CFI ?RET_HIGH load(1, XDATA, add(CFA_XSP16, literal(-4)))
        CFI ?RET_LOW load(1, XDATA, add(CFA_XSP16, literal(-5)))
        CFI R7 load(1, XDATA, add(CFA_XSP16, literal(-6)))
        CFI V0 load(1, XDATA, add(CFA_XSP16, literal(-7)))
        CFI VB load(1, XDATA, add(CFA_XSP16, literal(-8)))
        CFI R6 load(1, XDATA, add(CFA_XSP16, literal(-9)))
        CFI CFA_SP SP+0
        CFI CFA_XSP16 add(XSP16, 9)
        ; Saved register size: 9
        ; Auto size: 0
        MOV     A,R1
//  275 	Button_TaskID = task_id;
        MOV     DPTR,#Button_TaskID
        MOVX    @DPTR,A
//  276 	SensorSys_NwkState = DEV_INIT;    // added to main()
        MOV     DPTR,#SensorSys_NwkState
        MOV     A,#0x1
        MOVX    @DPTR,A
//  277 	SensorSys_TransID = 0;            // added to main()
        MOV     DPTR,#SensorSys_TransID
        CLR     A
        MOVX    @DPTR,A
//  278 
//  279 	// Device hardware initialization can be added here or in main() (Zmain.c).
//  280 	// If the hardware is application specific - add it here.
//  281 	// If the hardware is other parts of the device add it in main().
//  282 
//  283 	Button_DstAddr.addrMode = (afAddrMode_t)AddrNotPresent;
        MOV     DPTR,#Button_DstAddr + 8
        MOVX    @DPTR,A
//  284 	Button_DstAddr.endPoint = 0;
        INC     DPTR
        MOVX    @DPTR,A
//  285 	Button_DstAddr.addr.shortAddr = 0;
        MOV     DPTR,#Button_DstAddr
        MOVX    @DPTR,A
        INC     DPTR
        MOVX    @DPTR,A
//  286 
//  287 	// Fill out the endpoint description.
//  288 	Button_epDesc.endPoint = BUTTON_ENDPOINT;
        MOV     DPTR,#Button_epDesc
        MOV     A,#0xa
        MOVX    @DPTR,A
//  289 	Button_epDesc.task_id = &Button_TaskID;
        INC     DPTR
        MOV     A,#Button_TaskID & 0xff
        MOVX    @DPTR,A
        INC     DPTR
        MOV     A,#(Button_TaskID >> 8) & 0xff
        MOVX    @DPTR,A
//  290 	Button_epDesc.simpleDesc
//  291 						= (SimpleDescriptionFormat_t *)&Button_SimpleDesc;
        INC     DPTR
        MOV     A,#Button_SimpleDesc & 0xff
        MOVX    @DPTR,A
        INC     DPTR
        MOV     A,#(Button_SimpleDesc >> 8) & 0xff
        MOVX    @DPTR,A
//  292 	Button_epDesc.latencyReq = noLatencyReqs;
        INC     DPTR
        CLR     A
        MOVX    @DPTR,A
//  293 
//  294 	// Register the endpoint description with the AF
//  295 	afRegister( &Button_epDesc );
        ; Setup parameters for call to function afRegister
        MOV     R2,#Button_epDesc & 0xff
        MOV     R3,#(Button_epDesc >> 8) & 0xff
        LCALL   ??afRegister?relay
//  296 
//  297 	// Register for all key events - This app will handle all key events
//  298 	RegisterForKeys( Button_TaskID );
        ; Setup parameters for call to function RegisterForKeys
        MOV     DPTR,#Button_TaskID
        MOVX    A,@DPTR
        MOV     R1,A
        LCALL   ??RegisterForKeys?relay
//  299  
//  300 //	ZDO_RegisterForZDOMsg( Button_TaskID, End_Device_Bind_rsp );
//  301 	ZDO_RegisterForZDOMsg( Button_TaskID, Match_Desc_rsp );
        ; Setup parameters for call to function ZDO_RegisterForZDOMsg
        MOV     R2,#0x6
        MOV     R3,#-0x80
        MOV     DPTR,#Button_TaskID
        MOVX    A,@DPTR
        MOV     R1,A
        LCALL   ??ZDO_RegisterForZDOMsg?relay
//  302 }
        LJMP    ?Subroutine0 & 0xFFFF
        CFI EndBlock cfiBlock1
//  303 
//  304 /*********************************************************************
//  305  * @fn      Sys_ProcessEvent
//  306  *
//  307  * @brief   Generic Application Task event processor.  This function
//  308  *          is called to process all events for the task.  Events
//  309  *          include timers, messages and any other user defined events.
//  310  *
//  311  * @param   task_id  - The OSAL assigned task ID.
//  312  * @param   events - events to process.  This is a bit map and can
//  313  *                   contain more than one event.
//  314  *
//  315  * @return  none
//  316  */

        RSEG BANKED_CODE:CODE:NOROOT(0)
//  317 UINT16 Sys_ProcessEvent( byte task_id, UINT16 events )
Sys_ProcessEvent:
        CFI Block cfiBlock2 Using cfiCommon0
        CFI Function Sys_ProcessEvent
        CODE
//  318 {
        FUNCALL Sys_ProcessEvent, osal_msg_receive
        LOCFRAME ISTACK, 0, STACK
        LOCFRAME PSTACK, 0, STACK
        LOCFRAME XSTACK, 14, STACK
        LOCFRAME IOVERLAY, 0, STATIC
        LOCFRAME DOVERLAY, 0, STATIC
        ARGFRAME ISTACK, 0, STACK
        ARGFRAME PSTACK, 0, STACK
        ARGFRAME XSTACK, 14, STACK
        ARGFRAME IOVERLAY, 0, STATIC
        ARGFRAME DOVERLAY, 0, STATIC
        FUNCALL Sys_ProcessEvent, osal_start_timerEx
        LOCFRAME ISTACK, 0, STACK
        LOCFRAME PSTACK, 0, STACK
        LOCFRAME XSTACK, 14, STACK
        LOCFRAME IOVERLAY, 0, STATIC
        LOCFRAME DOVERLAY, 0, STATIC
        ARGFRAME ISTACK, 0, STACK
        ARGFRAME PSTACK, 0, STACK
        ARGFRAME XSTACK, 14, STACK
        ARGFRAME IOVERLAY, 0, STATIC
        ARGFRAME DOVERLAY, 0, STATIC
        FUNCALL Sys_ProcessEvent, osal_msg_deallocate
        LOCFRAME ISTACK, 0, STACK
        LOCFRAME PSTACK, 0, STACK
        LOCFRAME XSTACK, 14, STACK
        LOCFRAME IOVERLAY, 0, STATIC
        LOCFRAME DOVERLAY, 0, STATIC
        ARGFRAME ISTACK, 0, STACK
        ARGFRAME PSTACK, 0, STACK
        ARGFRAME XSTACK, 14, STACK
        ARGFRAME IOVERLAY, 0, STATIC
        ARGFRAME DOVERLAY, 0, STATIC
        FUNCALL Sys_ProcessEvent, osal_msg_receive
        LOCFRAME ISTACK, 0, STACK
        LOCFRAME PSTACK, 0, STACK
        LOCFRAME XSTACK, 14, STACK
        LOCFRAME IOVERLAY, 0, STATIC
        LOCFRAME DOVERLAY, 0, STATIC
        ARGFRAME ISTACK, 0, STACK
        ARGFRAME PSTACK, 0, STACK
        ARGFRAME XSTACK, 14, STACK
        ARGFRAME IOVERLAY, 0, STATIC
        ARGFRAME DOVERLAY, 0, STATIC
        FUNCALL Sys_ProcessEvent, Sys_MessageMSGCB
        LOCFRAME ISTACK, 0, STACK
        LOCFRAME PSTACK, 0, STACK
        LOCFRAME XSTACK, 14, STACK
        LOCFRAME IOVERLAY, 0, STATIC
        LOCFRAME DOVERLAY, 0, STATIC
        ARGFRAME ISTACK, 0, STACK
        ARGFRAME PSTACK, 0, STACK
        ARGFRAME XSTACK, 14, STACK
        ARGFRAME IOVERLAY, 0, STATIC
        ARGFRAME DOVERLAY, 0, STATIC
        FUNCALL Sys_ProcessEvent, HalLedSet
        LOCFRAME ISTACK, 0, STACK
        LOCFRAME PSTACK, 0, STACK
        LOCFRAME XSTACK, 14, STACK
        LOCFRAME IOVERLAY, 0, STATIC
        LOCFRAME DOVERLAY, 0, STATIC
        ARGFRAME ISTACK, 0, STACK
        ARGFRAME PSTACK, 0, STACK
        ARGFRAME XSTACK, 14, STACK
        ARGFRAME IOVERLAY, 0, STATIC
        ARGFRAME DOVERLAY, 0, STATIC
        FUNCALL Sys_ProcessEvent, HalLedSet
        LOCFRAME ISTACK, 0, STACK
        LOCFRAME PSTACK, 0, STACK
        LOCFRAME XSTACK, 14, STACK
        LOCFRAME IOVERLAY, 0, STATIC
        LOCFRAME DOVERLAY, 0, STATIC
        ARGFRAME ISTACK, 0, STACK
        ARGFRAME PSTACK, 0, STACK
        ARGFRAME XSTACK, 14, STACK
        ARGFRAME IOVERLAY, 0, STATIC
        ARGFRAME DOVERLAY, 0, STATIC
        MOV     A,#-0xe
        LCALL   ?BANKED_ENTER_XDATA
        CFI DPH0 load(1, XDATA, add(CFA_XSP16, literal(-1)))
        CFI DPL0 load(1, XDATA, add(CFA_XSP16, literal(-2)))
        CFI ?BRET_EXT load(1, XDATA, add(CFA_XSP16, literal(-3)))
        CFI ?RET_HIGH load(1, XDATA, add(CFA_XSP16, literal(-4)))
        CFI ?RET_LOW load(1, XDATA, add(CFA_XSP16, literal(-5)))
        CFI R7 load(1, XDATA, add(CFA_XSP16, literal(-6)))
        CFI V5 load(1, XDATA, add(CFA_XSP16, literal(-7)))
        CFI V4 load(1, XDATA, add(CFA_XSP16, literal(-8)))
        CFI V3 load(1, XDATA, add(CFA_XSP16, literal(-9)))
        CFI V2 load(1, XDATA, add(CFA_XSP16, literal(-10)))
        CFI V1 load(1, XDATA, add(CFA_XSP16, literal(-11)))
        CFI V0 load(1, XDATA, add(CFA_XSP16, literal(-12)))
        CFI VB load(1, XDATA, add(CFA_XSP16, literal(-13)))
        CFI R6 load(1, XDATA, add(CFA_XSP16, literal(-14)))
        CFI CFA_SP SP+0
        CFI CFA_XSP16 add(XSP16, 14)
        ; Saved register size: 14
        ; Auto size: 0
        MOV     ?V0 + 2,R1
        MOV     A,R2
        MOV     R6,A
        MOV     A,R3
        MOV     R7,A
//  319 	afIncomingMSGPacket_t *MSGpkt = NULL;
//  320 	afDataConfirm_t *afDataConfirm;
//  321 
//  322 	// Data Confirmation message fields
//  323 	byte sentEP;
//  324 	ZStatus_t sentStatus;
//  325 	byte sentTransID;       // This should match the value sent
//  326 	(void)task_id;  // Intentionally unreferenced parameter
//  327 
//  328 	if ( events & SYS_EVENT_MSG )
        ANL     A,#0x80
        JZ      ??Sys_ProcessEvent_0
//  329 	{
//  330 		MSGpkt = (afIncomingMSGPacket_t *)osal_msg_receive( task_id );
        ; Setup parameters for call to function osal_msg_receive
        SJMP    ??Sys_ProcessEvent_1
//  331 		// 其它 task_id 同上
//  332 		while ( MSGpkt )
//  333 		{
//  334 			switch ( MSGpkt->hdr.event )
//  335 			{
//  336 				case AF_DATA_CONFIRM_CMD: // 判断信息是否发送成功
//  337 					// This message is received as a confirmation of a data packet sent.
//  338 					// The status is of ZStatus_t type [defined in ZComDef.h]
//  339 					// The message fields are defined in AF.h
//  340 					afDataConfirm = (afDataConfirm_t *)MSGpkt;
//  341 					sentEP = afDataConfirm->endpoint;
//  342 					sentStatus = afDataConfirm->hdr.status;
//  343 					sentTransID = afDataConfirm->transID;
//  344 					(void)sentEP;
//  345 					(void)sentTransID;
//  346 
//  347 					// Action taken when confirmation is received.
//  348 					if ( sentStatus != ZSuccess )
//  349 					{
//  350 						// The data wasn't delivered -- Do something
//  351 					}
//  352 					break;
//  353 
//  354 				case AF_INCOMING_MSG_CMD:   // 接收信息
//  355 					Sys_MessageMSGCB( MSGpkt, task_id );
//  356 					break;
//  357 
//  358 				case ZDO_STATE_CHANGE:      // 设备网络状态改变
//  359 					SensorSys_NwkState = (devStates_t)(MSGpkt->hdr.status);
??Sys_ProcessEvent_2:
        INC     DPTR
        MOVX    A,@DPTR
        MOV     DPTR,#SensorSys_NwkState
        MOVX    @DPTR,A
//  360 					if ( (SensorSys_NwkState == DEV_ROUTER)
//  361 							|| (SensorSys_NwkState == DEV_END_DEVICE) )
        XRL     A,#0x7
        JZ      ??Sys_ProcessEvent_3
        MOVX    A,@DPTR
        XRL     A,#0x6
        JNZ     ??Sys_ProcessEvent_4
//  362 					{
//  363 						if(myAppState == APP_INIT)
??Sys_ProcessEvent_3:
        MOV     DPTR,#myAppState
        MOVX    A,@DPTR
        JNZ     ??Sys_ProcessEvent_4
//  364 							osal_start_timerEx( task_id, CLOSE_LIGHT_EVT, 1000);	// 1s 后关了所有的灯
        ; Setup parameters for call to function osal_start_timerEx
        MOV     R4,#-0x18
        MOV     R5,#0x3
        MOV     R2,#0x5
        MOV     R3,#0x0
        MOV     R1,?V0 + 2
        LCALL   ??osal_start_timerEx?relay
//  365 					}
//  366 
//  367 					break;
//  368 
//  369 				default:
//  370 					break;
//  371 			}
//  372 
//  373 			// Release the memory
//  374 			osal_msg_deallocate( (uint8 *)MSGpkt );
??Sys_ProcessEvent_4:
        ; Setup parameters for call to function osal_msg_deallocate
        MOV     R2,?V0 + 0
        MOV     R3,?V0 + 1
        LCALL   ??osal_msg_deallocate?relay
//  375 
//  376 			// Next
//  377 			MSGpkt = (afIncomingMSGPacket_t *)osal_msg_receive( Sys_TaskID );
        ; Setup parameters for call to function osal_msg_receive
        MOV     DPTR,#Sys_TaskID
        MOVX    A,@DPTR
        MOV     R1,A
??Sys_ProcessEvent_1:
        LCALL   ??osal_msg_receive?relay
        MOV     ?V0 + 0,R2
        MOV     ?V0 + 1,R3
        MOV     A,?V0 + 0
        ORL     A,?V0 + 1
        JZ      ??Sys_ProcessEvent_5
        MOV     DPL,?V0 + 0
        MOV     DPH,?V0 + 1
        MOVX    A,@DPTR
        ADD     A,#-0x1a
        JZ      ??Sys_ProcessEvent_6
        ADD     A,#0x49
        JZ      ??Sys_ProcessEvent_2
        SJMP    ??Sys_ProcessEvent_4
??Sys_ProcessEvent_6:
        ; Setup parameters for call to function Sys_MessageMSGCB
        MOV     R1,?V0 + 2
        MOV     R2,?V0 + 0
        MOV     R3,?V0 + 1
        LCALL   ??Sys_MessageMSGCB?relay
        SJMP    ??Sys_ProcessEvent_4
//  378 		}
//  379 	  // return unprocessed events
//  380 		return (events ^ SYS_EVENT_MSG);
??Sys_ProcessEvent_5:
        MOV     A,R6
        MOV     R2,A
        MOV     A,R7
        XRL     A,#0x80
??Sys_ProcessEvent_7:
        MOV     R3,A
        SJMP    ??Sys_ProcessEvent_8
//  381 	}
//  382 
//  383 	if(events & CLOSE_BIND_EVT)
??Sys_ProcessEvent_0:
        MOV     A,R6
        ANL     A,#0x3
        JZ      ??Sys_ProcessEvent_9
//  384 	{
//  385 		HalLedSet(HAL_LED_1, HAL_LED_MODE_ON);
        ; Setup parameters for call to function HalLedSet
        MOV     R2,#0x1
        MOV     R1,#0x1
        LCALL   ??HalLedSet?relay
//  386 		return (events ^ CLOSE_BIND_EVT);
        MOV     A,R6
        XRL     A,#0x3
??Sys_ProcessEvent_10:
        MOV     R2,A
        MOV     A,R7
        SJMP    ??Sys_ProcessEvent_7
//  387 	}
//  388 
//  389 	if(events & CLOSE_LIGHT_EVT)
??Sys_ProcessEvent_9:
        MOV     A,R6
        ANL     A,#0x5
        JZ      ??Sys_ProcessEvent_11
//  390 	{
//  391 		HalLedSet(HAL_LED_ALL, HAL_LED_MODE_ON);
        ; Setup parameters for call to function HalLedSet
        MOV     R2,#0x1
        MOV     R1,#0xf
        LCALL   ??HalLedSet?relay
//  392 		return (events ^ CLOSE_LIGHT_EVT);
        MOV     A,R6
        XRL     A,#0x5
        SJMP    ??Sys_ProcessEvent_10
//  393 	}
//  394 	// Discard unknown events
//  395 	return 0;
??Sys_ProcessEvent_11:
        MOV     R2,#0x0
        MOV     R3,#0x0
        CFI EndBlock cfiBlock2
??Sys_ProcessEvent_8:
        REQUIRE ?Subroutine1
        ; // Fall through to label ?Subroutine1
//  396 }

        RSEG BANKED_CODE:CODE:NOROOT(0)
?Subroutine1:
        CFI Block cfiBlock3 Using cfiCommon0
        CFI NoFunction
        CFI CFA_SP SP+0
        CFI CFA_XSP16 add(XSP16, 14)
        CFI VB load(1, XDATA, add(CFA_XSP16, literal(-13)))
        CFI DPL0 load(1, XDATA, add(CFA_XSP16, literal(-2)))
        CFI DPH0 load(1, XDATA, add(CFA_XSP16, literal(-1)))
        CFI R6 load(1, XDATA, add(CFA_XSP16, literal(-14)))
        CFI R7 load(1, XDATA, add(CFA_XSP16, literal(-6)))
        CFI V0 load(1, XDATA, add(CFA_XSP16, literal(-12)))
        CFI V1 load(1, XDATA, add(CFA_XSP16, literal(-11)))
        CFI V2 load(1, XDATA, add(CFA_XSP16, literal(-10)))
        CFI V3 load(1, XDATA, add(CFA_XSP16, literal(-9)))
        CFI V4 load(1, XDATA, add(CFA_XSP16, literal(-8)))
        CFI V5 load(1, XDATA, add(CFA_XSP16, literal(-7)))
        CFI ?BRET_EXT load(1, XDATA, add(CFA_XSP16, literal(-3)))
        CFI ?RET_HIGH load(1, XDATA, add(CFA_XSP16, literal(-4)))
        CFI ?RET_LOW load(1, XDATA, add(CFA_XSP16, literal(-5)))
        MOV     R7,#0x6
        LJMP    ?BANKED_LEAVE_XDATA
        CFI EndBlock cfiBlock3
//  397 
//  398 

        RSEG BANKED_CODE:CODE:NOROOT(0)
//  399 UINT16 Button_ProcessEvent( byte task_id, UINT16 events )
Button_ProcessEvent:
        CFI Block cfiBlock4 Using cfiCommon0
        CFI Function Button_ProcessEvent
        CODE
//  400 {
        FUNCALL Button_ProcessEvent, osal_msg_receive
        LOCFRAME ISTACK, 0, STACK
        LOCFRAME PSTACK, 0, STACK
        LOCFRAME XSTACK, 14, STACK
        LOCFRAME IOVERLAY, 0, STATIC
        LOCFRAME DOVERLAY, 0, STATIC
        ARGFRAME ISTACK, 0, STACK
        ARGFRAME PSTACK, 0, STACK
        ARGFRAME XSTACK, 14, STACK
        ARGFRAME IOVERLAY, 0, STATIC
        ARGFRAME DOVERLAY, 0, STATIC
        FUNCALL Button_ProcessEvent, Button_HandleKeys
        LOCFRAME ISTACK, 0, STACK
        LOCFRAME PSTACK, 0, STACK
        LOCFRAME XSTACK, 14, STACK
        LOCFRAME IOVERLAY, 0, STATIC
        LOCFRAME DOVERLAY, 0, STATIC
        ARGFRAME ISTACK, 0, STACK
        ARGFRAME PSTACK, 0, STACK
        ARGFRAME XSTACK, 14, STACK
        ARGFRAME IOVERLAY, 0, STATIC
        ARGFRAME DOVERLAY, 0, STATIC
        FUNCALL Button_ProcessEvent, osal_msg_deallocate
        LOCFRAME ISTACK, 0, STACK
        LOCFRAME PSTACK, 0, STACK
        LOCFRAME XSTACK, 14, STACK
        LOCFRAME IOVERLAY, 0, STATIC
        LOCFRAME DOVERLAY, 0, STATIC
        ARGFRAME ISTACK, 0, STACK
        ARGFRAME PSTACK, 0, STACK
        ARGFRAME XSTACK, 14, STACK
        ARGFRAME IOVERLAY, 0, STATIC
        ARGFRAME DOVERLAY, 0, STATIC
        FUNCALL Button_ProcessEvent, osal_msg_receive
        LOCFRAME ISTACK, 0, STACK
        LOCFRAME PSTACK, 0, STACK
        LOCFRAME XSTACK, 14, STACK
        LOCFRAME IOVERLAY, 0, STATIC
        LOCFRAME DOVERLAY, 0, STATIC
        ARGFRAME ISTACK, 0, STACK
        ARGFRAME PSTACK, 0, STACK
        ARGFRAME XSTACK, 14, STACK
        ARGFRAME IOVERLAY, 0, STATIC
        ARGFRAME DOVERLAY, 0, STATIC
        MOV     A,#-0xe
        LCALL   ?BANKED_ENTER_XDATA
        CFI DPH0 load(1, XDATA, add(CFA_XSP16, literal(-1)))
        CFI DPL0 load(1, XDATA, add(CFA_XSP16, literal(-2)))
        CFI ?BRET_EXT load(1, XDATA, add(CFA_XSP16, literal(-3)))
        CFI ?RET_HIGH load(1, XDATA, add(CFA_XSP16, literal(-4)))
        CFI ?RET_LOW load(1, XDATA, add(CFA_XSP16, literal(-5)))
        CFI R7 load(1, XDATA, add(CFA_XSP16, literal(-6)))
        CFI V5 load(1, XDATA, add(CFA_XSP16, literal(-7)))
        CFI V4 load(1, XDATA, add(CFA_XSP16, literal(-8)))
        CFI V3 load(1, XDATA, add(CFA_XSP16, literal(-9)))
        CFI V2 load(1, XDATA, add(CFA_XSP16, literal(-10)))
        CFI V1 load(1, XDATA, add(CFA_XSP16, literal(-11)))
        CFI V0 load(1, XDATA, add(CFA_XSP16, literal(-12)))
        CFI VB load(1, XDATA, add(CFA_XSP16, literal(-13)))
        CFI R6 load(1, XDATA, add(CFA_XSP16, literal(-14)))
        CFI CFA_SP SP+0
        CFI CFA_XSP16 add(XSP16, 14)
        ; Saved register size: 14
        ; Auto size: 0
        MOV     ?V0 + 0,R2
        MOV     ?V0 + 1,R3
//  401 	afIncomingMSGPacket_t *MSGpkt = NULL;
//  402 
//  403 	(void)task_id;  // Intentionally unreferenced parameter
//  404 
//  405 	if ( events & SYS_EVENT_MSG )
        MOV     A,R3
        ANL     A,#0x80
        JZ      ??Button_ProcessEvent_0
//  406 	{
//  407     MSGpkt = (afIncomingMSGPacket_t *)osal_msg_receive( task_id );
        ; Setup parameters for call to function osal_msg_receive
        SJMP    ??Button_ProcessEvent_1
//  408     while ( MSGpkt )
//  409     {
//  410       switch ( MSGpkt->hdr.event )
??Button_ProcessEvent_2:
        MOV     DPL,R6
        MOV     DPH,R7
        MOVX    A,@DPTR
        XRL     A,#0xc0
        JNZ     ??Button_ProcessEvent_3
//  411       {
//  412       	case KEY_CHANGE:
//  413       		Button_HandleKeys( ((keyChange_t *)MSGpkt)->keys );
        ; Setup parameters for call to function Button_HandleKeys
        INC     DPTR
        INC     DPTR
        INC     DPTR
        MOVX    A,@DPTR
        MOV     R1,A
        LCALL   ??Button_HandleKeys?relay
//  414       	break;
//  415       }
//  416       // Release the memory
//  417       osal_msg_deallocate( (uint8 *)MSGpkt );
??Button_ProcessEvent_3:
        ; Setup parameters for call to function osal_msg_deallocate
        MOV     A,R6
        MOV     R2,A
        MOV     A,R7
        MOV     R3,A
        LCALL   ??osal_msg_deallocate?relay
//  418 
//  419       // Next
//  420       MSGpkt = (afIncomingMSGPacket_t *)osal_msg_receive( Button_TaskID );
        ; Setup parameters for call to function osal_msg_receive
        MOV     DPTR,#Button_TaskID
        MOVX    A,@DPTR
        MOV     R1,A
??Button_ProcessEvent_1:
        LCALL   ??osal_msg_receive?relay
        MOV     ?V0 + 4,R2
        MOV     ?V0 + 5,R3
        MOV     R6,?V0 + 4
        MOV     R7,?V0 + 5
//  421     }
        MOV     A,R6
        ORL     A,R7
        JNZ     ??Button_ProcessEvent_2
//  422     return (events ^ SYS_EVENT_MSG);
        MOV     R2,?V0 + 0
        MOV     A,?V0 + 1
        XRL     A,#0x80
        MOV     R3,A
        SJMP    ??Button_ProcessEvent_4
//  423 	}
//  424   return 0;
??Button_ProcessEvent_0:
        MOV     R2,#0x0
        MOV     R3,#0x0
??Button_ProcessEvent_4:
        SJMP    ?Subroutine1
        CFI EndBlock cfiBlock4
//  425 }
//  426 
//  427 
//  428 /*********************************************************************
//  429  * Event Generation Functions
//  430  */
//  431 
//  432 /*********************************************************************
//  433  * @fn      Button_HandleKeys
//  434  *
//  435  * @brief   Handles all key events for this device.
//  436  *
//  437  * @param   shift - true if in shift/alt.
//  438  * @param   keys - bit field for key events. Valid entries:
//  439  *                 HAL_KEY_SW_4
//  440  *                 HAL_KEY_SW_3
//  441  *                 HAL_KEY_SW_2
//  442  *                 HAL_KEY_SW_1
//  443  *
//  444  * @return  none
//  445  */

        RSEG BANKED_CODE:CODE:NOROOT(0)
//  446 void Button_HandleKeys( byte keys )
Button_HandleKeys:
        CFI Block cfiBlock5 Using cfiCommon0
        CFI Function Button_HandleKeys
        CODE
//  447 {
        FUNCALL Button_HandleKeys, zb_AllowBind
        LOCFRAME ISTACK, 0, STACK
        LOCFRAME PSTACK, 0, STACK
        LOCFRAME XSTACK, 9, STACK
        LOCFRAME IOVERLAY, 0, STATIC
        LOCFRAME DOVERLAY, 0, STATIC
        ARGFRAME ISTACK, 0, STACK
        ARGFRAME PSTACK, 0, STACK
        ARGFRAME XSTACK, 9, STACK
        ARGFRAME IOVERLAY, 0, STATIC
        ARGFRAME DOVERLAY, 0, STATIC
        FUNCALL Button_HandleKeys, HalLedSet
        LOCFRAME ISTACK, 0, STACK
        LOCFRAME PSTACK, 0, STACK
        LOCFRAME XSTACK, 9, STACK
        LOCFRAME IOVERLAY, 0, STATIC
        LOCFRAME DOVERLAY, 0, STATIC
        ARGFRAME ISTACK, 0, STACK
        ARGFRAME PSTACK, 0, STACK
        ARGFRAME XSTACK, 9, STACK
        ARGFRAME IOVERLAY, 0, STATIC
        ARGFRAME DOVERLAY, 0, STATIC
        FUNCALL Button_HandleKeys, osal_start_timerEx
        LOCFRAME ISTACK, 0, STACK
        LOCFRAME PSTACK, 0, STACK
        LOCFRAME XSTACK, 9, STACK
        LOCFRAME IOVERLAY, 0, STATIC
        LOCFRAME DOVERLAY, 0, STATIC
        ARGFRAME ISTACK, 0, STACK
        ARGFRAME PSTACK, 0, STACK
        ARGFRAME XSTACK, 9, STACK
        ARGFRAME IOVERLAY, 0, STATIC
        ARGFRAME DOVERLAY, 0, STATIC
        MOV     A,#-0x9
        LCALL   ?BANKED_ENTER_XDATA
        CFI DPH0 load(1, XDATA, add(CFA_XSP16, literal(-1)))
        CFI DPL0 load(1, XDATA, add(CFA_XSP16, literal(-2)))
        CFI ?BRET_EXT load(1, XDATA, add(CFA_XSP16, literal(-3)))
        CFI ?RET_HIGH load(1, XDATA, add(CFA_XSP16, literal(-4)))
        CFI ?RET_LOW load(1, XDATA, add(CFA_XSP16, literal(-5)))
        CFI R7 load(1, XDATA, add(CFA_XSP16, literal(-6)))
        CFI V0 load(1, XDATA, add(CFA_XSP16, literal(-7)))
        CFI VB load(1, XDATA, add(CFA_XSP16, literal(-8)))
        CFI R6 load(1, XDATA, add(CFA_XSP16, literal(-9)))
        CFI CFA_SP SP+0
        CFI CFA_XSP16 add(XSP16, 9)
        ; Saved register size: 9
        ; Auto size: 0
        MOV     A,R1
        MOV     R6,A
//  448 	
//  449 	// Shift is used to make each button/switch dual purpose.
//  450 	if ( keys_shift )
        MOV     DPTR,#keys_shift
        MOVX    A,@DPTR
        JZ      ??Button_HandleKeys_0
//  451 	{
//  452 		// Allow Binding
//  453 		if ( keys & HAL_KEY_SW_1 )
        MOV     A,R6
        MOV     C,0xE0 /* A   */.0
        JNC     ??Button_HandleKeys_0
//  454 		{
//  455 			zb_AllowBind(10);
        ; Setup parameters for call to function zb_AllowBind
        MOV     R1,#0xa
        LCALL   ??zb_AllowBind?relay
//  456 			HalLedSet(HAL_LED_1, HAL_LED_MODE_BLINK);
        ; Setup parameters for call to function HalLedSet
        MOV     R2,#0x2
        MOV     R1,#0x1
        LCALL   ??HalLedSet?relay
//  457 			osal_start_timerEx(Sys_TaskID, CLOSE_BIND_EVT, 10000);
        ; Setup parameters for call to function osal_start_timerEx
        MOV     R4,#0x10
        MOV     R5,#0x27
        MOV     R2,#0x3
        MOV     R3,#0x0
        MOV     DPTR,#Sys_TaskID
        MOVX    A,@DPTR
        MOV     R1,A
        LCALL   ??osal_start_timerEx?relay
//  458 			
//  459 			keys_shift = 0;
        MOV     DPTR,#keys_shift
        CLR     A
        MOVX    @DPTR,A
        CFI EndBlock cfiBlock5
//  460 		}
//  461 		if ( keys & HAL_KEY_SW_2 )
//  462 		{
//  463 		}
//  464 		if ( keys & HAL_KEY_SW_3 )
//  465 		{
//  466 		}
//  467 		if ( keys & HAL_KEY_SW_4 )
//  468 		{
//  469 		}
//  470 	}
//  471 	else
//  472 	{
//  473 		if ( keys & HAL_KEY_SW_1 )
//  474 		{
//  475 		}
//  476 
//  477 		if ( keys & HAL_KEY_SW_2 )
//  478 		{/*
//  479 			HalLedSet ( HAL_LED_4, HAL_LED_MODE_OFF );
//  480 
//  481 			// 想绑定另一个端点
//  482 			dstAddr.addrMode = Addr16Bit;
//  483 			dstAddr.addr.shortAddr = 0x0000; 
//  484 			ZDP_EndDeviceBindReq( &dstAddr, NLME_GetShortAddr(), 
//  485 														Button_epDesc.endPoint,
//  486 														SENSORSYS_PROFID,
//  487 														SENSORSYS_MAX_CLUSTERS, (cId_t *)Button_ClusterList,
//  488 														SENSORSYS_MAX_CLUSTERS, (cId_t *)Button_ClusterList,
//  489 														FALSE );*/
//  490 		}
//  491 
//  492 		if ( keys & HAL_KEY_SW_3 )
//  493 		{
//  494 		}
//  495 		
//  496 		if ( keys & HAL_KEY_SW_4 )
//  497 		{
//  498 		/*	HalLedSet ( HAL_LED_4, HAL_LED_MODE_OFF );
//  499 			dstAddr.addrMode = AddrBroadcast;
//  500 			dstAddr.addr.shortAddr = NWK_BROADCAST_SHORTADDR;
//  501 			ZDP_MatchDescReq( &dstAddr, NWK_BROADCAST_SHORTADDR,
//  502 												SENSORSYS_PROFID,
//  503 												SENSORSYS_MAX_CLUSTERS, (cId_t *)Button_ClusterList,
//  504 												SENSORSYS_MAX_CLUSTERS, (cId_t *)Button_ClusterList,
//  505 												FALSE );
//  506 		*/
//  507 		}
//  508 	}
//  509 }
??Button_HandleKeys_0:
        REQUIRE ?Subroutine0
        ; // Fall through to label ?Subroutine0

        RSEG BANKED_CODE:CODE:NOROOT(0)
?Subroutine0:
        CFI Block cfiBlock6 Using cfiCommon0
        CFI NoFunction
        CFI CFA_SP SP+0
        CFI CFA_XSP16 add(XSP16, 9)
        CFI VB load(1, XDATA, add(CFA_XSP16, literal(-8)))
        CFI DPL0 load(1, XDATA, add(CFA_XSP16, literal(-2)))
        CFI DPH0 load(1, XDATA, add(CFA_XSP16, literal(-1)))
        CFI R6 load(1, XDATA, add(CFA_XSP16, literal(-9)))
        CFI R7 load(1, XDATA, add(CFA_XSP16, literal(-6)))
        CFI V0 load(1, XDATA, add(CFA_XSP16, literal(-7)))
        CFI ?BRET_EXT load(1, XDATA, add(CFA_XSP16, literal(-3)))
        CFI ?RET_HIGH load(1, XDATA, add(CFA_XSP16, literal(-4)))
        CFI ?RET_LOW load(1, XDATA, add(CFA_XSP16, literal(-5)))
        MOV     R7,#0x1
        LJMP    ?BANKED_LEAVE_XDATA
        CFI EndBlock cfiBlock6
//  510 
//  511 
//  512 /*********************************************************************
//  513  * LOCAL FUNCTIONS
//  514  */
//  515 
//  516 /*********************************************************************
//  517  * @fn      Sys_MessageMSGCB
//  518  *
//  519  * @brief   Data message processor callback.  This function processes
//  520  *          any incoming data - probably from other devices.  So, based
//  521  *          on cluster ID, perform the intended action.
//  522  *
//  523  * @param   none
//  524  *
//  525  * @return  none
//  526  */

        RSEG BANKED_CODE:CODE:NOROOT(0)
//  527 void Sys_MessageMSGCB( afIncomingMSGPacket_t *pkt, byte task_id )
Sys_MessageMSGCB:
        CFI Block cfiBlock7 Using cfiCommon0
        CFI Function Sys_MessageMSGCB
        CODE
//  528 {
        FUNCALL Sys_MessageMSGCB, osal_memcpy
        LOCFRAME ISTACK, 0, STACK
        LOCFRAME PSTACK, 0, STACK
        LOCFRAME XSTACK, 18, STACK
        LOCFRAME IOVERLAY, 0, STATIC
        LOCFRAME DOVERLAY, 0, STATIC
        ARGFRAME ISTACK, 0, STACK
        ARGFRAME PSTACK, 0, STACK
        ARGFRAME XSTACK, 18, STACK
        ARGFRAME IOVERLAY, 0, STATIC
        ARGFRAME DOVERLAY, 0, STATIC
        FUNCALL Sys_MessageMSGCB, osal_memcmp
        LOCFRAME ISTACK, 0, STACK
        LOCFRAME PSTACK, 0, STACK
        LOCFRAME XSTACK, 18, STACK
        LOCFRAME IOVERLAY, 0, STATIC
        LOCFRAME DOVERLAY, 0, STATIC
        ARGFRAME ISTACK, 0, STACK
        ARGFRAME PSTACK, 0, STACK
        ARGFRAME XSTACK, 18, STACK
        ARGFRAME IOVERLAY, 0, STATIC
        ARGFRAME DOVERLAY, 0, STATIC
        FUNCALL Sys_MessageMSGCB, HalLedSet
        LOCFRAME ISTACK, 0, STACK
        LOCFRAME PSTACK, 0, STACK
        LOCFRAME XSTACK, 15, STACK
        LOCFRAME IOVERLAY, 0, STATIC
        LOCFRAME DOVERLAY, 0, STATIC
        ARGFRAME ISTACK, 0, STACK
        ARGFRAME PSTACK, 0, STACK
        ARGFRAME XSTACK, 15, STACK
        ARGFRAME IOVERLAY, 0, STATIC
        ARGFRAME DOVERLAY, 0, STATIC
        MOV     A,#-0xb
        LCALL   ?BANKED_ENTER_XDATA
        CFI DPH0 load(1, XDATA, add(CFA_XSP16, literal(-1)))
        CFI DPL0 load(1, XDATA, add(CFA_XSP16, literal(-2)))
        CFI ?BRET_EXT load(1, XDATA, add(CFA_XSP16, literal(-3)))
        CFI ?RET_HIGH load(1, XDATA, add(CFA_XSP16, literal(-4)))
        CFI ?RET_LOW load(1, XDATA, add(CFA_XSP16, literal(-5)))
        CFI R7 load(1, XDATA, add(CFA_XSP16, literal(-6)))
        CFI V2 load(1, XDATA, add(CFA_XSP16, literal(-7)))
        CFI V1 load(1, XDATA, add(CFA_XSP16, literal(-8)))
        CFI V0 load(1, XDATA, add(CFA_XSP16, literal(-9)))
        CFI VB load(1, XDATA, add(CFA_XSP16, literal(-10)))
        CFI R6 load(1, XDATA, add(CFA_XSP16, literal(-11)))
        CFI CFA_SP SP+0
        CFI CFA_XSP16 add(XSP16, 11)
        ; Saved register size: 11
        ; Auto size: 4
        MOV     A,#-0x4
        LCALL   ?ALLOC_XSTACK8
        CFI CFA_XSP16 add(XSP16, 15)
        MOV     A,R2
        MOV     R6,A
        MOV     A,R3
        MOV     R7,A
//  529 	switch ( pkt->clusterId )
        MOV     DPL,R6
        MOV     DPH,R7
        INC     DPTR
        INC     DPTR
        INC     DPTR
        INC     DPTR
        MOVX    A,@DPTR
        XRL     A,#0x1
        JNZ     ??Sys_MessageMSGCB_0
        INC     DPTR
        MOVX    A,@DPTR
??Sys_MessageMSGCB_0:
        JNZ     ??Sys_MessageMSGCB_1
//  530 	{
//  531 		case SYS_CLUSTERID:
//  532     {
//  533 			char flag[4];
//  534 			osal_memcpy( flag, pkt->cmd.Data, 4 );
        ; Setup parameters for call to function osal_memcpy
        LCALL   ?Subroutine2 & 0xFFFF
??CrossCallReturnLabel_0:
        MOV     ?V0 + 0,A
        INC     DPTR
        MOVX    A,@DPTR
        MOV     ?V0 + 1,A
        MOV     ?V0 + 2,#0x0
        MOV     R0,#?V0 + 0
        LCALL   ?PUSH_XSTACK_I_THREE
        CFI CFA_XSP16 add(XSP16, 18)
        MOV     R4,#0x4
        MOV     R5,#0x0
        MOV     A,#0x3
        LCALL   ?XSTACK_DISP0_8
        MOV     R2,DPL
        MOV     R3,DPH
        LCALL   ??osal_memcpy?relay
        MOV     A,#0x3
        LCALL   ?DEALLOC_XSTACK8
        CFI CFA_XSP16 add(XSP16, 15)
//  535 			if( osal_memcmp( flag, "bind", 4) )
        ; Setup parameters for call to function osal_memcmp
        MOV     ?V0 + 0,#`?<Constant "bind">` & 0xff
        MOV     ?V0 + 1,#(`?<Constant "bind">` >> 8) & 0xff
        MOV     R0,#?V0 + 0
        LCALL   ?PUSH_XSTACK_I_THREE
        CFI CFA_XSP16 add(XSP16, 18)
        MOV     R4,#0x4
        MOV     R5,#0x0
        MOV     A,#0x3
        LCALL   ?XSTACK_DISP0_8
        MOV     R1,DPL
        MOV     R2,DPH
        MOV     R3,#0x0
        LCALL   ??osal_memcmp?relay
        MOV     A,#0x3
        LCALL   ?DEALLOC_XSTACK8
        CFI CFA_XSP16 add(XSP16, 15)
        MOV     A,R1
        JZ      ??Sys_MessageMSGCB_1
//  536 			{
//  537 				if( pkt->cmd.Data[4] & MY_DEVICE )
        LCALL   ?Subroutine2 & 0xFFFF
??CrossCallReturnLabel_1:
        MOV     R0,A
        INC     DPTR
        MOVX    A,@DPTR
        MOV     DPH,A
        MOV     DPL,R0
        INC     DPTR
        INC     DPTR
        INC     DPTR
        INC     DPTR
        MOVX    A,@DPTR
        MOV     C,0xE0 /* A   */.0
        JNC     ??Sys_MessageMSGCB_1
//  538 				{
//  539 					HalLedSet(HAL_LED_1, HAL_LED_MODE_OFF);		// Set Red LED ON
        ; Setup parameters for call to function HalLedSet
        MOV     R2,#0x0
        MOV     R1,#0x1
        LCALL   ??HalLedSet?relay
//  540 			//		osal_start_timerEx(Sys_TaskID, CLOSE_BIND_EVT, 5000);		// Bind operation 5s timeout
//  541 					keys_shift = 1;
        MOV     DPTR,#keys_shift
        MOV     A,#0x1
        MOVX    @DPTR,A
//  542 				}
//  543 			}
//  544 #if defined( WIN32 )
//  545 			WPRINTSTR( pkt->cmd.Data );
//  546 #endif
//  547 			break;
//  548     }
//  549 	}
//  550 }
??Sys_MessageMSGCB_1:
        MOV     A,#0x4
        LCALL   ?DEALLOC_XSTACK8
        CFI CFA_XSP16 add(XSP16, 11)
        MOV     R7,#0x3
        LJMP    ?BANKED_LEAVE_XDATA
        CFI EndBlock cfiBlock7

        RSEG BANKED_CODE:CODE:NOROOT(0)
?Subroutine2:
        CFI Block cfiCond8 Using cfiCommon0
        CFI NoFunction
        CFI Conditional ??CrossCallReturnLabel_0
        CFI R6 load(1, XDATA, add(CFA_XSP16, literal(-11)))
        CFI VB load(1, XDATA, add(CFA_XSP16, literal(-10)))
        CFI V0 load(1, XDATA, add(CFA_XSP16, literal(-9)))
        CFI V1 load(1, XDATA, add(CFA_XSP16, literal(-8)))
        CFI V2 load(1, XDATA, add(CFA_XSP16, literal(-7)))
        CFI R7 load(1, XDATA, add(CFA_XSP16, literal(-6)))
        CFI ?RET_LOW load(1, XDATA, add(CFA_XSP16, literal(-5)))
        CFI ?RET_HIGH load(1, XDATA, add(CFA_XSP16, literal(-4)))
        CFI ?BRET_EXT load(1, XDATA, add(CFA_XSP16, literal(-3)))
        CFI DPL0 load(1, XDATA, add(CFA_XSP16, literal(-2)))
        CFI DPH0 load(1, XDATA, add(CFA_XSP16, literal(-1)))
        CFI CFA_SP SP+0
        CFI CFA_XSP16 add(XSP16, 15)
        CFI Block cfiCond9 Using cfiCommon0
        CFI (cfiCond9) NoFunction
        CFI (cfiCond9) Conditional ??CrossCallReturnLabel_1
        CFI (cfiCond9) R6 load(1, XDATA, add(CFA_XSP16, literal(-11)))
        CFI (cfiCond9) VB load(1, XDATA, add(CFA_XSP16, literal(-10)))
        CFI (cfiCond9) V0 load(1, XDATA, add(CFA_XSP16, literal(-9)))
        CFI (cfiCond9) V1 load(1, XDATA, add(CFA_XSP16, literal(-8)))
        CFI (cfiCond9) V2 load(1, XDATA, add(CFA_XSP16, literal(-7)))
        CFI (cfiCond9) R7 load(1, XDATA, add(CFA_XSP16, literal(-6)))
        CFI (cfiCond9) ?RET_LOW load(1, XDATA, add(CFA_XSP16, literal(-5)))
        CFI (cfiCond9) ?RET_HIGH load(1, XDATA, add(CFA_XSP16, literal(-4)))
        CFI (cfiCond9) ?BRET_EXT load(1, XDATA, add(CFA_XSP16, literal(-3)))
        CFI (cfiCond9) DPL0 load(1, XDATA, add(CFA_XSP16, literal(-2)))
        CFI (cfiCond9) DPH0 load(1, XDATA, add(CFA_XSP16, literal(-1)))
        CFI (cfiCond9) CFA_SP SP+0
        CFI (cfiCond9) CFA_XSP16 add(XSP16, 15)
        CFI Block cfiPicker10 Using cfiCommon1
        CFI (cfiPicker10) NoFunction
        CFI (cfiPicker10) Picker
        MOV     A,R6
        ADD     A,#0x22
        MOV     DPL,A
        MOV     A,R7
        ADDC    A,#0x0
        MOV     DPH,A
        MOVX    A,@DPTR
        RET
        CFI EndBlock cfiCond8
        CFI EndBlock cfiCond9
        CFI EndBlock cfiPicker10
//  551 
//  552 /*********************************************************************
//  553  * @fn      Sys_SendMessage
//  554  *
//  555  * @brief   Send message.
//  556  *
//  557  * @param   none
//  558  *
//  559  * @return  none
//  560  *//*
//  561 void Sys_SendMessage( void )
//  562 {
//  563 	char theMessageData[] = "";
//  564 
//  565 	if ( AF_DataRequest( &Button_DstAddr, &Button_epDesc,
//  566 											 button_CLUSTERID,
//  567 											 (byte)osal_strlen( theMessageData ) + 1,
//  568 											 (byte *)&theMessageData,
//  569 											 &SensorSys_TransID,
//  570 											 AF_DISCV_ROUTE, AF_DEFAULT_RADIUS ) == afStatus_SUCCESS )
//  571 	{
//  572 		// Successfully requested to be sent.
//  573 	}
//  574 	else
//  575 	{
//  576 		// Error occurred in request to send.
//  577 	}
//  578 }
//  579 */
//  580 /******************************************************************************
//  581  * @fn          zb_ReceiveDataIndication
//  582  * 
//  583  * @brief       The zb_ReceiveDataIndication callback function is called
//  584  *              asynchronously by the ZigBee stack to notify the application
//  585  *              when data is received from a peer device.
//  586  *
//  587  * @param       source - The short address of the peer device that sent the data
//  588  *              command - The commandId associated with the data
//  589  *              len - The number of bytes in the pData parameter
//  590  *              pData - The data sent by the peer device
//  591  *
//  592  * @return      none
//  593  */

        RSEG BANKED_CODE:CODE:NOROOT(0)
//  594 void zb_ReceiveDataIndication( uint16 source, uint16 command, uint16 len, uint8 *pData  )
zb_ReceiveDataIndication:
        CFI Block cfiBlock11 Using cfiCommon0
        CFI Function zb_ReceiveDataIndication
        CODE
//  595 {
        FUNCALL zb_ReceiveDataIndication, HalLedSet
        LOCFRAME ISTACK, 2, STACK
        LOCFRAME PSTACK, 0, STACK
        LOCFRAME XSTACK, 0, STACK
        LOCFRAME IOVERLAY, 0, STATIC
        LOCFRAME DOVERLAY, 0, STATIC
        ARGFRAME ISTACK, 2, STACK
        ARGFRAME PSTACK, 0, STACK
        ARGFRAME XSTACK, 0, STACK
        ARGFRAME IOVERLAY, 0, STATIC
        ARGFRAME DOVERLAY, 0, STATIC
        PUSH    DPL
        CFI DPL0 Frame(CFA_SP, 4)
        CFI CFA_SP SP+-4
        PUSH    DPH
        CFI DPH0 Frame(CFA_SP, 5)
        CFI CFA_SP SP+-5
        ; Saved register size: 2
        ; Auto size: 0
//  596   if (command == BUTTON_CMD_ID)
        MOV     A,#0x1
        XRL     A,R4
        JNZ     ??zb_ReceiveDataIndication_0
        MOV     A,R5
??zb_ReceiveDataIndication_0:
        JNZ     ??zb_ReceiveDataIndication_1
//  597   {
//  598     // Received application command to toggle the LED
//  599     HalLedSet(HAL_LED_2, HAL_LED_MODE_BLINK);
        ; Setup parameters for call to function HalLedSet
        MOV     R2,#0x2
        MOV     R1,#0x2
        LCALL   ??HalLedSet?relay
//  600   }
//  601 }
??zb_ReceiveDataIndication_1:
        POP     DPH
        CFI DPH0 SameValue
        CFI CFA_SP SP+-4
        POP     DPL
        CFI DPL0 SameValue
        CFI CFA_SP SP+-3
        LJMP    ?BRET
        CFI EndBlock cfiBlock11
//  602 /*********************************************************************
//  603 *********************************************************************/
//  604 /******************************************************************************
//  605  * @fn          zb_StartConfirm
//  606  *
//  607  * @brief       The zb_StartConfirm callback is called by the ZigBee stack
//  608  *              after a start request operation completes
//  609  *
//  610  * @param       status - The status of the start operation.  Status of
//  611  *                       ZB_SUCCESS indicates the start operation completed
//  612  *                       successfully.  Else the status is an error code.
//  613  *
//  614  * @return      none
//  615  */

        RSEG BANKED_CODE:CODE:NOROOT(0)
//  616 void zb_StartConfirm( uint8 status )
zb_StartConfirm:
        CFI Block cfiBlock12 Using cfiCommon0
        CFI Function zb_StartConfirm
        CODE
//  617 {
        FUNCALL zb_StartConfirm, HalLedSet
        LOCFRAME ISTACK, 0, STACK
        LOCFRAME PSTACK, 0, STACK
        LOCFRAME XSTACK, 9, STACK
        LOCFRAME IOVERLAY, 0, STATIC
        LOCFRAME DOVERLAY, 0, STATIC
        ARGFRAME ISTACK, 0, STACK
        ARGFRAME PSTACK, 0, STACK
        ARGFRAME XSTACK, 9, STACK
        ARGFRAME IOVERLAY, 0, STATIC
        ARGFRAME DOVERLAY, 0, STATIC
        MOV     A,#-0x9
        LCALL   ?BANKED_ENTER_XDATA
        CFI DPH0 load(1, XDATA, add(CFA_XSP16, literal(-1)))
        CFI DPL0 load(1, XDATA, add(CFA_XSP16, literal(-2)))
        CFI ?BRET_EXT load(1, XDATA, add(CFA_XSP16, literal(-3)))
        CFI ?RET_HIGH load(1, XDATA, add(CFA_XSP16, literal(-4)))
        CFI ?RET_LOW load(1, XDATA, add(CFA_XSP16, literal(-5)))
        CFI R7 load(1, XDATA, add(CFA_XSP16, literal(-6)))
        CFI V0 load(1, XDATA, add(CFA_XSP16, literal(-7)))
        CFI VB load(1, XDATA, add(CFA_XSP16, literal(-8)))
        CFI R6 load(1, XDATA, add(CFA_XSP16, literal(-9)))
        CFI CFA_SP SP+0
        CFI CFA_XSP16 add(XSP16, 9)
        ; Saved register size: 9
        ; Auto size: 0
        MOV     A,R1
//  618   if ( status == ZB_SUCCESS )
        JNZ     ??zb_StartConfirm_0
//  619   {
//  620     myAppState = APP_START;
        MOV     DPTR,#myAppState
        MOV     A,#0x1
        MOVX    @DPTR,A
        SJMP    ??zb_StartConfirm_1
//  621   }
//  622   else
//  623   {
//  624     // Try again later with a delay
//  625     
//  626     HalLedSet(HAL_LED_1, HAL_LED_MODE_BLINK);
??zb_StartConfirm_0:
        ; Setup parameters for call to function HalLedSet
        MOV     R2,#0x2
        MOV     R1,#0x1
        LCALL   ??HalLedSet?relay
//  627   }
//  628 }
??zb_StartConfirm_1:
        LJMP    ?Subroutine0 & 0xFFFF
        CFI EndBlock cfiBlock12
//  629 /******************************************************************************
//  630  * @fn          zb_SendDataConfirm
//  631  *
//  632  * @brief       The zb_SendDataConfirm callback function is called by the
//  633  *              ZigBee after a send data operation completes
//  634  *
//  635  * @param       handle - The handle identifying the data transmission.
//  636  *              status - The status of the operation.
//  637  *
//  638  * @return      none
//  639  */

        RSEG BANKED_CODE:CODE:NOROOT(0)
//  640 void zb_SendDataConfirm( uint8 handle, uint8 status )
zb_SendDataConfirm:
        CFI Block cfiBlock13 Using cfiCommon0
        CFI Function zb_SendDataConfirm
        CODE
//  641 {
        ; Saved register size: 0
        ; Auto size: 0
//  642 }
        LJMP    ?BRET
        CFI EndBlock cfiBlock13
//  643 /******************************************************************************
//  644  * @fn          zb_BindConfirm
//  645  *
//  646  * @brief       The zb_BindConfirm callback is called by the ZigBee stack
//  647  *              after a bind operation completes.
//  648  *
//  649  * @param       commandId - The command ID of the binding being confirmed.
//  650  *              status - The status of the bind operation.
//  651  *
//  652  * @return      none
//  653  */

        RSEG BANKED_CODE:CODE:NOROOT(0)
//  654 void zb_BindConfirm( uint16 commandId, uint8 status )
zb_BindConfirm:
        CFI Block cfiBlock14 Using cfiCommon0
        CFI Function zb_BindConfirm
        CODE
//  655 {
        ; Saved register size: 0
        ; Auto size: 0
//  656 }
        LJMP    ?BRET
        CFI EndBlock cfiBlock14
//  657 /******************************************************************************
//  658  * @fn          zb_AllowBindConfirm
//  659  *
//  660  * @brief       Indicates when another device attempted to bind to this device
//  661  *
//  662  * @param
//  663  *
//  664  * @return      none
//  665  */

        RSEG BANKED_CODE:CODE:NOROOT(0)
//  666 void zb_AllowBindConfirm( uint16 source )
zb_AllowBindConfirm:
        CFI Block cfiBlock15 Using cfiCommon0
        CFI Function zb_AllowBindConfirm
        CODE
//  667 {
        ; Saved register size: 0
        ; Auto size: 0
//  668 }
        LJMP    ?BRET
        CFI EndBlock cfiBlock15
//  669 /******************************************************************************
//  670  * @fn          zb_FindDeviceConfirm
//  671  *
//  672  * @brief       The zb_FindDeviceConfirm callback function is called by the
//  673  *              ZigBee stack when a find device operation completes.
//  674  *
//  675  * @param       searchType - The type of search that was performed.
//  676  *              searchKey - Value that the search was executed on.
//  677  *              result - The result of the search.
//  678  *
//  679  * @return      none
//  680  */

        RSEG BANKED_CODE:CODE:NOROOT(0)
//  681 void zb_FindDeviceConfirm( uint8 searchType, uint8 *searchKey, uint8 *result )
zb_FindDeviceConfirm:
        CFI Block cfiBlock16 Using cfiCommon0
        CFI Function zb_FindDeviceConfirm
        CODE
//  682 {
        ; Saved register size: 0
        ; Auto size: 0
//  683 }
        LJMP    ?BRET
        CFI EndBlock cfiBlock16
//  684 

        RSEG BANKED_CODE:CODE:NOROOT(0)
//  685 void zb_HandleOsalEvent( uint16 event )
zb_HandleOsalEvent:
        CFI Block cfiBlock17 Using cfiCommon0
        CFI Function zb_HandleOsalEvent
        CODE
//  686 {
        ; Saved register size: 0
        ; Auto size: 0
//  687 
//  688 }
        LJMP    ?BRET
        CFI EndBlock cfiBlock17

        RSEG XDATA_ID:CODE:NOROOT(0)
`?<Initializer for AppTitle>`:
        DB "SensorAPP"

        RSEG BANK_RELAYS:CODE:REORDER:NOROOT(0)
??Sys_Init?relay:
        LCALL   ?BDISPATCH
        DATA
        DC24    Sys_Init

        RSEG BANK_RELAYS:CODE:REORDER:NOROOT(0)
??Button_Init?relay:
        LCALL   ?BDISPATCH
        DATA
        DC24    Button_Init

        RSEG BANK_RELAYS:CODE:REORDER:NOROOT(0)
??Sys_ProcessEvent?relay:
        LCALL   ?BDISPATCH
        DATA
        DC24    Sys_ProcessEvent

        RSEG BANK_RELAYS:CODE:REORDER:NOROOT(0)
??Button_ProcessEvent?relay:
        LCALL   ?BDISPATCH
        DATA
        DC24    Button_ProcessEvent

        RSEG BANK_RELAYS:CODE:REORDER:NOROOT(0)
??Button_HandleKeys?relay:
        LCALL   ?BDISPATCH
        DATA
        DC24    Button_HandleKeys

        RSEG BANK_RELAYS:CODE:REORDER:NOROOT(0)
??Sys_MessageMSGCB?relay:
        LCALL   ?BDISPATCH
        DATA
        DC24    Sys_MessageMSGCB

        RSEG BANK_RELAYS:CODE:REORDER:NOROOT(0)
??zb_ReceiveDataIndication?relay:
        LCALL   ?BDISPATCH
        DATA
        DC24    zb_ReceiveDataIndication

        RSEG BANK_RELAYS:CODE:REORDER:NOROOT(0)
??zb_StartConfirm?relay:
        LCALL   ?BDISPATCH
        DATA
        DC24    zb_StartConfirm

        RSEG BANK_RELAYS:CODE:REORDER:NOROOT(0)
??zb_SendDataConfirm?relay:
        LCALL   ?BDISPATCH
        DATA
        DC24    zb_SendDataConfirm

        RSEG BANK_RELAYS:CODE:REORDER:NOROOT(0)
??zb_BindConfirm?relay:
        LCALL   ?BDISPATCH
        DATA
        DC24    zb_BindConfirm

        RSEG BANK_RELAYS:CODE:REORDER:NOROOT(0)
??zb_AllowBindConfirm?relay:
        LCALL   ?BDISPATCH
        DATA
        DC24    zb_AllowBindConfirm

        RSEG BANK_RELAYS:CODE:REORDER:NOROOT(0)
??zb_FindDeviceConfirm?relay:
        LCALL   ?BDISPATCH
        DATA
        DC24    zb_FindDeviceConfirm

        RSEG BANK_RELAYS:CODE:REORDER:NOROOT(0)
??zb_HandleOsalEvent?relay:
        LCALL   ?BDISPATCH
        DATA
        DC24    zb_HandleOsalEvent

        RSEG XDATA_ROM_C:CONST:REORDER:NOROOT(0)
        DATA8
`?<Constant "bind">`:
        DB "bind"

        END
// 
// 693 bytes in segment BANKED_CODE
//  78 bytes in segment BANK_RELAYS
//  10 bytes in segment XDATA_I
//  10 bytes in segment XDATA_ID
//  55 bytes in segment XDATA_ROM_C
//  42 bytes in segment XDATA_Z
// 
// 781 bytes of CODE  memory
//  55 bytes of CONST memory
//  52 bytes of XDATA memory
//
//Errors: none
//Warnings: none
