///////////////////////////////////////////////////////////////////////////////
//                                                                            /
// IAR C/C++ Compiler V8.10.3.10338/W32 for 8051        11/Apr/2018  16:00:19 /
// Copyright 2004-2011 IAR Systems AB.                                        /
//                                                                            /
//    Core               =  plain                                             /
//    Code model         =  banked                                            /
//    Data model         =  large                                             /
//    Calling convention =  xdata reentrant                                   /
//    Constant location  =  data_rom                                          /
//    Dptr setup         =  1,16                                              /
//    Source file        =  D:\ProgramData\Hardware\zigbee\Projects\zstack\Sa /
//                          mples\SensorSys\Source\Key_Coor.c                 /
//    Command line       =  -f D:\ProgramData\Hardware\zigbee\Projects\zstack /
//                          \Samples\SensorSys\CC2530DB\..\..\..\Tools\CC2530 /
//                          DB\f8wCoord.cfg (-DCPU32MHZ -DROOT=__near_func    /
//                          -DMAC_CFG_APP_PENDING_QUEUE=TRUE                  /
//                          -DMAC_CFG_TX_DATA_MAX=5 -DMAC_CFG_TX_MAX=8        /
//                          -DMAC_CFG_RX_MAX=5 -DZDO_COORDINATOR -DRTR_NWK)   /
//                          -f D:\ProgramData\Hardware\zigbee\Projects\zstack /
//                          \Samples\SensorSys\CC2530DB\..\..\..\Tools\CC2530 /
//                          DB\f8wConfig.cfg (-DZIGBEEPRO -DSECURE=0          /
//                          -DZG_SECURE_DYNAMIC=0 -DREFLECTOR                 /
//                          -DDEFAULT_CHANLIST=0x00000800                     /
//                          -DZDAPP_CONFIG_PAN_ID=0xFFF1                      /
//                          -DNWK_START_DELAY=100 -DEXTENDED_JOINING_RANDOM_M /
//                          ASK=0x007F -DBEACON_REQUEST_DELAY=100             /
//                          -DBEACON_REQ_DELAY_MASK=0x00FF                    /
//                          -DLINK_STATUS_JITTER_MASK=0x007F                  /
//                          -DROUTE_EXPIRY_TIME=30 -DAPSC_ACK_WAIT_DURATION_P /
//                          OLLED=3000 -DNWK_INDIRECT_MSG_TIMEOUT=7           /
//                          -DMAX_RREQ_ENTRIES=8 -DAPSC_MAX_FRAME_RETRIES=3   /
//                          -DNWK_MAX_DATA_RETRIES=2                          /
//                          -DMAX_POLL_FAILURE_RETRIES=2 -DMAX_BCAST=9        /
//                          -DAPS_MAX_GROUPS=16 -DMAX_RTG_ENTRIES=40          /
//                          -DNWK_MAX_BINDING_ENTRIES=4                       /
//                          -DMAX_BINDING_CLUSTER_IDS=4                       /
//                          "-DDEFAULT_KEY={0x01, 0x03, 0x05, 0x07, 0x09,     /
//                          0x0B, 0x0D, 0x0F, 0x00, 0x02, 0x04, 0x06, 0x08,   /
//                          0x0A, 0x0C, 0x0D}" -DMAC_MAX_FRAME_SIZE=116       /
//                          -DZDNWKMGR_MIN_TRANSMISSIONS=20 "-DCONST=const    /
//                          __code" -DGENERIC=__generic                       /
//                          -DRFD_RCVC_ALWAYS_ON=TRUE -DPOLL_RATE=1000        /
//                          -DQUEUED_POLL_RATE=100 -DRESPONSE_POLL_RATE=100)  /
//                          -DREJOIN_POLL_RATE=440 D:\ProgramData\Hardware\zi /
//                          gbee\Projects\zstack\Samples\SensorSys\Source\Key /
//                          _Coor.c -D HOLD_AUTO_START -D BUILD_ALL_DEVICES   /
//                          -D REFLECTOR -D NV_INIT -D COOR -D xNV_RESTORE    /
//                          -D ZTOOL_P1 -D xMT_TASK -D xMT_SYS_FUNC -D        /
//                          xMT_SAPI_FUNC -D xMT_SAPI_CB_FUNC -lC             /
//                          D:\ProgramData\Hardware\zigbee\Projects\zstack\Sa /
//                          mples\SensorSys\CC2530DB\CoordinatorEB\List\ -lA  /
//                          D:\ProgramData\Hardware\zigbee\Projects\zstack\Sa /
//                          mples\SensorSys\CC2530DB\CoordinatorEB\List\      /
//                          --diag_suppress Pe001,Pa010 -o                    /
//                          D:\ProgramData\Hardware\zigbee\Projects\zstack\Sa /
//                          mples\SensorSys\CC2530DB\CoordinatorEB\Obj\ -e    /
//                          --no_code_motion --debug --core=plain             /
//                          --dptr=16,1 --data_model=large                    /
//                          --code_model=banked --calling_convention=xdata_re /
//                          entrant --place_constants=data_rom                /
//                          --nr_virtual_regs 16 -I                           /
//                          D:\ProgramData\Hardware\zigbee\Projects\zstack\Sa /
//                          mples\SensorSys\CC2530DB\ -I                      /
//                          D:\ProgramData\Hardware\zigbee\Projects\zstack\Sa /
//                          mples\SensorSys\CC2530DB\..\Source\ -I            /
//                          D:\ProgramData\Hardware\zigbee\Projects\zstack\Sa /
//                          mples\SensorSys\CC2530DB\..\..\..\ZMain\TI2530DB\ /
//                           -I D:\ProgramData\Hardware\zigbee\Projects\zstac /
//                          k\Samples\SensorSys\CC2530DB\..\..\..\..\..\Compo /
//                          nents\hal\include\ -I D:\ProgramData\Hardware\zig /
//                          bee\Projects\zstack\Samples\SensorSys\CC2530DB\.. /
//                          \..\..\..\..\Components\hal\target\CC2530EB\ -I   /
//                          D:\ProgramData\Hardware\zigbee\Projects\zstack\Sa /
//                          mples\SensorSys\CC2530DB\..\..\..\..\..\Component /
//                          s\mac\include\ -I D:\ProgramData\Hardware\zigbee\ /
//                          Projects\zstack\Samples\SensorSys\CC2530DB\..\..\ /
//                          ..\..\..\Components\mac\high_level\ -I            /
//                          D:\ProgramData\Hardware\zigbee\Projects\zstack\Sa /
//                          mples\SensorSys\CC2530DB\..\..\..\..\..\Component /
//                          s\mac\low_level\srf04\ -I                         /
//                          D:\ProgramData\Hardware\zigbee\Projects\zstack\Sa /
//                          mples\SensorSys\CC2530DB\..\..\..\..\..\Component /
//                          s\mac\low_level\srf04\single_chip\ -I             /
//                          D:\ProgramData\Hardware\zigbee\Projects\zstack\Sa /
//                          mples\SensorSys\CC2530DB\..\..\..\..\..\Component /
//                          s\mt\ -I D:\ProgramData\Hardware\zigbee\Projects\ /
//                          zstack\Samples\SensorSys\CC2530DB\..\..\..\..\..\ /
//                          Components\osal\include\ -I                       /
//                          D:\ProgramData\Hardware\zigbee\Projects\zstack\Sa /
//                          mples\SensorSys\CC2530DB\..\..\..\..\..\Component /
//                          s\services\saddr\ -I D:\ProgramData\Hardware\zigb /
//                          ee\Projects\zstack\Samples\SensorSys\CC2530DB\..\ /
//                          ..\..\..\..\Components\services\sdata\ -I         /
//                          D:\ProgramData\Hardware\zigbee\Projects\zstack\Sa /
//                          mples\SensorSys\CC2530DB\..\..\..\..\..\Component /
//                          s\stack\af\ -I D:\ProgramData\Hardware\zigbee\Pro /
//                          jects\zstack\Samples\SensorSys\CC2530DB\..\..\..\ /
//                          ..\..\Components\stack\nwk\ -I                    /
//                          D:\ProgramData\Hardware\zigbee\Projects\zstack\Sa /
//                          mples\SensorSys\CC2530DB\..\..\..\..\..\Component /
//                          s\stack\sapi\ -I D:\ProgramData\Hardware\zigbee\P /
//                          rojects\zstack\Samples\SensorSys\CC2530DB\..\..\. /
//                          .\..\..\Components\stack\sec\ -I                  /
//                          D:\ProgramData\Hardware\zigbee\Projects\zstack\Sa /
//                          mples\SensorSys\CC2530DB\..\..\..\..\..\Component /
//                          s\stack\sys\ -I D:\ProgramData\Hardware\zigbee\Pr /
//                          ojects\zstack\Samples\SensorSys\CC2530DB\..\..\.. /
//                          \..\..\Components\stack\zdo\ -I                   /
//                          D:\ProgramData\Hardware\zigbee\Projects\zstack\Sa /
//                          mples\SensorSys\CC2530DB\..\..\..\..\..\Component /
//                          s\zmac\ -I D:\ProgramData\Hardware\zigbee\Project /
//                          s\zstack\Samples\SensorSys\CC2530DB\..\..\..\..\. /
//                          .\Components\zmac\f8w\ -Ohz --require_prototypes  /
//    List file          =  D:\ProgramData\Hardware\zigbee\Projects\zstack\Sa /
//                          mples\SensorSys\CC2530DB\CoordinatorEB\List\Key_C /
//                          oor.s51                                           /
//                                                                            /
//                                                                            /
///////////////////////////////////////////////////////////////////////////////

        NAME Key_Coor

        RTMODEL "__SystemLibrary", "CLib"
        RTMODEL "__calling_convention", "xdata_reentrant"
        RTMODEL "__code_model", "banked"
        RTMODEL "__core", "plain"
        RTMODEL "__data_model", "large"
        RTMODEL "__dptr_size", "16"
        RTMODEL "__extended_stack", "disabled"
        RTMODEL "__location_for_constants", "data"
        RTMODEL "__number_of_dptrs", "1"
        RTMODEL "__rt_version", "1"

        RSEG DOVERLAY:DATA:NOROOT(0)
        RSEG IOVERLAY:IDATA:NOROOT(0)
        RSEG ISTACK:IDATA:NOROOT(0)
        RSEG PSTACK:XDATA:NOROOT(0)
        RSEG XSTACK:XDATA:NOROOT(0)

        EXTERN ?ALLOC_XSTACK8
        EXTERN ?BANKED_ENTER_XDATA
        EXTERN ?BANKED_LEAVE_XDATA
        EXTERN ?BDISPATCH
        EXTERN ?BRET
        EXTERN ?DEALLOC_XSTACK8
        EXTERN ?MOVE_LONG8_XDATA_XDATA
        EXTERN ?PUSH_XSTACK8_X_TWO
        EXTERN ?PUSH_XSTACK_I_ONE
        EXTERN ?PUSH_XSTACK_I_TWO
        EXTERN ?V0
        EXTERN ?XSP
        EXTERN ?XSTACK_DISP0_8
        EXTERN __INIT_XDATA_I
        EXTERN __INIT_XDATA_Z

        PUBLIC ??Key_BindDevice?relay
        FUNCTION ??Key_BindDevice?relay,0203H
        PUBLIC ??Key_HandleKeys?relay
        FUNCTION ??Key_HandleKeys?relay,0203H
        PUBLIC ??Key_Init?relay
        FUNCTION ??Key_Init?relay,0203H
        PUBLIC ??Key_ProcessEvent?relay
        FUNCTION ??Key_ProcessEvent?relay,0203H
        PUBLIC ??Key_ProcessZDOMsgs?relay
        FUNCTION ??Key_ProcessZDOMsgs?relay,0203H
        PUBLIC Key_BindDevice
        FUNCTION Key_BindDevice,021203H
        ARGFRAME XSTACK, 24, STACK
        ARGFRAME IOVERLAY, 0, STATIC
        ARGFRAME DOVERLAY, 0, STATIC
        LOCFRAME XSTACK, 31, STACK
        PUBLIC Key_ClusterList
        PUBLIC Key_DstAddr
        PUBLIC Key_HandleKeys
        FUNCTION Key_HandleKeys,0203H
        ARGFRAME XSTACK, 22, STACK
        ARGFRAME IOVERLAY, 0, STATIC
        ARGFRAME DOVERLAY, 0, STATIC
        LOCFRAME ISTACK, 2, STACK
        PUBLIC Key_Init
        FUNCTION Key_Init,021203H
        ARGFRAME XSTACK, 0, STACK
        LOCFRAME ISTACK, 1, STACK
        LOCFRAME XSTACK, 9, STACK
        PUBLIC Key_ProcessEvent
        FUNCTION Key_ProcessEvent,021203H
        ARGFRAME XSTACK, 0, STACK
        LOCFRAME ISTACK, 1, STACK
        LOCFRAME XSTACK, 24, STACK
        PUBLIC Key_ProcessZDOMsgs
        FUNCTION Key_ProcessZDOMsgs,021203H
        ARGFRAME XSTACK, 22, STACK
        ARGFRAME IOVERLAY, 0, STATIC
        ARGFRAME DOVERLAY, 0, STATIC
        LOCFRAME XSTACK, 21, STACK
        PUBLIC Key_SimpleDesc
        PUBLIC Key_TaskID
        PUBLIC Key_epDesc
        PUBLIC keyCnt
        PUBLIC key_bindInProgress
        
        CFI Names cfiNames0
        CFI StackFrame CFA_SP SP IDATA
        CFI StackFrame CFA_PSP16 PSP16 XDATA
        CFI StackFrame CFA_XSP16 XSP16 XDATA
        CFI StaticOverlayFrame CFA_IOVERLAY IOVERLAY
        CFI StaticOverlayFrame CFA_DOVERLAY DOVERLAY
        CFI Resource `PSW.CY`:1, `B.BR0`:1, `B.BR1`:1, `B.BR2`:1, `B.BR3`:1
        CFI Resource `B.BR4`:1, `B.BR5`:1, `B.BR6`:1, `B.BR7`:1, `VB.BR8`:1
        CFI Resource `VB.BR9`:1, `VB.BR10`:1, `VB.BR11`:1, `VB.BR12`:1
        CFI Resource `VB.BR13`:1, `VB.BR14`:1, `VB.BR15`:1, VB:8, B:8, A:8
        CFI Resource PSW:8, DPL0:8, DPH0:8, R0:8, R1:8, R2:8, R3:8, R4:8, R5:8
        CFI Resource R6:8, R7:8, V0:8, V1:8, V2:8, V3:8, V4:8, V5:8, V6:8, V7:8
        CFI Resource V8:8, V9:8, V10:8, V11:8, V12:8, V13:8, V14:8, V15:8, SP:8
        CFI Resource PSPH:8, PSPL:8, PSP16:16, XSPH:8, XSPL:8, XSP16:16
        CFI VirtualResource ?RET:24
        CFI Resource ?BRET_EXT:8
        CFI VirtualResource ?RET_HIGH:8, ?RET_LOW:8
        CFI ResourceParts PSP16 PSPH, PSPL
        CFI ResourceParts XSP16 XSPH, XSPL
        CFI ResourceParts ?RET ?BRET_EXT, ?RET_HIGH, ?RET_LOW
        CFI EndNames cfiNames0
        
        CFI Common cfiCommon0 Using cfiNames0
        CFI CodeAlign 1
        CFI DataAlign -1
        CFI ReturnAddress ?RET CODE
        CFI CFA_DOVERLAY Used
        CFI CFA_IOVERLAY Used
        CFI CFA_SP SP+-3
        CFI CFA_PSP16 PSP16+0
        CFI CFA_XSP16 XSP16+0
        CFI `PSW.CY` SameValue
        CFI `B.BR0` SameValue
        CFI `B.BR1` SameValue
        CFI `B.BR2` SameValue
        CFI `B.BR3` SameValue
        CFI `B.BR4` SameValue
        CFI `B.BR5` SameValue
        CFI `B.BR6` SameValue
        CFI `B.BR7` SameValue
        CFI `VB.BR8` SameValue
        CFI `VB.BR9` SameValue
        CFI `VB.BR10` SameValue
        CFI `VB.BR11` SameValue
        CFI `VB.BR12` SameValue
        CFI `VB.BR13` SameValue
        CFI `VB.BR14` SameValue
        CFI `VB.BR15` SameValue
        CFI VB SameValue
        CFI B Undefined
        CFI A Undefined
        CFI PSW SameValue
        CFI DPL0 SameValue
        CFI DPH0 SameValue
        CFI R0 Undefined
        CFI R1 Undefined
        CFI R2 Undefined
        CFI R3 Undefined
        CFI R4 Undefined
        CFI R5 Undefined
        CFI R6 SameValue
        CFI R7 SameValue
        CFI V0 SameValue
        CFI V1 SameValue
        CFI V2 SameValue
        CFI V3 SameValue
        CFI V4 SameValue
        CFI V5 SameValue
        CFI V6 SameValue
        CFI V7 SameValue
        CFI V8 SameValue
        CFI V9 SameValue
        CFI V10 SameValue
        CFI V11 SameValue
        CFI V12 SameValue
        CFI V13 SameValue
        CFI V14 SameValue
        CFI V15 SameValue
        CFI PSPH Undefined
        CFI PSPL Undefined
        CFI XSPH Undefined
        CFI XSPL Undefined
        CFI ?RET Concat
        CFI ?BRET_EXT Frame(CFA_SP, 3)
        CFI ?RET_HIGH Frame(CFA_SP, 2)
        CFI ?RET_LOW Frame(CFA_SP, 1)
        CFI EndCommon cfiCommon0
        
        
        CFI Common cfiCommon1 Using cfiNames0
        CFI CodeAlign 1
        CFI DataAlign -1
        CFI ReturnAddress ?RET CODE
        CFI CFA_DOVERLAY Used
        CFI CFA_IOVERLAY Used
        CFI CFA_SP SP+-2
        CFI CFA_PSP16 PSP16+0
        CFI CFA_XSP16 XSP16+0
        CFI `PSW.CY` SameValue
        CFI `B.BR0` SameValue
        CFI `B.BR1` SameValue
        CFI `B.BR2` SameValue
        CFI `B.BR3` SameValue
        CFI `B.BR4` SameValue
        CFI `B.BR5` SameValue
        CFI `B.BR6` SameValue
        CFI `B.BR7` SameValue
        CFI `VB.BR8` SameValue
        CFI `VB.BR9` SameValue
        CFI `VB.BR10` SameValue
        CFI `VB.BR11` SameValue
        CFI `VB.BR12` SameValue
        CFI `VB.BR13` SameValue
        CFI `VB.BR14` SameValue
        CFI `VB.BR15` SameValue
        CFI VB SameValue
        CFI B SameValue
        CFI A SameValue
        CFI PSW SameValue
        CFI DPL0 SameValue
        CFI DPH0 SameValue
        CFI R0 SameValue
        CFI R1 SameValue
        CFI R2 SameValue
        CFI R3 SameValue
        CFI R4 SameValue
        CFI R5 SameValue
        CFI R6 SameValue
        CFI R7 SameValue
        CFI V0 SameValue
        CFI V1 SameValue
        CFI V2 SameValue
        CFI V3 SameValue
        CFI V4 SameValue
        CFI V5 SameValue
        CFI V6 SameValue
        CFI V7 SameValue
        CFI V8 SameValue
        CFI V9 SameValue
        CFI V10 SameValue
        CFI V11 SameValue
        CFI V12 SameValue
        CFI V13 SameValue
        CFI V14 SameValue
        CFI V15 SameValue
        CFI PSPH Undefined
        CFI PSPL Undefined
        CFI XSPH Undefined
        CFI XSPL Undefined
        CFI ?RET Concat
        CFI ?BRET_EXT SameValue
        CFI ?RET_HIGH Frame(CFA_SP, 2)
        CFI ?RET_LOW Frame(CFA_SP, 1)
        CFI EndCommon cfiCommon1
        
afRegister          SYMBOL "afRegister"
RegisterForKeys     SYMBOL "RegisterForKeys"
ZDO_RegisterForZDOMsg SYMBOL "ZDO_RegisterForZDOMsg"
osal_msg_receive    SYMBOL "osal_msg_receive"
osal_strlen         SYMBOL "osal_strlen"
HalUARTWrite        SYMBOL "HalUARTWrite"
osal_msg_deallocate SYMBOL "osal_msg_deallocate"
osal_mem_alloc      SYMBOL "osal_mem_alloc"
Sys_BindConfirm     SYMBOL "Sys_BindConfirm"
ZDO_ParseEPListRsp  SYMBOL "ZDO_ParseEPListRsp"
APSME_BindRequest   SYMBOL "APSME_BindRequest"
osal_stop_timerEx   SYMBOL "osal_stop_timerEx"
osal_start_timerEx  SYMBOL "osal_start_timerEx"
ZDP_IEEEAddrReq     SYMBOL "ZDP_IEEEAddrReq"
sAddrExtCpy         SYMBOL "sAddrExtCpy"
ZDP_NwkAddrReq      SYMBOL "ZDP_NwkAddrReq"
ZDO_AnyClusterMatches SYMBOL "ZDO_AnyClusterMatches"
ZDP_MatchDescReq    SYMBOL "ZDP_MatchDescReq"
bindRemoveEntry     SYMBOL "bindRemoveEntry"
bindFind            SYMBOL "bindFind"
??APSME_BindRequest?relay SYMBOL "?relay", APSME_BindRequest
??HalUARTWrite?relay SYMBOL "?relay", HalUARTWrite
??RegisterForKeys?relay SYMBOL "?relay", RegisterForKeys
??Sys_BindConfirm?relay SYMBOL "?relay", Sys_BindConfirm
??ZDO_AnyClusterMatches?relay SYMBOL "?relay", ZDO_AnyClusterMatches
??ZDO_ParseEPListRsp?relay SYMBOL "?relay", ZDO_ParseEPListRsp
??ZDO_RegisterForZDOMsg?relay SYMBOL "?relay", ZDO_RegisterForZDOMsg
??ZDP_IEEEAddrReq?relay SYMBOL "?relay", ZDP_IEEEAddrReq
??ZDP_MatchDescReq?relay SYMBOL "?relay", ZDP_MatchDescReq
??ZDP_NwkAddrReq?relay SYMBOL "?relay", ZDP_NwkAddrReq
??afRegister?relay  SYMBOL "?relay", afRegister
??bindFind?relay    SYMBOL "?relay", bindFind
??bindRemoveEntry?relay SYMBOL "?relay", bindRemoveEntry
??osal_mem_alloc?relay SYMBOL "?relay", osal_mem_alloc
??osal_msg_deallocate?relay SYMBOL "?relay", osal_msg_deallocate
??osal_msg_receive?relay SYMBOL "?relay", osal_msg_receive
??osal_start_timerEx?relay SYMBOL "?relay", osal_start_timerEx
??osal_stop_timerEx?relay SYMBOL "?relay", osal_stop_timerEx
??osal_strlen?relay SYMBOL "?relay", osal_strlen
??sAddrExtCpy?relay SYMBOL "?relay", sAddrExtCpy
Key_BindDevice      SYMBOL "Key_BindDevice"
??Key_BindDevice?relay SYMBOL "?relay", Key_BindDevice
Key_HandleKeys      SYMBOL "Key_HandleKeys"
??Key_HandleKeys?relay SYMBOL "?relay", Key_HandleKeys
Key_Init            SYMBOL "Key_Init"
??Key_Init?relay    SYMBOL "?relay", Key_Init
Key_ProcessEvent    SYMBOL "Key_ProcessEvent"
??Key_ProcessEvent?relay SYMBOL "?relay", Key_ProcessEvent
Key_ProcessZDOMsgs  SYMBOL "Key_ProcessZDOMsgs"
??Key_ProcessZDOMsgs?relay SYMBOL "?relay", Key_ProcessZDOMsgs

        EXTERN afRegister
        FUNCTION afRegister,0202H
        ARGFRAME ISTACK, 0, STACK
        ARGFRAME PSTACK, 0, STACK
        ARGFRAME XSTACK, 9, STACK
        ARGFRAME IOVERLAY, 0, STATIC
        ARGFRAME DOVERLAY, 0, STATIC
        EXTERN RegisterForKeys
        FUNCTION RegisterForKeys,0202H
        ARGFRAME ISTACK, 0, STACK
        ARGFRAME PSTACK, 0, STACK
        ARGFRAME XSTACK, 9, STACK
        ARGFRAME IOVERLAY, 0, STATIC
        ARGFRAME DOVERLAY, 0, STATIC
        EXTERN ZDO_RegisterForZDOMsg
        FUNCTION ZDO_RegisterForZDOMsg,0202H
        ARGFRAME ISTACK, 0, STACK
        ARGFRAME PSTACK, 0, STACK
        ARGFRAME XSTACK, 9, STACK
        ARGFRAME IOVERLAY, 0, STATIC
        ARGFRAME DOVERLAY, 0, STATIC
        EXTERN osal_msg_receive
        FUNCTION osal_msg_receive,0202H
        ARGFRAME ISTACK, 0, STACK
        ARGFRAME PSTACK, 0, STACK
        ARGFRAME XSTACK, 22, STACK
        ARGFRAME IOVERLAY, 0, STATIC
        ARGFRAME DOVERLAY, 0, STATIC
        EXTERN osal_strlen
        FUNCTION osal_strlen,0202H
        ARGFRAME ISTACK, 0, STACK
        ARGFRAME PSTACK, 0, STACK
        ARGFRAME XSTACK, 22, STACK
        ARGFRAME IOVERLAY, 0, STATIC
        ARGFRAME DOVERLAY, 0, STATIC
        EXTERN HalUARTWrite
        FUNCTION HalUARTWrite,0202H
        ARGFRAME ISTACK, 0, STACK
        ARGFRAME PSTACK, 0, STACK
        ARGFRAME XSTACK, 22, STACK
        ARGFRAME IOVERLAY, 0, STATIC
        ARGFRAME DOVERLAY, 0, STATIC
        EXTERN osal_msg_deallocate
        FUNCTION osal_msg_deallocate,0202H
        ARGFRAME ISTACK, 0, STACK
        ARGFRAME PSTACK, 0, STACK
        ARGFRAME XSTACK, 22, STACK
        ARGFRAME IOVERLAY, 0, STATIC
        ARGFRAME DOVERLAY, 0, STATIC
        EXTERN osal_mem_alloc
        FUNCTION osal_mem_alloc,0202H
        ARGFRAME ISTACK, 0, STACK
        ARGFRAME PSTACK, 0, STACK
        ARGFRAME XSTACK, 22, STACK
        ARGFRAME IOVERLAY, 0, STATIC
        ARGFRAME DOVERLAY, 0, STATIC
        EXTERN Sys_BindConfirm
        FUNCTION Sys_BindConfirm,0202H
        ARGFRAME ISTACK, 0, STACK
        ARGFRAME PSTACK, 0, STACK
        ARGFRAME XSTACK, 22, STACK
        ARGFRAME IOVERLAY, 0, STATIC
        ARGFRAME DOVERLAY, 0, STATIC
        EXTERN ZDO_ParseEPListRsp
        FUNCTION ZDO_ParseEPListRsp,0202H
        ARGFRAME ISTACK, 0, STACK
        ARGFRAME PSTACK, 0, STACK
        ARGFRAME XSTACK, 20, STACK
        ARGFRAME IOVERLAY, 0, STATIC
        ARGFRAME DOVERLAY, 0, STATIC
        EXTERN APSME_BindRequest
        FUNCTION APSME_BindRequest,0202H
        ARGFRAME ISTACK, 0, STACK
        ARGFRAME PSTACK, 0, STACK
        ARGFRAME XSTACK, 24, STACK
        ARGFRAME IOVERLAY, 0, STATIC
        ARGFRAME DOVERLAY, 0, STATIC
        EXTERN osal_stop_timerEx
        FUNCTION osal_stop_timerEx,0202H
        ARGFRAME ISTACK, 0, STACK
        ARGFRAME PSTACK, 0, STACK
        ARGFRAME XSTACK, 20, STACK
        ARGFRAME IOVERLAY, 0, STATIC
        ARGFRAME DOVERLAY, 0, STATIC
        EXTERN osal_start_timerEx
        FUNCTION osal_start_timerEx,0202H
        ARGFRAME ISTACK, 0, STACK
        ARGFRAME PSTACK, 0, STACK
        ARGFRAME XSTACK, 23, STACK
        ARGFRAME IOVERLAY, 0, STATIC
        ARGFRAME DOVERLAY, 0, STATIC
        EXTERN ZDP_IEEEAddrReq
        FUNCTION ZDP_IEEEAddrReq,0202H
        ARGFRAME ISTACK, 0, STACK
        ARGFRAME PSTACK, 0, STACK
        ARGFRAME XSTACK, 20, STACK
        ARGFRAME IOVERLAY, 0, STATIC
        ARGFRAME DOVERLAY, 0, STATIC
        EXTERN sAddrExtCpy
        FUNCTION sAddrExtCpy,0202H
        ARGFRAME ISTACK, 0, STACK
        ARGFRAME PSTACK, 0, STACK
        ARGFRAME XSTACK, 23, STACK
        ARGFRAME IOVERLAY, 0, STATIC
        ARGFRAME DOVERLAY, 0, STATIC
        EXTERN ZDP_NwkAddrReq
        FUNCTION ZDP_NwkAddrReq,0202H
        ARGFRAME ISTACK, 0, STACK
        ARGFRAME PSTACK, 0, STACK
        ARGFRAME XSTACK, 23, STACK
        ARGFRAME IOVERLAY, 0, STATIC
        ARGFRAME DOVERLAY, 0, STATIC
        EXTERN ZDO_AnyClusterMatches
        FUNCTION ZDO_AnyClusterMatches,0202H
        ARGFRAME ISTACK, 0, STACK
        ARGFRAME PSTACK, 0, STACK
        ARGFRAME XSTACK, 25, STACK
        ARGFRAME IOVERLAY, 0, STATIC
        ARGFRAME DOVERLAY, 0, STATIC
        EXTERN ZDP_MatchDescReq
        FUNCTION ZDP_MatchDescReq,0202H
        ARGFRAME ISTACK, 0, STACK
        ARGFRAME PSTACK, 0, STACK
        ARGFRAME XSTACK, 31, STACK
        ARGFRAME IOVERLAY, 0, STATIC
        ARGFRAME DOVERLAY, 0, STATIC
        EXTERN bindRemoveEntry
        FUNCTION bindRemoveEntry,0202H
        ARGFRAME ISTACK, 0, STACK
        ARGFRAME PSTACK, 0, STACK
        ARGFRAME XSTACK, 23, STACK
        ARGFRAME IOVERLAY, 0, STATIC
        ARGFRAME DOVERLAY, 0, STATIC
        EXTERN bindFind
        FUNCTION bindFind,0202H
        ARGFRAME ISTACK, 0, STACK
        ARGFRAME PSTACK, 0, STACK
        ARGFRAME XSTACK, 23, STACK
        ARGFRAME IOVERLAY, 0, STATIC
        ARGFRAME DOVERLAY, 0, STATIC
        EXTERN ??APSME_BindRequest?relay
        FUNCTION ??APSME_BindRequest?relay,00H
        EXTERN ??HalUARTWrite?relay
        FUNCTION ??HalUARTWrite?relay,00H
        EXTERN ??RegisterForKeys?relay
        FUNCTION ??RegisterForKeys?relay,00H
        EXTERN ??Sys_BindConfirm?relay
        FUNCTION ??Sys_BindConfirm?relay,00H
        EXTERN ??ZDO_AnyClusterMatches?relay
        FUNCTION ??ZDO_AnyClusterMatches?relay,00H
        EXTERN ??ZDO_ParseEPListRsp?relay
        FUNCTION ??ZDO_ParseEPListRsp?relay,00H
        EXTERN ??ZDO_RegisterForZDOMsg?relay
        FUNCTION ??ZDO_RegisterForZDOMsg?relay,00H
        EXTERN ??ZDP_IEEEAddrReq?relay
        FUNCTION ??ZDP_IEEEAddrReq?relay,00H
        EXTERN ??ZDP_MatchDescReq?relay
        FUNCTION ??ZDP_MatchDescReq?relay,00H
        EXTERN ??ZDP_NwkAddrReq?relay
        FUNCTION ??ZDP_NwkAddrReq?relay,00H
        EXTERN ??afRegister?relay
        FUNCTION ??afRegister?relay,00H
        EXTERN ??bindFind?relay
        FUNCTION ??bindFind?relay,00H
        EXTERN ??bindRemoveEntry?relay
        FUNCTION ??bindRemoveEntry?relay,00H
        EXTERN ??osal_mem_alloc?relay
        FUNCTION ??osal_mem_alloc?relay,00H
        EXTERN ??osal_msg_deallocate?relay
        FUNCTION ??osal_msg_deallocate?relay,00H
        EXTERN ??osal_msg_receive?relay
        FUNCTION ??osal_msg_receive?relay,00H
        EXTERN ??osal_start_timerEx?relay
        FUNCTION ??osal_start_timerEx?relay,00H
        EXTERN ??osal_stop_timerEx?relay
        FUNCTION ??osal_stop_timerEx?relay,00H
        EXTERN ??osal_strlen?relay
        FUNCTION ??osal_strlen?relay,00H
        EXTERN ??sAddrExtCpy?relay
        FUNCTION ??sAddrExtCpy?relay,00H
        EXTERN AIB_MaxBindingTime
        EXTERN ZDAppTaskID
        EXTERN myAppState

// D:\ProgramData\Hardware\zigbee\Projects\zstack\Samples\SensorSys\Source\Key_Coor.c
//    1 /*********************************************************************
//    2  * INCLUDES
//    3  */
//    4 #include "OSAL.h"
//    5 #include "AF.h"
//    6 #include "ZDApp.h"
//    7 #include "ZDObject.h"
//    8 #include "ZDProfile.h"
//    9 #include "sapi.h"
//   10 
//   11 #include "SensorSys_Coor.h"
//   12 #include "device.h"
//   13 #include "DebugTrace.h"
//   14 
//   15 #if !defined( WIN32 )
//   16   #include "OnBoard.h"
//   17 #endif
//   18 
//   19 /* HAL */
//   20 #include "hal_led.h"
//   21 #include "hal_key.h"
//   22 #include "hal_uart.h"
//   23 
//   24 /*********************************************************************
//   25  * MACROS
//   26  */
//   27 
//   28 /*********************************************************************
//   29  * CONSTANTS
//   30  */
//   31 
//   32 /*********************************************************************
//   33  * TYPEDEFS
//   34  */
//   35 
//   36 /*********************************************************************
//   37  * GLOBAL VARIABLES
//   38  */

        RSEG XDATA_Z:XDATA:NOROOT(0)
        DATA8
//   39 byte Key_TaskID;
Key_TaskID:
        DS 1
        REQUIRE __INIT_XDATA_Z

        RSEG XDATA_Z:XDATA:NOROOT(0)
        DATA8
//   40 uint8 keyCnt;
keyCnt:
        DS 1
        REQUIRE __INIT_XDATA_Z
//   41 
//   42 // Key 端点的簇ID
//   43 // This list should be filled with Application specific Cluster IDs.

        RSEG XDATA_I:XDATA:NOROOT(0)
//   44 cId_t Key_ClusterList[KEY_MAX_CLUSTERS] =
Key_ClusterList:
        DATA8
        DS 8
        REQUIRE `?<Initializer for Key_ClusterList>`
        REQUIRE __INIT_XDATA_I
//   45 {
//   46   PORT_INIT_CLUSTER,
//   47     OPERATE_CLUSTER,
//   48     DELETE_CLUSTER
//   49 };
//   50 
//   51 // Key 端点简单描述符

        RSEG XDATA_I:XDATA:NOROOT(0)
//   52 SimpleDescriptionFormat_t Key_SimpleDesc[KEY_NUM_MAX] =
Key_SimpleDesc:
        DATA8
        DS 600
        REQUIRE `?<Initializer for Key_SimpleDesc>`
        REQUIRE __INIT_XDATA_I
//   53 {
//   54 	KEY_ENDPOINT,           //  int Endpoint;
//   55 	SYS_PROFID,                //  uint16 AppProfId[2];
//   56 	SYS_DEVICEID,              //  uint16 AppDeviceId[2];
//   57 	SYS_DEVICE_VERSION,        //  int   AppDevVer:4;
//   58 	SYS_FLAGS,                 //  int   AppFlags:4;
//   59 	KEY_MAX_CLUSTERS,          //  byte  AppNumInClusters;
//   60 	(cId_t *)Key_ClusterList,  //  byte *pAppInClusterList;
//   61 	KEY_MAX_CLUSTERS,          //  byte  AppNumInClusters;
//   62 	(cId_t *)Key_ClusterList   //  byte *pAppInClusterList;
//   63 };
//   64 

        RSEG XDATA_Z:XDATA:NOROOT(0)
        DATA8
//   65 endPointDesc_t Key_epDesc[KEY_NUM_MAX];
Key_epDesc:
        DS 300
        REQUIRE __INIT_XDATA_Z
//   66 
//   67 /*********************************************************************
//   68  * EXTERNAL VARIABLES
//   69  */
//   70 extern uint8 myAppState;
//   71 /*********************************************************************
//   72  * EXTERNAL FUNCTIONS
//   73  */
//   74 
//   75 /*********************************************************************
//   76  * LOCAL VARIABLES
//   77  */
//   78 

        RSEG XDATA_Z:XDATA:NOROOT(0)
        DATA8
//   79 afAddrType_t Key_DstAddr;
Key_DstAddr:
        DS 12
        REQUIRE __INIT_XDATA_Z

        RSEG XDATA_Z:XDATA:NOROOT(0)
        DATA16
//   80 uint16 key_bindInProgress;
key_bindInProgress:
        DS 2
        REQUIRE __INIT_XDATA_Z
//   81 
//   82 
//   83 /*********************************************************************
//   84  * LOCAL FUNCTIONS
//   85  */
//   86 void Key_Init( byte task_id );
//   87 void Key_ProcessZDOMsgs( zdoIncomingMsg_t *inMsg );
//   88 void Key_HandleKeys( byte shift, byte keys );
//   89 
//   90 void Key_BindDevice ( uint8 create, uint8 endpoint, uint16 *commandId, uint8 *pDestination );
//   91 
//   92 static void Key_ReceiveDataIndication( uint16 source, uint8 endPoint, uint16 command, uint16 len, uint8 *pData  );
//   93 static void SAPI_BindConfirm( uint16 commandId, uint8 status );
//   94 /*********************************************************************
//   95  * @fn      Key_Init
//   96  *
//   97  * @brief   Initialization function for the Generic App Task.
//   98  *          This is called during initialization and should contain
//   99  *          any application specific initialization (ie. hardware
//  100  *          initialization/setup, table initialization, power up
//  101  *          notificaiton ... ).
//  102  *
//  103  * @param   task_id - the ID assigned by OSAL.  This ID should be
//  104  *                    used to send messages and set timers.
//  105  *
//  106  * @return  none
//  107  */

        RSEG BANKED_CODE:CODE:NOROOT(0)
//  108 void Key_Init( byte task_id )
Key_Init:
        CFI Block cfiBlock0 Using cfiCommon0
        CFI Function Key_Init
        CODE
//  109 {
        FUNCALL Key_Init, afRegister
        LOCFRAME ISTACK, 0, STACK
        LOCFRAME PSTACK, 0, STACK
        LOCFRAME XSTACK, 9, STACK
        LOCFRAME IOVERLAY, 0, STATIC
        LOCFRAME DOVERLAY, 0, STATIC
        ARGFRAME ISTACK, 0, STACK
        ARGFRAME PSTACK, 0, STACK
        ARGFRAME XSTACK, 9, STACK
        ARGFRAME IOVERLAY, 0, STATIC
        ARGFRAME DOVERLAY, 0, STATIC
        FUNCALL Key_Init, RegisterForKeys
        LOCFRAME ISTACK, 0, STACK
        LOCFRAME PSTACK, 0, STACK
        LOCFRAME XSTACK, 9, STACK
        LOCFRAME IOVERLAY, 0, STATIC
        LOCFRAME DOVERLAY, 0, STATIC
        ARGFRAME ISTACK, 0, STACK
        ARGFRAME PSTACK, 0, STACK
        ARGFRAME XSTACK, 9, STACK
        ARGFRAME IOVERLAY, 0, STATIC
        ARGFRAME DOVERLAY, 0, STATIC
        FUNCALL Key_Init, ZDO_RegisterForZDOMsg
        LOCFRAME ISTACK, 0, STACK
        LOCFRAME PSTACK, 0, STACK
        LOCFRAME XSTACK, 9, STACK
        LOCFRAME IOVERLAY, 0, STATIC
        LOCFRAME DOVERLAY, 0, STATIC
        ARGFRAME ISTACK, 0, STACK
        ARGFRAME PSTACK, 0, STACK
        ARGFRAME XSTACK, 9, STACK
        ARGFRAME IOVERLAY, 0, STATIC
        ARGFRAME DOVERLAY, 0, STATIC
        MOV     A,#-0x9
        LCALL   ?BANKED_ENTER_XDATA
        CFI DPH0 load(1, XDATA, add(CFA_XSP16, literal(-1)))
        CFI DPL0 load(1, XDATA, add(CFA_XSP16, literal(-2)))
        CFI ?BRET_EXT load(1, XDATA, add(CFA_XSP16, literal(-3)))
        CFI ?RET_HIGH load(1, XDATA, add(CFA_XSP16, literal(-4)))
        CFI ?RET_LOW load(1, XDATA, add(CFA_XSP16, literal(-5)))
        CFI R7 load(1, XDATA, add(CFA_XSP16, literal(-6)))
        CFI V0 load(1, XDATA, add(CFA_XSP16, literal(-7)))
        CFI VB load(1, XDATA, add(CFA_XSP16, literal(-8)))
        CFI R6 load(1, XDATA, add(CFA_XSP16, literal(-9)))
        CFI CFA_SP SP+0
        CFI CFA_XSP16 add(XSP16, 9)
        ; Saved register size: 9
        ; Auto size: 0
        MOV     A,R1
//  110   char i;
//  111   Key_TaskID = task_id;
        MOV     DPTR,#Key_TaskID
        MOVX    @DPTR,A
//  112   keyCnt = 0;
        MOV     DPTR,#keyCnt
        CLR     A
        MOVX    @DPTR,A
//  113   
//  114   // Device hardware initialization can be added here or in main() (Zmain.c).
//  115   // If the hardware is application specific - add it here.
//  116   // If the hardware is other parts of the device add it in main().
//  117 
//  118   Key_DstAddr.addrMode = (afAddrMode_t)AddrNotPresent;
        MOV     DPTR,#Key_DstAddr + 8
        MOVX    @DPTR,A
//  119   Key_DstAddr.endPoint = 0;
        INC     DPTR
        MOVX    @DPTR,A
//  120   Key_DstAddr.addr.shortAddr = 0;
        MOV     DPTR,#Key_DstAddr
        MOVX    @DPTR,A
        INC     DPTR
        MOVX    @DPTR,A
//  121 
//  122     for( i=0; i<KEY_NUM_MAX; i++)
        MOV     R7,A
//  123     {
//  124         // Fill out the endpoint description.
//  125         Key_epDesc[i].endPoint = KEY_ENDPOINT+i;
??Key_Init_0:
        MOV     DPL,R7
        MOV     R0,DPL
        MOV     A,R0
        MOV     B,#0x6
        MUL     AB
        MOV     R2,A
        MOV     R3,B
        MOV     A,#Key_epDesc & 0xff
        ADD     A,R2
        MOV     R2,A
        MOV     A,#(Key_epDesc >> 8) & 0xff
        ADDC    A,R3
        MOV     R3,A
        MOV     A,#0xa
        ADD     A,R7
        MOV     DPL,R2
        MOV     DPH,R3
        MOVX    @DPTR,A
//  126         Key_epDesc[i].task_id = &Key_TaskID;
        INC     DPTR
        MOV     A,#Key_TaskID & 0xff
        MOVX    @DPTR,A
        INC     DPTR
        MOV     A,#(Key_TaskID >> 8) & 0xff
        MOVX    @DPTR,A
//  127         Key_SimpleDesc[i] = Key_SimpleDesc[0];
        MOV     A,R0
        MOV     B,#0xc
        MUL     AB
        MOV     R0,A
        MOV     R1,B
        MOV     A,#Key_SimpleDesc & 0xff
        ADD     A,R0
        MOV     R0,A
        MOV     A,#(Key_SimpleDesc >> 8) & 0xff
        ADDC    A,R1
        MOV     R1,A
        MOV     DPTR,#Key_SimpleDesc
        MOV     A,R0
        MOV     R4,A
        MOV     A,R1
        MOV     R5,A
        MOV     A,#0xc
        LCALL   ?MOVE_LONG8_XDATA_XDATA
//  128         Key_epDesc[i].simpleDesc
//  129                                             = (SimpleDescriptionFormat_t *)&(Key_SimpleDesc[i]);
        MOV     DPL,R2
        MOV     DPH,R3
        INC     DPTR
        INC     DPTR
        INC     DPTR
        MOV     A,R0
        MOVX    @DPTR,A
        INC     DPTR
        MOV     A,R1
        MOVX    @DPTR,A
//  130         Key_SimpleDesc[i].EndPoint += i;
        MOV     DPL,R0
        MOV     DPH,R1
        MOVX    A,@DPTR
        ADD     A,R7
        MOVX    @DPTR,A
//  131         Key_epDesc[i].latencyReq = noLatencyReqs;
        MOV     DPL,R2
        MOV     DPH,R3
        INC     DPTR
        INC     DPTR
        INC     DPTR
        INC     DPTR
        INC     DPTR
        CLR     A
        MOVX    @DPTR,A
//  132         
//  133         // Register the endpoint description with the AF
//  134         afRegister( &(Key_epDesc[i]) );
        ; Setup parameters for call to function afRegister
        LCALL   ??afRegister?relay
//  135     }
        INC     R7
        MOV     A,R7
        CLR     C
        SUBB    A,#0x32
        JC      ??Key_Init_0
//  136 
//  137   key_bindInProgress = 0xffff;
        MOV     DPTR,#key_bindInProgress
        MOV     A,#-0x1
        MOVX    @DPTR,A
        INC     DPTR
        MOVX    @DPTR,A
//  138 
//  139   // Register for all key events - This app will handle all key events
//  140   RegisterForKeys( Key_TaskID );
        ; Setup parameters for call to function RegisterForKeys
        MOV     DPTR,#Key_TaskID
        MOVX    A,@DPTR
        MOV     R1,A
        LCALL   ??RegisterForKeys?relay
//  141 
//  142   // To Update the display...
//  143   ZDO_RegisterForZDOMsg( Key_TaskID, Match_Desc_rsp );
        ; Setup parameters for call to function ZDO_RegisterForZDOMsg
        MOV     R2,#0x6
        MOV     R3,#-0x80
        MOV     DPTR,#Key_TaskID
        MOVX    A,@DPTR
        MOV     R1,A
        LCALL   ??ZDO_RegisterForZDOMsg?relay
//  144 }
        MOV     R7,#0x1
        LJMP    ?BANKED_LEAVE_XDATA
        CFI EndBlock cfiBlock0
//  145 
//  146 /*********************************************************************
//  147  * @fn      Key_ProcessEvent
//  148  *
//  149  * @brief   Generic Application Task event processor.  This function
//  150  *          is called to process all events for the task.  Events
//  151  *          include timers, messages and any other user defined events.
//  152  *
//  153  * @param   task_id  - The OSAL assigned task ID.
//  154  * @param   events - events to process.  This is a bit map and can
//  155  *                   contain more than one event.
//  156  *
//  157  * @return  none
//  158  */

        RSEG BANKED_CODE:CODE:NOROOT(0)
//  159 UINT16 Key_ProcessEvent( byte task_id, UINT16 events )
Key_ProcessEvent:
        CFI Block cfiBlock1 Using cfiCommon0
        CFI Function Key_ProcessEvent
        CODE
//  160 {
        FUNCALL Key_ProcessEvent, osal_msg_receive
        LOCFRAME ISTACK, 0, STACK
        LOCFRAME PSTACK, 0, STACK
        LOCFRAME XSTACK, 22, STACK
        LOCFRAME IOVERLAY, 0, STATIC
        LOCFRAME DOVERLAY, 0, STATIC
        ARGFRAME ISTACK, 0, STACK
        ARGFRAME PSTACK, 0, STACK
        ARGFRAME XSTACK, 22, STACK
        ARGFRAME IOVERLAY, 0, STATIC
        ARGFRAME DOVERLAY, 0, STATIC
        FUNCALL Key_ProcessEvent, osal_strlen
        LOCFRAME ISTACK, 0, STACK
        LOCFRAME PSTACK, 0, STACK
        LOCFRAME XSTACK, 22, STACK
        LOCFRAME IOVERLAY, 0, STATIC
        LOCFRAME DOVERLAY, 0, STATIC
        ARGFRAME ISTACK, 0, STACK
        ARGFRAME PSTACK, 0, STACK
        ARGFRAME XSTACK, 22, STACK
        ARGFRAME IOVERLAY, 0, STATIC
        ARGFRAME DOVERLAY, 0, STATIC
        FUNCALL Key_ProcessEvent, HalUARTWrite
        LOCFRAME ISTACK, 0, STACK
        LOCFRAME PSTACK, 0, STACK
        LOCFRAME XSTACK, 22, STACK
        LOCFRAME IOVERLAY, 0, STATIC
        LOCFRAME DOVERLAY, 0, STATIC
        ARGFRAME ISTACK, 0, STACK
        ARGFRAME PSTACK, 0, STACK
        ARGFRAME XSTACK, 22, STACK
        ARGFRAME IOVERLAY, 0, STATIC
        ARGFRAME DOVERLAY, 0, STATIC
        FUNCALL Key_ProcessEvent, osal_msg_deallocate
        LOCFRAME ISTACK, 0, STACK
        LOCFRAME PSTACK, 0, STACK
        LOCFRAME XSTACK, 22, STACK
        LOCFRAME IOVERLAY, 0, STATIC
        LOCFRAME DOVERLAY, 0, STATIC
        ARGFRAME ISTACK, 0, STACK
        ARGFRAME PSTACK, 0, STACK
        ARGFRAME XSTACK, 22, STACK
        ARGFRAME IOVERLAY, 0, STATIC
        ARGFRAME DOVERLAY, 0, STATIC
        FUNCALL Key_ProcessEvent, osal_msg_receive
        LOCFRAME ISTACK, 0, STACK
        LOCFRAME PSTACK, 0, STACK
        LOCFRAME XSTACK, 22, STACK
        LOCFRAME IOVERLAY, 0, STATIC
        LOCFRAME DOVERLAY, 0, STATIC
        ARGFRAME ISTACK, 0, STACK
        ARGFRAME PSTACK, 0, STACK
        ARGFRAME XSTACK, 22, STACK
        ARGFRAME IOVERLAY, 0, STATIC
        ARGFRAME DOVERLAY, 0, STATIC
        FUNCALL Key_ProcessEvent, Key_ProcessZDOMsgs
        LOCFRAME ISTACK, 0, STACK
        LOCFRAME PSTACK, 0, STACK
        LOCFRAME XSTACK, 22, STACK
        LOCFRAME IOVERLAY, 0, STATIC
        LOCFRAME DOVERLAY, 0, STATIC
        ARGFRAME ISTACK, 0, STACK
        ARGFRAME PSTACK, 0, STACK
        ARGFRAME XSTACK, 22, STACK
        ARGFRAME IOVERLAY, 0, STATIC
        ARGFRAME DOVERLAY, 0, STATIC
        FUNCALL Key_ProcessEvent, Key_HandleKeys
        LOCFRAME ISTACK, 0, STACK
        LOCFRAME PSTACK, 0, STACK
        LOCFRAME XSTACK, 22, STACK
        LOCFRAME IOVERLAY, 0, STATIC
        LOCFRAME DOVERLAY, 0, STATIC
        ARGFRAME ISTACK, 0, STACK
        ARGFRAME PSTACK, 0, STACK
        ARGFRAME XSTACK, 22, STACK
        ARGFRAME IOVERLAY, 0, STATIC
        ARGFRAME DOVERLAY, 0, STATIC
        FUNCALL Key_ProcessEvent, osal_mem_alloc
        LOCFRAME ISTACK, 0, STACK
        LOCFRAME PSTACK, 0, STACK
        LOCFRAME XSTACK, 22, STACK
        LOCFRAME IOVERLAY, 0, STATIC
        LOCFRAME DOVERLAY, 0, STATIC
        ARGFRAME ISTACK, 0, STACK
        ARGFRAME PSTACK, 0, STACK
        ARGFRAME XSTACK, 22, STACK
        ARGFRAME IOVERLAY, 0, STATIC
        ARGFRAME DOVERLAY, 0, STATIC
        FUNCALL Key_ProcessEvent, Key_BindDevice
        LOCFRAME ISTACK, 0, STACK
        LOCFRAME PSTACK, 0, STACK
        LOCFRAME XSTACK, 24, STACK
        LOCFRAME IOVERLAY, 0, STATIC
        LOCFRAME DOVERLAY, 0, STATIC
        ARGFRAME ISTACK, 0, STACK
        ARGFRAME PSTACK, 0, STACK
        ARGFRAME XSTACK, 24, STACK
        ARGFRAME IOVERLAY, 0, STATIC
        ARGFRAME DOVERLAY, 0, STATIC
        FUNCALL Key_ProcessEvent, Sys_BindConfirm
        LOCFRAME ISTACK, 0, STACK
        LOCFRAME PSTACK, 0, STACK
        LOCFRAME XSTACK, 22, STACK
        LOCFRAME IOVERLAY, 0, STATIC
        LOCFRAME DOVERLAY, 0, STATIC
        ARGFRAME ISTACK, 0, STACK
        ARGFRAME PSTACK, 0, STACK
        ARGFRAME XSTACK, 22, STACK
        ARGFRAME IOVERLAY, 0, STATIC
        ARGFRAME DOVERLAY, 0, STATIC
        MOV     A,#-0x16
        LCALL   ?BANKED_ENTER_XDATA
        CFI DPH0 load(1, XDATA, add(CFA_XSP16, literal(-1)))
        CFI DPL0 load(1, XDATA, add(CFA_XSP16, literal(-2)))
        CFI ?BRET_EXT load(1, XDATA, add(CFA_XSP16, literal(-3)))
        CFI ?RET_HIGH load(1, XDATA, add(CFA_XSP16, literal(-4)))
        CFI ?RET_LOW load(1, XDATA, add(CFA_XSP16, literal(-5)))
        CFI R7 load(1, XDATA, add(CFA_XSP16, literal(-6)))
        CFI V13 load(1, XDATA, add(CFA_XSP16, literal(-7)))
        CFI V12 load(1, XDATA, add(CFA_XSP16, literal(-8)))
        CFI V11 load(1, XDATA, add(CFA_XSP16, literal(-9)))
        CFI V10 load(1, XDATA, add(CFA_XSP16, literal(-10)))
        CFI V9 load(1, XDATA, add(CFA_XSP16, literal(-11)))
        CFI V8 load(1, XDATA, add(CFA_XSP16, literal(-12)))
        CFI V7 load(1, XDATA, add(CFA_XSP16, literal(-13)))
        CFI V6 load(1, XDATA, add(CFA_XSP16, literal(-14)))
        CFI V5 load(1, XDATA, add(CFA_XSP16, literal(-15)))
        CFI V4 load(1, XDATA, add(CFA_XSP16, literal(-16)))
        CFI V3 load(1, XDATA, add(CFA_XSP16, literal(-17)))
        CFI V2 load(1, XDATA, add(CFA_XSP16, literal(-18)))
        CFI V1 load(1, XDATA, add(CFA_XSP16, literal(-19)))
        CFI V0 load(1, XDATA, add(CFA_XSP16, literal(-20)))
        CFI VB load(1, XDATA, add(CFA_XSP16, literal(-21)))
        CFI R6 load(1, XDATA, add(CFA_XSP16, literal(-22)))
        CFI CFA_SP SP+0
        CFI CFA_XSP16 add(XSP16, 22)
        ; Saved register size: 22
        ; Auto size: 0
        MOV     A,R2
        MOV     R6,A
        MOV     A,R3
        MOV     R7,A
//  161   afIncomingMSGPacket_t *MSGpkt = NULL;
//  162 
//  163   (void)task_id;  // Intentionally unreferenced parameter
//  164 
//  165   if ( events & SYS_EVENT_MSG )
        ANL     A,#0x80
        JNZ     $+5
        LJMP    ??Key_ProcessEvent_0 & 0xFFFF
//  166   {
//  167     MSGpkt = (afIncomingMSGPacket_t *)osal_msg_receive( task_id );
        ; Setup parameters for call to function osal_msg_receive
        SJMP    ??Key_ProcessEvent_1
//  168     while ( MSGpkt )
//  169     {
//  170       switch ( MSGpkt->hdr.event )
//  171       {
//  172         case ZDO_CB_MSG:  // 收到被绑定节点的rsp
//  173           Key_ProcessZDOMsgs( (zdoIncomingMsg_t *)MSGpkt);
//  174           break;
//  175 
//  176         case KEY_CHANGE:
//  177           Key_HandleKeys( ((keyChange_t *)MSGpkt)->state, ((keyChange_t *)MSGpkt)->keys );
//  178           break;
//  179           
//  180         case AF_INCOMING_MSG_CMD:
//  181           Key_ReceiveDataIndication( MSGpkt->srcAddr.addr.shortAddr, MSGpkt->endPoint, MSGpkt->clusterId,
//  182                                     MSGpkt->cmd.DataLength, MSGpkt->cmd.Data);
??Key_ProcessEvent_2:
        MOV     DPL,?V0 + 4
        MOV     DPH,?V0 + 5
        MOVX    A,@DPTR
        PUSH    A
        CFI CFA_SP SP+-1
        MOV     A,?V0 + 2
        ADD     A,?V0 + 12
        MOV     DPL,A
        MOV     A,R3
        ADDC    A,#0x0
        MOV     DPH,A
        POP     A
        CFI CFA_SP SP+0
        MOVX    @DPTR,A
        INC     R2
        MOV     DPL,?V0 + 4
        MOV     DPH,?V0 + 5
        INC     DPTR
        MOV     ?V0 + 4,DPL
        MOV     ?V0 + 5,DPH
??Key_ProcessEvent_3:
        MOV     ?V0 + 12,R2
        MOV     A,?V0 + 6
        ADD     A,#0x1
        MOV     R0,A
        MOV     A,?V0 + 7
        ADDC    A,#0x0
        MOV     R1,A
        CLR     C
        MOV     A,?V0 + 12
        SUBB    A,R0
        CLR     A
        SUBB    A,R1
        JC      ??Key_ProcessEvent_2
        MOV     A,#0x2
        XRL     A,?V0 + 8
        JNZ     ??Key_ProcessEvent_4
        MOV     A,?V0 + 9
??Key_ProcessEvent_4:
        JNZ     ??Key_ProcessEvent_5
        ; Setup parameters for call to function HalUARTWrite
        ; Setup parameters for call to function osal_strlen
        MOV     R2,?V0 + 2
        LCALL   ??osal_strlen?relay
        MOV     A,R2
        ADD     A,#0x1
        MOV     R4,A
        CLR     A
        ADDC    A,#0x0
        MOV     R5,A
        MOV     R2,?V0 + 2
        MOV     R3,?V0 + 3
        MOV     R1,#0x0
        LCALL   ??HalUARTWrite?relay
//  183           break;
//  184       }
//  185       // Release the memory
//  186       osal_msg_deallocate( (uint8 *)MSGpkt );
??Key_ProcessEvent_5:
        ; Setup parameters for call to function osal_msg_deallocate
        MOV     R2,?V0 + 0
        MOV     R3,?V0 + 1
        LCALL   ??osal_msg_deallocate?relay
//  187 
//  188       // Next
//  189       MSGpkt = (afIncomingMSGPacket_t *)osal_msg_receive( Key_TaskID );
        ; Setup parameters for call to function osal_msg_receive
        MOV     DPTR,#Key_TaskID
        MOVX    A,@DPTR
        MOV     R1,A
??Key_ProcessEvent_1:
        LCALL   ??osal_msg_receive?relay
        MOV     ?V0 + 0,R2
        MOV     ?V0 + 1,R3
        MOV     A,?V0 + 0
        ORL     A,?V0 + 1
        JNZ     $+5
        LJMP    ??Key_ProcessEvent_6 & 0xFFFF
        MOV     DPL,?V0 + 0
        MOV     DPH,?V0 + 1
        MOVX    A,@DPTR
        ADD     A,#-0x1a
        JZ      ??Key_ProcessEvent_7
        ADD     A,#0x5a
        JZ      ??Key_ProcessEvent_8
        ADD     A,#-0x13
        JNZ     ??Key_ProcessEvent_5
        ; Setup parameters for call to function Key_ProcessZDOMsgs
        MOV     R2,?V0 + 0
        MOV     R3,?V0 + 1
        LCALL   ??Key_ProcessZDOMsgs?relay
        SJMP    ??Key_ProcessEvent_5
??Key_ProcessEvent_8:
        ; Setup parameters for call to function Key_HandleKeys
        INC     DPTR
        INC     DPTR
        INC     DPTR
        MOVX    A,@DPTR
        MOV     R2,A
        MOV     DPL,?V0 + 0
        MOV     DPH,?V0 + 1
        INC     DPTR
        INC     DPTR
        MOVX    A,@DPTR
        MOV     R1,A
        LCALL   ??Key_HandleKeys?relay
        SJMP    ??Key_ProcessEvent_5
??Key_ProcessEvent_7:
        MOV     A,?V0 + 0
        ADD     A,#0x22
        LCALL   ?Subroutine4 & 0xFFFF
//  190     }
??CrossCallReturnLabel_13:
        MOV     ?V0 + 4,A
        INC     DPTR
        MOVX    A,@DPTR
        MOV     ?V0 + 5,A
        MOV     A,?V0 + 0
        ADD     A,#0x20
        LCALL   ?Subroutine4 & 0xFFFF
??CrossCallReturnLabel_14:
        MOV     ?V0 + 6,A
        INC     DPTR
        MOVX    A,@DPTR
        MOV     ?V0 + 7,A
        MOV     DPL,?V0 + 0
        MOV     DPH,?V0 + 1
        INC     DPTR
        INC     DPTR
        INC     DPTR
        INC     DPTR
        MOVX    A,@DPTR
        MOV     ?V0 + 8,A
        INC     DPTR
        MOVX    A,@DPTR
        MOV     ?V0 + 9,A
        MOV     A,?V0 + 0
        ADD     A,#0x14
        LCALL   ?Subroutine4 & 0xFFFF
??CrossCallReturnLabel_15:
        MOV     ?V0 + 11,A
        ; Setup parameters for call to function osal_mem_alloc
        MOV     A,?V0 + 6
        ADD     A,#0x1
        MOV     R2,A
        MOV     A,?V0 + 7
        ADDC    A,#0x0
        MOV     R3,A
        LCALL   ??osal_mem_alloc?relay
        MOV     ?V0 + 2,R2
        MOV     ?V0 + 3,R3
        MOV     A,#-0xa
        ADD     A,?V0 + 11
        MOV     DPL,R2
        MOV     DPH,R3
        MOVX    @DPTR,A
        MOV     R2,#0x1
        LJMP    ??Key_ProcessEvent_3 & 0xFFFF
//  191    return (events ^ SYS_EVENT_MSG);
??Key_ProcessEvent_6:
        MOV     A,R6
        MOV     R2,A
        MOV     A,R7
        XRL     A,#0x80
??Key_ProcessEvent_9:
        MOV     R3,A
        SJMP    ??Key_ProcessEvent_10
//  192   }
//  193 
//  194   if( events & MATCH_BIND_EVT ) // 广播 match 绑定
??Key_ProcessEvent_0:
        MOV     A,R6
        ANL     A,#0x2
        JZ      ??Key_ProcessEvent_11
//  195   {
//  196     if(keyCnt == KEY_NUM_MAX)
        MOV     DPTR,#keyCnt
        MOVX    A,@DPTR
        XRL     A,#0x32
        JZ      ??Key_ProcessEvent_12
//  197     {
//  198         // do something
//  199     }
//  200     else
//  201     {
//  202         Key_BindDevice(TRUE, KEY_ENDPOINT+keyCnt, Key_ClusterList, NULL); 
        ; Setup parameters for call to function Key_BindDevice
        CLR     A
        MOV     ?V0 + 0,A
        MOV     ?V0 + 1,A
        MOV     R0,#?V0 + 0
        LCALL   ?PUSH_XSTACK_I_TWO
        CFI CFA_XSP16 add(XSP16, 24)
        MOV     R4,#Key_ClusterList & 0xff
        MOV     R5,#(Key_ClusterList >> 8) & 0xff
        MOV     DPTR,#keyCnt
        MOVX    A,@DPTR
        ADD     A,#0xa
        MOV     R2,A
        MOV     R1,#0x1
        LCALL   ??Key_BindDevice?relay
        MOV     A,#0x2
        LCALL   ?DEALLOC_XSTACK8
        CFI CFA_XSP16 add(XSP16, 22)
//  203     }
//  204     return (events ^ MATCH_BIND_EVT);
??Key_ProcessEvent_12:
        MOV     A,R6
        XRL     A,#0x2
??Key_ProcessEvent_13:
        MOV     R2,A
        MOV     A,R7
        SJMP    ??Key_ProcessEvent_9
//  205   }
//  206   
//  207   if ( events & KEY_BIND_TIMER )
??Key_ProcessEvent_11:
        MOV     A,R6
        ANL     A,#0x21
        JZ      ??Key_ProcessEvent_14
//  208   {
//  209     // Send bind confirm callback to application
//  210     SAPI_BindConfirm( key_bindInProgress, ZB_TIMEOUT );
        ; Setup parameters for call to function Sys_BindConfirm
        MOV     R1,#0x21
        LCALL   ?Subroutine2 & 0xFFFF
//  211     key_bindInProgress = 0xffff;
//  212 
//  213     return (events ^ KEY_BIND_TIMER);
??CrossCallReturnLabel_4:
        MOV     A,R6
        XRL     A,#0x21
        SJMP    ??Key_ProcessEvent_13
//  214   }
//  215   
//  216   return 0;
??Key_ProcessEvent_14:
        MOV     R2,#0x0
        MOV     R3,#0x0
??Key_ProcessEvent_10:
        MOV     R7,#0xe
        LJMP    ?BANKED_LEAVE_XDATA
        CFI EndBlock cfiBlock1
//  217 }

        RSEG BANKED_CODE:CODE:NOROOT(0)
?Subroutine4:
        CFI Block cfiCond2 Using cfiCommon0
        CFI NoFunction
        CFI Conditional ??CrossCallReturnLabel_13
        CFI R6 load(1, XDATA, add(CFA_XSP16, literal(-22)))
        CFI VB load(1, XDATA, add(CFA_XSP16, literal(-21)))
        CFI V0 load(1, XDATA, add(CFA_XSP16, literal(-20)))
        CFI V1 load(1, XDATA, add(CFA_XSP16, literal(-19)))
        CFI V2 load(1, XDATA, add(CFA_XSP16, literal(-18)))
        CFI V3 load(1, XDATA, add(CFA_XSP16, literal(-17)))
        CFI V4 load(1, XDATA, add(CFA_XSP16, literal(-16)))
        CFI V5 load(1, XDATA, add(CFA_XSP16, literal(-15)))
        CFI V6 load(1, XDATA, add(CFA_XSP16, literal(-14)))
        CFI V7 load(1, XDATA, add(CFA_XSP16, literal(-13)))
        CFI V8 load(1, XDATA, add(CFA_XSP16, literal(-12)))
        CFI V9 load(1, XDATA, add(CFA_XSP16, literal(-11)))
        CFI V10 load(1, XDATA, add(CFA_XSP16, literal(-10)))
        CFI V11 load(1, XDATA, add(CFA_XSP16, literal(-9)))
        CFI V12 load(1, XDATA, add(CFA_XSP16, literal(-8)))
        CFI V13 load(1, XDATA, add(CFA_XSP16, literal(-7)))
        CFI R7 load(1, XDATA, add(CFA_XSP16, literal(-6)))
        CFI ?RET_LOW load(1, XDATA, add(CFA_XSP16, literal(-5)))
        CFI ?RET_HIGH load(1, XDATA, add(CFA_XSP16, literal(-4)))
        CFI ?BRET_EXT load(1, XDATA, add(CFA_XSP16, literal(-3)))
        CFI DPL0 load(1, XDATA, add(CFA_XSP16, literal(-2)))
        CFI DPH0 load(1, XDATA, add(CFA_XSP16, literal(-1)))
        CFI CFA_SP SP+0
        CFI CFA_XSP16 add(XSP16, 22)
        CFI Block cfiCond3 Using cfiCommon0
        CFI (cfiCond3) NoFunction
        CFI (cfiCond3) Conditional ??CrossCallReturnLabel_14
        CFI (cfiCond3) R6 load(1, XDATA, add(CFA_XSP16, literal(-22)))
        CFI (cfiCond3) VB load(1, XDATA, add(CFA_XSP16, literal(-21)))
        CFI (cfiCond3) V0 load(1, XDATA, add(CFA_XSP16, literal(-20)))
        CFI (cfiCond3) V1 load(1, XDATA, add(CFA_XSP16, literal(-19)))
        CFI (cfiCond3) V2 load(1, XDATA, add(CFA_XSP16, literal(-18)))
        CFI (cfiCond3) V3 load(1, XDATA, add(CFA_XSP16, literal(-17)))
        CFI (cfiCond3) V4 load(1, XDATA, add(CFA_XSP16, literal(-16)))
        CFI (cfiCond3) V5 load(1, XDATA, add(CFA_XSP16, literal(-15)))
        CFI (cfiCond3) V6 load(1, XDATA, add(CFA_XSP16, literal(-14)))
        CFI (cfiCond3) V7 load(1, XDATA, add(CFA_XSP16, literal(-13)))
        CFI (cfiCond3) V8 load(1, XDATA, add(CFA_XSP16, literal(-12)))
        CFI (cfiCond3) V9 load(1, XDATA, add(CFA_XSP16, literal(-11)))
        CFI (cfiCond3) V10 load(1, XDATA, add(CFA_XSP16, literal(-10)))
        CFI (cfiCond3) V11 load(1, XDATA, add(CFA_XSP16, literal(-9)))
        CFI (cfiCond3) V12 load(1, XDATA, add(CFA_XSP16, literal(-8)))
        CFI (cfiCond3) V13 load(1, XDATA, add(CFA_XSP16, literal(-7)))
        CFI (cfiCond3) R7 load(1, XDATA, add(CFA_XSP16, literal(-6)))
        CFI (cfiCond3) ?RET_LOW load(1, XDATA, add(CFA_XSP16, literal(-5)))
        CFI (cfiCond3) ?RET_HIGH load(1, XDATA, add(CFA_XSP16, literal(-4)))
        CFI (cfiCond3) ?BRET_EXT load(1, XDATA, add(CFA_XSP16, literal(-3)))
        CFI (cfiCond3) DPL0 load(1, XDATA, add(CFA_XSP16, literal(-2)))
        CFI (cfiCond3) DPH0 load(1, XDATA, add(CFA_XSP16, literal(-1)))
        CFI (cfiCond3) CFA_SP SP+0
        CFI (cfiCond3) CFA_XSP16 add(XSP16, 22)
        CFI Block cfiCond4 Using cfiCommon0
        CFI (cfiCond4) NoFunction
        CFI (cfiCond4) Conditional ??CrossCallReturnLabel_15
        CFI (cfiCond4) R6 load(1, XDATA, add(CFA_XSP16, literal(-22)))
        CFI (cfiCond4) VB load(1, XDATA, add(CFA_XSP16, literal(-21)))
        CFI (cfiCond4) V0 load(1, XDATA, add(CFA_XSP16, literal(-20)))
        CFI (cfiCond4) V1 load(1, XDATA, add(CFA_XSP16, literal(-19)))
        CFI (cfiCond4) V2 load(1, XDATA, add(CFA_XSP16, literal(-18)))
        CFI (cfiCond4) V3 load(1, XDATA, add(CFA_XSP16, literal(-17)))
        CFI (cfiCond4) V4 load(1, XDATA, add(CFA_XSP16, literal(-16)))
        CFI (cfiCond4) V5 load(1, XDATA, add(CFA_XSP16, literal(-15)))
        CFI (cfiCond4) V6 load(1, XDATA, add(CFA_XSP16, literal(-14)))
        CFI (cfiCond4) V7 load(1, XDATA, add(CFA_XSP16, literal(-13)))
        CFI (cfiCond4) V8 load(1, XDATA, add(CFA_XSP16, literal(-12)))
        CFI (cfiCond4) V9 load(1, XDATA, add(CFA_XSP16, literal(-11)))
        CFI (cfiCond4) V10 load(1, XDATA, add(CFA_XSP16, literal(-10)))
        CFI (cfiCond4) V11 load(1, XDATA, add(CFA_XSP16, literal(-9)))
        CFI (cfiCond4) V12 load(1, XDATA, add(CFA_XSP16, literal(-8)))
        CFI (cfiCond4) V13 load(1, XDATA, add(CFA_XSP16, literal(-7)))
        CFI (cfiCond4) R7 load(1, XDATA, add(CFA_XSP16, literal(-6)))
        CFI (cfiCond4) ?RET_LOW load(1, XDATA, add(CFA_XSP16, literal(-5)))
        CFI (cfiCond4) ?RET_HIGH load(1, XDATA, add(CFA_XSP16, literal(-4)))
        CFI (cfiCond4) ?BRET_EXT load(1, XDATA, add(CFA_XSP16, literal(-3)))
        CFI (cfiCond4) DPL0 load(1, XDATA, add(CFA_XSP16, literal(-2)))
        CFI (cfiCond4) DPH0 load(1, XDATA, add(CFA_XSP16, literal(-1)))
        CFI (cfiCond4) CFA_SP SP+0
        CFI (cfiCond4) CFA_XSP16 add(XSP16, 22)
        CFI Block cfiPicker5 Using cfiCommon1
        CFI (cfiPicker5) NoFunction
        CFI (cfiPicker5) Picker
        MOV     DPL,A
        MOV     A,?V0 + 1
        CFI EndBlock cfiCond2
        CFI EndBlock cfiCond3
        CFI EndBlock cfiCond4
        CFI EndBlock cfiPicker5
        REQUIRE ??Subroutine9_0
        ; // Fall through to label ??Subroutine9_0

        RSEG BANKED_CODE:CODE:NOROOT(0)
??Subroutine9_0:
        CFI Block cfiCond6 Using cfiCommon0
        CFI NoFunction
        CFI Conditional ??CrossCallReturnLabel_12
        CFI R6 load(1, XDATA, add(CFA_XSP16, literal(-11)))
        CFI VB load(1, XDATA, add(CFA_XSP16, literal(-10)))
        CFI V0 load(1, XDATA, add(CFA_XSP16, literal(-9)))
        CFI V1 load(1, XDATA, add(CFA_XSP16, literal(-8)))
        CFI V2 load(1, XDATA, add(CFA_XSP16, literal(-7)))
        CFI R7 load(1, XDATA, add(CFA_XSP16, literal(-6)))
        CFI ?RET_LOW load(1, XDATA, add(CFA_XSP16, literal(-5)))
        CFI ?RET_HIGH load(1, XDATA, add(CFA_XSP16, literal(-4)))
        CFI ?BRET_EXT load(1, XDATA, add(CFA_XSP16, literal(-3)))
        CFI DPL0 load(1, XDATA, add(CFA_XSP16, literal(-2)))
        CFI DPH0 load(1, XDATA, add(CFA_XSP16, literal(-1)))
        CFI CFA_SP SP+0
        CFI CFA_XSP16 add(XSP16, 20)
        CFI Block cfiCond7 Using cfiCommon0
        CFI (cfiCond7) NoFunction
        CFI (cfiCond7) Conditional ??CrossCallReturnLabel_13
        CFI (cfiCond7) R6 load(1, XDATA, add(CFA_XSP16, literal(-22)))
        CFI (cfiCond7) VB load(1, XDATA, add(CFA_XSP16, literal(-21)))
        CFI (cfiCond7) V0 load(1, XDATA, add(CFA_XSP16, literal(-20)))
        CFI (cfiCond7) V1 load(1, XDATA, add(CFA_XSP16, literal(-19)))
        CFI (cfiCond7) V2 load(1, XDATA, add(CFA_XSP16, literal(-18)))
        CFI (cfiCond7) V3 load(1, XDATA, add(CFA_XSP16, literal(-17)))
        CFI (cfiCond7) V4 load(1, XDATA, add(CFA_XSP16, literal(-16)))
        CFI (cfiCond7) V5 load(1, XDATA, add(CFA_XSP16, literal(-15)))
        CFI (cfiCond7) V6 load(1, XDATA, add(CFA_XSP16, literal(-14)))
        CFI (cfiCond7) V7 load(1, XDATA, add(CFA_XSP16, literal(-13)))
        CFI (cfiCond7) V8 load(1, XDATA, add(CFA_XSP16, literal(-12)))
        CFI (cfiCond7) V9 load(1, XDATA, add(CFA_XSP16, literal(-11)))
        CFI (cfiCond7) V10 load(1, XDATA, add(CFA_XSP16, literal(-10)))
        CFI (cfiCond7) V11 load(1, XDATA, add(CFA_XSP16, literal(-9)))
        CFI (cfiCond7) V12 load(1, XDATA, add(CFA_XSP16, literal(-8)))
        CFI (cfiCond7) V13 load(1, XDATA, add(CFA_XSP16, literal(-7)))
        CFI (cfiCond7) R7 load(1, XDATA, add(CFA_XSP16, literal(-6)))
        CFI (cfiCond7) ?RET_LOW load(1, XDATA, add(CFA_XSP16, literal(-5)))
        CFI (cfiCond7) ?RET_HIGH load(1, XDATA, add(CFA_XSP16, literal(-4)))
        CFI (cfiCond7) ?BRET_EXT load(1, XDATA, add(CFA_XSP16, literal(-3)))
        CFI (cfiCond7) DPL0 load(1, XDATA, add(CFA_XSP16, literal(-2)))
        CFI (cfiCond7) DPH0 load(1, XDATA, add(CFA_XSP16, literal(-1)))
        CFI (cfiCond7) CFA_SP SP+0
        CFI (cfiCond7) CFA_XSP16 add(XSP16, 22)
        CFI Block cfiCond8 Using cfiCommon0
        CFI (cfiCond8) NoFunction
        CFI (cfiCond8) Conditional ??CrossCallReturnLabel_14
        CFI (cfiCond8) R6 load(1, XDATA, add(CFA_XSP16, literal(-22)))
        CFI (cfiCond8) VB load(1, XDATA, add(CFA_XSP16, literal(-21)))
        CFI (cfiCond8) V0 load(1, XDATA, add(CFA_XSP16, literal(-20)))
        CFI (cfiCond8) V1 load(1, XDATA, add(CFA_XSP16, literal(-19)))
        CFI (cfiCond8) V2 load(1, XDATA, add(CFA_XSP16, literal(-18)))
        CFI (cfiCond8) V3 load(1, XDATA, add(CFA_XSP16, literal(-17)))
        CFI (cfiCond8) V4 load(1, XDATA, add(CFA_XSP16, literal(-16)))
        CFI (cfiCond8) V5 load(1, XDATA, add(CFA_XSP16, literal(-15)))
        CFI (cfiCond8) V6 load(1, XDATA, add(CFA_XSP16, literal(-14)))
        CFI (cfiCond8) V7 load(1, XDATA, add(CFA_XSP16, literal(-13)))
        CFI (cfiCond8) V8 load(1, XDATA, add(CFA_XSP16, literal(-12)))
        CFI (cfiCond8) V9 load(1, XDATA, add(CFA_XSP16, literal(-11)))
        CFI (cfiCond8) V10 load(1, XDATA, add(CFA_XSP16, literal(-10)))
        CFI (cfiCond8) V11 load(1, XDATA, add(CFA_XSP16, literal(-9)))
        CFI (cfiCond8) V12 load(1, XDATA, add(CFA_XSP16, literal(-8)))
        CFI (cfiCond8) V13 load(1, XDATA, add(CFA_XSP16, literal(-7)))
        CFI (cfiCond8) R7 load(1, XDATA, add(CFA_XSP16, literal(-6)))
        CFI (cfiCond8) ?RET_LOW load(1, XDATA, add(CFA_XSP16, literal(-5)))
        CFI (cfiCond8) ?RET_HIGH load(1, XDATA, add(CFA_XSP16, literal(-4)))
        CFI (cfiCond8) ?BRET_EXT load(1, XDATA, add(CFA_XSP16, literal(-3)))
        CFI (cfiCond8) DPL0 load(1, XDATA, add(CFA_XSP16, literal(-2)))
        CFI (cfiCond8) DPH0 load(1, XDATA, add(CFA_XSP16, literal(-1)))
        CFI (cfiCond8) CFA_SP SP+0
        CFI (cfiCond8) CFA_XSP16 add(XSP16, 22)
        CFI Block cfiCond9 Using cfiCommon0
        CFI (cfiCond9) NoFunction
        CFI (cfiCond9) Conditional ??CrossCallReturnLabel_15
        CFI (cfiCond9) R6 load(1, XDATA, add(CFA_XSP16, literal(-22)))
        CFI (cfiCond9) VB load(1, XDATA, add(CFA_XSP16, literal(-21)))
        CFI (cfiCond9) V0 load(1, XDATA, add(CFA_XSP16, literal(-20)))
        CFI (cfiCond9) V1 load(1, XDATA, add(CFA_XSP16, literal(-19)))
        CFI (cfiCond9) V2 load(1, XDATA, add(CFA_XSP16, literal(-18)))
        CFI (cfiCond9) V3 load(1, XDATA, add(CFA_XSP16, literal(-17)))
        CFI (cfiCond9) V4 load(1, XDATA, add(CFA_XSP16, literal(-16)))
        CFI (cfiCond9) V5 load(1, XDATA, add(CFA_XSP16, literal(-15)))
        CFI (cfiCond9) V6 load(1, XDATA, add(CFA_XSP16, literal(-14)))
        CFI (cfiCond9) V7 load(1, XDATA, add(CFA_XSP16, literal(-13)))
        CFI (cfiCond9) V8 load(1, XDATA, add(CFA_XSP16, literal(-12)))
        CFI (cfiCond9) V9 load(1, XDATA, add(CFA_XSP16, literal(-11)))
        CFI (cfiCond9) V10 load(1, XDATA, add(CFA_XSP16, literal(-10)))
        CFI (cfiCond9) V11 load(1, XDATA, add(CFA_XSP16, literal(-9)))
        CFI (cfiCond9) V12 load(1, XDATA, add(CFA_XSP16, literal(-8)))
        CFI (cfiCond9) V13 load(1, XDATA, add(CFA_XSP16, literal(-7)))
        CFI (cfiCond9) R7 load(1, XDATA, add(CFA_XSP16, literal(-6)))
        CFI (cfiCond9) ?RET_LOW load(1, XDATA, add(CFA_XSP16, literal(-5)))
        CFI (cfiCond9) ?RET_HIGH load(1, XDATA, add(CFA_XSP16, literal(-4)))
        CFI (cfiCond9) ?BRET_EXT load(1, XDATA, add(CFA_XSP16, literal(-3)))
        CFI (cfiCond9) DPL0 load(1, XDATA, add(CFA_XSP16, literal(-2)))
        CFI (cfiCond9) DPH0 load(1, XDATA, add(CFA_XSP16, literal(-1)))
        CFI (cfiCond9) CFA_SP SP+0
        CFI (cfiCond9) CFA_XSP16 add(XSP16, 22)
        CFI Block cfiPicker10 Using cfiCommon1
        CFI (cfiPicker10) NoFunction
        CFI (cfiPicker10) Picker
        ADDC    A,#0x0
        MOV     DPH,A
        MOVX    A,@DPTR
        RET
        CFI EndBlock cfiCond6
        CFI EndBlock cfiCond7
        CFI EndBlock cfiCond8
        CFI EndBlock cfiCond9
        CFI EndBlock cfiPicker10
//  218 
//  219 /*********************************************************************
//  220  * @fn      Key_ProcessZDOMsgs()
//  221  *
//  222  * @brief   Process response messages
//  223  *
//  224  * @param   none
//  225  *
//  226  * @return  none
//  227  */

        RSEG BANKED_CODE:CODE:NOROOT(0)
//  228 void Key_ProcessZDOMsgs( zdoIncomingMsg_t *inMsg )
Key_ProcessZDOMsgs:
        CFI Block cfiBlock11 Using cfiCommon0
        CFI Function Key_ProcessZDOMsgs
        CODE
//  229 {
        FUNCALL Key_ProcessZDOMsgs, ZDO_ParseEPListRsp
        LOCFRAME ISTACK, 0, STACK
        LOCFRAME PSTACK, 0, STACK
        LOCFRAME XSTACK, 20, STACK
        LOCFRAME IOVERLAY, 0, STATIC
        LOCFRAME DOVERLAY, 0, STATIC
        ARGFRAME ISTACK, 0, STACK
        ARGFRAME PSTACK, 0, STACK
        ARGFRAME XSTACK, 20, STACK
        ARGFRAME IOVERLAY, 0, STATIC
        ARGFRAME DOVERLAY, 0, STATIC
        FUNCALL Key_ProcessZDOMsgs, APSME_BindRequest
        LOCFRAME ISTACK, 0, STACK
        LOCFRAME PSTACK, 0, STACK
        LOCFRAME XSTACK, 21, STACK
        LOCFRAME IOVERLAY, 0, STATIC
        LOCFRAME DOVERLAY, 0, STATIC
        ARGFRAME ISTACK, 0, STACK
        ARGFRAME PSTACK, 0, STACK
        ARGFRAME XSTACK, 21, STACK
        ARGFRAME IOVERLAY, 0, STATIC
        ARGFRAME DOVERLAY, 0, STATIC
        FUNCALL Key_ProcessZDOMsgs, osal_stop_timerEx
        LOCFRAME ISTACK, 0, STACK
        LOCFRAME PSTACK, 0, STACK
        LOCFRAME XSTACK, 20, STACK
        LOCFRAME IOVERLAY, 0, STATIC
        LOCFRAME DOVERLAY, 0, STATIC
        ARGFRAME ISTACK, 0, STACK
        ARGFRAME PSTACK, 0, STACK
        ARGFRAME XSTACK, 20, STACK
        ARGFRAME IOVERLAY, 0, STATIC
        ARGFRAME DOVERLAY, 0, STATIC
        FUNCALL Key_ProcessZDOMsgs, osal_start_timerEx
        LOCFRAME ISTACK, 0, STACK
        LOCFRAME PSTACK, 0, STACK
        LOCFRAME XSTACK, 20, STACK
        LOCFRAME IOVERLAY, 0, STATIC
        LOCFRAME DOVERLAY, 0, STATIC
        ARGFRAME ISTACK, 0, STACK
        ARGFRAME PSTACK, 0, STACK
        ARGFRAME XSTACK, 20, STACK
        ARGFRAME IOVERLAY, 0, STATIC
        ARGFRAME DOVERLAY, 0, STATIC
        FUNCALL Key_ProcessZDOMsgs, ZDP_IEEEAddrReq
        LOCFRAME ISTACK, 0, STACK
        LOCFRAME PSTACK, 0, STACK
        LOCFRAME XSTACK, 20, STACK
        LOCFRAME IOVERLAY, 0, STATIC
        LOCFRAME DOVERLAY, 0, STATIC
        ARGFRAME ISTACK, 0, STACK
        ARGFRAME PSTACK, 0, STACK
        ARGFRAME XSTACK, 20, STACK
        ARGFRAME IOVERLAY, 0, STATIC
        ARGFRAME DOVERLAY, 0, STATIC
        FUNCALL Key_ProcessZDOMsgs, Sys_BindConfirm
        LOCFRAME ISTACK, 0, STACK
        LOCFRAME PSTACK, 0, STACK
        LOCFRAME XSTACK, 20, STACK
        LOCFRAME IOVERLAY, 0, STATIC
        LOCFRAME DOVERLAY, 0, STATIC
        ARGFRAME ISTACK, 0, STACK
        ARGFRAME PSTACK, 0, STACK
        ARGFRAME XSTACK, 20, STACK
        ARGFRAME IOVERLAY, 0, STATIC
        ARGFRAME DOVERLAY, 0, STATIC
        MOV     A,#-0xb
        LCALL   ?BANKED_ENTER_XDATA
        CFI DPH0 load(1, XDATA, add(CFA_XSP16, literal(-1)))
        CFI DPL0 load(1, XDATA, add(CFA_XSP16, literal(-2)))
        CFI ?BRET_EXT load(1, XDATA, add(CFA_XSP16, literal(-3)))
        CFI ?RET_HIGH load(1, XDATA, add(CFA_XSP16, literal(-4)))
        CFI ?RET_LOW load(1, XDATA, add(CFA_XSP16, literal(-5)))
        CFI R7 load(1, XDATA, add(CFA_XSP16, literal(-6)))
        CFI V2 load(1, XDATA, add(CFA_XSP16, literal(-7)))
        CFI V1 load(1, XDATA, add(CFA_XSP16, literal(-8)))
        CFI V0 load(1, XDATA, add(CFA_XSP16, literal(-9)))
        CFI VB load(1, XDATA, add(CFA_XSP16, literal(-10)))
        CFI R6 load(1, XDATA, add(CFA_XSP16, literal(-11)))
        CFI CFA_SP SP+0
        CFI CFA_XSP16 add(XSP16, 11)
        ; Saved register size: 11
        ; Auto size: 9
        MOV     A,#-0x9
        LCALL   ?ALLOC_XSTACK8
        CFI CFA_XSP16 add(XSP16, 20)
//  230   switch ( inMsg->clusterID )
        MOV     A,R2
        ADD     A,#0xc
        MOV     DPL,A
        MOV     A,R3
        LCALL   ??Subroutine9_0 & 0xFFFF
??CrossCallReturnLabel_12:
        XRL     A,#0x6
        JNZ     ??Key_ProcessZDOMsgs_0
        INC     DPTR
        MOVX    A,@DPTR
        XRL     A,#0x80
??Key_ProcessZDOMsgs_0:
        JZ      $+5
        LJMP    ??Key_ProcessZDOMsgs_1 & 0xFFFF
//  231   {
//  232     case Match_Desc_rsp:
//  233       {
//  234         zAddrType_t dstAddr;
//  235         ZDO_ActiveEndpointRsp_t *pRsp = ZDO_ParseEPListRsp( inMsg );
        ; Setup parameters for call to function ZDO_ParseEPListRsp
        LCALL   ??ZDO_ParseEPListRsp?relay
        MOV     ?V0 + 0,R2
        MOV     ?V0 + 1,R3
        MOV     R6,?V0 + 0
        MOV     R7,?V0 + 1
//  236 
//  237         if ( key_bindInProgress != 0xffff )
        MOV     DPTR,#key_bindInProgress
        MOVX    A,@DPTR
        CPL     A
        JNZ     ??Key_ProcessZDOMsgs_2
        INC     DPTR
        MOVX    A,@DPTR
        CPL     A
??Key_ProcessZDOMsgs_2:
        JNZ     $+5
        LJMP    ??Key_ProcessZDOMsgs_1 & 0xFFFF
//  238         {
//  239           uint8 ret = 0;
//  240           // Create a binding table entry
//  241           dstAddr.addrMode = Addr16Bit;
        MOV     A,#0x8
        LCALL   ?XSTACK_DISP0_8
        MOV     A,#0x2
        MOVX    @DPTR,A
//  242           dstAddr.addr.shortAddr = pRsp->nwkAddr;
        MOV     DPL,R6
        MOV     DPH,R7
        INC     DPTR
        MOVX    A,@DPTR
        MOV     R0,A
        INC     DPTR
        MOVX    A,@DPTR
        MOV     R1,A
        MOV     DPL,?XSP + 0
        MOV     DPH,?XSP + 1
        MOV     A,R0
        MOVX    @DPTR,A
        INC     DPTR
        MOV     A,R1
        MOVX    @DPTR,A
//  243           
//  244            for(char i=0; i<KEY_MAX_CLUSTERS; i++)
        MOV     ?V0 + 2,#0x0
//  245           {
//  246                 if ( APSME_BindRequest( Key_epDesc[keyCnt].simpleDesc->EndPoint,
//  247                      key_bindInProgress+i, &dstAddr, pRsp->epList[0] ) != ZSuccess )
??Key_ProcessZDOMsgs_3:
        ; Setup parameters for call to function APSME_BindRequest
        MOV     DPL,R6
        MOV     DPH,R7
        INC     DPTR
        INC     DPTR
        INC     DPTR
        INC     DPTR
        MOVX    A,@DPTR
        MOV     ?V0 + 0,A
        MOV     R0,#?V0 + 0
        LCALL   ?PUSH_XSTACK_I_ONE
        CFI CFA_XSP16 add(XSP16, 21)
        MOV     A,#0x1
        LCALL   ?XSTACK_DISP0_8
        MOV     R4,DPL
        MOV     R5,DPH
        MOV     DPTR,#key_bindInProgress
        MOV     ?V0 + 0,?V0 + 2
        MOVX    A,@DPTR
        ADD     A,?V0 + 0
        MOV     R2,A
        INC     DPTR
        MOVX    A,@DPTR
        ADDC    A,#0x0
        MOV     R3,A
        MOV     DPTR,#keyCnt
        MOVX    A,@DPTR
        MOV     B,#0x6
        MUL     AB
        MOV     R0,A
        MOV     ?V0 + 0,B
        MOV     R1,?V0 + 0
        LCALL   ?Subroutine1 & 0xFFFF
//  248                 {
//  249                     ret = 1;
//  250                     break;
//  251                 }
//  252           }
??CrossCallReturnLabel_2:
        MOVX    A,@DPTR
        MOV     R1,A
        LCALL   ??APSME_BindRequest?relay
        MOV     A,#0x1
        LCALL   ?DEALLOC_XSTACK8
        CFI CFA_XSP16 add(XSP16, 20)
        MOV     A,R1
        JNZ     ??Key_ProcessZDOMsgs_1
        INC     ?V0 + 2
        MOV     A,?V0 + 2
        CLR     C
        SUBB    A,#0x4
        JC      ??Key_ProcessZDOMsgs_3
//  253           if(ret == ZSuccess)
//  254           {
//  255             osal_stop_timerEx(Key_TaskID,  KEY_BIND_TIMER);
        ; Setup parameters for call to function osal_stop_timerEx
        MOV     R2,#0x21
        MOV     R3,#0x0
        MOV     DPTR,#Key_TaskID
        MOVX    A,@DPTR
        MOV     R1,A
        LCALL   ??osal_stop_timerEx?relay
//  256             osal_start_timerEx( ZDAppTaskID, ZDO_NWK_UPDATE_NV, 250 );
        ; Setup parameters for call to function osal_start_timerEx
        LCALL   ?Subroutine5 & 0xFFFF
//  257             // Find IEEE addr
//  258             ZDP_IEEEAddrReq( pRsp->nwkAddr, ZDP_ADDR_REQTYPE_SINGLE, 0, 0 );
??CrossCallReturnLabel_16:
        ; Setup parameters for call to function ZDP_IEEEAddrReq
        MOV     R5,#0x0
        MOV     R4,#0x0
        MOV     R1,#0x0
        MOV     DPL,R6
        MOV     DPH,R7
        INC     DPTR
        LCALL   ??Subroutine11_0 & 0xFFFF
??CrossCallReturnLabel_19:
        LCALL   ??ZDP_IEEEAddrReq?relay
//  259             // Send bind confirm callback to application
//  260             Sys_BindConfirm( key_bindInProgress, ZB_SUCCESS );
        ; Setup parameters for call to function Sys_BindConfirm
        MOV     R1,#0x0
        LCALL   ?Subroutine2 & 0xFFFF
//  261             key_bindInProgress = 0xffff;
//  262             keyCnt++;
??CrossCallReturnLabel_5:
        MOV     DPTR,#keyCnt
        MOVX    A,@DPTR
        INC     A
        MOVX    @DPTR,A
//  263           }
//  264           else
//  265           {
//  266                 // ClusterID wrong
//  267           }
//  268         }
//  269       }
//  270     break;
//  271   }
//  272 }
??Key_ProcessZDOMsgs_1:
        MOV     A,#0x9
        LCALL   ?DEALLOC_XSTACK8
        CFI CFA_XSP16 add(XSP16, 11)
        MOV     R7,#0x3
        LJMP    ?BANKED_LEAVE_XDATA
        CFI EndBlock cfiBlock11

        RSEG BANKED_CODE:CODE:NOROOT(0)
?Subroutine5:
        CFI Block cfiCond12 Using cfiCommon0
        CFI NoFunction
        CFI Conditional ??CrossCallReturnLabel_16
        CFI R6 load(1, XDATA, add(CFA_XSP16, literal(-11)))
        CFI VB load(1, XDATA, add(CFA_XSP16, literal(-10)))
        CFI V0 load(1, XDATA, add(CFA_XSP16, literal(-9)))
        CFI V1 load(1, XDATA, add(CFA_XSP16, literal(-8)))
        CFI V2 load(1, XDATA, add(CFA_XSP16, literal(-7)))
        CFI R7 load(1, XDATA, add(CFA_XSP16, literal(-6)))
        CFI ?RET_LOW load(1, XDATA, add(CFA_XSP16, literal(-5)))
        CFI ?RET_HIGH load(1, XDATA, add(CFA_XSP16, literal(-4)))
        CFI ?BRET_EXT load(1, XDATA, add(CFA_XSP16, literal(-3)))
        CFI DPL0 load(1, XDATA, add(CFA_XSP16, literal(-2)))
        CFI DPH0 load(1, XDATA, add(CFA_XSP16, literal(-1)))
        CFI CFA_SP SP+0
        CFI CFA_XSP16 add(XSP16, 20)
        CFI Block cfiCond13 Using cfiCommon0
        CFI (cfiCond13) NoFunction
        CFI (cfiCond13) Conditional ??CrossCallReturnLabel_17
        CFI (cfiCond13) R6 load(1, XDATA, add(CFA_XSP16, literal(-14)))
        CFI (cfiCond13) VB load(1, XDATA, add(CFA_XSP16, literal(-13)))
        CFI (cfiCond13) V0 load(1, XDATA, add(CFA_XSP16, literal(-12)))
        CFI (cfiCond13) V1 load(1, XDATA, add(CFA_XSP16, literal(-11)))
        CFI (cfiCond13) V2 load(1, XDATA, add(CFA_XSP16, literal(-10)))
        CFI (cfiCond13) V3 load(1, XDATA, add(CFA_XSP16, literal(-9)))
        CFI (cfiCond13) V4 load(1, XDATA, add(CFA_XSP16, literal(-8)))
        CFI (cfiCond13) V5 load(1, XDATA, add(CFA_XSP16, literal(-7)))
        CFI (cfiCond13) R7 load(1, XDATA, add(CFA_XSP16, literal(-6)))
        CFI (cfiCond13) ?RET_LOW load(1, XDATA, add(CFA_XSP16, literal(-5)))
        CFI (cfiCond13) ?RET_HIGH load(1, XDATA, add(CFA_XSP16, literal(-4)))
        CFI (cfiCond13) ?BRET_EXT load(1, XDATA, add(CFA_XSP16, literal(-3)))
        CFI (cfiCond13) DPL0 load(1, XDATA, add(CFA_XSP16, literal(-2)))
        CFI (cfiCond13) DPH0 load(1, XDATA, add(CFA_XSP16, literal(-1)))
        CFI (cfiCond13) CFA_SP SP+0
        CFI (cfiCond13) CFA_XSP16 add(XSP16, 23)
        CFI Block cfiPicker14 Using cfiCommon1
        CFI (cfiPicker14) NoFunction
        CFI (cfiPicker14) Picker
        MOV     R4,#-0x6
        MOV     R5,#0x0
        MOV     R2,#0x0
        MOV     R3,#0x2
        MOV     DPTR,#ZDAppTaskID
        CFI EndBlock cfiCond12
        CFI EndBlock cfiCond13
        CFI EndBlock cfiPicker14
        REQUIRE ??Subroutine10_0
        ; // Fall through to label ??Subroutine10_0

        RSEG BANKED_CODE:CODE:NOROOT(0)
??Subroutine10_0:
        CFI Block cfiCond15 Using cfiCommon0
        CFI NoFunction
        CFI Conditional ??CrossCallReturnLabel_18
        CFI R6 load(1, XDATA, add(CFA_XSP16, literal(-14)))
        CFI VB load(1, XDATA, add(CFA_XSP16, literal(-13)))
        CFI V0 load(1, XDATA, add(CFA_XSP16, literal(-12)))
        CFI V1 load(1, XDATA, add(CFA_XSP16, literal(-11)))
        CFI V2 load(1, XDATA, add(CFA_XSP16, literal(-10)))
        CFI V3 load(1, XDATA, add(CFA_XSP16, literal(-9)))
        CFI V4 load(1, XDATA, add(CFA_XSP16, literal(-8)))
        CFI V5 load(1, XDATA, add(CFA_XSP16, literal(-7)))
        CFI R7 load(1, XDATA, add(CFA_XSP16, literal(-6)))
        CFI ?RET_LOW load(1, XDATA, add(CFA_XSP16, literal(-5)))
        CFI ?RET_HIGH load(1, XDATA, add(CFA_XSP16, literal(-4)))
        CFI ?BRET_EXT load(1, XDATA, add(CFA_XSP16, literal(-3)))
        CFI DPL0 load(1, XDATA, add(CFA_XSP16, literal(-2)))
        CFI DPH0 load(1, XDATA, add(CFA_XSP16, literal(-1)))
        CFI CFA_SP SP+0
        CFI CFA_XSP16 add(XSP16, 23)
        CFI Block cfiCond16 Using cfiCommon0
        CFI (cfiCond16) NoFunction
        CFI (cfiCond16) Conditional ??CrossCallReturnLabel_16
        CFI (cfiCond16) R6 load(1, XDATA, add(CFA_XSP16, literal(-11)))
        CFI (cfiCond16) VB load(1, XDATA, add(CFA_XSP16, literal(-10)))
        CFI (cfiCond16) V0 load(1, XDATA, add(CFA_XSP16, literal(-9)))
        CFI (cfiCond16) V1 load(1, XDATA, add(CFA_XSP16, literal(-8)))
        CFI (cfiCond16) V2 load(1, XDATA, add(CFA_XSP16, literal(-7)))
        CFI (cfiCond16) R7 load(1, XDATA, add(CFA_XSP16, literal(-6)))
        CFI (cfiCond16) ?RET_LOW load(1, XDATA, add(CFA_XSP16, literal(-5)))
        CFI (cfiCond16) ?RET_HIGH load(1, XDATA, add(CFA_XSP16, literal(-4)))
        CFI (cfiCond16) ?BRET_EXT load(1, XDATA, add(CFA_XSP16, literal(-3)))
        CFI (cfiCond16) DPL0 load(1, XDATA, add(CFA_XSP16, literal(-2)))
        CFI (cfiCond16) DPH0 load(1, XDATA, add(CFA_XSP16, literal(-1)))
        CFI (cfiCond16) CFA_SP SP+0
        CFI (cfiCond16) CFA_XSP16 add(XSP16, 20)
        CFI Block cfiCond17 Using cfiCommon0
        CFI (cfiCond17) NoFunction
        CFI (cfiCond17) Conditional ??CrossCallReturnLabel_17
        CFI (cfiCond17) R6 load(1, XDATA, add(CFA_XSP16, literal(-14)))
        CFI (cfiCond17) VB load(1, XDATA, add(CFA_XSP16, literal(-13)))
        CFI (cfiCond17) V0 load(1, XDATA, add(CFA_XSP16, literal(-12)))
        CFI (cfiCond17) V1 load(1, XDATA, add(CFA_XSP16, literal(-11)))
        CFI (cfiCond17) V2 load(1, XDATA, add(CFA_XSP16, literal(-10)))
        CFI (cfiCond17) V3 load(1, XDATA, add(CFA_XSP16, literal(-9)))
        CFI (cfiCond17) V4 load(1, XDATA, add(CFA_XSP16, literal(-8)))
        CFI (cfiCond17) V5 load(1, XDATA, add(CFA_XSP16, literal(-7)))
        CFI (cfiCond17) R7 load(1, XDATA, add(CFA_XSP16, literal(-6)))
        CFI (cfiCond17) ?RET_LOW load(1, XDATA, add(CFA_XSP16, literal(-5)))
        CFI (cfiCond17) ?RET_HIGH load(1, XDATA, add(CFA_XSP16, literal(-4)))
        CFI (cfiCond17) ?BRET_EXT load(1, XDATA, add(CFA_XSP16, literal(-3)))
        CFI (cfiCond17) DPL0 load(1, XDATA, add(CFA_XSP16, literal(-2)))
        CFI (cfiCond17) DPH0 load(1, XDATA, add(CFA_XSP16, literal(-1)))
        CFI (cfiCond17) CFA_SP SP+0
        CFI (cfiCond17) CFA_XSP16 add(XSP16, 23)
        CFI Block cfiPicker18 Using cfiCommon1
        CFI (cfiPicker18) NoFunction
        CFI (cfiPicker18) Picker
        MOVX    A,@DPTR
        MOV     R1,A
        LCALL   ??osal_start_timerEx?relay
        RET
        CFI EndBlock cfiCond15
        CFI EndBlock cfiCond16
        CFI EndBlock cfiCond17
        CFI EndBlock cfiPicker18

        RSEG BANKED_CODE:CODE:NOROOT(0)
?Subroutine2:
        CFI Block cfiCond19 Using cfiCommon0
        CFI NoFunction
        CFI Conditional ??CrossCallReturnLabel_4
        CFI R6 load(1, XDATA, add(CFA_XSP16, literal(-22)))
        CFI VB load(1, XDATA, add(CFA_XSP16, literal(-21)))
        CFI V0 load(1, XDATA, add(CFA_XSP16, literal(-20)))
        CFI V1 load(1, XDATA, add(CFA_XSP16, literal(-19)))
        CFI V2 load(1, XDATA, add(CFA_XSP16, literal(-18)))
        CFI V3 load(1, XDATA, add(CFA_XSP16, literal(-17)))
        CFI V4 load(1, XDATA, add(CFA_XSP16, literal(-16)))
        CFI V5 load(1, XDATA, add(CFA_XSP16, literal(-15)))
        CFI V6 load(1, XDATA, add(CFA_XSP16, literal(-14)))
        CFI V7 load(1, XDATA, add(CFA_XSP16, literal(-13)))
        CFI V8 load(1, XDATA, add(CFA_XSP16, literal(-12)))
        CFI V9 load(1, XDATA, add(CFA_XSP16, literal(-11)))
        CFI V10 load(1, XDATA, add(CFA_XSP16, literal(-10)))
        CFI V11 load(1, XDATA, add(CFA_XSP16, literal(-9)))
        CFI V12 load(1, XDATA, add(CFA_XSP16, literal(-8)))
        CFI V13 load(1, XDATA, add(CFA_XSP16, literal(-7)))
        CFI R7 load(1, XDATA, add(CFA_XSP16, literal(-6)))
        CFI ?RET_LOW load(1, XDATA, add(CFA_XSP16, literal(-5)))
        CFI ?RET_HIGH load(1, XDATA, add(CFA_XSP16, literal(-4)))
        CFI ?BRET_EXT load(1, XDATA, add(CFA_XSP16, literal(-3)))
        CFI DPL0 load(1, XDATA, add(CFA_XSP16, literal(-2)))
        CFI DPH0 load(1, XDATA, add(CFA_XSP16, literal(-1)))
        CFI CFA_SP SP+0
        CFI CFA_XSP16 add(XSP16, 22)
        CFI Block cfiCond20 Using cfiCommon0
        CFI (cfiCond20) NoFunction
        CFI (cfiCond20) Conditional ??CrossCallReturnLabel_5
        CFI (cfiCond20) R6 load(1, XDATA, add(CFA_XSP16, literal(-11)))
        CFI (cfiCond20) VB load(1, XDATA, add(CFA_XSP16, literal(-10)))
        CFI (cfiCond20) V0 load(1, XDATA, add(CFA_XSP16, literal(-9)))
        CFI (cfiCond20) V1 load(1, XDATA, add(CFA_XSP16, literal(-8)))
        CFI (cfiCond20) V2 load(1, XDATA, add(CFA_XSP16, literal(-7)))
        CFI (cfiCond20) R7 load(1, XDATA, add(CFA_XSP16, literal(-6)))
        CFI (cfiCond20) ?RET_LOW load(1, XDATA, add(CFA_XSP16, literal(-5)))
        CFI (cfiCond20) ?RET_HIGH load(1, XDATA, add(CFA_XSP16, literal(-4)))
        CFI (cfiCond20) ?BRET_EXT load(1, XDATA, add(CFA_XSP16, literal(-3)))
        CFI (cfiCond20) DPL0 load(1, XDATA, add(CFA_XSP16, literal(-2)))
        CFI (cfiCond20) DPH0 load(1, XDATA, add(CFA_XSP16, literal(-1)))
        CFI (cfiCond20) CFA_SP SP+0
        CFI (cfiCond20) CFA_XSP16 add(XSP16, 20)
        CFI Block cfiPicker21 Using cfiCommon1
        CFI (cfiPicker21) NoFunction
        CFI (cfiPicker21) Picker
        MOV     DPTR,#key_bindInProgress
        LCALL   ??Subroutine11_0 & 0xFFFF
??CrossCallReturnLabel_20:
        LCALL   ??Sys_BindConfirm?relay
        MOV     DPTR,#key_bindInProgress
        MOV     A,#-0x1
        MOVX    @DPTR,A
        INC     DPTR
        MOVX    @DPTR,A
        RET
        CFI EndBlock cfiCond19
        CFI EndBlock cfiCond20
        CFI EndBlock cfiPicker21
//  273 
//  274 /******************************************************************************
//  275  * @fn          Key_BindDevice
//  276  *
//  277  * @brief       The zb_BindDevice function establishes or removes a binding? *              between two devices.  Once bound, an application can send
//  278  *              messages to a device by referencing the commandId for the
//  279  *              binding.
//  280  *
//  281  * @param       create - TRUE to create a binding, FALSE to remove a binding
//  282  *              commandId - The identifier of the binding
//  283  *              pDestination - The 64-bit IEEE address of the device to bind to
//  284  *
//  285  * @return      The status of the bind operation is returned in the
//  286  *              Sys_BindConfirm callback.
//  287  */

        RSEG BANKED_CODE:CODE:NOROOT(0)
?Subroutine7:
        CFI Block cfiCond22 Using cfiCommon0
        CFI NoFunction
        CFI Conditional ??CrossCallReturnLabel_21
        CFI R6 load(1, XDATA, add(CFA_XSP16, literal(-14)))
        CFI VB load(1, XDATA, add(CFA_XSP16, literal(-13)))
        CFI V0 load(1, XDATA, add(CFA_XSP16, literal(-12)))
        CFI V1 load(1, XDATA, add(CFA_XSP16, literal(-11)))
        CFI V2 load(1, XDATA, add(CFA_XSP16, literal(-10)))
        CFI V3 load(1, XDATA, add(CFA_XSP16, literal(-9)))
        CFI V4 load(1, XDATA, add(CFA_XSP16, literal(-8)))
        CFI V5 load(1, XDATA, add(CFA_XSP16, literal(-7)))
        CFI R7 load(1, XDATA, add(CFA_XSP16, literal(-6)))
        CFI ?RET_LOW load(1, XDATA, add(CFA_XSP16, literal(-5)))
        CFI ?RET_HIGH load(1, XDATA, add(CFA_XSP16, literal(-4)))
        CFI ?BRET_EXT load(1, XDATA, add(CFA_XSP16, literal(-3)))
        CFI DPL0 load(1, XDATA, add(CFA_XSP16, literal(-2)))
        CFI DPH0 load(1, XDATA, add(CFA_XSP16, literal(-1)))
        CFI CFA_SP SP+0
        CFI CFA_XSP16 add(XSP16, 24)
        CFI Block cfiCond23 Using cfiCommon0
        CFI (cfiCond23) NoFunction
        CFI (cfiCond23) Conditional ??CrossCallReturnLabel_22
        CFI (cfiCond23) R6 load(1, XDATA, add(CFA_XSP16, literal(-14)))
        CFI (cfiCond23) VB load(1, XDATA, add(CFA_XSP16, literal(-13)))
        CFI (cfiCond23) V0 load(1, XDATA, add(CFA_XSP16, literal(-12)))
        CFI (cfiCond23) V1 load(1, XDATA, add(CFA_XSP16, literal(-11)))
        CFI (cfiCond23) V2 load(1, XDATA, add(CFA_XSP16, literal(-10)))
        CFI (cfiCond23) V3 load(1, XDATA, add(CFA_XSP16, literal(-9)))
        CFI (cfiCond23) V4 load(1, XDATA, add(CFA_XSP16, literal(-8)))
        CFI (cfiCond23) V5 load(1, XDATA, add(CFA_XSP16, literal(-7)))
        CFI (cfiCond23) R7 load(1, XDATA, add(CFA_XSP16, literal(-6)))
        CFI (cfiCond23) ?RET_LOW load(1, XDATA, add(CFA_XSP16, literal(-5)))
        CFI (cfiCond23) ?RET_HIGH load(1, XDATA, add(CFA_XSP16, literal(-4)))
        CFI (cfiCond23) ?BRET_EXT load(1, XDATA, add(CFA_XSP16, literal(-3)))
        CFI (cfiCond23) DPL0 load(1, XDATA, add(CFA_XSP16, literal(-2)))
        CFI (cfiCond23) DPH0 load(1, XDATA, add(CFA_XSP16, literal(-1)))
        CFI (cfiCond23) CFA_SP SP+0
        CFI (cfiCond23) CFA_XSP16 add(XSP16, 23)
        CFI Block cfiPicker24 Using cfiCommon1
        CFI (cfiPicker24) NoFunction
        CFI (cfiPicker24) Picker
        MOV     DPL,?V0 + 2
        MOV     DPH,?V0 + 3
        CFI EndBlock cfiCond22
        CFI EndBlock cfiCond23
        CFI EndBlock cfiPicker24
        REQUIRE ??Subroutine11_0
        ; // Fall through to label ??Subroutine11_0

        RSEG BANKED_CODE:CODE:NOROOT(0)
??Subroutine11_0:
        CFI Block cfiCond25 Using cfiCommon0
        CFI NoFunction
        CFI Conditional ??CrossCallReturnLabel_19
        CFI R6 load(1, XDATA, add(CFA_XSP16, literal(-11)))
        CFI VB load(1, XDATA, add(CFA_XSP16, literal(-10)))
        CFI V0 load(1, XDATA, add(CFA_XSP16, literal(-9)))
        CFI V1 load(1, XDATA, add(CFA_XSP16, literal(-8)))
        CFI V2 load(1, XDATA, add(CFA_XSP16, literal(-7)))
        CFI R7 load(1, XDATA, add(CFA_XSP16, literal(-6)))
        CFI ?RET_LOW load(1, XDATA, add(CFA_XSP16, literal(-5)))
        CFI ?RET_HIGH load(1, XDATA, add(CFA_XSP16, literal(-4)))
        CFI ?BRET_EXT load(1, XDATA, add(CFA_XSP16, literal(-3)))
        CFI DPL0 load(1, XDATA, add(CFA_XSP16, literal(-2)))
        CFI DPH0 load(1, XDATA, add(CFA_XSP16, literal(-1)))
        CFI CFA_SP SP+0
        CFI CFA_XSP16 add(XSP16, 20)
        CFI Block cfiCond26 Using cfiCommon0
        CFI (cfiCond26) NoFunction
        CFI (cfiCond26) Conditional ??CrossCallReturnLabel_20, ??CrossCallReturnLabel_4
        CFI (cfiCond26) R6 load(1, XDATA, add(CFA_XSP16, literal(-22)))
        CFI (cfiCond26) VB load(1, XDATA, add(CFA_XSP16, literal(-21)))
        CFI (cfiCond26) V0 load(1, XDATA, add(CFA_XSP16, literal(-20)))
        CFI (cfiCond26) V1 load(1, XDATA, add(CFA_XSP16, literal(-19)))
        CFI (cfiCond26) V2 load(1, XDATA, add(CFA_XSP16, literal(-18)))
        CFI (cfiCond26) V3 load(1, XDATA, add(CFA_XSP16, literal(-17)))
        CFI (cfiCond26) V4 load(1, XDATA, add(CFA_XSP16, literal(-16)))
        CFI (cfiCond26) V5 load(1, XDATA, add(CFA_XSP16, literal(-15)))
        CFI (cfiCond26) V6 load(1, XDATA, add(CFA_XSP16, literal(-14)))
        CFI (cfiCond26) V7 load(1, XDATA, add(CFA_XSP16, literal(-13)))
        CFI (cfiCond26) V8 load(1, XDATA, add(CFA_XSP16, literal(-12)))
        CFI (cfiCond26) V9 load(1, XDATA, add(CFA_XSP16, literal(-11)))
        CFI (cfiCond26) V10 load(1, XDATA, add(CFA_XSP16, literal(-10)))
        CFI (cfiCond26) V11 load(1, XDATA, add(CFA_XSP16, literal(-9)))
        CFI (cfiCond26) V12 load(1, XDATA, add(CFA_XSP16, literal(-8)))
        CFI (cfiCond26) V13 load(1, XDATA, add(CFA_XSP16, literal(-7)))
        CFI (cfiCond26) R7 load(1, XDATA, add(CFA_XSP16, literal(-6)))
        CFI (cfiCond26) ?RET_LOW load(1, XDATA, add(CFA_XSP16, literal(-5)))
        CFI (cfiCond26) ?RET_HIGH load(1, XDATA, add(CFA_XSP16, literal(-4)))
        CFI (cfiCond26) ?BRET_EXT load(1, XDATA, add(CFA_XSP16, literal(-3)))
        CFI (cfiCond26) DPL0 load(1, XDATA, add(CFA_XSP16, literal(-2)))
        CFI (cfiCond26) DPH0 load(1, XDATA, add(CFA_XSP16, literal(-1)))
        CFI (cfiCond26) CFA_SP SP+0
        CFI (cfiCond26) CFA_XSP16 add(XSP16, 22)
        CFI Block cfiCond27 Using cfiCommon0
        CFI (cfiCond27) NoFunction
        CFI (cfiCond27) Conditional ??CrossCallReturnLabel_20, ??CrossCallReturnLabel_5
        CFI (cfiCond27) R6 load(1, XDATA, add(CFA_XSP16, literal(-11)))
        CFI (cfiCond27) VB load(1, XDATA, add(CFA_XSP16, literal(-10)))
        CFI (cfiCond27) V0 load(1, XDATA, add(CFA_XSP16, literal(-9)))
        CFI (cfiCond27) V1 load(1, XDATA, add(CFA_XSP16, literal(-8)))
        CFI (cfiCond27) V2 load(1, XDATA, add(CFA_XSP16, literal(-7)))
        CFI (cfiCond27) R7 load(1, XDATA, add(CFA_XSP16, literal(-6)))
        CFI (cfiCond27) ?RET_LOW load(1, XDATA, add(CFA_XSP16, literal(-5)))
        CFI (cfiCond27) ?RET_HIGH load(1, XDATA, add(CFA_XSP16, literal(-4)))
        CFI (cfiCond27) ?BRET_EXT load(1, XDATA, add(CFA_XSP16, literal(-3)))
        CFI (cfiCond27) DPL0 load(1, XDATA, add(CFA_XSP16, literal(-2)))
        CFI (cfiCond27) DPH0 load(1, XDATA, add(CFA_XSP16, literal(-1)))
        CFI (cfiCond27) CFA_SP SP+0
        CFI (cfiCond27) CFA_XSP16 add(XSP16, 20)
        CFI Block cfiCond28 Using cfiCommon0
        CFI (cfiCond28) NoFunction
        CFI (cfiCond28) Conditional ??CrossCallReturnLabel_21
        CFI (cfiCond28) R6 load(1, XDATA, add(CFA_XSP16, literal(-14)))
        CFI (cfiCond28) VB load(1, XDATA, add(CFA_XSP16, literal(-13)))
        CFI (cfiCond28) V0 load(1, XDATA, add(CFA_XSP16, literal(-12)))
        CFI (cfiCond28) V1 load(1, XDATA, add(CFA_XSP16, literal(-11)))
        CFI (cfiCond28) V2 load(1, XDATA, add(CFA_XSP16, literal(-10)))
        CFI (cfiCond28) V3 load(1, XDATA, add(CFA_XSP16, literal(-9)))
        CFI (cfiCond28) V4 load(1, XDATA, add(CFA_XSP16, literal(-8)))
        CFI (cfiCond28) V5 load(1, XDATA, add(CFA_XSP16, literal(-7)))
        CFI (cfiCond28) R7 load(1, XDATA, add(CFA_XSP16, literal(-6)))
        CFI (cfiCond28) ?RET_LOW load(1, XDATA, add(CFA_XSP16, literal(-5)))
        CFI (cfiCond28) ?RET_HIGH load(1, XDATA, add(CFA_XSP16, literal(-4)))
        CFI (cfiCond28) ?BRET_EXT load(1, XDATA, add(CFA_XSP16, literal(-3)))
        CFI (cfiCond28) DPL0 load(1, XDATA, add(CFA_XSP16, literal(-2)))
        CFI (cfiCond28) DPH0 load(1, XDATA, add(CFA_XSP16, literal(-1)))
        CFI (cfiCond28) CFA_SP SP+0
        CFI (cfiCond28) CFA_XSP16 add(XSP16, 24)
        CFI Block cfiCond29 Using cfiCommon0
        CFI (cfiCond29) NoFunction
        CFI (cfiCond29) Conditional ??CrossCallReturnLabel_22
        CFI (cfiCond29) R6 load(1, XDATA, add(CFA_XSP16, literal(-14)))
        CFI (cfiCond29) VB load(1, XDATA, add(CFA_XSP16, literal(-13)))
        CFI (cfiCond29) V0 load(1, XDATA, add(CFA_XSP16, literal(-12)))
        CFI (cfiCond29) V1 load(1, XDATA, add(CFA_XSP16, literal(-11)))
        CFI (cfiCond29) V2 load(1, XDATA, add(CFA_XSP16, literal(-10)))
        CFI (cfiCond29) V3 load(1, XDATA, add(CFA_XSP16, literal(-9)))
        CFI (cfiCond29) V4 load(1, XDATA, add(CFA_XSP16, literal(-8)))
        CFI (cfiCond29) V5 load(1, XDATA, add(CFA_XSP16, literal(-7)))
        CFI (cfiCond29) R7 load(1, XDATA, add(CFA_XSP16, literal(-6)))
        CFI (cfiCond29) ?RET_LOW load(1, XDATA, add(CFA_XSP16, literal(-5)))
        CFI (cfiCond29) ?RET_HIGH load(1, XDATA, add(CFA_XSP16, literal(-4)))
        CFI (cfiCond29) ?BRET_EXT load(1, XDATA, add(CFA_XSP16, literal(-3)))
        CFI (cfiCond29) DPL0 load(1, XDATA, add(CFA_XSP16, literal(-2)))
        CFI (cfiCond29) DPH0 load(1, XDATA, add(CFA_XSP16, literal(-1)))
        CFI (cfiCond29) CFA_SP SP+0
        CFI (cfiCond29) CFA_XSP16 add(XSP16, 23)
        CFI Block cfiPicker30 Using cfiCommon1
        CFI (cfiPicker30) NoFunction
        CFI (cfiPicker30) Picker
        MOVX    A,@DPTR
        MOV     R2,A
        INC     DPTR
        MOVX    A,@DPTR
        MOV     R3,A
        RET
        CFI EndBlock cfiCond25
        CFI EndBlock cfiCond26
        CFI EndBlock cfiCond27
        CFI EndBlock cfiCond28
        CFI EndBlock cfiCond29
        CFI EndBlock cfiPicker30

        RSEG BANKED_CODE:CODE:NOROOT(0)
//  288 void Key_BindDevice ( uint8 create, uint8 endpoint, uint16 *commandId, uint8 *pDestination )
Key_BindDevice:
        CFI Block cfiBlock31 Using cfiCommon0
        CFI Function Key_BindDevice
        CODE
//  289 {
        FUNCALL Key_BindDevice, sAddrExtCpy
        LOCFRAME ISTACK, 0, STACK
        LOCFRAME PSTACK, 0, STACK
        LOCFRAME XSTACK, 23, STACK
        LOCFRAME IOVERLAY, 0, STATIC
        LOCFRAME DOVERLAY, 0, STATIC
        ARGFRAME ISTACK, 0, STACK
        ARGFRAME PSTACK, 0, STACK
        ARGFRAME XSTACK, 23, STACK
        ARGFRAME IOVERLAY, 0, STATIC
        ARGFRAME DOVERLAY, 0, STATIC
        FUNCALL Key_BindDevice, APSME_BindRequest
        LOCFRAME ISTACK, 0, STACK
        LOCFRAME PSTACK, 0, STACK
        LOCFRAME XSTACK, 24, STACK
        LOCFRAME IOVERLAY, 0, STATIC
        LOCFRAME DOVERLAY, 0, STATIC
        ARGFRAME ISTACK, 0, STACK
        ARGFRAME PSTACK, 0, STACK
        ARGFRAME XSTACK, 24, STACK
        ARGFRAME IOVERLAY, 0, STATIC
        ARGFRAME DOVERLAY, 0, STATIC
        FUNCALL Key_BindDevice, ZDP_NwkAddrReq
        LOCFRAME ISTACK, 0, STACK
        LOCFRAME PSTACK, 0, STACK
        LOCFRAME XSTACK, 23, STACK
        LOCFRAME IOVERLAY, 0, STATIC
        LOCFRAME DOVERLAY, 0, STATIC
        ARGFRAME ISTACK, 0, STACK
        ARGFRAME PSTACK, 0, STACK
        ARGFRAME XSTACK, 23, STACK
        ARGFRAME IOVERLAY, 0, STATIC
        ARGFRAME DOVERLAY, 0, STATIC
        FUNCALL Key_BindDevice, osal_start_timerEx
        LOCFRAME ISTACK, 0, STACK
        LOCFRAME PSTACK, 0, STACK
        LOCFRAME XSTACK, 23, STACK
        LOCFRAME IOVERLAY, 0, STATIC
        LOCFRAME DOVERLAY, 0, STATIC
        ARGFRAME ISTACK, 0, STACK
        ARGFRAME PSTACK, 0, STACK
        ARGFRAME XSTACK, 23, STACK
        ARGFRAME IOVERLAY, 0, STATIC
        ARGFRAME DOVERLAY, 0, STATIC
        FUNCALL Key_BindDevice, ZDO_AnyClusterMatches
        LOCFRAME ISTACK, 0, STACK
        LOCFRAME PSTACK, 0, STACK
        LOCFRAME XSTACK, 25, STACK
        LOCFRAME IOVERLAY, 0, STATIC
        LOCFRAME DOVERLAY, 0, STATIC
        ARGFRAME ISTACK, 0, STACK
        ARGFRAME PSTACK, 0, STACK
        ARGFRAME XSTACK, 25, STACK
        ARGFRAME IOVERLAY, 0, STATIC
        ARGFRAME DOVERLAY, 0, STATIC
        FUNCALL Key_BindDevice, ZDP_MatchDescReq
        LOCFRAME ISTACK, 0, STACK
        LOCFRAME PSTACK, 0, STACK
        LOCFRAME XSTACK, 31, STACK
        LOCFRAME IOVERLAY, 0, STATIC
        LOCFRAME DOVERLAY, 0, STATIC
        ARGFRAME ISTACK, 0, STACK
        ARGFRAME PSTACK, 0, STACK
        ARGFRAME XSTACK, 31, STACK
        ARGFRAME IOVERLAY, 0, STATIC
        ARGFRAME DOVERLAY, 0, STATIC
        FUNCALL Key_BindDevice, osal_start_timerEx
        LOCFRAME ISTACK, 0, STACK
        LOCFRAME PSTACK, 0, STACK
        LOCFRAME XSTACK, 23, STACK
        LOCFRAME IOVERLAY, 0, STATIC
        LOCFRAME DOVERLAY, 0, STATIC
        ARGFRAME ISTACK, 0, STACK
        ARGFRAME PSTACK, 0, STACK
        ARGFRAME XSTACK, 23, STACK
        ARGFRAME IOVERLAY, 0, STATIC
        ARGFRAME DOVERLAY, 0, STATIC
        FUNCALL Key_BindDevice, ZDO_AnyClusterMatches
        LOCFRAME ISTACK, 0, STACK
        LOCFRAME PSTACK, 0, STACK
        LOCFRAME XSTACK, 25, STACK
        LOCFRAME IOVERLAY, 0, STATIC
        LOCFRAME DOVERLAY, 0, STATIC
        ARGFRAME ISTACK, 0, STACK
        ARGFRAME PSTACK, 0, STACK
        ARGFRAME XSTACK, 25, STACK
        ARGFRAME IOVERLAY, 0, STATIC
        ARGFRAME DOVERLAY, 0, STATIC
        FUNCALL Key_BindDevice, bindRemoveEntry
        LOCFRAME ISTACK, 0, STACK
        LOCFRAME PSTACK, 0, STACK
        LOCFRAME XSTACK, 23, STACK
        LOCFRAME IOVERLAY, 0, STATIC
        LOCFRAME DOVERLAY, 0, STATIC
        ARGFRAME ISTACK, 0, STACK
        ARGFRAME PSTACK, 0, STACK
        ARGFRAME XSTACK, 23, STACK
        ARGFRAME IOVERLAY, 0, STATIC
        ARGFRAME DOVERLAY, 0, STATIC
        FUNCALL Key_BindDevice, bindFind
        LOCFRAME ISTACK, 0, STACK
        LOCFRAME PSTACK, 0, STACK
        LOCFRAME XSTACK, 23, STACK
        LOCFRAME IOVERLAY, 0, STATIC
        LOCFRAME DOVERLAY, 0, STATIC
        ARGFRAME ISTACK, 0, STACK
        ARGFRAME PSTACK, 0, STACK
        ARGFRAME XSTACK, 23, STACK
        ARGFRAME IOVERLAY, 0, STATIC
        ARGFRAME DOVERLAY, 0, STATIC
        FUNCALL Key_BindDevice, osal_start_timerEx
        LOCFRAME ISTACK, 0, STACK
        LOCFRAME PSTACK, 0, STACK
        LOCFRAME XSTACK, 23, STACK
        LOCFRAME IOVERLAY, 0, STATIC
        LOCFRAME DOVERLAY, 0, STATIC
        ARGFRAME ISTACK, 0, STACK
        ARGFRAME PSTACK, 0, STACK
        ARGFRAME XSTACK, 23, STACK
        ARGFRAME IOVERLAY, 0, STATIC
        ARGFRAME DOVERLAY, 0, STATIC
        MOV     A,#-0xe
        LCALL   ?BANKED_ENTER_XDATA
        CFI DPH0 load(1, XDATA, add(CFA_XSP16, literal(-1)))
        CFI DPL0 load(1, XDATA, add(CFA_XSP16, literal(-2)))
        CFI ?BRET_EXT load(1, XDATA, add(CFA_XSP16, literal(-3)))
        CFI ?RET_HIGH load(1, XDATA, add(CFA_XSP16, literal(-4)))
        CFI ?RET_LOW load(1, XDATA, add(CFA_XSP16, literal(-5)))
        CFI R7 load(1, XDATA, add(CFA_XSP16, literal(-6)))
        CFI V5 load(1, XDATA, add(CFA_XSP16, literal(-7)))
        CFI V4 load(1, XDATA, add(CFA_XSP16, literal(-8)))
        CFI V3 load(1, XDATA, add(CFA_XSP16, literal(-9)))
        CFI V2 load(1, XDATA, add(CFA_XSP16, literal(-10)))
        CFI V1 load(1, XDATA, add(CFA_XSP16, literal(-11)))
        CFI V0 load(1, XDATA, add(CFA_XSP16, literal(-12)))
        CFI VB load(1, XDATA, add(CFA_XSP16, literal(-13)))
        CFI R6 load(1, XDATA, add(CFA_XSP16, literal(-14)))
        CFI CFA_SP SP+0
        CFI CFA_XSP16 add(XSP16, 14)
        ; Saved register size: 14
        ; Auto size: 9
        MOV     A,#-0x9
        LCALL   ?ALLOC_XSTACK8
        CFI CFA_XSP16 add(XSP16, 23)
        MOV     ?V0 + 0,R2
        MOV     ?V0 + 2,R4
        MOV     ?V0 + 3,R5
        MOV     A,#0x17
        LCALL   ?XSTACK_DISP0_8
        MOVX    A,@DPTR
        MOV     R6,A
        INC     DPTR
        MOVX    A,@DPTR
        MOV     R7,A
//  290   zAddrType_t destination;
//  291   uint8 ret = ZB_ALREADY_IN_PROGRESS;
//  292 
//  293   if ( create )
        MOV     A,R1
        JNZ     $+5
        LJMP    ??Key_BindDevice_0 & 0xFFFF
//  294   {
//  295     if (key_bindInProgress == 0xffff)
        MOV     DPTR,#key_bindInProgress
        MOVX    A,@DPTR
        CPL     A
        JNZ     ??Key_BindDevice_1
        INC     DPTR
        MOVX    A,@DPTR
        CPL     A
??Key_BindDevice_1:
        JZ      $+5
        LJMP    ??CrossCallReturnLabel_17 & 0xFFFF
//  296     {
//  297       if ( pDestination )
        MOV     A,R6
        ORL     A,R7
        JZ      ??Key_BindDevice_2
//  298       {
//  299         destination.addrMode = Addr64Bit;
        MOV     A,#0x8
        LCALL   ?XSTACK_DISP0_8
        MOV     A,#0x3
        MOVX    @DPTR,A
//  300         osal_cpyExtAddr( destination.addr.extAddr, pDestination );
        ; Setup parameters for call to function sAddrExtCpy
        MOV     A,R6
        MOV     R4,A
        MOV     A,R7
        MOV     R5,A
        MOV     DPL,?XSP + 0
        MOV     DPH,?XSP + 1
        MOV     R2,DPL
        MOV     R3,DPH
        LCALL   ??sAddrExtCpy?relay
//  301           // srcEndpoint, dstEndpoint
//  302         ret = APSME_BindRequest( endpoint, commandId[0],
//  303                                             &destination, endpoint );
//  304 
//  305         if ( ret == ZSuccess )
        ; Setup parameters for call to function APSME_BindRequest
        MOV     A,?V0 + 0
        MOV     ?V0 + 4,A
        MOV     R0,#?V0 + 4
        LCALL   ?PUSH_XSTACK_I_ONE
        CFI CFA_XSP16 add(XSP16, 24)
        MOV     A,#0x1
        LCALL   ?XSTACK_DISP0_8
        MOV     R4,DPL
        MOV     R5,DPH
        LCALL   ?Subroutine7 & 0xFFFF
??CrossCallReturnLabel_21:
        MOV     R1,?V0 + 0
        LCALL   ??APSME_BindRequest?relay
        MOV     A,#0x1
        LCALL   ?DEALLOC_XSTACK8
        CFI CFA_XSP16 add(XSP16, 23)
        MOV     A,R1
        JZ      $+5
        LJMP    ??CrossCallReturnLabel_17 & 0xFFFF
//  306         {
//  307           // Find nwk addr
//  308           ZDP_NwkAddrReq(pDestination, ZDP_ADDR_REQTYPE_SINGLE, 0, 0 );
        ; Setup parameters for call to function ZDP_NwkAddrReq
        MOV     R5,#0x0
        MOV     R4,#0x0
        MOV     R1,#0x0
        MOV     A,R6
        MOV     R2,A
        MOV     A,R7
        MOV     R3,A
        LCALL   ??ZDP_NwkAddrReq?relay
//  309           osal_start_timerEx( ZDAppTaskID, ZDO_NWK_UPDATE_NV, 250 );
        ; Setup parameters for call to function osal_start_timerEx
        LJMP    ??Key_BindDevice_3 & 0xFFFF
//  310         }
//  311       }
//  312       else
//  313       {
//  314         ret = ZB_INVALID_PARAMETER;
//  315         destination.addrMode = Addr16Bit;
??Key_BindDevice_2:
        MOV     A,#0x8
        LCALL   ?XSTACK_DISP0_8
        MOV     A,#0x2
        MOVX    @DPTR,A
//  316         destination.addr.shortAddr = NWK_BROADCAST_SHORTADDR;
        MOV     DPL,?XSP + 0
        MOV     DPH,?XSP + 1
        MOV     A,#-0x1
        MOVX    @DPTR,A
        INC     DPTR
        MOVX    @DPTR,A
        LCALL   ?Subroutine0 & 0xFFFF
??CrossCallReturnLabel_0:
        INC     DPTR
        INC     DPTR
        INC     DPTR
        LCALL   ?PUSH_XSTACK8_X_TWO
        CFI CFA_XSP16 add(XSP16, 25)
        MOV     DPL,R0
        MOV     DPH,R1
        INC     DPTR
        INC     DPTR
        INC     DPTR
        LCALL   ?Subroutine3 & 0xFFFF
??CrossCallReturnLabel_6:
        LCALL   ?DEALLOC_XSTACK8
        CFI CFA_XSP16 add(XSP16, 23)
        MOV     A,R1
        JZ      ??Key_BindDevice_4
//  317         if ( ZDO_AnyClusterMatches( KEY_MAX_CLUSTERS, commandId, Key_epDesc[keyCnt].simpleDesc->AppNumOutClusters,
//  318                                                 Key_epDesc[keyCnt].simpleDesc->pAppOutClusterList ) )
//  319         {
//  320           // Try to match with a device in the allow bind mode
//  321           ret = ZDP_MatchDescReq( &destination, NWK_BROADCAST_SHORTADDR,
//  322               Key_epDesc[keyCnt].simpleDesc->AppProfId, KEY_MAX_CLUSTERS, commandId, KEY_MAX_CLUSTERS, commandId, 0 );
//  323         }
//  324         else if ( ZDO_AnyClusterMatches( KEY_MAX_CLUSTERS, commandId, Key_epDesc[keyCnt].simpleDesc->AppNumInClusters,
//  325                                                 Key_epDesc[keyCnt].simpleDesc->pAppInClusterList ) )
//  326         {
//  327           ret = ZDP_MatchDescReq( &destination, NWK_BROADCAST_SHORTADDR,
//  328               Key_epDesc[keyCnt].simpleDesc->AppProfId, KEY_MAX_CLUSTERS, commandId, KEY_MAX_CLUSTERS, commandId, 0 );
//  329         }
//  330 
//  331         if ( ret == ZB_SUCCESS )
??Key_BindDevice_5:
        ; Setup parameters for call to function ZDP_MatchDescReq
        MOV     ?V0 + 4,#0x0
        MOV     R0,#?V0 + 4
        LCALL   ?PUSH_XSTACK_I_ONE
        CFI CFA_XSP16 add(XSP16, 24)
        MOV     R0,#?V0 + 2
        LCALL   ?PUSH_XSTACK_I_TWO
        CFI CFA_XSP16 add(XSP16, 26)
        MOV     ?V0 + 4,#0x4
        MOV     R0,#?V0 + 4
        LCALL   ?PUSH_XSTACK_I_ONE
        CFI CFA_XSP16 add(XSP16, 27)
        MOV     R0,#?V0 + 2
        LCALL   ?PUSH_XSTACK_I_TWO
        CFI CFA_XSP16 add(XSP16, 29)
        LCALL   ?Subroutine8 & 0xFFFF
??CrossCallReturnLabel_10:
        LCALL   ?Subroutine1 & 0xFFFF
??CrossCallReturnLabel_3:
        INC     DPTR
        LCALL   ?PUSH_XSTACK8_X_TWO
        CFI CFA_XSP16 add(XSP16, 31)
        MOV     R1,#0x4
        MOV     R4,#-0x1
        MOV     R5,#-0x1
        MOV     A,#0x8
        LCALL   ?XSTACK_DISP0_8
        MOV     R2,DPL
        MOV     R3,DPH
        LCALL   ??ZDP_MatchDescReq?relay
        MOV     A,#0x8
        LCALL   ?DEALLOC_XSTACK8
        CFI CFA_XSP16 add(XSP16, 23)
        MOV     A,R1
        JNZ     ??CrossCallReturnLabel_17
//  332         {
//  333           // Set a timer to make sure bind completes
//  334 #if ( ZG_BUILD_RTR_TYPE )
//  335           osal_start_timerEx(Key_TaskID, KEY_BIND_TIMER, AIB_MaxBindingTime);
        ; Setup parameters for call to function osal_start_timerEx
        MOV     DPTR,#AIB_MaxBindingTime
        MOVX    A,@DPTR
        MOV     R4,A
        INC     DPTR
        MOVX    A,@DPTR
        MOV     R5,A
        MOV     R2,#0x21
        MOV     R3,#0x0
        MOV     DPTR,#Key_TaskID
        LCALL   ??Subroutine10_0 & 0xFFFF
//  336 #else
//  337           // AIB_MaxBindingTime is not defined for an End Device
//  338           osal_start_timerEx(Key_TaskID, KEY_BIND_TIMER, zgApsDefaultMaxBindingTime);
//  339 #endif
//  340           key_bindInProgress = commandId[0];
??CrossCallReturnLabel_18:
        MOV     DPL,?V0 + 2
        MOV     DPH,?V0 + 3
        MOVX    A,@DPTR
        MOV     R0,A
        INC     DPTR
        MOVX    A,@DPTR
        MOV     R1,A
        MOV     DPTR,#key_bindInProgress
        MOV     A,R0
        MOVX    @DPTR,A
        INC     DPTR
        MOV     A,R1
        MOVX    @DPTR,A
//  341           return; // dont send cback event
        SJMP    ??CrossCallReturnLabel_17
//  342         }
//  343       }
//  344     }
//  345 
//  346   //  SAPI_SendCback( SAPICB_BIND_CNF, ret, commandId );
//  347   }
??Key_BindDevice_4:
        LCALL   ?Subroutine0 & 0xFFFF
??CrossCallReturnLabel_1:
        LCALL   ?PUSH_XSTACK8_X_TWO
        CFI CFA_XSP16 add(XSP16, 25)
        MOV     DPL,R0
        MOV     DPH,R1
        LCALL   ?Subroutine3 & 0xFFFF
??CrossCallReturnLabel_7:
        LCALL   ?DEALLOC_XSTACK8
        CFI CFA_XSP16 add(XSP16, 23)
        MOV     A,R1
        JNZ     ??Key_BindDevice_5
        SJMP    ??CrossCallReturnLabel_17
//  348   else
//  349   {
//  350     // Remove local bindings for the commandId
//  351     BindingEntry_t *pBind;
//  352 
//  353     // Loop through bindings an remove any that match the cluster
//  354     while ( pBind = bindFind( endpoint, commandId[0], 0 ) )
//  355     {
//  356       bindRemoveEntry(pBind);
??Key_BindDevice_6:
        ; Setup parameters for call to function bindRemoveEntry
        LCALL   ??bindRemoveEntry?relay
//  357     }
??Key_BindDevice_0:
        ; Setup parameters for call to function bindFind
        MOV     R4,#0x0
        LCALL   ?Subroutine7 & 0xFFFF
??CrossCallReturnLabel_22:
        MOV     R1,?V0 + 0
        LCALL   ??bindFind?relay
        MOV     A,R2
        ORL     A,R3
        JNZ     ??Key_BindDevice_6
//  358     osal_start_timerEx( ZDAppTaskID, ZDO_NWK_UPDATE_NV, 250 );
        ; Setup parameters for call to function osal_start_timerEx
//  359   }
??Key_BindDevice_3:
        LCALL   ?Subroutine5 & 0xFFFF
??CrossCallReturnLabel_17:
        MOV     A,#0x9
        LCALL   ?DEALLOC_XSTACK8
        CFI CFA_XSP16 add(XSP16, 14)
        MOV     R7,#0x6
        LJMP    ?BANKED_LEAVE_XDATA
        CFI EndBlock cfiBlock31
//  360   return;
//  361 }

        RSEG BANKED_CODE:CODE:NOROOT(0)
?Subroutine3:
        CFI Block cfiCond32 Using cfiCommon0
        CFI NoFunction
        CFI Conditional ??CrossCallReturnLabel_6
        CFI R6 load(1, XDATA, add(CFA_XSP16, literal(-14)))
        CFI VB load(1, XDATA, add(CFA_XSP16, literal(-13)))
        CFI V0 load(1, XDATA, add(CFA_XSP16, literal(-12)))
        CFI V1 load(1, XDATA, add(CFA_XSP16, literal(-11)))
        CFI V2 load(1, XDATA, add(CFA_XSP16, literal(-10)))
        CFI V3 load(1, XDATA, add(CFA_XSP16, literal(-9)))
        CFI V4 load(1, XDATA, add(CFA_XSP16, literal(-8)))
        CFI V5 load(1, XDATA, add(CFA_XSP16, literal(-7)))
        CFI R7 load(1, XDATA, add(CFA_XSP16, literal(-6)))
        CFI ?RET_LOW load(1, XDATA, add(CFA_XSP16, literal(-5)))
        CFI ?RET_HIGH load(1, XDATA, add(CFA_XSP16, literal(-4)))
        CFI ?BRET_EXT load(1, XDATA, add(CFA_XSP16, literal(-3)))
        CFI DPL0 load(1, XDATA, add(CFA_XSP16, literal(-2)))
        CFI DPH0 load(1, XDATA, add(CFA_XSP16, literal(-1)))
        CFI CFA_SP SP+0
        CFI CFA_XSP16 add(XSP16, 25)
        CFI Block cfiCond33 Using cfiCommon0
        CFI (cfiCond33) NoFunction
        CFI (cfiCond33) Conditional ??CrossCallReturnLabel_7
        CFI (cfiCond33) R6 load(1, XDATA, add(CFA_XSP16, literal(-14)))
        CFI (cfiCond33) VB load(1, XDATA, add(CFA_XSP16, literal(-13)))
        CFI (cfiCond33) V0 load(1, XDATA, add(CFA_XSP16, literal(-12)))
        CFI (cfiCond33) V1 load(1, XDATA, add(CFA_XSP16, literal(-11)))
        CFI (cfiCond33) V2 load(1, XDATA, add(CFA_XSP16, literal(-10)))
        CFI (cfiCond33) V3 load(1, XDATA, add(CFA_XSP16, literal(-9)))
        CFI (cfiCond33) V4 load(1, XDATA, add(CFA_XSP16, literal(-8)))
        CFI (cfiCond33) V5 load(1, XDATA, add(CFA_XSP16, literal(-7)))
        CFI (cfiCond33) R7 load(1, XDATA, add(CFA_XSP16, literal(-6)))
        CFI (cfiCond33) ?RET_LOW load(1, XDATA, add(CFA_XSP16, literal(-5)))
        CFI (cfiCond33) ?RET_HIGH load(1, XDATA, add(CFA_XSP16, literal(-4)))
        CFI (cfiCond33) ?BRET_EXT load(1, XDATA, add(CFA_XSP16, literal(-3)))
        CFI (cfiCond33) DPL0 load(1, XDATA, add(CFA_XSP16, literal(-2)))
        CFI (cfiCond33) DPH0 load(1, XDATA, add(CFA_XSP16, literal(-1)))
        CFI (cfiCond33) CFA_SP SP+0
        CFI (cfiCond33) CFA_XSP16 add(XSP16, 25)
        CFI Block cfiPicker34 Using cfiCommon1
        CFI (cfiPicker34) NoFunction
        CFI (cfiPicker34) Picker
        INC     DPTR
        INC     DPTR
        INC     DPTR
        INC     DPTR
        INC     DPTR
        INC     DPTR
        MOVX    A,@DPTR
        MOV     R4,A
        MOV     R2,?V0 + 2
        MOV     R3,?V0 + 3
        MOV     R1,#0x4
        LCALL   ??ZDO_AnyClusterMatches?relay
        MOV     A,#0x2
        RET
        CFI EndBlock cfiCond32
        CFI EndBlock cfiCond33
        CFI EndBlock cfiPicker34

        RSEG BANKED_CODE:CODE:NOROOT(0)
?Subroutine1:
        CFI Block cfiCond35 Using cfiCommon0
        CFI NoFunction
        CFI Conditional ??CrossCallReturnLabel_2
        CFI R6 load(1, XDATA, add(CFA_XSP16, literal(-11)))
        CFI VB load(1, XDATA, add(CFA_XSP16, literal(-10)))
        CFI V0 load(1, XDATA, add(CFA_XSP16, literal(-9)))
        CFI V1 load(1, XDATA, add(CFA_XSP16, literal(-8)))
        CFI V2 load(1, XDATA, add(CFA_XSP16, literal(-7)))
        CFI R7 load(1, XDATA, add(CFA_XSP16, literal(-6)))
        CFI ?RET_LOW load(1, XDATA, add(CFA_XSP16, literal(-5)))
        CFI ?RET_HIGH load(1, XDATA, add(CFA_XSP16, literal(-4)))
        CFI ?BRET_EXT load(1, XDATA, add(CFA_XSP16, literal(-3)))
        CFI DPL0 load(1, XDATA, add(CFA_XSP16, literal(-2)))
        CFI DPH0 load(1, XDATA, add(CFA_XSP16, literal(-1)))
        CFI CFA_SP SP+0
        CFI CFA_XSP16 add(XSP16, 21)
        CFI Block cfiCond36 Using cfiCommon0
        CFI (cfiCond36) NoFunction
        CFI (cfiCond36) Conditional ??CrossCallReturnLabel_3
        CFI (cfiCond36) R6 load(1, XDATA, add(CFA_XSP16, literal(-14)))
        CFI (cfiCond36) VB load(1, XDATA, add(CFA_XSP16, literal(-13)))
        CFI (cfiCond36) V0 load(1, XDATA, add(CFA_XSP16, literal(-12)))
        CFI (cfiCond36) V1 load(1, XDATA, add(CFA_XSP16, literal(-11)))
        CFI (cfiCond36) V2 load(1, XDATA, add(CFA_XSP16, literal(-10)))
        CFI (cfiCond36) V3 load(1, XDATA, add(CFA_XSP16, literal(-9)))
        CFI (cfiCond36) V4 load(1, XDATA, add(CFA_XSP16, literal(-8)))
        CFI (cfiCond36) V5 load(1, XDATA, add(CFA_XSP16, literal(-7)))
        CFI (cfiCond36) R7 load(1, XDATA, add(CFA_XSP16, literal(-6)))
        CFI (cfiCond36) ?RET_LOW load(1, XDATA, add(CFA_XSP16, literal(-5)))
        CFI (cfiCond36) ?RET_HIGH load(1, XDATA, add(CFA_XSP16, literal(-4)))
        CFI (cfiCond36) ?BRET_EXT load(1, XDATA, add(CFA_XSP16, literal(-3)))
        CFI (cfiCond36) DPL0 load(1, XDATA, add(CFA_XSP16, literal(-2)))
        CFI (cfiCond36) DPH0 load(1, XDATA, add(CFA_XSP16, literal(-1)))
        CFI (cfiCond36) CFA_SP SP+0
        CFI (cfiCond36) CFA_XSP16 add(XSP16, 29)
        CFI Block cfiPicker37 Using cfiCommon1
        CFI (cfiPicker37) NoFunction
        CFI (cfiPicker37) Picker
        LCALL   ?Subroutine6 & 0xFFFF
??CrossCallReturnLabel_9:
        MOV     DPH,A
        MOV     DPL,R0
        RET
        CFI EndBlock cfiCond35
        CFI EndBlock cfiCond36
        CFI EndBlock cfiPicker37

        RSEG BANKED_CODE:CODE:NOROOT(0)
?Subroutine0:
        CFI Block cfiCond38 Using cfiCommon0
        CFI NoFunction
        CFI Conditional ??CrossCallReturnLabel_0
        CFI R6 load(1, XDATA, add(CFA_XSP16, literal(-14)))
        CFI VB load(1, XDATA, add(CFA_XSP16, literal(-13)))
        CFI V0 load(1, XDATA, add(CFA_XSP16, literal(-12)))
        CFI V1 load(1, XDATA, add(CFA_XSP16, literal(-11)))
        CFI V2 load(1, XDATA, add(CFA_XSP16, literal(-10)))
        CFI V3 load(1, XDATA, add(CFA_XSP16, literal(-9)))
        CFI V4 load(1, XDATA, add(CFA_XSP16, literal(-8)))
        CFI V5 load(1, XDATA, add(CFA_XSP16, literal(-7)))
        CFI R7 load(1, XDATA, add(CFA_XSP16, literal(-6)))
        CFI ?RET_LOW load(1, XDATA, add(CFA_XSP16, literal(-5)))
        CFI ?RET_HIGH load(1, XDATA, add(CFA_XSP16, literal(-4)))
        CFI ?BRET_EXT load(1, XDATA, add(CFA_XSP16, literal(-3)))
        CFI DPL0 load(1, XDATA, add(CFA_XSP16, literal(-2)))
        CFI DPH0 load(1, XDATA, add(CFA_XSP16, literal(-1)))
        CFI CFA_SP SP+0
        CFI CFA_XSP16 add(XSP16, 23)
        CFI Block cfiCond39 Using cfiCommon0
        CFI (cfiCond39) NoFunction
        CFI (cfiCond39) Conditional ??CrossCallReturnLabel_1
        CFI (cfiCond39) R6 load(1, XDATA, add(CFA_XSP16, literal(-14)))
        CFI (cfiCond39) VB load(1, XDATA, add(CFA_XSP16, literal(-13)))
        CFI (cfiCond39) V0 load(1, XDATA, add(CFA_XSP16, literal(-12)))
        CFI (cfiCond39) V1 load(1, XDATA, add(CFA_XSP16, literal(-11)))
        CFI (cfiCond39) V2 load(1, XDATA, add(CFA_XSP16, literal(-10)))
        CFI (cfiCond39) V3 load(1, XDATA, add(CFA_XSP16, literal(-9)))
        CFI (cfiCond39) V4 load(1, XDATA, add(CFA_XSP16, literal(-8)))
        CFI (cfiCond39) V5 load(1, XDATA, add(CFA_XSP16, literal(-7)))
        CFI (cfiCond39) R7 load(1, XDATA, add(CFA_XSP16, literal(-6)))
        CFI (cfiCond39) ?RET_LOW load(1, XDATA, add(CFA_XSP16, literal(-5)))
        CFI (cfiCond39) ?RET_HIGH load(1, XDATA, add(CFA_XSP16, literal(-4)))
        CFI (cfiCond39) ?BRET_EXT load(1, XDATA, add(CFA_XSP16, literal(-3)))
        CFI (cfiCond39) DPL0 load(1, XDATA, add(CFA_XSP16, literal(-2)))
        CFI (cfiCond39) DPH0 load(1, XDATA, add(CFA_XSP16, literal(-1)))
        CFI (cfiCond39) CFA_SP SP+0
        CFI (cfiCond39) CFA_XSP16 add(XSP16, 23)
        CFI Block cfiPicker40 Using cfiCommon1
        CFI (cfiPicker40) NoFunction
        CFI (cfiPicker40) Picker
        LCALL   ?Subroutine8 & 0xFFFF
??CrossCallReturnLabel_11:
        LCALL   ?Subroutine6 & 0xFFFF
??CrossCallReturnLabel_8:
        MOV     R1,A
        ; Setup parameters for call to function ZDO_AnyClusterMatches
        ; Setup parameters for call to function ZDO_AnyClusterMatches
        MOV     DPL,R0
        MOV     DPH,R1
        INC     DPTR
        INC     DPTR
        INC     DPTR
        INC     DPTR
        INC     DPTR
        INC     DPTR
        INC     DPTR
        RET
        CFI EndBlock cfiCond38
        CFI EndBlock cfiCond39
        CFI EndBlock cfiPicker40

        RSEG BANKED_CODE:CODE:NOROOT(0)
?Subroutine8:
        CFI Block cfiCond41 Using cfiCommon0
        CFI NoFunction
        CFI Conditional ??CrossCallReturnLabel_10
        CFI R6 load(1, XDATA, add(CFA_XSP16, literal(-14)))
        CFI VB load(1, XDATA, add(CFA_XSP16, literal(-13)))
        CFI V0 load(1, XDATA, add(CFA_XSP16, literal(-12)))
        CFI V1 load(1, XDATA, add(CFA_XSP16, literal(-11)))
        CFI V2 load(1, XDATA, add(CFA_XSP16, literal(-10)))
        CFI V3 load(1, XDATA, add(CFA_XSP16, literal(-9)))
        CFI V4 load(1, XDATA, add(CFA_XSP16, literal(-8)))
        CFI V5 load(1, XDATA, add(CFA_XSP16, literal(-7)))
        CFI R7 load(1, XDATA, add(CFA_XSP16, literal(-6)))
        CFI ?RET_LOW load(1, XDATA, add(CFA_XSP16, literal(-5)))
        CFI ?RET_HIGH load(1, XDATA, add(CFA_XSP16, literal(-4)))
        CFI ?BRET_EXT load(1, XDATA, add(CFA_XSP16, literal(-3)))
        CFI DPL0 load(1, XDATA, add(CFA_XSP16, literal(-2)))
        CFI DPH0 load(1, XDATA, add(CFA_XSP16, literal(-1)))
        CFI CFA_SP SP+0
        CFI CFA_XSP16 add(XSP16, 29)
        CFI Block cfiCond42 Using cfiCommon0
        CFI (cfiCond42) NoFunction
        CFI (cfiCond42) Conditional ??CrossCallReturnLabel_11, ??CrossCallReturnLabel_0
        CFI (cfiCond42) R6 load(1, XDATA, add(CFA_XSP16, literal(-14)))
        CFI (cfiCond42) VB load(1, XDATA, add(CFA_XSP16, literal(-13)))
        CFI (cfiCond42) V0 load(1, XDATA, add(CFA_XSP16, literal(-12)))
        CFI (cfiCond42) V1 load(1, XDATA, add(CFA_XSP16, literal(-11)))
        CFI (cfiCond42) V2 load(1, XDATA, add(CFA_XSP16, literal(-10)))
        CFI (cfiCond42) V3 load(1, XDATA, add(CFA_XSP16, literal(-9)))
        CFI (cfiCond42) V4 load(1, XDATA, add(CFA_XSP16, literal(-8)))
        CFI (cfiCond42) V5 load(1, XDATA, add(CFA_XSP16, literal(-7)))
        CFI (cfiCond42) R7 load(1, XDATA, add(CFA_XSP16, literal(-6)))
        CFI (cfiCond42) ?RET_LOW load(1, XDATA, add(CFA_XSP16, literal(-5)))
        CFI (cfiCond42) ?RET_HIGH load(1, XDATA, add(CFA_XSP16, literal(-4)))
        CFI (cfiCond42) ?BRET_EXT load(1, XDATA, add(CFA_XSP16, literal(-3)))
        CFI (cfiCond42) DPL0 load(1, XDATA, add(CFA_XSP16, literal(-2)))
        CFI (cfiCond42) DPH0 load(1, XDATA, add(CFA_XSP16, literal(-1)))
        CFI (cfiCond42) CFA_SP SP+0
        CFI (cfiCond42) CFA_XSP16 add(XSP16, 23)
        CFI Block cfiCond43 Using cfiCommon0
        CFI (cfiCond43) NoFunction
        CFI (cfiCond43) Conditional ??CrossCallReturnLabel_11, ??CrossCallReturnLabel_1
        CFI (cfiCond43) R6 load(1, XDATA, add(CFA_XSP16, literal(-14)))
        CFI (cfiCond43) VB load(1, XDATA, add(CFA_XSP16, literal(-13)))
        CFI (cfiCond43) V0 load(1, XDATA, add(CFA_XSP16, literal(-12)))
        CFI (cfiCond43) V1 load(1, XDATA, add(CFA_XSP16, literal(-11)))
        CFI (cfiCond43) V2 load(1, XDATA, add(CFA_XSP16, literal(-10)))
        CFI (cfiCond43) V3 load(1, XDATA, add(CFA_XSP16, literal(-9)))
        CFI (cfiCond43) V4 load(1, XDATA, add(CFA_XSP16, literal(-8)))
        CFI (cfiCond43) V5 load(1, XDATA, add(CFA_XSP16, literal(-7)))
        CFI (cfiCond43) R7 load(1, XDATA, add(CFA_XSP16, literal(-6)))
        CFI (cfiCond43) ?RET_LOW load(1, XDATA, add(CFA_XSP16, literal(-5)))
        CFI (cfiCond43) ?RET_HIGH load(1, XDATA, add(CFA_XSP16, literal(-4)))
        CFI (cfiCond43) ?BRET_EXT load(1, XDATA, add(CFA_XSP16, literal(-3)))
        CFI (cfiCond43) DPL0 load(1, XDATA, add(CFA_XSP16, literal(-2)))
        CFI (cfiCond43) DPH0 load(1, XDATA, add(CFA_XSP16, literal(-1)))
        CFI (cfiCond43) CFA_SP SP+0
        CFI (cfiCond43) CFA_XSP16 add(XSP16, 23)
        CFI Block cfiPicker44 Using cfiCommon1
        CFI (cfiPicker44) NoFunction
        CFI (cfiPicker44) Picker
        MOV     DPTR,#keyCnt
        MOVX    A,@DPTR
        MOV     B,#0x6
        MUL     AB
        MOV     R0,A
        MOV     R1,B
        RET
        CFI EndBlock cfiCond41
        CFI EndBlock cfiCond42
        CFI EndBlock cfiCond43
        CFI EndBlock cfiPicker44

        RSEG BANKED_CODE:CODE:NOROOT(0)
?Subroutine6:
        CFI Block cfiCond45 Using cfiCommon0
        CFI NoFunction
        CFI Conditional ??CrossCallReturnLabel_9, ??CrossCallReturnLabel_2
        CFI R6 load(1, XDATA, add(CFA_XSP16, literal(-11)))
        CFI VB load(1, XDATA, add(CFA_XSP16, literal(-10)))
        CFI V0 load(1, XDATA, add(CFA_XSP16, literal(-9)))
        CFI V1 load(1, XDATA, add(CFA_XSP16, literal(-8)))
        CFI V2 load(1, XDATA, add(CFA_XSP16, literal(-7)))
        CFI R7 load(1, XDATA, add(CFA_XSP16, literal(-6)))
        CFI ?RET_LOW load(1, XDATA, add(CFA_XSP16, literal(-5)))
        CFI ?RET_HIGH load(1, XDATA, add(CFA_XSP16, literal(-4)))
        CFI ?BRET_EXT load(1, XDATA, add(CFA_XSP16, literal(-3)))
        CFI DPL0 load(1, XDATA, add(CFA_XSP16, literal(-2)))
        CFI DPH0 load(1, XDATA, add(CFA_XSP16, literal(-1)))
        CFI CFA_SP SP+0
        CFI CFA_XSP16 add(XSP16, 21)
        CFI Block cfiCond46 Using cfiCommon0
        CFI (cfiCond46) NoFunction
        CFI (cfiCond46) Conditional ??CrossCallReturnLabel_9, ??CrossCallReturnLabel_3
        CFI (cfiCond46) R6 load(1, XDATA, add(CFA_XSP16, literal(-14)))
        CFI (cfiCond46) VB load(1, XDATA, add(CFA_XSP16, literal(-13)))
        CFI (cfiCond46) V0 load(1, XDATA, add(CFA_XSP16, literal(-12)))
        CFI (cfiCond46) V1 load(1, XDATA, add(CFA_XSP16, literal(-11)))
        CFI (cfiCond46) V2 load(1, XDATA, add(CFA_XSP16, literal(-10)))
        CFI (cfiCond46) V3 load(1, XDATA, add(CFA_XSP16, literal(-9)))
        CFI (cfiCond46) V4 load(1, XDATA, add(CFA_XSP16, literal(-8)))
        CFI (cfiCond46) V5 load(1, XDATA, add(CFA_XSP16, literal(-7)))
        CFI (cfiCond46) R7 load(1, XDATA, add(CFA_XSP16, literal(-6)))
        CFI (cfiCond46) ?RET_LOW load(1, XDATA, add(CFA_XSP16, literal(-5)))
        CFI (cfiCond46) ?RET_HIGH load(1, XDATA, add(CFA_XSP16, literal(-4)))
        CFI (cfiCond46) ?BRET_EXT load(1, XDATA, add(CFA_XSP16, literal(-3)))
        CFI (cfiCond46) DPL0 load(1, XDATA, add(CFA_XSP16, literal(-2)))
        CFI (cfiCond46) DPH0 load(1, XDATA, add(CFA_XSP16, literal(-1)))
        CFI (cfiCond46) CFA_SP SP+0
        CFI (cfiCond46) CFA_XSP16 add(XSP16, 29)
        CFI Block cfiCond47 Using cfiCommon0
        CFI (cfiCond47) NoFunction
        CFI (cfiCond47) Conditional ??CrossCallReturnLabel_8, ??CrossCallReturnLabel_0
        CFI (cfiCond47) R6 load(1, XDATA, add(CFA_XSP16, literal(-14)))
        CFI (cfiCond47) VB load(1, XDATA, add(CFA_XSP16, literal(-13)))
        CFI (cfiCond47) V0 load(1, XDATA, add(CFA_XSP16, literal(-12)))
        CFI (cfiCond47) V1 load(1, XDATA, add(CFA_XSP16, literal(-11)))
        CFI (cfiCond47) V2 load(1, XDATA, add(CFA_XSP16, literal(-10)))
        CFI (cfiCond47) V3 load(1, XDATA, add(CFA_XSP16, literal(-9)))
        CFI (cfiCond47) V4 load(1, XDATA, add(CFA_XSP16, literal(-8)))
        CFI (cfiCond47) V5 load(1, XDATA, add(CFA_XSP16, literal(-7)))
        CFI (cfiCond47) R7 load(1, XDATA, add(CFA_XSP16, literal(-6)))
        CFI (cfiCond47) ?RET_LOW load(1, XDATA, add(CFA_XSP16, literal(-5)))
        CFI (cfiCond47) ?RET_HIGH load(1, XDATA, add(CFA_XSP16, literal(-4)))
        CFI (cfiCond47) ?BRET_EXT load(1, XDATA, add(CFA_XSP16, literal(-3)))
        CFI (cfiCond47) DPL0 load(1, XDATA, add(CFA_XSP16, literal(-2)))
        CFI (cfiCond47) DPH0 load(1, XDATA, add(CFA_XSP16, literal(-1)))
        CFI (cfiCond47) CFA_SP SP+0
        CFI (cfiCond47) CFA_XSP16 add(XSP16, 23)
        CFI Block cfiCond48 Using cfiCommon0
        CFI (cfiCond48) NoFunction
        CFI (cfiCond48) Conditional ??CrossCallReturnLabel_8, ??CrossCallReturnLabel_1
        CFI (cfiCond48) R6 load(1, XDATA, add(CFA_XSP16, literal(-14)))
        CFI (cfiCond48) VB load(1, XDATA, add(CFA_XSP16, literal(-13)))
        CFI (cfiCond48) V0 load(1, XDATA, add(CFA_XSP16, literal(-12)))
        CFI (cfiCond48) V1 load(1, XDATA, add(CFA_XSP16, literal(-11)))
        CFI (cfiCond48) V2 load(1, XDATA, add(CFA_XSP16, literal(-10)))
        CFI (cfiCond48) V3 load(1, XDATA, add(CFA_XSP16, literal(-9)))
        CFI (cfiCond48) V4 load(1, XDATA, add(CFA_XSP16, literal(-8)))
        CFI (cfiCond48) V5 load(1, XDATA, add(CFA_XSP16, literal(-7)))
        CFI (cfiCond48) R7 load(1, XDATA, add(CFA_XSP16, literal(-6)))
        CFI (cfiCond48) ?RET_LOW load(1, XDATA, add(CFA_XSP16, literal(-5)))
        CFI (cfiCond48) ?RET_HIGH load(1, XDATA, add(CFA_XSP16, literal(-4)))
        CFI (cfiCond48) ?BRET_EXT load(1, XDATA, add(CFA_XSP16, literal(-3)))
        CFI (cfiCond48) DPL0 load(1, XDATA, add(CFA_XSP16, literal(-2)))
        CFI (cfiCond48) DPH0 load(1, XDATA, add(CFA_XSP16, literal(-1)))
        CFI (cfiCond48) CFA_SP SP+0
        CFI (cfiCond48) CFA_XSP16 add(XSP16, 23)
        CFI Block cfiPicker49 Using cfiCommon1
        CFI (cfiPicker49) NoFunction
        CFI (cfiPicker49) Picker
        MOV     A,#(Key_epDesc + 3) & 0xff
        ADD     A,R0
        MOV     DPL,A
        MOV     A,#((Key_epDesc + 3) >> 8) & 0xff
        ADDC    A,R1
        MOV     DPH,A
        MOVX    A,@DPTR
        MOV     R0,A
        INC     DPTR
        MOVX    A,@DPTR
        RET
        CFI EndBlock cfiCond45
        CFI EndBlock cfiCond46
        CFI EndBlock cfiCond47
        CFI EndBlock cfiCond48
        CFI EndBlock cfiPicker49
//  362 
//  363 
//  364 /*********************************************************************
//  365  * @fn      Key_HandleKeys
//  366  *
//  367  * @brief   Handles all key events for this device.
//  368  *
//  369  * @param   shift - true if in shift/alt.
//  370  * @param   keys - bit field for key events. Valid entries:
//  371  *                 HAL_KEY_SW_4
//  372  *                 HAL_KEY_SW_3
//  373  *                 HAL_KEY_SW_2
//  374  *                 HAL_KEY_SW_1
//  375  *
//  376  * @return  none
//  377  */

        RSEG BANKED_CODE:CODE:NOROOT(0)
//  378 void Key_HandleKeys( byte shift, byte keys )
Key_HandleKeys:
        CFI Block cfiBlock50 Using cfiCommon0
        CFI Function Key_HandleKeys
        CODE
//  379 {
        PUSH    DPL
        CFI DPL0 Frame(CFA_SP, 4)
        CFI CFA_SP SP+-4
        PUSH    DPH
        CFI DPH0 Frame(CFA_SP, 5)
        CFI CFA_SP SP+-5
        ; Saved register size: 2
        ; Auto size: 0
//  380   // Shift is used to make each key/switch dual purpose.
//  381   if ( shift )
        MOV     A,R1
        JNZ     ??Key_HandleKeys_0
//  382   {
//  383     if ( keys & HAL_KEY_SW_1 )
//  384     {
//  385     }
//  386     if ( keys & HAL_KEY_SW_2 )
//  387     {
//  388     }
//  389     if ( keys & HAL_KEY_SW_3 )
//  390     {
//  391     }
//  392     if ( keys & HAL_KEY_SW_6 )
//  393     {
//  394        
//  395     }
//  396   }
//  397   else
//  398   {
//  399     if ( keys & HAL_KEY_SW_1 )
        MOV     A,R2
        MOV     C,0xE0 /* A   */.0
        JNC     ??Key_HandleKeys_0
//  400     {
//  401       if(myAppState == APP_INIT) {
        MOV     DPTR,#myAppState
        MOVX    A,@DPTR
        JNZ     ??Key_HandleKeys_0
//  402         
//  403         myAppState = APP_START;
        MOV     A,#0x1
        MOVX    @DPTR,A
//  404       }
//  405       else
//  406       {
//  407         
//  408       }
//  409     }
//  410 
//  411     if ( keys & HAL_KEY_SW_2 )
//  412     {
//  413     }
//  414 
//  415     if ( keys & HAL_KEY_SW_3 )
//  416     {
//  417     }
//  418 
//  419     // 是用来查找有没有东西可以匹配?    if ( keys & HAL_KEY_SW_4 )
//  420     {/*
//  421       HalLedSet ( HAL_LED_4, HAL_LED_MODE_OFF );
//  422       // Initiate a Match Description Request (Service Discovery)
//  423       dstAddr.addrMode = AddrBroadcast;
//  424       dstAddr.addr.shortAddr = NWK_BROADCAST_SHORTADDR;
//  425       ZDP_MatchDescReq( &dstAddr, NWK_BROADCAST_SHORTADDR,
//  426                         SYS_PROFID,
//  427                         SYS_MAX_CLUSTERS, (cId_t *)Key_ClusterList,
//  428                         SYS_MAX_CLUSTERS, (cId_t *)Key_ClusterList,
//  429                         FALSE );
//  430                         */
//  431     }
//  432   }
//  433 }
??Key_HandleKeys_0:
        POP     DPH
        CFI DPH0 SameValue
        CFI CFA_SP SP+-4
        POP     DPL
        CFI DPL0 SameValue
        CFI CFA_SP SP+-3
        LJMP    ?BRET
        CFI EndBlock cfiBlock50

        RSEG XDATA_ID:CODE:NOROOT(0)
`?<Initializer for Key_ClusterList>`:
        DATA16
        DW 1
        DW 2
        DW 4
        DW 0

        RSEG XDATA_ID:CODE:NOROOT(0)
`?<Initializer for Key_SimpleDesc>`:
        DATA8
        DB 10
        DATA16
        DW 3844
        DW 1
        DATA8
        DB 0
        DB 4
        DATA16
        DW Key_ClusterList
        DATA8
        DB 4
        DATA16
        DW Key_ClusterList
        DB 0, 0, 0, 0, 0, 0, 0, 0
        DB 0, 0, 0, 0, 0, 0, 0, 0
        DB 0, 0, 0, 0, 0, 0, 0, 0
        DB 0, 0, 0, 0, 0, 0, 0, 0
        DB 0, 0, 0, 0, 0, 0, 0, 0
        DB 0, 0, 0, 0, 0, 0, 0, 0
        DB 0, 0, 0, 0, 0, 0, 0, 0
        DB 0, 0, 0, 0, 0, 0, 0, 0
        DB 0, 0, 0, 0, 0, 0, 0, 0
        DB 0, 0, 0, 0, 0, 0, 0, 0
        DB 0, 0, 0, 0, 0, 0, 0, 0
        DB 0, 0, 0, 0, 0, 0, 0, 0
        DB 0, 0, 0, 0, 0, 0, 0, 0
        DB 0, 0, 0, 0, 0, 0, 0, 0
        DB 0, 0, 0, 0, 0, 0, 0, 0
        DB 0, 0, 0, 0, 0, 0, 0, 0
        DB 0, 0, 0, 0, 0, 0, 0, 0
        DB 0, 0, 0, 0, 0, 0, 0, 0
        DB 0, 0, 0, 0, 0, 0, 0, 0
        DB 0, 0, 0, 0, 0, 0, 0, 0
        DB 0, 0, 0, 0, 0, 0, 0, 0
        DB 0, 0, 0, 0, 0, 0, 0, 0
        DB 0, 0, 0, 0, 0, 0, 0, 0
        DB 0, 0, 0, 0, 0, 0, 0, 0
        DB 0, 0, 0, 0, 0, 0, 0, 0
        DB 0, 0, 0, 0, 0, 0, 0, 0
        DB 0, 0, 0, 0, 0, 0, 0, 0
        DB 0, 0, 0, 0, 0, 0, 0, 0
        DB 0, 0, 0, 0, 0, 0, 0, 0
        DB 0, 0, 0, 0, 0, 0, 0, 0
        DB 0, 0, 0, 0, 0, 0, 0, 0
        DB 0, 0, 0, 0, 0, 0, 0, 0
        DB 0, 0, 0, 0, 0, 0, 0, 0
        DB 0, 0, 0, 0, 0, 0, 0, 0
        DB 0, 0, 0, 0, 0, 0, 0, 0
        DB 0, 0, 0, 0, 0, 0, 0, 0
        DB 0, 0, 0, 0, 0, 0, 0, 0
        DB 0, 0, 0, 0, 0, 0, 0, 0
        DB 0, 0, 0, 0, 0, 0, 0, 0
        DB 0, 0, 0, 0, 0, 0, 0, 0
        DB 0, 0, 0, 0, 0, 0, 0, 0
        DB 0, 0, 0, 0, 0, 0, 0, 0
        DB 0, 0, 0, 0, 0, 0, 0, 0
        DB 0, 0, 0, 0, 0, 0, 0, 0
        DB 0, 0, 0, 0, 0, 0, 0, 0
        DB 0, 0, 0, 0, 0, 0, 0, 0
        DB 0, 0, 0, 0, 0, 0, 0, 0
        DB 0, 0, 0, 0, 0, 0, 0, 0
        DB 0, 0, 0, 0, 0, 0, 0, 0
        DB 0, 0, 0, 0, 0, 0, 0, 0
        DB 0, 0, 0, 0, 0, 0, 0, 0
        DB 0, 0, 0, 0, 0, 0, 0, 0
        DB 0, 0, 0, 0, 0, 0, 0, 0
        DB 0, 0, 0, 0, 0, 0, 0, 0
        DB 0, 0, 0, 0, 0, 0, 0, 0
        DB 0, 0, 0, 0, 0, 0, 0, 0
        DB 0, 0, 0, 0, 0, 0, 0, 0
        DB 0, 0, 0, 0, 0, 0, 0, 0
        DB 0, 0, 0, 0, 0, 0, 0, 0
        DB 0, 0, 0, 0, 0, 0, 0, 0
        DB 0, 0, 0, 0, 0, 0, 0, 0
        DB 0, 0, 0, 0, 0, 0, 0, 0
        DB 0, 0, 0, 0, 0, 0, 0, 0
        DB 0, 0, 0, 0, 0, 0, 0, 0
        DB 0, 0, 0, 0, 0, 0, 0, 0
        DB 0, 0, 0, 0, 0, 0, 0, 0
        DB 0, 0, 0, 0, 0, 0, 0, 0
        DB 0, 0, 0, 0, 0, 0, 0, 0
        DB 0, 0, 0, 0, 0, 0, 0, 0
        DB 0, 0, 0, 0, 0, 0, 0, 0
        DB 0, 0, 0, 0, 0, 0, 0, 0
        DB 0, 0, 0, 0, 0, 0, 0, 0
        DB 0, 0, 0, 0, 0, 0, 0, 0
        DB 0, 0, 0, 0

        RSEG BANK_RELAYS:CODE:REORDER:NOROOT(0)
??Key_Init?relay:
        LCALL   ?BDISPATCH
        DATA
        DC24    Key_Init

        RSEG BANK_RELAYS:CODE:REORDER:NOROOT(0)
??Key_ProcessEvent?relay:
        LCALL   ?BDISPATCH
        DATA
        DC24    Key_ProcessEvent

        RSEG BANK_RELAYS:CODE:REORDER:NOROOT(0)
??Key_ProcessZDOMsgs?relay:
        LCALL   ?BDISPATCH
        DATA
        DC24    Key_ProcessZDOMsgs

        RSEG BANK_RELAYS:CODE:REORDER:NOROOT(0)
??Key_BindDevice?relay:
        LCALL   ?BDISPATCH
        DATA
        DC24    Key_BindDevice

        RSEG BANK_RELAYS:CODE:REORDER:NOROOT(0)
??Key_HandleKeys?relay:
        LCALL   ?BDISPATCH
        DATA
        DC24    Key_HandleKeys

        END
//  434 
//  435 
//  436 /******************************************************************************
//  437  * @fn          Key_ReceiveDataIndication
//  438  *
//  439  * @brief       The SAPI_ReceiveDataIndication callback function is called
//  440  *              asynchronously by the ZigBee stack to notify the application
//  441  *              when data is received from a peer device.
//  442  *
//  443  * @param       source - The short address of the peer device that sent the data
//  444  *              command - The commandId associated with the data
//  445  *              len - The number of bytes in the pData parameter
//  446  *              pData - The data sent by the peer device
//  447  *
//  448  * @return      none
//  449  */
//  450 void Key_ReceiveDataIndication( uint16 source, uint8 endPoint, uint16 command, uint16 len, uint8 *pData  )
//  451 {
//  452   uint8 *buff = (uint8 *)osal_mem_alloc(sizeof(uint8)*(len+1));
//  453   uint8 i;
//  454   buff[0] = endPoint - KEY_ENDPOINT;
//  455   for(i=1; i<len+1; i++,pData++)
//  456   {
//  457     buff[i] = *pData;
//  458   }
//  459   if(command == OPERATE_CLUSTER)
//  460   {
//  461     HalUARTWrite(0, buff, (byte)osal_strlen( buff ) + 1);
//  462   }
//  463 }
//  464 
//  465 
//  466 /*********************************
//  467  * CALLBACK FUNCTIONS   */
//  468 /******************************************************************************
//  469  * @fn          SAPI_BindConfirm
//  470  *
//  471  * @brief       The SAPI_BindConfirm callback is called by the ZigBee stack
//  472  *              after a bind operation completes.
//  473  *
//  474  * @param       commandId - The command ID of the binding being confirmed.
//  475  *              status - The status of the bind operation.
//  476  *              allowBind - TRUE if the bind operation was initiated by a call
//  477  *                          to zb_AllowBindRespones.  FALSE if the operation
//  478  *                          was initiated by a call to ZB_BindDevice
//  479  *
//  480  * @return      none
//  481  */
//  482 void SAPI_BindConfirm( uint16 commandId, uint8 status )
//  483 {
//  484     Sys_BindConfirm( commandId, status );
//  485 }
// 
// 1 220 bytes in segment BANKED_CODE
//    30 bytes in segment BANK_RELAYS
//   608 bytes in segment XDATA_I
//   608 bytes in segment XDATA_ID
//   316 bytes in segment XDATA_Z
// 
// 1 858 bytes of CODE  memory
//   924 bytes of XDATA memory
//
//Errors: none
//Warnings: 1
