///////////////////////////////////////////////////////////////////////////////
//                                                                            /
// IAR C/C++ Compiler V8.10.3.10338/W32 for 8051        17/Apr/2018  12:32:56 /
// Copyright 2004-2011 IAR Systems AB.                                        /
//                                                                            /
//    Core               =  plain                                             /
//    Code model         =  banked                                            /
//    Data model         =  large                                             /
//    Calling convention =  xdata reentrant                                   /
//    Constant location  =  data_rom                                          /
//    Dptr setup         =  1,16                                              /
//    Source file        =  D:\ProgramData\Hardware\zigbee\Projects\zstack\Sa /
//                          mples\SensorSys\Source\Key_Coor.c                 /
//    Command line       =  -f D:\ProgramData\Hardware\zigbee\Projects\zstack /
//                          \Samples\SensorSys\CC2530DB\..\..\..\Tools\CC2530 /
//                          DB\f8wCoord.cfg (-DCPU32MHZ -DROOT=__near_func    /
//                          -DMAC_CFG_APP_PENDING_QUEUE=TRUE                  /
//                          -DMAC_CFG_TX_DATA_MAX=5 -DMAC_CFG_TX_MAX=8        /
//                          -DMAC_CFG_RX_MAX=5 -DZDO_COORDINATOR -DRTR_NWK)   /
//                          -f D:\ProgramData\Hardware\zigbee\Projects\zstack /
//                          \Samples\SensorSys\CC2530DB\..\..\..\Tools\CC2530 /
//                          DB\f8wConfig.cfg (-DZIGBEEPRO -DSECURE=0          /
//                          -DZG_SECURE_DYNAMIC=0 -DREFLECTOR                 /
//                          -DDEFAULT_CHANLIST=0x00000800                     /
//                          -DZDAPP_CONFIG_PAN_ID=0xFFF1                      /
//                          -DNWK_START_DELAY=100 -DEXTENDED_JOINING_RANDOM_M /
//                          ASK=0x007F -DBEACON_REQUEST_DELAY=100             /
//                          -DBEACON_REQ_DELAY_MASK=0x00FF                    /
//                          -DLINK_STATUS_JITTER_MASK=0x007F                  /
//                          -DROUTE_EXPIRY_TIME=30 -DAPSC_ACK_WAIT_DURATION_P /
//                          OLLED=3000 -DNWK_INDIRECT_MSG_TIMEOUT=7           /
//                          -DMAX_RREQ_ENTRIES=8 -DAPSC_MAX_FRAME_RETRIES=3   /
//                          -DNWK_MAX_DATA_RETRIES=2                          /
//                          -DMAX_POLL_FAILURE_RETRIES=2 -DMAX_BCAST=9        /
//                          -DAPS_MAX_GROUPS=16 -DMAX_RTG_ENTRIES=40          /
//                          -DNWK_MAX_BINDING_ENTRIES=4                       /
//                          -DMAX_BINDING_CLUSTER_IDS=4                       /
//                          "-DDEFAULT_KEY={0x01, 0x03, 0x05, 0x07, 0x09,     /
//                          0x0B, 0x0D, 0x0F, 0x00, 0x02, 0x04, 0x06, 0x08,   /
//                          0x0A, 0x0C, 0x0D}" -DMAC_MAX_FRAME_SIZE=116       /
//                          -DZDNWKMGR_MIN_TRANSMISSIONS=20 "-DCONST=const    /
//                          __code" -DGENERIC=__generic                       /
//                          -DRFD_RCVC_ALWAYS_ON=TRUE -DPOLL_RATE=1000        /
//                          -DQUEUED_POLL_RATE=100 -DRESPONSE_POLL_RATE=100)  /
//                          -DREJOIN_POLL_RATE=440 D:\ProgramData\Hardware\zi /
//                          gbee\Projects\zstack\Samples\SensorSys\Source\Key /
//                          _Coor.c -D HOLD_AUTO_START -D BUILD_ALL_DEVICES   /
//                          -D REFLECTOR -D NV_INIT -D COOR -D xNV_RESTORE    /
//                          -D ZTOOL_P1 -D xMT_TASK -D xMT_SYS_FUNC -D        /
//                          xMT_SAPI_FUNC -D xMT_SAPI_CB_FUNC -lC             /
//                          D:\ProgramData\Hardware\zigbee\Projects\zstack\Sa /
//                          mples\SensorSys\CC2530DB\CoordinatorEB\List\ -lA  /
//                          D:\ProgramData\Hardware\zigbee\Projects\zstack\Sa /
//                          mples\SensorSys\CC2530DB\CoordinatorEB\List\      /
//                          --diag_suppress Pe001,Pa010 -o                    /
//                          D:\ProgramData\Hardware\zigbee\Projects\zstack\Sa /
//                          mples\SensorSys\CC2530DB\CoordinatorEB\Obj\ -e    /
//                          --no_code_motion --debug --core=plain             /
//                          --dptr=16,1 --data_model=large                    /
//                          --code_model=banked --calling_convention=xdata_re /
//                          entrant --place_constants=data_rom                /
//                          --nr_virtual_regs 16 -I                           /
//                          D:\ProgramData\Hardware\zigbee\Projects\zstack\Sa /
//                          mples\SensorSys\CC2530DB\ -I                      /
//                          D:\ProgramData\Hardware\zigbee\Projects\zstack\Sa /
//                          mples\SensorSys\CC2530DB\..\Source\ -I            /
//                          D:\ProgramData\Hardware\zigbee\Projects\zstack\Sa /
//                          mples\SensorSys\CC2530DB\..\..\..\ZMain\TI2530DB\ /
//                           -I D:\ProgramData\Hardware\zigbee\Projects\zstac /
//                          k\Samples\SensorSys\CC2530DB\..\..\..\..\..\Compo /
//                          nents\hal\include\ -I D:\ProgramData\Hardware\zig /
//                          bee\Projects\zstack\Samples\SensorSys\CC2530DB\.. /
//                          \..\..\..\..\Components\hal\target\CC2530EB\ -I   /
//                          D:\ProgramData\Hardware\zigbee\Projects\zstack\Sa /
//                          mples\SensorSys\CC2530DB\..\..\..\..\..\Component /
//                          s\mac\include\ -I D:\ProgramData\Hardware\zigbee\ /
//                          Projects\zstack\Samples\SensorSys\CC2530DB\..\..\ /
//                          ..\..\..\Components\mac\high_level\ -I            /
//                          D:\ProgramData\Hardware\zigbee\Projects\zstack\Sa /
//                          mples\SensorSys\CC2530DB\..\..\..\..\..\Component /
//                          s\mac\low_level\srf04\ -I                         /
//                          D:\ProgramData\Hardware\zigbee\Projects\zstack\Sa /
//                          mples\SensorSys\CC2530DB\..\..\..\..\..\Component /
//                          s\mac\low_level\srf04\single_chip\ -I             /
//                          D:\ProgramData\Hardware\zigbee\Projects\zstack\Sa /
//                          mples\SensorSys\CC2530DB\..\..\..\..\..\Component /
//                          s\mt\ -I D:\ProgramData\Hardware\zigbee\Projects\ /
//                          zstack\Samples\SensorSys\CC2530DB\..\..\..\..\..\ /
//                          Components\osal\include\ -I                       /
//                          D:\ProgramData\Hardware\zigbee\Projects\zstack\Sa /
//                          mples\SensorSys\CC2530DB\..\..\..\..\..\Component /
//                          s\services\saddr\ -I D:\ProgramData\Hardware\zigb /
//                          ee\Projects\zstack\Samples\SensorSys\CC2530DB\..\ /
//                          ..\..\..\..\Components\services\sdata\ -I         /
//                          D:\ProgramData\Hardware\zigbee\Projects\zstack\Sa /
//                          mples\SensorSys\CC2530DB\..\..\..\..\..\Component /
//                          s\stack\af\ -I D:\ProgramData\Hardware\zigbee\Pro /
//                          jects\zstack\Samples\SensorSys\CC2530DB\..\..\..\ /
//                          ..\..\Components\stack\nwk\ -I                    /
//                          D:\ProgramData\Hardware\zigbee\Projects\zstack\Sa /
//                          mples\SensorSys\CC2530DB\..\..\..\..\..\Component /
//                          s\stack\sapi\ -I D:\ProgramData\Hardware\zigbee\P /
//                          rojects\zstack\Samples\SensorSys\CC2530DB\..\..\. /
//                          .\..\..\Components\stack\sec\ -I                  /
//                          D:\ProgramData\Hardware\zigbee\Projects\zstack\Sa /
//                          mples\SensorSys\CC2530DB\..\..\..\..\..\Component /
//                          s\stack\sys\ -I D:\ProgramData\Hardware\zigbee\Pr /
//                          ojects\zstack\Samples\SensorSys\CC2530DB\..\..\.. /
//                          \..\..\Components\stack\zdo\ -I                   /
//                          D:\ProgramData\Hardware\zigbee\Projects\zstack\Sa /
//                          mples\SensorSys\CC2530DB\..\..\..\..\..\Component /
//                          s\zmac\ -I D:\ProgramData\Hardware\zigbee\Project /
//                          s\zstack\Samples\SensorSys\CC2530DB\..\..\..\..\. /
//                          .\Components\zmac\f8w\ -Ohz --require_prototypes  /
//    List file          =  D:\ProgramData\Hardware\zigbee\Projects\zstack\Sa /
//                          mples\SensorSys\CC2530DB\CoordinatorEB\List\Key_C /
//                          oor.s51                                           /
//                                                                            /
//                                                                            /
///////////////////////////////////////////////////////////////////////////////

        NAME Key_Coor

        RTMODEL "__SystemLibrary", "CLib"
        RTMODEL "__calling_convention", "xdata_reentrant"
        RTMODEL "__code_model", "banked"
        RTMODEL "__core", "plain"
        RTMODEL "__data_model", "large"
        RTMODEL "__dptr_size", "16"
        RTMODEL "__extended_stack", "disabled"
        RTMODEL "__location_for_constants", "data"
        RTMODEL "__number_of_dptrs", "1"
        RTMODEL "__rt_version", "1"

        RSEG DOVERLAY:DATA:NOROOT(0)
        RSEG IOVERLAY:IDATA:NOROOT(0)
        RSEG ISTACK:IDATA:NOROOT(0)
        RSEG PSTACK:XDATA:NOROOT(0)
        RSEG XSTACK:XDATA:NOROOT(0)

        EXTERN ?ALLOC_XSTACK8
        EXTERN ?BANKED_ENTER_XDATA
        EXTERN ?BANKED_LEAVE_XDATA
        EXTERN ?BDISPATCH
        EXTERN ?BRET
        EXTERN ?DEALLOC_XSTACK8
        EXTERN ?MOVE_LONG8_XDATA_XDATA
        EXTERN ?PUSH_XSTACK8_X_TWO
        EXTERN ?PUSH_XSTACK_I_ONE
        EXTERN ?PUSH_XSTACK_I_THREE
        EXTERN ?PUSH_XSTACK_I_TWO
        EXTERN ?V0
        EXTERN ?XSP
        EXTERN ?XSTACK_DISP0_8
        EXTERN __INIT_XDATA_I
        EXTERN __INIT_XDATA_Z

        PUBLIC ??Key_BindDevice?relay
        FUNCTION ??Key_BindDevice?relay,0203H
        PUBLIC ??Key_HandleKeys?relay
        FUNCTION ??Key_HandleKeys?relay,0203H
        PUBLIC ??Key_Init?relay
        FUNCTION ??Key_Init?relay,0203H
        PUBLIC ??Key_ProcessEvent?relay
        FUNCTION ??Key_ProcessEvent?relay,0203H
        PUBLIC ??Key_ProcessZDOMsgs?relay
        FUNCTION ??Key_ProcessZDOMsgs?relay,0203H
        PUBLIC Key_BindDevice
        FUNCTION Key_BindDevice,021203H
        ARGFRAME XSTACK, 24, STACK
        ARGFRAME IOVERLAY, 0, STATIC
        ARGFRAME DOVERLAY, 0, STATIC
        LOCFRAME ISTACK, 2, STACK
        LOCFRAME XSTACK, 47, STACK
        PUBLIC Key_ClusterList
        PUBLIC Key_DstAddr
        PUBLIC Key_HandleKeys
        FUNCTION Key_HandleKeys,0203H
        ARGFRAME XSTACK, 22, STACK
        ARGFRAME IOVERLAY, 0, STATIC
        ARGFRAME DOVERLAY, 0, STATIC
        LOCFRAME ISTACK, 2, STACK
        PUBLIC Key_Init
        FUNCTION Key_Init,021203H
        ARGFRAME XSTACK, 0, STACK
        LOCFRAME XSTACK, 9, STACK
        PUBLIC Key_ProcessEvent
        FUNCTION Key_ProcessEvent,021203H
        ARGFRAME XSTACK, 0, STACK
        LOCFRAME ISTACK, 1, STACK
        LOCFRAME XSTACK, 24, STACK
        PUBLIC Key_ProcessZDOMsgs
        FUNCTION Key_ProcessZDOMsgs,021203H
        ARGFRAME XSTACK, 22, STACK
        ARGFRAME IOVERLAY, 0, STATIC
        ARGFRAME DOVERLAY, 0, STATIC
        LOCFRAME XSTACK, 21, STACK
        PUBLIC Key_SimpleDesc
        PUBLIC Key_TaskID
        PUBLIC Key_epDesc
        PUBLIC keyCnt
        PUBLIC key_bindInProgress
        
        CFI Names cfiNames0
        CFI StackFrame CFA_SP SP IDATA
        CFI StackFrame CFA_PSP16 PSP16 XDATA
        CFI StackFrame CFA_XSP16 XSP16 XDATA
        CFI StaticOverlayFrame CFA_IOVERLAY IOVERLAY
        CFI StaticOverlayFrame CFA_DOVERLAY DOVERLAY
        CFI Resource `PSW.CY`:1, `B.BR0`:1, `B.BR1`:1, `B.BR2`:1, `B.BR3`:1
        CFI Resource `B.BR4`:1, `B.BR5`:1, `B.BR6`:1, `B.BR7`:1, `VB.BR8`:1
        CFI Resource `VB.BR9`:1, `VB.BR10`:1, `VB.BR11`:1, `VB.BR12`:1
        CFI Resource `VB.BR13`:1, `VB.BR14`:1, `VB.BR15`:1, VB:8, B:8, A:8
        CFI Resource PSW:8, DPL0:8, DPH0:8, R0:8, R1:8, R2:8, R3:8, R4:8, R5:8
        CFI Resource R6:8, R7:8, V0:8, V1:8, V2:8, V3:8, V4:8, V5:8, V6:8, V7:8
        CFI Resource V8:8, V9:8, V10:8, V11:8, V12:8, V13:8, V14:8, V15:8, SP:8
        CFI Resource PSPH:8, PSPL:8, PSP16:16, XSPH:8, XSPL:8, XSP16:16
        CFI VirtualResource ?RET:24
        CFI Resource ?BRET_EXT:8
        CFI VirtualResource ?RET_HIGH:8, ?RET_LOW:8
        CFI ResourceParts PSP16 PSPH, PSPL
        CFI ResourceParts XSP16 XSPH, XSPL
        CFI ResourceParts ?RET ?BRET_EXT, ?RET_HIGH, ?RET_LOW
        CFI EndNames cfiNames0
        
        CFI Common cfiCommon0 Using cfiNames0
        CFI CodeAlign 1
        CFI DataAlign -1
        CFI ReturnAddress ?RET CODE
        CFI CFA_DOVERLAY Used
        CFI CFA_IOVERLAY Used
        CFI CFA_SP SP+-3
        CFI CFA_PSP16 PSP16+0
        CFI CFA_XSP16 XSP16+0
        CFI `PSW.CY` SameValue
        CFI `B.BR0` SameValue
        CFI `B.BR1` SameValue
        CFI `B.BR2` SameValue
        CFI `B.BR3` SameValue
        CFI `B.BR4` SameValue
        CFI `B.BR5` SameValue
        CFI `B.BR6` SameValue
        CFI `B.BR7` SameValue
        CFI `VB.BR8` SameValue
        CFI `VB.BR9` SameValue
        CFI `VB.BR10` SameValue
        CFI `VB.BR11` SameValue
        CFI `VB.BR12` SameValue
        CFI `VB.BR13` SameValue
        CFI `VB.BR14` SameValue
        CFI `VB.BR15` SameValue
        CFI VB SameValue
        CFI B Undefined
        CFI A Undefined
        CFI PSW SameValue
        CFI DPL0 SameValue
        CFI DPH0 SameValue
        CFI R0 Undefined
        CFI R1 Undefined
        CFI R2 Undefined
        CFI R3 Undefined
        CFI R4 Undefined
        CFI R5 Undefined
        CFI R6 SameValue
        CFI R7 SameValue
        CFI V0 SameValue
        CFI V1 SameValue
        CFI V2 SameValue
        CFI V3 SameValue
        CFI V4 SameValue
        CFI V5 SameValue
        CFI V6 SameValue
        CFI V7 SameValue
        CFI V8 SameValue
        CFI V9 SameValue
        CFI V10 SameValue
        CFI V11 SameValue
        CFI V12 SameValue
        CFI V13 SameValue
        CFI V14 SameValue
        CFI V15 SameValue
        CFI PSPH Undefined
        CFI PSPL Undefined
        CFI XSPH Undefined
        CFI XSPL Undefined
        CFI ?RET Concat
        CFI ?BRET_EXT Frame(CFA_SP, 3)
        CFI ?RET_HIGH Frame(CFA_SP, 2)
        CFI ?RET_LOW Frame(CFA_SP, 1)
        CFI EndCommon cfiCommon0
        
        
        CFI Common cfiCommon1 Using cfiNames0
        CFI CodeAlign 1
        CFI DataAlign -1
        CFI ReturnAddress ?RET CODE
        CFI CFA_DOVERLAY Used
        CFI CFA_IOVERLAY Used
        CFI CFA_SP SP+-2
        CFI CFA_PSP16 PSP16+0
        CFI CFA_XSP16 XSP16+0
        CFI `PSW.CY` SameValue
        CFI `B.BR0` SameValue
        CFI `B.BR1` SameValue
        CFI `B.BR2` SameValue
        CFI `B.BR3` SameValue
        CFI `B.BR4` SameValue
        CFI `B.BR5` SameValue
        CFI `B.BR6` SameValue
        CFI `B.BR7` SameValue
        CFI `VB.BR8` SameValue
        CFI `VB.BR9` SameValue
        CFI `VB.BR10` SameValue
        CFI `VB.BR11` SameValue
        CFI `VB.BR12` SameValue
        CFI `VB.BR13` SameValue
        CFI `VB.BR14` SameValue
        CFI `VB.BR15` SameValue
        CFI VB SameValue
        CFI B SameValue
        CFI A SameValue
        CFI PSW SameValue
        CFI DPL0 SameValue
        CFI DPH0 SameValue
        CFI R0 SameValue
        CFI R1 SameValue
        CFI R2 SameValue
        CFI R3 SameValue
        CFI R4 SameValue
        CFI R5 SameValue
        CFI R6 SameValue
        CFI R7 SameValue
        CFI V0 SameValue
        CFI V1 SameValue
        CFI V2 SameValue
        CFI V3 SameValue
        CFI V4 SameValue
        CFI V5 SameValue
        CFI V6 SameValue
        CFI V7 SameValue
        CFI V8 SameValue
        CFI V9 SameValue
        CFI V10 SameValue
        CFI V11 SameValue
        CFI V12 SameValue
        CFI V13 SameValue
        CFI V14 SameValue
        CFI V15 SameValue
        CFI PSPH Undefined
        CFI PSPL Undefined
        CFI XSPH Undefined
        CFI XSPL Undefined
        CFI ?RET Concat
        CFI ?BRET_EXT SameValue
        CFI ?RET_HIGH Frame(CFA_SP, 2)
        CFI ?RET_LOW Frame(CFA_SP, 1)
        CFI EndCommon cfiCommon1
        
RegisterForKeys     SYMBOL "RegisterForKeys"
ZDO_RegisterForZDOMsg SYMBOL "ZDO_RegisterForZDOMsg"
osal_msg_receive    SYMBOL "osal_msg_receive"
osal_strlen         SYMBOL "osal_strlen"
HalUARTWrite        SYMBOL "HalUARTWrite"
osal_msg_deallocate SYMBOL "osal_msg_deallocate"
osal_mem_alloc      SYMBOL "osal_mem_alloc"
Sys_BindConfirm     SYMBOL "Sys_BindConfirm"
ZDO_ParseEPListRsp  SYMBOL "ZDO_ParseEPListRsp"
APSME_BindRequest   SYMBOL "APSME_BindRequest"
osal_stop_timerEx   SYMBOL "osal_stop_timerEx"
osal_start_timerEx  SYMBOL "osal_start_timerEx"
ZDP_IEEEAddrReq     SYMBOL "ZDP_IEEEAddrReq"
osal_memcpy         SYMBOL "osal_memcpy"
afRegister          SYMBOL "afRegister"
sAddrExtCpy         SYMBOL "sAddrExtCpy"
ZDP_NwkAddrReq      SYMBOL "ZDP_NwkAddrReq"
ZDO_AnyClusterMatches SYMBOL "ZDO_AnyClusterMatches"
ZDP_MatchDescReq    SYMBOL "ZDP_MatchDescReq"
bindRemoveEntry     SYMBOL "bindRemoveEntry"
bindFind            SYMBOL "bindFind"
??APSME_BindRequest?relay SYMBOL "?relay", APSME_BindRequest
??HalUARTWrite?relay SYMBOL "?relay", HalUARTWrite
??RegisterForKeys?relay SYMBOL "?relay", RegisterForKeys
??Sys_BindConfirm?relay SYMBOL "?relay", Sys_BindConfirm
??ZDO_AnyClusterMatches?relay SYMBOL "?relay", ZDO_AnyClusterMatches
??ZDO_ParseEPListRsp?relay SYMBOL "?relay", ZDO_ParseEPListRsp
??ZDO_RegisterForZDOMsg?relay SYMBOL "?relay", ZDO_RegisterForZDOMsg
??ZDP_IEEEAddrReq?relay SYMBOL "?relay", ZDP_IEEEAddrReq
??ZDP_MatchDescReq?relay SYMBOL "?relay", ZDP_MatchDescReq
??ZDP_NwkAddrReq?relay SYMBOL "?relay", ZDP_NwkAddrReq
??afRegister?relay  SYMBOL "?relay", afRegister
??bindFind?relay    SYMBOL "?relay", bindFind
??bindRemoveEntry?relay SYMBOL "?relay", bindRemoveEntry
??osal_mem_alloc?relay SYMBOL "?relay", osal_mem_alloc
??osal_memcpy?relay SYMBOL "?relay", osal_memcpy
??osal_msg_deallocate?relay SYMBOL "?relay", osal_msg_deallocate
??osal_msg_receive?relay SYMBOL "?relay", osal_msg_receive
??osal_start_timerEx?relay SYMBOL "?relay", osal_start_timerEx
??osal_stop_timerEx?relay SYMBOL "?relay", osal_stop_timerEx
??osal_strlen?relay SYMBOL "?relay", osal_strlen
??sAddrExtCpy?relay SYMBOL "?relay", sAddrExtCpy
Key_BindDevice      SYMBOL "Key_BindDevice"
??Key_BindDevice?relay SYMBOL "?relay", Key_BindDevice
Key_HandleKeys      SYMBOL "Key_HandleKeys"
??Key_HandleKeys?relay SYMBOL "?relay", Key_HandleKeys
Key_Init            SYMBOL "Key_Init"
??Key_Init?relay    SYMBOL "?relay", Key_Init
Key_ProcessEvent    SYMBOL "Key_ProcessEvent"
??Key_ProcessEvent?relay SYMBOL "?relay", Key_ProcessEvent
Key_ProcessZDOMsgs  SYMBOL "Key_ProcessZDOMsgs"
??Key_ProcessZDOMsgs?relay SYMBOL "?relay", Key_ProcessZDOMsgs

        EXTERN RegisterForKeys
        FUNCTION RegisterForKeys,0202H
        ARGFRAME ISTACK, 0, STACK
        ARGFRAME PSTACK, 0, STACK
        ARGFRAME XSTACK, 9, STACK
        ARGFRAME IOVERLAY, 0, STATIC
        ARGFRAME DOVERLAY, 0, STATIC
        EXTERN ZDO_RegisterForZDOMsg
        FUNCTION ZDO_RegisterForZDOMsg,0202H
        ARGFRAME ISTACK, 0, STACK
        ARGFRAME PSTACK, 0, STACK
        ARGFRAME XSTACK, 9, STACK
        ARGFRAME IOVERLAY, 0, STATIC
        ARGFRAME DOVERLAY, 0, STATIC
        EXTERN osal_msg_receive
        FUNCTION osal_msg_receive,0202H
        ARGFRAME ISTACK, 0, STACK
        ARGFRAME PSTACK, 0, STACK
        ARGFRAME XSTACK, 22, STACK
        ARGFRAME IOVERLAY, 0, STATIC
        ARGFRAME DOVERLAY, 0, STATIC
        EXTERN osal_strlen
        FUNCTION osal_strlen,0202H
        ARGFRAME ISTACK, 0, STACK
        ARGFRAME PSTACK, 0, STACK
        ARGFRAME XSTACK, 22, STACK
        ARGFRAME IOVERLAY, 0, STATIC
        ARGFRAME DOVERLAY, 0, STATIC
        EXTERN HalUARTWrite
        FUNCTION HalUARTWrite,0202H
        ARGFRAME ISTACK, 0, STACK
        ARGFRAME PSTACK, 0, STACK
        ARGFRAME XSTACK, 22, STACK
        ARGFRAME IOVERLAY, 0, STATIC
        ARGFRAME DOVERLAY, 0, STATIC
        EXTERN osal_msg_deallocate
        FUNCTION osal_msg_deallocate,0202H
        ARGFRAME ISTACK, 0, STACK
        ARGFRAME PSTACK, 0, STACK
        ARGFRAME XSTACK, 22, STACK
        ARGFRAME IOVERLAY, 0, STATIC
        ARGFRAME DOVERLAY, 0, STATIC
        EXTERN osal_mem_alloc
        FUNCTION osal_mem_alloc,0202H
        ARGFRAME ISTACK, 0, STACK
        ARGFRAME PSTACK, 0, STACK
        ARGFRAME XSTACK, 39, STACK
        ARGFRAME IOVERLAY, 0, STATIC
        ARGFRAME DOVERLAY, 0, STATIC
        EXTERN Sys_BindConfirm
        FUNCTION Sys_BindConfirm,0202H
        ARGFRAME ISTACK, 0, STACK
        ARGFRAME PSTACK, 0, STACK
        ARGFRAME XSTACK, 22, STACK
        ARGFRAME IOVERLAY, 0, STATIC
        ARGFRAME DOVERLAY, 0, STATIC
        EXTERN ZDO_ParseEPListRsp
        FUNCTION ZDO_ParseEPListRsp,0202H
        ARGFRAME ISTACK, 0, STACK
        ARGFRAME PSTACK, 0, STACK
        ARGFRAME XSTACK, 20, STACK
        ARGFRAME IOVERLAY, 0, STATIC
        ARGFRAME DOVERLAY, 0, STATIC
        EXTERN APSME_BindRequest
        FUNCTION APSME_BindRequest,0202H
        ARGFRAME ISTACK, 0, STACK
        ARGFRAME PSTACK, 0, STACK
        ARGFRAME XSTACK, 40, STACK
        ARGFRAME IOVERLAY, 0, STATIC
        ARGFRAME DOVERLAY, 0, STATIC
        EXTERN osal_stop_timerEx
        FUNCTION osal_stop_timerEx,0202H
        ARGFRAME ISTACK, 0, STACK
        ARGFRAME PSTACK, 0, STACK
        ARGFRAME XSTACK, 20, STACK
        ARGFRAME IOVERLAY, 0, STATIC
        ARGFRAME DOVERLAY, 0, STATIC
        EXTERN osal_start_timerEx
        FUNCTION osal_start_timerEx,0202H
        ARGFRAME ISTACK, 0, STACK
        ARGFRAME PSTACK, 0, STACK
        ARGFRAME XSTACK, 39, STACK
        ARGFRAME IOVERLAY, 0, STATIC
        ARGFRAME DOVERLAY, 0, STATIC
        EXTERN ZDP_IEEEAddrReq
        FUNCTION ZDP_IEEEAddrReq,0202H
        ARGFRAME ISTACK, 0, STACK
        ARGFRAME PSTACK, 0, STACK
        ARGFRAME XSTACK, 20, STACK
        ARGFRAME IOVERLAY, 0, STATIC
        ARGFRAME DOVERLAY, 0, STATIC
        EXTERN osal_memcpy
        FUNCTION osal_memcpy,0202H
        ARGFRAME ISTACK, 0, STACK
        ARGFRAME PSTACK, 0, STACK
        ARGFRAME XSTACK, 42, STACK
        ARGFRAME IOVERLAY, 0, STATIC
        ARGFRAME DOVERLAY, 0, STATIC
        EXTERN afRegister
        FUNCTION afRegister,0202H
        ARGFRAME ISTACK, 0, STACK
        ARGFRAME PSTACK, 0, STACK
        ARGFRAME XSTACK, 39, STACK
        ARGFRAME IOVERLAY, 0, STATIC
        ARGFRAME DOVERLAY, 0, STATIC
        EXTERN sAddrExtCpy
        FUNCTION sAddrExtCpy,0202H
        ARGFRAME ISTACK, 0, STACK
        ARGFRAME PSTACK, 0, STACK
        ARGFRAME XSTACK, 39, STACK
        ARGFRAME IOVERLAY, 0, STATIC
        ARGFRAME DOVERLAY, 0, STATIC
        EXTERN ZDP_NwkAddrReq
        FUNCTION ZDP_NwkAddrReq,0202H
        ARGFRAME ISTACK, 0, STACK
        ARGFRAME PSTACK, 0, STACK
        ARGFRAME XSTACK, 39, STACK
        ARGFRAME IOVERLAY, 0, STATIC
        ARGFRAME DOVERLAY, 0, STATIC
        EXTERN ZDO_AnyClusterMatches
        FUNCTION ZDO_AnyClusterMatches,0202H
        ARGFRAME ISTACK, 0, STACK
        ARGFRAME PSTACK, 0, STACK
        ARGFRAME XSTACK, 41, STACK
        ARGFRAME IOVERLAY, 0, STATIC
        ARGFRAME DOVERLAY, 0, STATIC
        EXTERN ZDP_MatchDescReq
        FUNCTION ZDP_MatchDescReq,0202H
        ARGFRAME ISTACK, 0, STACK
        ARGFRAME PSTACK, 0, STACK
        ARGFRAME XSTACK, 47, STACK
        ARGFRAME IOVERLAY, 0, STATIC
        ARGFRAME DOVERLAY, 0, STATIC
        EXTERN bindRemoveEntry
        FUNCTION bindRemoveEntry,0202H
        ARGFRAME ISTACK, 0, STACK
        ARGFRAME PSTACK, 0, STACK
        ARGFRAME XSTACK, 39, STACK
        ARGFRAME IOVERLAY, 0, STATIC
        ARGFRAME DOVERLAY, 0, STATIC
        EXTERN bindFind
        FUNCTION bindFind,0202H
        ARGFRAME ISTACK, 0, STACK
        ARGFRAME PSTACK, 0, STACK
        ARGFRAME XSTACK, 39, STACK
        ARGFRAME IOVERLAY, 0, STATIC
        ARGFRAME DOVERLAY, 0, STATIC
        EXTERN ??APSME_BindRequest?relay
        FUNCTION ??APSME_BindRequest?relay,00H
        EXTERN ??HalUARTWrite?relay
        FUNCTION ??HalUARTWrite?relay,00H
        EXTERN ??RegisterForKeys?relay
        FUNCTION ??RegisterForKeys?relay,00H
        EXTERN ??Sys_BindConfirm?relay
        FUNCTION ??Sys_BindConfirm?relay,00H
        EXTERN ??ZDO_AnyClusterMatches?relay
        FUNCTION ??ZDO_AnyClusterMatches?relay,00H
        EXTERN ??ZDO_ParseEPListRsp?relay
        FUNCTION ??ZDO_ParseEPListRsp?relay,00H
        EXTERN ??ZDO_RegisterForZDOMsg?relay
        FUNCTION ??ZDO_RegisterForZDOMsg?relay,00H
        EXTERN ??ZDP_IEEEAddrReq?relay
        FUNCTION ??ZDP_IEEEAddrReq?relay,00H
        EXTERN ??ZDP_MatchDescReq?relay
        FUNCTION ??ZDP_MatchDescReq?relay,00H
        EXTERN ??ZDP_NwkAddrReq?relay
        FUNCTION ??ZDP_NwkAddrReq?relay,00H
        EXTERN ??afRegister?relay
        FUNCTION ??afRegister?relay,00H
        EXTERN ??bindFind?relay
        FUNCTION ??bindFind?relay,00H
        EXTERN ??bindRemoveEntry?relay
        FUNCTION ??bindRemoveEntry?relay,00H
        EXTERN ??osal_mem_alloc?relay
        FUNCTION ??osal_mem_alloc?relay,00H
        EXTERN ??osal_memcpy?relay
        FUNCTION ??osal_memcpy?relay,00H
        EXTERN ??osal_msg_deallocate?relay
        FUNCTION ??osal_msg_deallocate?relay,00H
        EXTERN ??osal_msg_receive?relay
        FUNCTION ??osal_msg_receive?relay,00H
        EXTERN ??osal_start_timerEx?relay
        FUNCTION ??osal_start_timerEx?relay,00H
        EXTERN ??osal_stop_timerEx?relay
        FUNCTION ??osal_stop_timerEx?relay,00H
        EXTERN ??osal_strlen?relay
        FUNCTION ??osal_strlen?relay,00H
        EXTERN ??sAddrExtCpy?relay
        FUNCTION ??sAddrExtCpy?relay,00H
        EXTERN AIB_MaxBindingTime
        EXTERN ZDAppTaskID
        EXTERN myAppState

// D:\ProgramData\Hardware\zigbee\Projects\zstack\Samples\SensorSys\Source\Key_Coor.c
//    1 /*********************************************************************
//    2  * INCLUDES
//    3  */
//    4 #include "OSAL.h"
//    5 #include "AF.h"
//    6 #include "ZDApp.h"
//    7 #include "ZDObject.h"
//    8 #include "ZDProfile.h"
//    9 #include "sapi.h"
//   10 
//   11 #include "SensorSys_Coor.h"
//   12 #include "device.h"
//   13 #include "DebugTrace.h"
//   14 
//   15 #if !defined( WIN32 )
//   16   #include "OnBoard.h"
//   17 #endif
//   18 
//   19 /* HAL */
//   20 #include "hal_led.h"
//   21 #include "hal_key.h"
//   22 #include "hal_uart.h"
//   23 
//   24 /*********************************************************************
//   25  * MACROS
//   26  */
//   27 
//   28 /*********************************************************************
//   29  * CONSTANTS
//   30  */
//   31 
//   32 /*********************************************************************
//   33  * TYPEDEFS
//   34  */
//   35 
//   36 /*********************************************************************
//   37  * GLOBAL VARIABLES
//   38  */

        RSEG XDATA_Z:XDATA:NOROOT(0)
        DATA8
//   39 byte Key_TaskID;
Key_TaskID:
        DS 1
        REQUIRE __INIT_XDATA_Z

        RSEG XDATA_Z:XDATA:NOROOT(0)
        DATA8
//   40 uint8 keyCnt;
keyCnt:
        DS 1
        REQUIRE __INIT_XDATA_Z
//   41 
//   42 // Key 端点的簇ID
//   43 // This list should be filled with Application specific Cluster IDs.

        RSEG XDATA_I:XDATA:NOROOT(0)
//   44 cId_t Key_ClusterList[KEY_MAX_CLUSTERS] =
Key_ClusterList:
        DATA8
        DS 8
        REQUIRE `?<Initializer for Key_ClusterList>`
        REQUIRE __INIT_XDATA_I
//   45 {
//   46   PORT_INIT_CLUSTER,
//   47     OPERATE_CLUSTER,
//   48     DELETE_CLUSTER
//   49 };
//   50 
//   51 // Key 端点简单描述符

        RSEG XDATA_Z:XDATA:NOROOT(0)
        DATA8
//   52 SimpleDescriptionFormat_t *Key_SimpleDesc[KEY_NUM_MAX];
Key_SimpleDesc:
        DS 100
        REQUIRE __INIT_XDATA_Z
//   53 

        RSEG XDATA_Z:XDATA:NOROOT(0)
        DATA8
//   54 endPointDesc_t *Key_epDesc[KEY_NUM_MAX];
Key_epDesc:
        DS 100
        REQUIRE __INIT_XDATA_Z
//   55 
//   56 /*********************************************************************
//   57  * EXTERNAL VARIABLES
//   58  */
//   59 extern uint8 myAppState;
//   60 /*********************************************************************
//   61  * EXTERNAL FUNCTIONS
//   62  */
//   63 
//   64 /*********************************************************************
//   65  * LOCAL VARIABLES
//   66  */
//   67 

        RSEG XDATA_Z:XDATA:NOROOT(0)
        DATA8
//   68 afAddrType_t Key_DstAddr;
Key_DstAddr:
        DS 12
        REQUIRE __INIT_XDATA_Z

        RSEG XDATA_Z:XDATA:NOROOT(0)
        DATA16
//   69 uint16 key_bindInProgress;
key_bindInProgress:
        DS 2
        REQUIRE __INIT_XDATA_Z
//   70 
//   71 
//   72 /*********************************************************************
//   73  * LOCAL FUNCTIONS
//   74  */
//   75 void Key_Init( byte task_id );
//   76 void Key_ProcessZDOMsgs( zdoIncomingMsg_t *inMsg );
//   77 void Key_HandleKeys( byte shift, byte keys );
//   78 
//   79 void Key_BindDevice ( uint8 create, uint8 endpoint, uint16 *commandId, uint8 *pDestination );
//   80 
//   81 static void Key_ReceiveDataIndication( uint16 source, uint8 endPoint, uint16 command, uint16 len, uint8 *pData  );
//   82 static void SAPI_BindConfirm( uint16 commandId, uint8 status );
//   83 /*********************************************************************
//   84  * @fn      Key_Init
//   85  *
//   86  * @brief   Initialization function for the Generic App Task.
//   87  *          This is called during initialization and should contain
//   88  *          any application specific initialization (ie. hardware
//   89  *          initialization/setup, table initialization, power up
//   90  *          notificaiton ... ).
//   91  *
//   92  * @param   task_id - the ID assigned by OSAL.  This ID should be
//   93  *                    used to send messages and set timers.
//   94  *
//   95  * @return  none
//   96  */

        RSEG BANKED_CODE:CODE:NOROOT(0)
//   97 void Key_Init( byte task_id )
Key_Init:
        CFI Block cfiBlock0 Using cfiCommon0
        CFI Function Key_Init
        CODE
//   98 {
        FUNCALL Key_Init, RegisterForKeys
        LOCFRAME ISTACK, 0, STACK
        LOCFRAME PSTACK, 0, STACK
        LOCFRAME XSTACK, 9, STACK
        LOCFRAME IOVERLAY, 0, STATIC
        LOCFRAME DOVERLAY, 0, STATIC
        ARGFRAME ISTACK, 0, STACK
        ARGFRAME PSTACK, 0, STACK
        ARGFRAME XSTACK, 9, STACK
        ARGFRAME IOVERLAY, 0, STATIC
        ARGFRAME DOVERLAY, 0, STATIC
        FUNCALL Key_Init, ZDO_RegisterForZDOMsg
        LOCFRAME ISTACK, 0, STACK
        LOCFRAME PSTACK, 0, STACK
        LOCFRAME XSTACK, 9, STACK
        LOCFRAME IOVERLAY, 0, STATIC
        LOCFRAME DOVERLAY, 0, STATIC
        ARGFRAME ISTACK, 0, STACK
        ARGFRAME PSTACK, 0, STACK
        ARGFRAME XSTACK, 9, STACK
        ARGFRAME IOVERLAY, 0, STATIC
        ARGFRAME DOVERLAY, 0, STATIC
        MOV     A,#-0x9
        LCALL   ?BANKED_ENTER_XDATA
        CFI DPH0 load(1, XDATA, add(CFA_XSP16, literal(-1)))
        CFI DPL0 load(1, XDATA, add(CFA_XSP16, literal(-2)))
        CFI ?BRET_EXT load(1, XDATA, add(CFA_XSP16, literal(-3)))
        CFI ?RET_HIGH load(1, XDATA, add(CFA_XSP16, literal(-4)))
        CFI ?RET_LOW load(1, XDATA, add(CFA_XSP16, literal(-5)))
        CFI R7 load(1, XDATA, add(CFA_XSP16, literal(-6)))
        CFI V0 load(1, XDATA, add(CFA_XSP16, literal(-7)))
        CFI VB load(1, XDATA, add(CFA_XSP16, literal(-8)))
        CFI R6 load(1, XDATA, add(CFA_XSP16, literal(-9)))
        CFI CFA_SP SP+0
        CFI CFA_XSP16 add(XSP16, 9)
        ; Saved register size: 9
        ; Auto size: 0
        MOV     A,R1
//   99   Key_TaskID = task_id;
        MOV     DPTR,#Key_TaskID
        MOVX    @DPTR,A
//  100   keyCnt = 0;
        MOV     DPTR,#keyCnt
        CLR     A
        MOVX    @DPTR,A
//  101   
//  102   // Device hardware initialization can be added here or in main() (Zmain.c).
//  103   // If the hardware is application specific - add it here.
//  104   // If the hardware is other parts of the device add it in main().
//  105 
//  106   Key_DstAddr.addrMode = (afAddrMode_t)AddrNotPresent;
        MOV     DPTR,#Key_DstAddr + 8
        MOVX    @DPTR,A
//  107   Key_DstAddr.endPoint = 0;
        INC     DPTR
        MOVX    @DPTR,A
//  108   Key_DstAddr.addr.shortAddr = 0;
        MOV     DPTR,#Key_DstAddr
        MOVX    @DPTR,A
        INC     DPTR
        MOVX    @DPTR,A
//  109 
//  110   key_bindInProgress = 0xffff;
        MOV     DPTR,#key_bindInProgress
        MOV     A,#-0x1
        MOVX    @DPTR,A
        INC     DPTR
        MOVX    @DPTR,A
//  111 
//  112   // Register for all key events - This app will handle all key events
//  113   RegisterForKeys( Key_TaskID );
        ; Setup parameters for call to function RegisterForKeys
        LCALL   ??RegisterForKeys?relay
//  114 
//  115   // To Update the display...
//  116   ZDO_RegisterForZDOMsg( Key_TaskID, Match_Desc_rsp );
        ; Setup parameters for call to function ZDO_RegisterForZDOMsg
        MOV     R2,#0x6
        MOV     R3,#-0x80
        MOV     DPTR,#Key_TaskID
        MOVX    A,@DPTR
        MOV     R1,A
        LCALL   ??ZDO_RegisterForZDOMsg?relay
//  117 }
        MOV     R7,#0x1
        LJMP    ?BANKED_LEAVE_XDATA
        CFI EndBlock cfiBlock0
//  118 
//  119 /*********************************************************************
//  120  * @fn      Key_ProcessEvent
//  121  *
//  122  * @brief   Generic Application Task event processor.  This function
//  123  *          is called to process all events for the task.  Events
//  124  *          include timers, messages and any other user defined events.
//  125  *
//  126  * @param   task_id  - The OSAL assigned task ID.
//  127  * @param   events - events to process.  This is a bit map and can
//  128  *                   contain more than one event.
//  129  *
//  130  * @return  none
//  131  */

        RSEG BANKED_CODE:CODE:NOROOT(0)
//  132 UINT16 Key_ProcessEvent( byte task_id, UINT16 events )
Key_ProcessEvent:
        CFI Block cfiBlock1 Using cfiCommon0
        CFI Function Key_ProcessEvent
        CODE
//  133 {
        FUNCALL Key_ProcessEvent, osal_msg_receive
        LOCFRAME ISTACK, 0, STACK
        LOCFRAME PSTACK, 0, STACK
        LOCFRAME XSTACK, 22, STACK
        LOCFRAME IOVERLAY, 0, STATIC
        LOCFRAME DOVERLAY, 0, STATIC
        ARGFRAME ISTACK, 0, STACK
        ARGFRAME PSTACK, 0, STACK
        ARGFRAME XSTACK, 22, STACK
        ARGFRAME IOVERLAY, 0, STATIC
        ARGFRAME DOVERLAY, 0, STATIC
        FUNCALL Key_ProcessEvent, osal_strlen
        LOCFRAME ISTACK, 0, STACK
        LOCFRAME PSTACK, 0, STACK
        LOCFRAME XSTACK, 22, STACK
        LOCFRAME IOVERLAY, 0, STATIC
        LOCFRAME DOVERLAY, 0, STATIC
        ARGFRAME ISTACK, 0, STACK
        ARGFRAME PSTACK, 0, STACK
        ARGFRAME XSTACK, 22, STACK
        ARGFRAME IOVERLAY, 0, STATIC
        ARGFRAME DOVERLAY, 0, STATIC
        FUNCALL Key_ProcessEvent, HalUARTWrite
        LOCFRAME ISTACK, 0, STACK
        LOCFRAME PSTACK, 0, STACK
        LOCFRAME XSTACK, 22, STACK
        LOCFRAME IOVERLAY, 0, STATIC
        LOCFRAME DOVERLAY, 0, STATIC
        ARGFRAME ISTACK, 0, STACK
        ARGFRAME PSTACK, 0, STACK
        ARGFRAME XSTACK, 22, STACK
        ARGFRAME IOVERLAY, 0, STATIC
        ARGFRAME DOVERLAY, 0, STATIC
        FUNCALL Key_ProcessEvent, osal_msg_deallocate
        LOCFRAME ISTACK, 0, STACK
        LOCFRAME PSTACK, 0, STACK
        LOCFRAME XSTACK, 22, STACK
        LOCFRAME IOVERLAY, 0, STATIC
        LOCFRAME DOVERLAY, 0, STATIC
        ARGFRAME ISTACK, 0, STACK
        ARGFRAME PSTACK, 0, STACK
        ARGFRAME XSTACK, 22, STACK
        ARGFRAME IOVERLAY, 0, STATIC
        ARGFRAME DOVERLAY, 0, STATIC
        FUNCALL Key_ProcessEvent, osal_msg_receive
        LOCFRAME ISTACK, 0, STACK
        LOCFRAME PSTACK, 0, STACK
        LOCFRAME XSTACK, 22, STACK
        LOCFRAME IOVERLAY, 0, STATIC
        LOCFRAME DOVERLAY, 0, STATIC
        ARGFRAME ISTACK, 0, STACK
        ARGFRAME PSTACK, 0, STACK
        ARGFRAME XSTACK, 22, STACK
        ARGFRAME IOVERLAY, 0, STATIC
        ARGFRAME DOVERLAY, 0, STATIC
        FUNCALL Key_ProcessEvent, Key_ProcessZDOMsgs
        LOCFRAME ISTACK, 0, STACK
        LOCFRAME PSTACK, 0, STACK
        LOCFRAME XSTACK, 22, STACK
        LOCFRAME IOVERLAY, 0, STATIC
        LOCFRAME DOVERLAY, 0, STATIC
        ARGFRAME ISTACK, 0, STACK
        ARGFRAME PSTACK, 0, STACK
        ARGFRAME XSTACK, 22, STACK
        ARGFRAME IOVERLAY, 0, STATIC
        ARGFRAME DOVERLAY, 0, STATIC
        FUNCALL Key_ProcessEvent, Key_HandleKeys
        LOCFRAME ISTACK, 0, STACK
        LOCFRAME PSTACK, 0, STACK
        LOCFRAME XSTACK, 22, STACK
        LOCFRAME IOVERLAY, 0, STATIC
        LOCFRAME DOVERLAY, 0, STATIC
        ARGFRAME ISTACK, 0, STACK
        ARGFRAME PSTACK, 0, STACK
        ARGFRAME XSTACK, 22, STACK
        ARGFRAME IOVERLAY, 0, STATIC
        ARGFRAME DOVERLAY, 0, STATIC
        FUNCALL Key_ProcessEvent, osal_mem_alloc
        LOCFRAME ISTACK, 0, STACK
        LOCFRAME PSTACK, 0, STACK
        LOCFRAME XSTACK, 22, STACK
        LOCFRAME IOVERLAY, 0, STATIC
        LOCFRAME DOVERLAY, 0, STATIC
        ARGFRAME ISTACK, 0, STACK
        ARGFRAME PSTACK, 0, STACK
        ARGFRAME XSTACK, 22, STACK
        ARGFRAME IOVERLAY, 0, STATIC
        ARGFRAME DOVERLAY, 0, STATIC
        FUNCALL Key_ProcessEvent, Key_BindDevice
        LOCFRAME ISTACK, 0, STACK
        LOCFRAME PSTACK, 0, STACK
        LOCFRAME XSTACK, 24, STACK
        LOCFRAME IOVERLAY, 0, STATIC
        LOCFRAME DOVERLAY, 0, STATIC
        ARGFRAME ISTACK, 0, STACK
        ARGFRAME PSTACK, 0, STACK
        ARGFRAME XSTACK, 24, STACK
        ARGFRAME IOVERLAY, 0, STATIC
        ARGFRAME DOVERLAY, 0, STATIC
        FUNCALL Key_ProcessEvent, Sys_BindConfirm
        LOCFRAME ISTACK, 0, STACK
        LOCFRAME PSTACK, 0, STACK
        LOCFRAME XSTACK, 22, STACK
        LOCFRAME IOVERLAY, 0, STATIC
        LOCFRAME DOVERLAY, 0, STATIC
        ARGFRAME ISTACK, 0, STACK
        ARGFRAME PSTACK, 0, STACK
        ARGFRAME XSTACK, 22, STACK
        ARGFRAME IOVERLAY, 0, STATIC
        ARGFRAME DOVERLAY, 0, STATIC
        MOV     A,#-0x16
        LCALL   ?BANKED_ENTER_XDATA
        CFI DPH0 load(1, XDATA, add(CFA_XSP16, literal(-1)))
        CFI DPL0 load(1, XDATA, add(CFA_XSP16, literal(-2)))
        CFI ?BRET_EXT load(1, XDATA, add(CFA_XSP16, literal(-3)))
        CFI ?RET_HIGH load(1, XDATA, add(CFA_XSP16, literal(-4)))
        CFI ?RET_LOW load(1, XDATA, add(CFA_XSP16, literal(-5)))
        CFI R7 load(1, XDATA, add(CFA_XSP16, literal(-6)))
        CFI V13 load(1, XDATA, add(CFA_XSP16, literal(-7)))
        CFI V12 load(1, XDATA, add(CFA_XSP16, literal(-8)))
        CFI V11 load(1, XDATA, add(CFA_XSP16, literal(-9)))
        CFI V10 load(1, XDATA, add(CFA_XSP16, literal(-10)))
        CFI V9 load(1, XDATA, add(CFA_XSP16, literal(-11)))
        CFI V8 load(1, XDATA, add(CFA_XSP16, literal(-12)))
        CFI V7 load(1, XDATA, add(CFA_XSP16, literal(-13)))
        CFI V6 load(1, XDATA, add(CFA_XSP16, literal(-14)))
        CFI V5 load(1, XDATA, add(CFA_XSP16, literal(-15)))
        CFI V4 load(1, XDATA, add(CFA_XSP16, literal(-16)))
        CFI V3 load(1, XDATA, add(CFA_XSP16, literal(-17)))
        CFI V2 load(1, XDATA, add(CFA_XSP16, literal(-18)))
        CFI V1 load(1, XDATA, add(CFA_XSP16, literal(-19)))
        CFI V0 load(1, XDATA, add(CFA_XSP16, literal(-20)))
        CFI VB load(1, XDATA, add(CFA_XSP16, literal(-21)))
        CFI R6 load(1, XDATA, add(CFA_XSP16, literal(-22)))
        CFI CFA_SP SP+0
        CFI CFA_XSP16 add(XSP16, 22)
        ; Saved register size: 22
        ; Auto size: 0
        MOV     A,R2
        MOV     R6,A
        MOV     A,R3
        MOV     R7,A
//  134   afIncomingMSGPacket_t *MSGpkt = NULL;
//  135 
//  136   (void)task_id;  // Intentionally unreferenced parameter
//  137 
//  138   if ( events & SYS_EVENT_MSG )
        ANL     A,#0x80
        JNZ     $+5
        LJMP    ??Key_ProcessEvent_0 & 0xFFFF
//  139   {
//  140     MSGpkt = (afIncomingMSGPacket_t *)osal_msg_receive( task_id );
        ; Setup parameters for call to function osal_msg_receive
        SJMP    ??Key_ProcessEvent_1
//  141     while ( MSGpkt )
//  142     {
//  143       switch ( MSGpkt->hdr.event )
//  144       {
//  145         case ZDO_CB_MSG:  // 收到被绑定节点的rsp
//  146           Key_ProcessZDOMsgs( (zdoIncomingMsg_t *)MSGpkt);
//  147           break;
//  148 
//  149         case KEY_CHANGE:
//  150           Key_HandleKeys( ((keyChange_t *)MSGpkt)->state, ((keyChange_t *)MSGpkt)->keys );
//  151           break;
//  152           
//  153         case AF_INCOMING_MSG_CMD:
//  154           Key_ReceiveDataIndication( MSGpkt->srcAddr.addr.shortAddr, MSGpkt->endPoint, MSGpkt->clusterId,
//  155                                     MSGpkt->cmd.DataLength, MSGpkt->cmd.Data);
??Key_ProcessEvent_2:
        MOV     DPL,?V0 + 4
        MOV     DPH,?V0 + 5
        MOVX    A,@DPTR
        PUSH    A
        CFI CFA_SP SP+-1
        MOV     A,?V0 + 2
        ADD     A,?V0 + 12
        MOV     DPL,A
        MOV     A,R3
        ADDC    A,#0x0
        MOV     DPH,A
        POP     A
        CFI CFA_SP SP+0
        MOVX    @DPTR,A
        INC     R2
        MOV     DPL,?V0 + 4
        MOV     DPH,?V0 + 5
        INC     DPTR
        MOV     ?V0 + 4,DPL
        MOV     ?V0 + 5,DPH
??Key_ProcessEvent_3:
        MOV     ?V0 + 12,R2
        MOV     A,?V0 + 6
        ADD     A,#0x1
        MOV     R0,A
        MOV     A,?V0 + 7
        ADDC    A,#0x0
        MOV     R1,A
        CLR     C
        MOV     A,?V0 + 12
        SUBB    A,R0
        CLR     A
        SUBB    A,R1
        JC      ??Key_ProcessEvent_2
        MOV     A,#0x2
        XRL     A,?V0 + 8
        JNZ     ??Key_ProcessEvent_4
        MOV     A,?V0 + 9
??Key_ProcessEvent_4:
        JNZ     ??Key_ProcessEvent_5
        ; Setup parameters for call to function HalUARTWrite
        ; Setup parameters for call to function osal_strlen
        MOV     R2,?V0 + 2
        LCALL   ??osal_strlen?relay
        MOV     A,R2
        ADD     A,#0x1
        MOV     R4,A
        CLR     A
        ADDC    A,#0x0
        MOV     R5,A
        MOV     R2,?V0 + 2
        MOV     R3,?V0 + 3
        MOV     R1,#0x0
        LCALL   ??HalUARTWrite?relay
//  156           break;
//  157       }
//  158       // Release the memory
//  159       osal_msg_deallocate( (uint8 *)MSGpkt );
??Key_ProcessEvent_5:
        ; Setup parameters for call to function osal_msg_deallocate
        MOV     R2,?V0 + 0
        MOV     R3,?V0 + 1
        LCALL   ??osal_msg_deallocate?relay
//  160 
//  161       // Next
//  162       MSGpkt = (afIncomingMSGPacket_t *)osal_msg_receive( Key_TaskID );
        ; Setup parameters for call to function osal_msg_receive
        MOV     DPTR,#Key_TaskID
        MOVX    A,@DPTR
        MOV     R1,A
??Key_ProcessEvent_1:
        LCALL   ??osal_msg_receive?relay
        MOV     ?V0 + 0,R2
        MOV     ?V0 + 1,R3
        MOV     A,?V0 + 0
        ORL     A,?V0 + 1
        JNZ     $+5
        LJMP    ??Key_ProcessEvent_6 & 0xFFFF
        MOV     DPL,?V0 + 0
        MOV     DPH,?V0 + 1
        MOVX    A,@DPTR
        ADD     A,#-0x1a
        JZ      ??Key_ProcessEvent_7
        ADD     A,#0x5a
        JZ      ??Key_ProcessEvent_8
        ADD     A,#-0x13
        JNZ     ??Key_ProcessEvent_5
        ; Setup parameters for call to function Key_ProcessZDOMsgs
        MOV     R2,?V0 + 0
        MOV     R3,?V0 + 1
        LCALL   ??Key_ProcessZDOMsgs?relay
        SJMP    ??Key_ProcessEvent_5
??Key_ProcessEvent_8:
        ; Setup parameters for call to function Key_HandleKeys
        INC     DPTR
        INC     DPTR
        INC     DPTR
        MOVX    A,@DPTR
        MOV     R2,A
        MOV     DPL,?V0 + 0
        MOV     DPH,?V0 + 1
        INC     DPTR
        INC     DPTR
        MOVX    A,@DPTR
        MOV     R1,A
        LCALL   ??Key_HandleKeys?relay
        SJMP    ??Key_ProcessEvent_5
??Key_ProcessEvent_7:
        MOV     A,?V0 + 0
        ADD     A,#0x22
        LCALL   ?Subroutine10 & 0xFFFF
//  163     }
??CrossCallReturnLabel_28:
        MOV     ?V0 + 4,A
        INC     DPTR
        MOVX    A,@DPTR
        MOV     ?V0 + 5,A
        MOV     A,?V0 + 0
        ADD     A,#0x20
        LCALL   ?Subroutine10 & 0xFFFF
??CrossCallReturnLabel_29:
        MOV     ?V0 + 6,A
        INC     DPTR
        MOVX    A,@DPTR
        MOV     ?V0 + 7,A
        MOV     DPL,?V0 + 0
        MOV     DPH,?V0 + 1
        INC     DPTR
        INC     DPTR
        INC     DPTR
        INC     DPTR
        MOVX    A,@DPTR
        MOV     ?V0 + 8,A
        INC     DPTR
        MOVX    A,@DPTR
        MOV     ?V0 + 9,A
        MOV     A,?V0 + 0
        ADD     A,#0x14
        LCALL   ?Subroutine10 & 0xFFFF
??CrossCallReturnLabel_30:
        MOV     ?V0 + 11,A
        ; Setup parameters for call to function osal_mem_alloc
        MOV     A,?V0 + 6
        ADD     A,#0x1
        MOV     R2,A
        MOV     A,?V0 + 7
        ADDC    A,#0x0
        MOV     R3,A
        LCALL   ??osal_mem_alloc?relay
        MOV     ?V0 + 2,R2
        MOV     ?V0 + 3,R3
        MOV     A,#-0xa
        ADD     A,?V0 + 11
        MOV     DPL,R2
        MOV     DPH,R3
        MOVX    @DPTR,A
        MOV     R2,#0x1
        LJMP    ??Key_ProcessEvent_3 & 0xFFFF
//  164    return (events ^ SYS_EVENT_MSG);
??Key_ProcessEvent_6:
        MOV     A,R6
        MOV     R2,A
        MOV     A,R7
        XRL     A,#0x80
??Key_ProcessEvent_9:
        MOV     R3,A
        SJMP    ??Key_ProcessEvent_10
//  165   }
//  166 
//  167   if( events & MATCH_BIND_EVT ) // 广播 match 绑定
??Key_ProcessEvent_0:
        MOV     A,R6
        ANL     A,#0x2
        JZ      ??Key_ProcessEvent_11
//  168   {
//  169     if(keyCnt == KEY_NUM_MAX)
        MOV     DPTR,#keyCnt
        MOVX    A,@DPTR
        XRL     A,#0x32
        JZ      ??Key_ProcessEvent_12
//  170     {
//  171         // do something
//  172     }
//  173     else
//  174     {
//  175         Key_BindDevice(TRUE, KEY_ENDPOINT+keyCnt, Key_ClusterList, NULL); 
        ; Setup parameters for call to function Key_BindDevice
        CLR     A
        MOV     ?V0 + 0,A
        MOV     ?V0 + 1,A
        MOV     R0,#?V0 + 0
        LCALL   ?PUSH_XSTACK_I_TWO
        CFI CFA_XSP16 add(XSP16, 24)
        MOV     R4,#Key_ClusterList & 0xff
        MOV     R5,#(Key_ClusterList >> 8) & 0xff
        MOV     DPTR,#keyCnt
        MOVX    A,@DPTR
        ADD     A,#0xa
        MOV     R2,A
        MOV     R1,#0x1
        LCALL   ??Key_BindDevice?relay
        MOV     A,#0x2
        LCALL   ?DEALLOC_XSTACK8
        CFI CFA_XSP16 add(XSP16, 22)
//  176     }
//  177     return (events ^ MATCH_BIND_EVT);
??Key_ProcessEvent_12:
        MOV     A,R6
        XRL     A,#0x2
??Key_ProcessEvent_13:
        MOV     R2,A
        MOV     A,R7
        SJMP    ??Key_ProcessEvent_9
//  178   }
//  179   
//  180   if ( events & KEY_BIND_TIMER )
??Key_ProcessEvent_11:
        MOV     A,R6
        ANL     A,#0x21
        JZ      ??Key_ProcessEvent_14
//  181   {
//  182     // Send bind confirm callback to application
//  183     SAPI_BindConfirm( key_bindInProgress, ZB_TIMEOUT );
        ; Setup parameters for call to function Sys_BindConfirm
        MOV     R1,#0x21
        LCALL   ?Subroutine3 & 0xFFFF
//  184     key_bindInProgress = 0xffff;
//  185 
//  186     return (events ^ KEY_BIND_TIMER);
??CrossCallReturnLabel_6:
        MOV     A,R6
        XRL     A,#0x21
        SJMP    ??Key_ProcessEvent_13
//  187   }
//  188   
//  189   return 0;
??Key_ProcessEvent_14:
        MOV     R2,#0x0
        MOV     R3,#0x0
??Key_ProcessEvent_10:
        MOV     R7,#0xe
        LJMP    ?BANKED_LEAVE_XDATA
        CFI EndBlock cfiBlock1
//  190 }

        RSEG BANKED_CODE:CODE:NOROOT(0)
?Subroutine10:
        CFI Block cfiCond2 Using cfiCommon0
        CFI NoFunction
        CFI Conditional ??CrossCallReturnLabel_28
        CFI R6 load(1, XDATA, add(CFA_XSP16, literal(-22)))
        CFI VB load(1, XDATA, add(CFA_XSP16, literal(-21)))
        CFI V0 load(1, XDATA, add(CFA_XSP16, literal(-20)))
        CFI V1 load(1, XDATA, add(CFA_XSP16, literal(-19)))
        CFI V2 load(1, XDATA, add(CFA_XSP16, literal(-18)))
        CFI V3 load(1, XDATA, add(CFA_XSP16, literal(-17)))
        CFI V4 load(1, XDATA, add(CFA_XSP16, literal(-16)))
        CFI V5 load(1, XDATA, add(CFA_XSP16, literal(-15)))
        CFI V6 load(1, XDATA, add(CFA_XSP16, literal(-14)))
        CFI V7 load(1, XDATA, add(CFA_XSP16, literal(-13)))
        CFI V8 load(1, XDATA, add(CFA_XSP16, literal(-12)))
        CFI V9 load(1, XDATA, add(CFA_XSP16, literal(-11)))
        CFI V10 load(1, XDATA, add(CFA_XSP16, literal(-10)))
        CFI V11 load(1, XDATA, add(CFA_XSP16, literal(-9)))
        CFI V12 load(1, XDATA, add(CFA_XSP16, literal(-8)))
        CFI V13 load(1, XDATA, add(CFA_XSP16, literal(-7)))
        CFI R7 load(1, XDATA, add(CFA_XSP16, literal(-6)))
        CFI ?RET_LOW load(1, XDATA, add(CFA_XSP16, literal(-5)))
        CFI ?RET_HIGH load(1, XDATA, add(CFA_XSP16, literal(-4)))
        CFI ?BRET_EXT load(1, XDATA, add(CFA_XSP16, literal(-3)))
        CFI DPL0 load(1, XDATA, add(CFA_XSP16, literal(-2)))
        CFI DPH0 load(1, XDATA, add(CFA_XSP16, literal(-1)))
        CFI CFA_SP SP+0
        CFI CFA_XSP16 add(XSP16, 22)
        CFI Block cfiCond3 Using cfiCommon0
        CFI (cfiCond3) NoFunction
        CFI (cfiCond3) Conditional ??CrossCallReturnLabel_29
        CFI (cfiCond3) R6 load(1, XDATA, add(CFA_XSP16, literal(-22)))
        CFI (cfiCond3) VB load(1, XDATA, add(CFA_XSP16, literal(-21)))
        CFI (cfiCond3) V0 load(1, XDATA, add(CFA_XSP16, literal(-20)))
        CFI (cfiCond3) V1 load(1, XDATA, add(CFA_XSP16, literal(-19)))
        CFI (cfiCond3) V2 load(1, XDATA, add(CFA_XSP16, literal(-18)))
        CFI (cfiCond3) V3 load(1, XDATA, add(CFA_XSP16, literal(-17)))
        CFI (cfiCond3) V4 load(1, XDATA, add(CFA_XSP16, literal(-16)))
        CFI (cfiCond3) V5 load(1, XDATA, add(CFA_XSP16, literal(-15)))
        CFI (cfiCond3) V6 load(1, XDATA, add(CFA_XSP16, literal(-14)))
        CFI (cfiCond3) V7 load(1, XDATA, add(CFA_XSP16, literal(-13)))
        CFI (cfiCond3) V8 load(1, XDATA, add(CFA_XSP16, literal(-12)))
        CFI (cfiCond3) V9 load(1, XDATA, add(CFA_XSP16, literal(-11)))
        CFI (cfiCond3) V10 load(1, XDATA, add(CFA_XSP16, literal(-10)))
        CFI (cfiCond3) V11 load(1, XDATA, add(CFA_XSP16, literal(-9)))
        CFI (cfiCond3) V12 load(1, XDATA, add(CFA_XSP16, literal(-8)))
        CFI (cfiCond3) V13 load(1, XDATA, add(CFA_XSP16, literal(-7)))
        CFI (cfiCond3) R7 load(1, XDATA, add(CFA_XSP16, literal(-6)))
        CFI (cfiCond3) ?RET_LOW load(1, XDATA, add(CFA_XSP16, literal(-5)))
        CFI (cfiCond3) ?RET_HIGH load(1, XDATA, add(CFA_XSP16, literal(-4)))
        CFI (cfiCond3) ?BRET_EXT load(1, XDATA, add(CFA_XSP16, literal(-3)))
        CFI (cfiCond3) DPL0 load(1, XDATA, add(CFA_XSP16, literal(-2)))
        CFI (cfiCond3) DPH0 load(1, XDATA, add(CFA_XSP16, literal(-1)))
        CFI (cfiCond3) CFA_SP SP+0
        CFI (cfiCond3) CFA_XSP16 add(XSP16, 22)
        CFI Block cfiCond4 Using cfiCommon0
        CFI (cfiCond4) NoFunction
        CFI (cfiCond4) Conditional ??CrossCallReturnLabel_30
        CFI (cfiCond4) R6 load(1, XDATA, add(CFA_XSP16, literal(-22)))
        CFI (cfiCond4) VB load(1, XDATA, add(CFA_XSP16, literal(-21)))
        CFI (cfiCond4) V0 load(1, XDATA, add(CFA_XSP16, literal(-20)))
        CFI (cfiCond4) V1 load(1, XDATA, add(CFA_XSP16, literal(-19)))
        CFI (cfiCond4) V2 load(1, XDATA, add(CFA_XSP16, literal(-18)))
        CFI (cfiCond4) V3 load(1, XDATA, add(CFA_XSP16, literal(-17)))
        CFI (cfiCond4) V4 load(1, XDATA, add(CFA_XSP16, literal(-16)))
        CFI (cfiCond4) V5 load(1, XDATA, add(CFA_XSP16, literal(-15)))
        CFI (cfiCond4) V6 load(1, XDATA, add(CFA_XSP16, literal(-14)))
        CFI (cfiCond4) V7 load(1, XDATA, add(CFA_XSP16, literal(-13)))
        CFI (cfiCond4) V8 load(1, XDATA, add(CFA_XSP16, literal(-12)))
        CFI (cfiCond4) V9 load(1, XDATA, add(CFA_XSP16, literal(-11)))
        CFI (cfiCond4) V10 load(1, XDATA, add(CFA_XSP16, literal(-10)))
        CFI (cfiCond4) V11 load(1, XDATA, add(CFA_XSP16, literal(-9)))
        CFI (cfiCond4) V12 load(1, XDATA, add(CFA_XSP16, literal(-8)))
        CFI (cfiCond4) V13 load(1, XDATA, add(CFA_XSP16, literal(-7)))
        CFI (cfiCond4) R7 load(1, XDATA, add(CFA_XSP16, literal(-6)))
        CFI (cfiCond4) ?RET_LOW load(1, XDATA, add(CFA_XSP16, literal(-5)))
        CFI (cfiCond4) ?RET_HIGH load(1, XDATA, add(CFA_XSP16, literal(-4)))
        CFI (cfiCond4) ?BRET_EXT load(1, XDATA, add(CFA_XSP16, literal(-3)))
        CFI (cfiCond4) DPL0 load(1, XDATA, add(CFA_XSP16, literal(-2)))
        CFI (cfiCond4) DPH0 load(1, XDATA, add(CFA_XSP16, literal(-1)))
        CFI (cfiCond4) CFA_SP SP+0
        CFI (cfiCond4) CFA_XSP16 add(XSP16, 22)
        CFI Block cfiPicker5 Using cfiCommon1
        CFI (cfiPicker5) NoFunction
        CFI (cfiPicker5) Picker
        MOV     DPL,A
        MOV     A,?V0 + 1
        CFI EndBlock cfiCond2
        CFI EndBlock cfiCond3
        CFI EndBlock cfiCond4
        CFI EndBlock cfiPicker5
        REQUIRE ??Subroutine17_0
        ; // Fall through to label ??Subroutine17_0

        RSEG BANKED_CODE:CODE:NOROOT(0)
??Subroutine17_0:
        CFI Block cfiCond6 Using cfiCommon0
        CFI NoFunction
        CFI Conditional ??CrossCallReturnLabel_27
        CFI R6 load(1, XDATA, add(CFA_XSP16, literal(-11)))
        CFI VB load(1, XDATA, add(CFA_XSP16, literal(-10)))
        CFI V0 load(1, XDATA, add(CFA_XSP16, literal(-9)))
        CFI V1 load(1, XDATA, add(CFA_XSP16, literal(-8)))
        CFI V2 load(1, XDATA, add(CFA_XSP16, literal(-7)))
        CFI R7 load(1, XDATA, add(CFA_XSP16, literal(-6)))
        CFI ?RET_LOW load(1, XDATA, add(CFA_XSP16, literal(-5)))
        CFI ?RET_HIGH load(1, XDATA, add(CFA_XSP16, literal(-4)))
        CFI ?BRET_EXT load(1, XDATA, add(CFA_XSP16, literal(-3)))
        CFI DPL0 load(1, XDATA, add(CFA_XSP16, literal(-2)))
        CFI DPH0 load(1, XDATA, add(CFA_XSP16, literal(-1)))
        CFI CFA_SP SP+0
        CFI CFA_XSP16 add(XSP16, 20)
        CFI Block cfiCond7 Using cfiCommon0
        CFI (cfiCond7) NoFunction
        CFI (cfiCond7) Conditional ??CrossCallReturnLabel_28
        CFI (cfiCond7) R6 load(1, XDATA, add(CFA_XSP16, literal(-22)))
        CFI (cfiCond7) VB load(1, XDATA, add(CFA_XSP16, literal(-21)))
        CFI (cfiCond7) V0 load(1, XDATA, add(CFA_XSP16, literal(-20)))
        CFI (cfiCond7) V1 load(1, XDATA, add(CFA_XSP16, literal(-19)))
        CFI (cfiCond7) V2 load(1, XDATA, add(CFA_XSP16, literal(-18)))
        CFI (cfiCond7) V3 load(1, XDATA, add(CFA_XSP16, literal(-17)))
        CFI (cfiCond7) V4 load(1, XDATA, add(CFA_XSP16, literal(-16)))
        CFI (cfiCond7) V5 load(1, XDATA, add(CFA_XSP16, literal(-15)))
        CFI (cfiCond7) V6 load(1, XDATA, add(CFA_XSP16, literal(-14)))
        CFI (cfiCond7) V7 load(1, XDATA, add(CFA_XSP16, literal(-13)))
        CFI (cfiCond7) V8 load(1, XDATA, add(CFA_XSP16, literal(-12)))
        CFI (cfiCond7) V9 load(1, XDATA, add(CFA_XSP16, literal(-11)))
        CFI (cfiCond7) V10 load(1, XDATA, add(CFA_XSP16, literal(-10)))
        CFI (cfiCond7) V11 load(1, XDATA, add(CFA_XSP16, literal(-9)))
        CFI (cfiCond7) V12 load(1, XDATA, add(CFA_XSP16, literal(-8)))
        CFI (cfiCond7) V13 load(1, XDATA, add(CFA_XSP16, literal(-7)))
        CFI (cfiCond7) R7 load(1, XDATA, add(CFA_XSP16, literal(-6)))
        CFI (cfiCond7) ?RET_LOW load(1, XDATA, add(CFA_XSP16, literal(-5)))
        CFI (cfiCond7) ?RET_HIGH load(1, XDATA, add(CFA_XSP16, literal(-4)))
        CFI (cfiCond7) ?BRET_EXT load(1, XDATA, add(CFA_XSP16, literal(-3)))
        CFI (cfiCond7) DPL0 load(1, XDATA, add(CFA_XSP16, literal(-2)))
        CFI (cfiCond7) DPH0 load(1, XDATA, add(CFA_XSP16, literal(-1)))
        CFI (cfiCond7) CFA_SP SP+0
        CFI (cfiCond7) CFA_XSP16 add(XSP16, 22)
        CFI Block cfiCond8 Using cfiCommon0
        CFI (cfiCond8) NoFunction
        CFI (cfiCond8) Conditional ??CrossCallReturnLabel_29
        CFI (cfiCond8) R6 load(1, XDATA, add(CFA_XSP16, literal(-22)))
        CFI (cfiCond8) VB load(1, XDATA, add(CFA_XSP16, literal(-21)))
        CFI (cfiCond8) V0 load(1, XDATA, add(CFA_XSP16, literal(-20)))
        CFI (cfiCond8) V1 load(1, XDATA, add(CFA_XSP16, literal(-19)))
        CFI (cfiCond8) V2 load(1, XDATA, add(CFA_XSP16, literal(-18)))
        CFI (cfiCond8) V3 load(1, XDATA, add(CFA_XSP16, literal(-17)))
        CFI (cfiCond8) V4 load(1, XDATA, add(CFA_XSP16, literal(-16)))
        CFI (cfiCond8) V5 load(1, XDATA, add(CFA_XSP16, literal(-15)))
        CFI (cfiCond8) V6 load(1, XDATA, add(CFA_XSP16, literal(-14)))
        CFI (cfiCond8) V7 load(1, XDATA, add(CFA_XSP16, literal(-13)))
        CFI (cfiCond8) V8 load(1, XDATA, add(CFA_XSP16, literal(-12)))
        CFI (cfiCond8) V9 load(1, XDATA, add(CFA_XSP16, literal(-11)))
        CFI (cfiCond8) V10 load(1, XDATA, add(CFA_XSP16, literal(-10)))
        CFI (cfiCond8) V11 load(1, XDATA, add(CFA_XSP16, literal(-9)))
        CFI (cfiCond8) V12 load(1, XDATA, add(CFA_XSP16, literal(-8)))
        CFI (cfiCond8) V13 load(1, XDATA, add(CFA_XSP16, literal(-7)))
        CFI (cfiCond8) R7 load(1, XDATA, add(CFA_XSP16, literal(-6)))
        CFI (cfiCond8) ?RET_LOW load(1, XDATA, add(CFA_XSP16, literal(-5)))
        CFI (cfiCond8) ?RET_HIGH load(1, XDATA, add(CFA_XSP16, literal(-4)))
        CFI (cfiCond8) ?BRET_EXT load(1, XDATA, add(CFA_XSP16, literal(-3)))
        CFI (cfiCond8) DPL0 load(1, XDATA, add(CFA_XSP16, literal(-2)))
        CFI (cfiCond8) DPH0 load(1, XDATA, add(CFA_XSP16, literal(-1)))
        CFI (cfiCond8) CFA_SP SP+0
        CFI (cfiCond8) CFA_XSP16 add(XSP16, 22)
        CFI Block cfiCond9 Using cfiCommon0
        CFI (cfiCond9) NoFunction
        CFI (cfiCond9) Conditional ??CrossCallReturnLabel_30
        CFI (cfiCond9) R6 load(1, XDATA, add(CFA_XSP16, literal(-22)))
        CFI (cfiCond9) VB load(1, XDATA, add(CFA_XSP16, literal(-21)))
        CFI (cfiCond9) V0 load(1, XDATA, add(CFA_XSP16, literal(-20)))
        CFI (cfiCond9) V1 load(1, XDATA, add(CFA_XSP16, literal(-19)))
        CFI (cfiCond9) V2 load(1, XDATA, add(CFA_XSP16, literal(-18)))
        CFI (cfiCond9) V3 load(1, XDATA, add(CFA_XSP16, literal(-17)))
        CFI (cfiCond9) V4 load(1, XDATA, add(CFA_XSP16, literal(-16)))
        CFI (cfiCond9) V5 load(1, XDATA, add(CFA_XSP16, literal(-15)))
        CFI (cfiCond9) V6 load(1, XDATA, add(CFA_XSP16, literal(-14)))
        CFI (cfiCond9) V7 load(1, XDATA, add(CFA_XSP16, literal(-13)))
        CFI (cfiCond9) V8 load(1, XDATA, add(CFA_XSP16, literal(-12)))
        CFI (cfiCond9) V9 load(1, XDATA, add(CFA_XSP16, literal(-11)))
        CFI (cfiCond9) V10 load(1, XDATA, add(CFA_XSP16, literal(-10)))
        CFI (cfiCond9) V11 load(1, XDATA, add(CFA_XSP16, literal(-9)))
        CFI (cfiCond9) V12 load(1, XDATA, add(CFA_XSP16, literal(-8)))
        CFI (cfiCond9) V13 load(1, XDATA, add(CFA_XSP16, literal(-7)))
        CFI (cfiCond9) R7 load(1, XDATA, add(CFA_XSP16, literal(-6)))
        CFI (cfiCond9) ?RET_LOW load(1, XDATA, add(CFA_XSP16, literal(-5)))
        CFI (cfiCond9) ?RET_HIGH load(1, XDATA, add(CFA_XSP16, literal(-4)))
        CFI (cfiCond9) ?BRET_EXT load(1, XDATA, add(CFA_XSP16, literal(-3)))
        CFI (cfiCond9) DPL0 load(1, XDATA, add(CFA_XSP16, literal(-2)))
        CFI (cfiCond9) DPH0 load(1, XDATA, add(CFA_XSP16, literal(-1)))
        CFI (cfiCond9) CFA_SP SP+0
        CFI (cfiCond9) CFA_XSP16 add(XSP16, 22)
        CFI Block cfiPicker10 Using cfiCommon1
        CFI (cfiPicker10) NoFunction
        CFI (cfiPicker10) Picker
        ADDC    A,#0x0
        MOV     DPH,A
        MOVX    A,@DPTR
        RET
        CFI EndBlock cfiCond6
        CFI EndBlock cfiCond7
        CFI EndBlock cfiCond8
        CFI EndBlock cfiCond9
        CFI EndBlock cfiPicker10
//  191 
//  192 /*********************************************************************
//  193  * @fn      Key_ProcessZDOMsgs()
//  194  *
//  195  * @brief   Process response messages
//  196  *
//  197  * @param   none
//  198  *
//  199  * @return  none
//  200  */

        RSEG BANKED_CODE:CODE:NOROOT(0)
//  201 void Key_ProcessZDOMsgs( zdoIncomingMsg_t *inMsg )
Key_ProcessZDOMsgs:
        CFI Block cfiBlock11 Using cfiCommon0
        CFI Function Key_ProcessZDOMsgs
        CODE
//  202 {
        FUNCALL Key_ProcessZDOMsgs, ZDO_ParseEPListRsp
        LOCFRAME ISTACK, 0, STACK
        LOCFRAME PSTACK, 0, STACK
        LOCFRAME XSTACK, 20, STACK
        LOCFRAME IOVERLAY, 0, STATIC
        LOCFRAME DOVERLAY, 0, STATIC
        ARGFRAME ISTACK, 0, STACK
        ARGFRAME PSTACK, 0, STACK
        ARGFRAME XSTACK, 20, STACK
        ARGFRAME IOVERLAY, 0, STATIC
        ARGFRAME DOVERLAY, 0, STATIC
        FUNCALL Key_ProcessZDOMsgs, APSME_BindRequest
        LOCFRAME ISTACK, 0, STACK
        LOCFRAME PSTACK, 0, STACK
        LOCFRAME XSTACK, 21, STACK
        LOCFRAME IOVERLAY, 0, STATIC
        LOCFRAME DOVERLAY, 0, STATIC
        ARGFRAME ISTACK, 0, STACK
        ARGFRAME PSTACK, 0, STACK
        ARGFRAME XSTACK, 21, STACK
        ARGFRAME IOVERLAY, 0, STATIC
        ARGFRAME DOVERLAY, 0, STATIC
        FUNCALL Key_ProcessZDOMsgs, osal_stop_timerEx
        LOCFRAME ISTACK, 0, STACK
        LOCFRAME PSTACK, 0, STACK
        LOCFRAME XSTACK, 20, STACK
        LOCFRAME IOVERLAY, 0, STATIC
        LOCFRAME DOVERLAY, 0, STATIC
        ARGFRAME ISTACK, 0, STACK
        ARGFRAME PSTACK, 0, STACK
        ARGFRAME XSTACK, 20, STACK
        ARGFRAME IOVERLAY, 0, STATIC
        ARGFRAME DOVERLAY, 0, STATIC
        FUNCALL Key_ProcessZDOMsgs, osal_start_timerEx
        LOCFRAME ISTACK, 0, STACK
        LOCFRAME PSTACK, 0, STACK
        LOCFRAME XSTACK, 20, STACK
        LOCFRAME IOVERLAY, 0, STATIC
        LOCFRAME DOVERLAY, 0, STATIC
        ARGFRAME ISTACK, 0, STACK
        ARGFRAME PSTACK, 0, STACK
        ARGFRAME XSTACK, 20, STACK
        ARGFRAME IOVERLAY, 0, STATIC
        ARGFRAME DOVERLAY, 0, STATIC
        FUNCALL Key_ProcessZDOMsgs, ZDP_IEEEAddrReq
        LOCFRAME ISTACK, 0, STACK
        LOCFRAME PSTACK, 0, STACK
        LOCFRAME XSTACK, 20, STACK
        LOCFRAME IOVERLAY, 0, STATIC
        LOCFRAME DOVERLAY, 0, STATIC
        ARGFRAME ISTACK, 0, STACK
        ARGFRAME PSTACK, 0, STACK
        ARGFRAME XSTACK, 20, STACK
        ARGFRAME IOVERLAY, 0, STATIC
        ARGFRAME DOVERLAY, 0, STATIC
        FUNCALL Key_ProcessZDOMsgs, Sys_BindConfirm
        LOCFRAME ISTACK, 0, STACK
        LOCFRAME PSTACK, 0, STACK
        LOCFRAME XSTACK, 20, STACK
        LOCFRAME IOVERLAY, 0, STATIC
        LOCFRAME DOVERLAY, 0, STATIC
        ARGFRAME ISTACK, 0, STACK
        ARGFRAME PSTACK, 0, STACK
        ARGFRAME XSTACK, 20, STACK
        ARGFRAME IOVERLAY, 0, STATIC
        ARGFRAME DOVERLAY, 0, STATIC
        MOV     A,#-0xb
        LCALL   ?BANKED_ENTER_XDATA
        CFI DPH0 load(1, XDATA, add(CFA_XSP16, literal(-1)))
        CFI DPL0 load(1, XDATA, add(CFA_XSP16, literal(-2)))
        CFI ?BRET_EXT load(1, XDATA, add(CFA_XSP16, literal(-3)))
        CFI ?RET_HIGH load(1, XDATA, add(CFA_XSP16, literal(-4)))
        CFI ?RET_LOW load(1, XDATA, add(CFA_XSP16, literal(-5)))
        CFI R7 load(1, XDATA, add(CFA_XSP16, literal(-6)))
        CFI V2 load(1, XDATA, add(CFA_XSP16, literal(-7)))
        CFI V1 load(1, XDATA, add(CFA_XSP16, literal(-8)))
        CFI V0 load(1, XDATA, add(CFA_XSP16, literal(-9)))
        CFI VB load(1, XDATA, add(CFA_XSP16, literal(-10)))
        CFI R6 load(1, XDATA, add(CFA_XSP16, literal(-11)))
        CFI CFA_SP SP+0
        CFI CFA_XSP16 add(XSP16, 11)
        ; Saved register size: 11
        ; Auto size: 9
        MOV     A,#-0x9
        LCALL   ?ALLOC_XSTACK8
        CFI CFA_XSP16 add(XSP16, 20)
//  203   switch ( inMsg->clusterID )
        MOV     A,R2
        ADD     A,#0xc
        MOV     DPL,A
        MOV     A,R3
        LCALL   ??Subroutine17_0 & 0xFFFF
??CrossCallReturnLabel_27:
        XRL     A,#0x6
        JNZ     ??Key_ProcessZDOMsgs_0
        INC     DPTR
        MOVX    A,@DPTR
        XRL     A,#0x80
??Key_ProcessZDOMsgs_0:
        JZ      $+5
        LJMP    ??Key_ProcessZDOMsgs_1 & 0xFFFF
//  204   {
//  205     case Match_Desc_rsp:
//  206       {
//  207         zAddrType_t dstAddr;
//  208         ZDO_ActiveEndpointRsp_t *pRsp = ZDO_ParseEPListRsp( inMsg );
        ; Setup parameters for call to function ZDO_ParseEPListRsp
        LCALL   ??ZDO_ParseEPListRsp?relay
        MOV     ?V0 + 0,R2
        MOV     ?V0 + 1,R3
        MOV     R6,?V0 + 0
        MOV     R7,?V0 + 1
//  209 
//  210         if ( key_bindInProgress != 0xffff )
        MOV     DPTR,#key_bindInProgress
        MOVX    A,@DPTR
        CPL     A
        JNZ     ??Key_ProcessZDOMsgs_2
        INC     DPTR
        MOVX    A,@DPTR
        CPL     A
??Key_ProcessZDOMsgs_2:
        JNZ     $+5
        LJMP    ??Key_ProcessZDOMsgs_1 & 0xFFFF
//  211         {
//  212           uint8 ret = 0;
//  213           // Create a binding table entry
//  214           dstAddr.addrMode = Addr16Bit;
        MOV     A,#0x8
        LCALL   ?XSTACK_DISP0_8
        MOV     A,#0x2
        MOVX    @DPTR,A
//  215           dstAddr.addr.shortAddr = pRsp->nwkAddr;
        MOV     DPL,R6
        MOV     DPH,R7
        INC     DPTR
        MOVX    A,@DPTR
        MOV     R0,A
        INC     DPTR
        MOVX    A,@DPTR
        MOV     R1,A
        MOV     DPL,?XSP + 0
        MOV     DPH,?XSP + 1
        MOV     A,R0
        MOVX    @DPTR,A
        INC     DPTR
        MOV     A,R1
        MOVX    @DPTR,A
//  216           
//  217            for(char i=0; i<KEY_MAX_CLUSTERS; i++)
        MOV     ?V0 + 2,#0x0
//  218           {
//  219                 if ( APSME_BindRequest( Key_epDesc[keyCnt]->simpleDesc->EndPoint,
//  220                      key_bindInProgress+i, &dstAddr, pRsp->epList[0] ) != ZSuccess )
??Key_ProcessZDOMsgs_3:
        ; Setup parameters for call to function APSME_BindRequest
        MOV     DPL,R6
        MOV     DPH,R7
        INC     DPTR
        INC     DPTR
        INC     DPTR
        INC     DPTR
        MOVX    A,@DPTR
        MOV     ?V0 + 0,A
        MOV     R0,#?V0 + 0
        LCALL   ?PUSH_XSTACK_I_ONE
        CFI CFA_XSP16 add(XSP16, 21)
        MOV     A,#0x1
        LCALL   ?XSTACK_DISP0_8
        MOV     R4,DPL
        MOV     R5,DPH
        MOV     DPTR,#key_bindInProgress
        MOV     ?V0 + 0,?V0 + 2
        MOVX    A,@DPTR
        ADD     A,?V0 + 0
        MOV     R2,A
        INC     DPTR
        MOVX    A,@DPTR
        ADDC    A,#0x0
        MOV     R3,A
        LCALL   ?Subroutine1 & 0xFFFF
//  221                 {
//  222                     ret = 1;
//  223                     break;
//  224                 }
//  225           }
??CrossCallReturnLabel_2:
        MOVX    A,@DPTR
        MOV     R1,A
        LCALL   ??APSME_BindRequest?relay
        MOV     A,#0x1
        LCALL   ?DEALLOC_XSTACK8
        CFI CFA_XSP16 add(XSP16, 20)
        MOV     A,R1
        JNZ     ??Key_ProcessZDOMsgs_1
        INC     ?V0 + 2
        MOV     A,?V0 + 2
        CLR     C
        SUBB    A,#0x4
        JC      ??Key_ProcessZDOMsgs_3
//  226           if(ret == ZSuccess)
//  227           {
//  228             osal_stop_timerEx(Key_TaskID,  KEY_BIND_TIMER);
        ; Setup parameters for call to function osal_stop_timerEx
        MOV     R2,#0x21
        MOV     R3,#0x0
        MOV     DPTR,#Key_TaskID
        MOVX    A,@DPTR
        MOV     R1,A
        LCALL   ??osal_stop_timerEx?relay
//  229             osal_start_timerEx( ZDAppTaskID, ZDO_NWK_UPDATE_NV, 250 );
        ; Setup parameters for call to function osal_start_timerEx
        LCALL   ?Subroutine9 & 0xFFFF
//  230             // Find IEEE addr
//  231             ZDP_IEEEAddrReq( pRsp->nwkAddr, ZDP_ADDR_REQTYPE_SINGLE, 0, 0 );
??CrossCallReturnLabel_31:
        ; Setup parameters for call to function ZDP_IEEEAddrReq
        MOV     R5,#0x0
        MOV     R4,#0x0
        MOV     R1,#0x0
        MOV     DPL,R6
        MOV     DPH,R7
        INC     DPTR
        LCALL   ??Subroutine19_0 & 0xFFFF
??CrossCallReturnLabel_34:
        LCALL   ??ZDP_IEEEAddrReq?relay
//  232             // Send bind confirm callback to application
//  233             Sys_BindConfirm( key_bindInProgress, ZB_SUCCESS );
        ; Setup parameters for call to function Sys_BindConfirm
        MOV     R1,#0x0
        LCALL   ?Subroutine3 & 0xFFFF
//  234             key_bindInProgress = 0xffff;
//  235 
//  236             keyCnt++;
??CrossCallReturnLabel_7:
        MOV     DPTR,#keyCnt
        MOVX    A,@DPTR
        INC     A
        MOVX    @DPTR,A
//  237           }
//  238           else
//  239           {
//  240                 // ClusterID wrong
//  241           }
//  242         }
//  243       }
//  244     break;
//  245   }
//  246 }
??Key_ProcessZDOMsgs_1:
        MOV     A,#0x9
        LCALL   ?DEALLOC_XSTACK8
        CFI CFA_XSP16 add(XSP16, 11)
        MOV     R7,#0x3
        LJMP    ?BANKED_LEAVE_XDATA
        CFI EndBlock cfiBlock11

        RSEG BANKED_CODE:CODE:NOROOT(0)
?Subroutine9:
        CFI Block cfiCond12 Using cfiCommon0
        CFI NoFunction
        CFI Conditional ??CrossCallReturnLabel_31
        CFI R6 load(1, XDATA, add(CFA_XSP16, literal(-11)))
        CFI VB load(1, XDATA, add(CFA_XSP16, literal(-10)))
        CFI V0 load(1, XDATA, add(CFA_XSP16, literal(-9)))
        CFI V1 load(1, XDATA, add(CFA_XSP16, literal(-8)))
        CFI V2 load(1, XDATA, add(CFA_XSP16, literal(-7)))
        CFI R7 load(1, XDATA, add(CFA_XSP16, literal(-6)))
        CFI ?RET_LOW load(1, XDATA, add(CFA_XSP16, literal(-5)))
        CFI ?RET_HIGH load(1, XDATA, add(CFA_XSP16, literal(-4)))
        CFI ?BRET_EXT load(1, XDATA, add(CFA_XSP16, literal(-3)))
        CFI DPL0 load(1, XDATA, add(CFA_XSP16, literal(-2)))
        CFI DPH0 load(1, XDATA, add(CFA_XSP16, literal(-1)))
        CFI CFA_SP SP+0
        CFI CFA_XSP16 add(XSP16, 20)
        CFI Block cfiCond13 Using cfiCommon0
        CFI (cfiCond13) NoFunction
        CFI (cfiCond13) Conditional ??CrossCallReturnLabel_32
        CFI (cfiCond13) R6 load(1, XDATA, add(CFA_XSP16, literal(-18)))
        CFI (cfiCond13) VB load(1, XDATA, add(CFA_XSP16, literal(-17)))
        CFI (cfiCond13) V0 load(1, XDATA, add(CFA_XSP16, literal(-16)))
        CFI (cfiCond13) V1 load(1, XDATA, add(CFA_XSP16, literal(-15)))
        CFI (cfiCond13) V2 load(1, XDATA, add(CFA_XSP16, literal(-14)))
        CFI (cfiCond13) V3 load(1, XDATA, add(CFA_XSP16, literal(-13)))
        CFI (cfiCond13) V4 load(1, XDATA, add(CFA_XSP16, literal(-12)))
        CFI (cfiCond13) V5 load(1, XDATA, add(CFA_XSP16, literal(-11)))
        CFI (cfiCond13) V6 load(1, XDATA, add(CFA_XSP16, literal(-10)))
        CFI (cfiCond13) V7 load(1, XDATA, add(CFA_XSP16, literal(-9)))
        CFI (cfiCond13) V8 load(1, XDATA, add(CFA_XSP16, literal(-8)))
        CFI (cfiCond13) V9 load(1, XDATA, add(CFA_XSP16, literal(-7)))
        CFI (cfiCond13) R7 load(1, XDATA, add(CFA_XSP16, literal(-6)))
        CFI (cfiCond13) ?RET_LOW load(1, XDATA, add(CFA_XSP16, literal(-5)))
        CFI (cfiCond13) ?RET_HIGH load(1, XDATA, add(CFA_XSP16, literal(-4)))
        CFI (cfiCond13) ?BRET_EXT load(1, XDATA, add(CFA_XSP16, literal(-3)))
        CFI (cfiCond13) DPL0 load(1, XDATA, add(CFA_XSP16, literal(-2)))
        CFI (cfiCond13) DPH0 load(1, XDATA, add(CFA_XSP16, literal(-1)))
        CFI (cfiCond13) CFA_SP SP+0
        CFI (cfiCond13) CFA_XSP16 add(XSP16, 39)
        CFI Block cfiPicker14 Using cfiCommon1
        CFI (cfiPicker14) NoFunction
        CFI (cfiPicker14) Picker
        MOV     R4,#-0x6
        MOV     R5,#0x0
        MOV     R2,#0x0
        MOV     R3,#0x2
        MOV     DPTR,#ZDAppTaskID
        CFI EndBlock cfiCond12
        CFI EndBlock cfiCond13
        CFI EndBlock cfiPicker14
        REQUIRE ??Subroutine18_0
        ; // Fall through to label ??Subroutine18_0

        RSEG BANKED_CODE:CODE:NOROOT(0)
??Subroutine18_0:
        CFI Block cfiCond15 Using cfiCommon0
        CFI NoFunction
        CFI Conditional ??CrossCallReturnLabel_33
        CFI R6 load(1, XDATA, add(CFA_XSP16, literal(-18)))
        CFI VB load(1, XDATA, add(CFA_XSP16, literal(-17)))
        CFI V0 load(1, XDATA, add(CFA_XSP16, literal(-16)))
        CFI V1 load(1, XDATA, add(CFA_XSP16, literal(-15)))
        CFI V2 load(1, XDATA, add(CFA_XSP16, literal(-14)))
        CFI V3 load(1, XDATA, add(CFA_XSP16, literal(-13)))
        CFI V4 load(1, XDATA, add(CFA_XSP16, literal(-12)))
        CFI V5 load(1, XDATA, add(CFA_XSP16, literal(-11)))
        CFI V6 load(1, XDATA, add(CFA_XSP16, literal(-10)))
        CFI V7 load(1, XDATA, add(CFA_XSP16, literal(-9)))
        CFI V8 load(1, XDATA, add(CFA_XSP16, literal(-8)))
        CFI V9 load(1, XDATA, add(CFA_XSP16, literal(-7)))
        CFI R7 load(1, XDATA, add(CFA_XSP16, literal(-6)))
        CFI ?RET_LOW load(1, XDATA, add(CFA_XSP16, literal(-5)))
        CFI ?RET_HIGH load(1, XDATA, add(CFA_XSP16, literal(-4)))
        CFI ?BRET_EXT load(1, XDATA, add(CFA_XSP16, literal(-3)))
        CFI DPL0 load(1, XDATA, add(CFA_XSP16, literal(-2)))
        CFI DPH0 load(1, XDATA, add(CFA_XSP16, literal(-1)))
        CFI CFA_SP SP+0
        CFI CFA_XSP16 add(XSP16, 39)
        CFI Block cfiCond16 Using cfiCommon0
        CFI (cfiCond16) NoFunction
        CFI (cfiCond16) Conditional ??CrossCallReturnLabel_31
        CFI (cfiCond16) R6 load(1, XDATA, add(CFA_XSP16, literal(-11)))
        CFI (cfiCond16) VB load(1, XDATA, add(CFA_XSP16, literal(-10)))
        CFI (cfiCond16) V0 load(1, XDATA, add(CFA_XSP16, literal(-9)))
        CFI (cfiCond16) V1 load(1, XDATA, add(CFA_XSP16, literal(-8)))
        CFI (cfiCond16) V2 load(1, XDATA, add(CFA_XSP16, literal(-7)))
        CFI (cfiCond16) R7 load(1, XDATA, add(CFA_XSP16, literal(-6)))
        CFI (cfiCond16) ?RET_LOW load(1, XDATA, add(CFA_XSP16, literal(-5)))
        CFI (cfiCond16) ?RET_HIGH load(1, XDATA, add(CFA_XSP16, literal(-4)))
        CFI (cfiCond16) ?BRET_EXT load(1, XDATA, add(CFA_XSP16, literal(-3)))
        CFI (cfiCond16) DPL0 load(1, XDATA, add(CFA_XSP16, literal(-2)))
        CFI (cfiCond16) DPH0 load(1, XDATA, add(CFA_XSP16, literal(-1)))
        CFI (cfiCond16) CFA_SP SP+0
        CFI (cfiCond16) CFA_XSP16 add(XSP16, 20)
        CFI Block cfiCond17 Using cfiCommon0
        CFI (cfiCond17) NoFunction
        CFI (cfiCond17) Conditional ??CrossCallReturnLabel_32
        CFI (cfiCond17) R6 load(1, XDATA, add(CFA_XSP16, literal(-18)))
        CFI (cfiCond17) VB load(1, XDATA, add(CFA_XSP16, literal(-17)))
        CFI (cfiCond17) V0 load(1, XDATA, add(CFA_XSP16, literal(-16)))
        CFI (cfiCond17) V1 load(1, XDATA, add(CFA_XSP16, literal(-15)))
        CFI (cfiCond17) V2 load(1, XDATA, add(CFA_XSP16, literal(-14)))
        CFI (cfiCond17) V3 load(1, XDATA, add(CFA_XSP16, literal(-13)))
        CFI (cfiCond17) V4 load(1, XDATA, add(CFA_XSP16, literal(-12)))
        CFI (cfiCond17) V5 load(1, XDATA, add(CFA_XSP16, literal(-11)))
        CFI (cfiCond17) V6 load(1, XDATA, add(CFA_XSP16, literal(-10)))
        CFI (cfiCond17) V7 load(1, XDATA, add(CFA_XSP16, literal(-9)))
        CFI (cfiCond17) V8 load(1, XDATA, add(CFA_XSP16, literal(-8)))
        CFI (cfiCond17) V9 load(1, XDATA, add(CFA_XSP16, literal(-7)))
        CFI (cfiCond17) R7 load(1, XDATA, add(CFA_XSP16, literal(-6)))
        CFI (cfiCond17) ?RET_LOW load(1, XDATA, add(CFA_XSP16, literal(-5)))
        CFI (cfiCond17) ?RET_HIGH load(1, XDATA, add(CFA_XSP16, literal(-4)))
        CFI (cfiCond17) ?BRET_EXT load(1, XDATA, add(CFA_XSP16, literal(-3)))
        CFI (cfiCond17) DPL0 load(1, XDATA, add(CFA_XSP16, literal(-2)))
        CFI (cfiCond17) DPH0 load(1, XDATA, add(CFA_XSP16, literal(-1)))
        CFI (cfiCond17) CFA_SP SP+0
        CFI (cfiCond17) CFA_XSP16 add(XSP16, 39)
        CFI Block cfiPicker18 Using cfiCommon1
        CFI (cfiPicker18) NoFunction
        CFI (cfiPicker18) Picker
        MOVX    A,@DPTR
        MOV     R1,A
        LCALL   ??osal_start_timerEx?relay
        RET
        CFI EndBlock cfiCond15
        CFI EndBlock cfiCond16
        CFI EndBlock cfiCond17
        CFI EndBlock cfiPicker18

        RSEG BANKED_CODE:CODE:NOROOT(0)
?Subroutine3:
        CFI Block cfiCond19 Using cfiCommon0
        CFI NoFunction
        CFI Conditional ??CrossCallReturnLabel_6
        CFI R6 load(1, XDATA, add(CFA_XSP16, literal(-22)))
        CFI VB load(1, XDATA, add(CFA_XSP16, literal(-21)))
        CFI V0 load(1, XDATA, add(CFA_XSP16, literal(-20)))
        CFI V1 load(1, XDATA, add(CFA_XSP16, literal(-19)))
        CFI V2 load(1, XDATA, add(CFA_XSP16, literal(-18)))
        CFI V3 load(1, XDATA, add(CFA_XSP16, literal(-17)))
        CFI V4 load(1, XDATA, add(CFA_XSP16, literal(-16)))
        CFI V5 load(1, XDATA, add(CFA_XSP16, literal(-15)))
        CFI V6 load(1, XDATA, add(CFA_XSP16, literal(-14)))
        CFI V7 load(1, XDATA, add(CFA_XSP16, literal(-13)))
        CFI V8 load(1, XDATA, add(CFA_XSP16, literal(-12)))
        CFI V9 load(1, XDATA, add(CFA_XSP16, literal(-11)))
        CFI V10 load(1, XDATA, add(CFA_XSP16, literal(-10)))
        CFI V11 load(1, XDATA, add(CFA_XSP16, literal(-9)))
        CFI V12 load(1, XDATA, add(CFA_XSP16, literal(-8)))
        CFI V13 load(1, XDATA, add(CFA_XSP16, literal(-7)))
        CFI R7 load(1, XDATA, add(CFA_XSP16, literal(-6)))
        CFI ?RET_LOW load(1, XDATA, add(CFA_XSP16, literal(-5)))
        CFI ?RET_HIGH load(1, XDATA, add(CFA_XSP16, literal(-4)))
        CFI ?BRET_EXT load(1, XDATA, add(CFA_XSP16, literal(-3)))
        CFI DPL0 load(1, XDATA, add(CFA_XSP16, literal(-2)))
        CFI DPH0 load(1, XDATA, add(CFA_XSP16, literal(-1)))
        CFI CFA_SP SP+0
        CFI CFA_XSP16 add(XSP16, 22)
        CFI Block cfiCond20 Using cfiCommon0
        CFI (cfiCond20) NoFunction
        CFI (cfiCond20) Conditional ??CrossCallReturnLabel_7
        CFI (cfiCond20) R6 load(1, XDATA, add(CFA_XSP16, literal(-11)))
        CFI (cfiCond20) VB load(1, XDATA, add(CFA_XSP16, literal(-10)))
        CFI (cfiCond20) V0 load(1, XDATA, add(CFA_XSP16, literal(-9)))
        CFI (cfiCond20) V1 load(1, XDATA, add(CFA_XSP16, literal(-8)))
        CFI (cfiCond20) V2 load(1, XDATA, add(CFA_XSP16, literal(-7)))
        CFI (cfiCond20) R7 load(1, XDATA, add(CFA_XSP16, literal(-6)))
        CFI (cfiCond20) ?RET_LOW load(1, XDATA, add(CFA_XSP16, literal(-5)))
        CFI (cfiCond20) ?RET_HIGH load(1, XDATA, add(CFA_XSP16, literal(-4)))
        CFI (cfiCond20) ?BRET_EXT load(1, XDATA, add(CFA_XSP16, literal(-3)))
        CFI (cfiCond20) DPL0 load(1, XDATA, add(CFA_XSP16, literal(-2)))
        CFI (cfiCond20) DPH0 load(1, XDATA, add(CFA_XSP16, literal(-1)))
        CFI (cfiCond20) CFA_SP SP+0
        CFI (cfiCond20) CFA_XSP16 add(XSP16, 20)
        CFI Block cfiPicker21 Using cfiCommon1
        CFI (cfiPicker21) NoFunction
        CFI (cfiPicker21) Picker
        MOV     DPTR,#key_bindInProgress
        MOVX    A,@DPTR
        MOV     R2,A
        INC     DPTR
        MOVX    A,@DPTR
        MOV     R3,A
        LCALL   ??Sys_BindConfirm?relay
        MOV     DPTR,#key_bindInProgress
        MOV     A,#-0x1
        MOVX    @DPTR,A
        INC     DPTR
        MOVX    @DPTR,A
        RET
        CFI EndBlock cfiCond19
        CFI EndBlock cfiCond20
        CFI EndBlock cfiPicker21
//  247 
//  248 /******************************************************************************
//  249  * @fn          Key_BindDevice
//  250  *
//  251  * @brief       The zb_BindDevice function establishes or removes a binding? *              between two devices.  Once bound, an application can send
//  252  *              messages to a device by referencing the commandId for the
//  253  *              binding.
//  254  *
//  255  * @param       create - TRUE to create a binding, FALSE to remove a binding
//  256  *              commandId - The identifier of the binding
//  257  *              pDestination - The 64-bit IEEE address of the device to bind to
//  258  *
//  259  * @return      The status of the bind operation is returned in the
//  260  *              Sys_BindConfirm callback.
//  261  */

        RSEG BANKED_CODE:CODE:NOROOT(0)
//  262 void Key_BindDevice ( uint8 create, uint8 endpoint, uint16 *commandId, uint8 *pDestination )
Key_BindDevice:
        CFI Block cfiBlock22 Using cfiCommon0
        CFI Function Key_BindDevice
        CODE
//  263 {
        FUNCALL Key_BindDevice, osal_mem_alloc
        LOCFRAME ISTACK, 0, STACK
        LOCFRAME PSTACK, 0, STACK
        LOCFRAME XSTACK, 39, STACK
        LOCFRAME IOVERLAY, 0, STATIC
        LOCFRAME DOVERLAY, 0, STATIC
        ARGFRAME ISTACK, 0, STACK
        ARGFRAME PSTACK, 0, STACK
        ARGFRAME XSTACK, 39, STACK
        ARGFRAME IOVERLAY, 0, STATIC
        ARGFRAME DOVERLAY, 0, STATIC
        FUNCALL Key_BindDevice, osal_mem_alloc
        LOCFRAME ISTACK, 0, STACK
        LOCFRAME PSTACK, 0, STACK
        LOCFRAME XSTACK, 39, STACK
        LOCFRAME IOVERLAY, 0, STATIC
        LOCFRAME DOVERLAY, 0, STATIC
        ARGFRAME ISTACK, 0, STACK
        ARGFRAME PSTACK, 0, STACK
        ARGFRAME XSTACK, 39, STACK
        ARGFRAME IOVERLAY, 0, STATIC
        ARGFRAME DOVERLAY, 0, STATIC
        FUNCALL Key_BindDevice, osal_memcpy
        LOCFRAME ISTACK, 0, STACK
        LOCFRAME PSTACK, 0, STACK
        LOCFRAME XSTACK, 42, STACK
        LOCFRAME IOVERLAY, 0, STATIC
        LOCFRAME DOVERLAY, 0, STATIC
        ARGFRAME ISTACK, 0, STACK
        ARGFRAME PSTACK, 0, STACK
        ARGFRAME XSTACK, 42, STACK
        ARGFRAME IOVERLAY, 0, STATIC
        ARGFRAME DOVERLAY, 0, STATIC
        FUNCALL Key_BindDevice, afRegister
        LOCFRAME ISTACK, 0, STACK
        LOCFRAME PSTACK, 0, STACK
        LOCFRAME XSTACK, 39, STACK
        LOCFRAME IOVERLAY, 0, STATIC
        LOCFRAME DOVERLAY, 0, STATIC
        ARGFRAME ISTACK, 0, STACK
        ARGFRAME PSTACK, 0, STACK
        ARGFRAME XSTACK, 39, STACK
        ARGFRAME IOVERLAY, 0, STATIC
        ARGFRAME DOVERLAY, 0, STATIC
        FUNCALL Key_BindDevice, sAddrExtCpy
        LOCFRAME ISTACK, 0, STACK
        LOCFRAME PSTACK, 0, STACK
        LOCFRAME XSTACK, 39, STACK
        LOCFRAME IOVERLAY, 0, STATIC
        LOCFRAME DOVERLAY, 0, STATIC
        ARGFRAME ISTACK, 0, STACK
        ARGFRAME PSTACK, 0, STACK
        ARGFRAME XSTACK, 39, STACK
        ARGFRAME IOVERLAY, 0, STATIC
        ARGFRAME DOVERLAY, 0, STATIC
        FUNCALL Key_BindDevice, APSME_BindRequest
        LOCFRAME ISTACK, 0, STACK
        LOCFRAME PSTACK, 0, STACK
        LOCFRAME XSTACK, 40, STACK
        LOCFRAME IOVERLAY, 0, STATIC
        LOCFRAME DOVERLAY, 0, STATIC
        ARGFRAME ISTACK, 0, STACK
        ARGFRAME PSTACK, 0, STACK
        ARGFRAME XSTACK, 40, STACK
        ARGFRAME IOVERLAY, 0, STATIC
        ARGFRAME DOVERLAY, 0, STATIC
        FUNCALL Key_BindDevice, ZDP_NwkAddrReq
        LOCFRAME ISTACK, 0, STACK
        LOCFRAME PSTACK, 0, STACK
        LOCFRAME XSTACK, 39, STACK
        LOCFRAME IOVERLAY, 0, STATIC
        LOCFRAME DOVERLAY, 0, STATIC
        ARGFRAME ISTACK, 0, STACK
        ARGFRAME PSTACK, 0, STACK
        ARGFRAME XSTACK, 39, STACK
        ARGFRAME IOVERLAY, 0, STATIC
        ARGFRAME DOVERLAY, 0, STATIC
        FUNCALL Key_BindDevice, osal_start_timerEx
        LOCFRAME ISTACK, 0, STACK
        LOCFRAME PSTACK, 0, STACK
        LOCFRAME XSTACK, 39, STACK
        LOCFRAME IOVERLAY, 0, STATIC
        LOCFRAME DOVERLAY, 0, STATIC
        ARGFRAME ISTACK, 0, STACK
        ARGFRAME PSTACK, 0, STACK
        ARGFRAME XSTACK, 39, STACK
        ARGFRAME IOVERLAY, 0, STATIC
        ARGFRAME DOVERLAY, 0, STATIC
        FUNCALL Key_BindDevice, ZDO_AnyClusterMatches
        LOCFRAME ISTACK, 0, STACK
        LOCFRAME PSTACK, 0, STACK
        LOCFRAME XSTACK, 41, STACK
        LOCFRAME IOVERLAY, 0, STATIC
        LOCFRAME DOVERLAY, 0, STATIC
        ARGFRAME ISTACK, 0, STACK
        ARGFRAME PSTACK, 0, STACK
        ARGFRAME XSTACK, 41, STACK
        ARGFRAME IOVERLAY, 0, STATIC
        ARGFRAME DOVERLAY, 0, STATIC
        FUNCALL Key_BindDevice, ZDP_MatchDescReq
        LOCFRAME ISTACK, 0, STACK
        LOCFRAME PSTACK, 0, STACK
        LOCFRAME XSTACK, 47, STACK
        LOCFRAME IOVERLAY, 0, STATIC
        LOCFRAME DOVERLAY, 0, STATIC
        ARGFRAME ISTACK, 0, STACK
        ARGFRAME PSTACK, 0, STACK
        ARGFRAME XSTACK, 47, STACK
        ARGFRAME IOVERLAY, 0, STATIC
        ARGFRAME DOVERLAY, 0, STATIC
        FUNCALL Key_BindDevice, osal_start_timerEx
        LOCFRAME ISTACK, 0, STACK
        LOCFRAME PSTACK, 0, STACK
        LOCFRAME XSTACK, 39, STACK
        LOCFRAME IOVERLAY, 0, STATIC
        LOCFRAME DOVERLAY, 0, STATIC
        ARGFRAME ISTACK, 0, STACK
        ARGFRAME PSTACK, 0, STACK
        ARGFRAME XSTACK, 39, STACK
        ARGFRAME IOVERLAY, 0, STATIC
        ARGFRAME DOVERLAY, 0, STATIC
        FUNCALL Key_BindDevice, ZDO_AnyClusterMatches
        LOCFRAME ISTACK, 0, STACK
        LOCFRAME PSTACK, 0, STACK
        LOCFRAME XSTACK, 41, STACK
        LOCFRAME IOVERLAY, 0, STATIC
        LOCFRAME DOVERLAY, 0, STATIC
        ARGFRAME ISTACK, 0, STACK
        ARGFRAME PSTACK, 0, STACK
        ARGFRAME XSTACK, 41, STACK
        ARGFRAME IOVERLAY, 0, STATIC
        ARGFRAME DOVERLAY, 0, STATIC
        FUNCALL Key_BindDevice, bindRemoveEntry
        LOCFRAME ISTACK, 0, STACK
        LOCFRAME PSTACK, 0, STACK
        LOCFRAME XSTACK, 39, STACK
        LOCFRAME IOVERLAY, 0, STATIC
        LOCFRAME DOVERLAY, 0, STATIC
        ARGFRAME ISTACK, 0, STACK
        ARGFRAME PSTACK, 0, STACK
        ARGFRAME XSTACK, 39, STACK
        ARGFRAME IOVERLAY, 0, STATIC
        ARGFRAME DOVERLAY, 0, STATIC
        FUNCALL Key_BindDevice, bindFind
        LOCFRAME ISTACK, 0, STACK
        LOCFRAME PSTACK, 0, STACK
        LOCFRAME XSTACK, 39, STACK
        LOCFRAME IOVERLAY, 0, STATIC
        LOCFRAME DOVERLAY, 0, STATIC
        ARGFRAME ISTACK, 0, STACK
        ARGFRAME PSTACK, 0, STACK
        ARGFRAME XSTACK, 39, STACK
        ARGFRAME IOVERLAY, 0, STATIC
        ARGFRAME DOVERLAY, 0, STATIC
        FUNCALL Key_BindDevice, osal_start_timerEx
        LOCFRAME ISTACK, 0, STACK
        LOCFRAME PSTACK, 0, STACK
        LOCFRAME XSTACK, 39, STACK
        LOCFRAME IOVERLAY, 0, STATIC
        LOCFRAME DOVERLAY, 0, STATIC
        ARGFRAME ISTACK, 0, STACK
        ARGFRAME PSTACK, 0, STACK
        ARGFRAME XSTACK, 39, STACK
        ARGFRAME IOVERLAY, 0, STATIC
        ARGFRAME DOVERLAY, 0, STATIC
        MOV     A,#-0x12
        LCALL   ?BANKED_ENTER_XDATA
        CFI DPH0 load(1, XDATA, add(CFA_XSP16, literal(-1)))
        CFI DPL0 load(1, XDATA, add(CFA_XSP16, literal(-2)))
        CFI ?BRET_EXT load(1, XDATA, add(CFA_XSP16, literal(-3)))
        CFI ?RET_HIGH load(1, XDATA, add(CFA_XSP16, literal(-4)))
        CFI ?RET_LOW load(1, XDATA, add(CFA_XSP16, literal(-5)))
        CFI R7 load(1, XDATA, add(CFA_XSP16, literal(-6)))
        CFI V9 load(1, XDATA, add(CFA_XSP16, literal(-7)))
        CFI V8 load(1, XDATA, add(CFA_XSP16, literal(-8)))
        CFI V7 load(1, XDATA, add(CFA_XSP16, literal(-9)))
        CFI V6 load(1, XDATA, add(CFA_XSP16, literal(-10)))
        CFI V5 load(1, XDATA, add(CFA_XSP16, literal(-11)))
        CFI V4 load(1, XDATA, add(CFA_XSP16, literal(-12)))
        CFI V3 load(1, XDATA, add(CFA_XSP16, literal(-13)))
        CFI V2 load(1, XDATA, add(CFA_XSP16, literal(-14)))
        CFI V1 load(1, XDATA, add(CFA_XSP16, literal(-15)))
        CFI V0 load(1, XDATA, add(CFA_XSP16, literal(-16)))
        CFI VB load(1, XDATA, add(CFA_XSP16, literal(-17)))
        CFI R6 load(1, XDATA, add(CFA_XSP16, literal(-18)))
        CFI CFA_SP SP+0
        CFI CFA_XSP16 add(XSP16, 18)
        ; Saved register size: 18
        ; Auto size: 21
        MOV     A,#-0x15
        LCALL   ?ALLOC_XSTACK8
        CFI CFA_XSP16 add(XSP16, 39)
        MOV     ?V0 + 1,R1
        MOV     ?V0 + 0,R2
        MOV     ?V0 + 8,R4
        MOV     ?V0 + 9,R5
        MOV     A,#0x27
        LCALL   ?XSTACK_DISP0_8
        MOVX    A,@DPTR
        MOV     R6,A
        INC     DPTR
        MOVX    A,@DPTR
        MOV     R7,A
//  264   zAddrType_t destination;
//  265   uint8 ret = ZB_ALREADY_IN_PROGRESS;
//  266 
//  267   // malloc epDesc
//  268     Key_epDesc[keyCnt] = (endPointDesc_t *)osal_mem_alloc(sizeof(endPointDesc_t));
        ; Setup parameters for call to function osal_mem_alloc
        MOV     R2,#0x6
        MOV     R3,#0x0
        LCALL   ??osal_mem_alloc?relay
        MOV     ?V0 + 2,R2
        MOV     ?V0 + 3,R3
        MOV     DPTR,#keyCnt
        MOVX    A,@DPTR
        CLR     C
        RLC     A
        MOV     R2,A
        CLR     A
        RLC     A
        MOV     R3,A
        MOV     A,#Key_epDesc & 0xff
        ADD     A,R2
        MOV     DPL,A
        MOV     A,#(Key_epDesc >> 8) & 0xff
        ADDC    A,R3
        MOV     DPH,A
        MOV     A,?V0 + 2
        MOVX    @DPTR,A
        INC     DPTR
        MOV     A,?V0 + 3
        MOVX    @DPTR,A
//  269     Key_SimpleDesc[keyCnt] = (SimpleDescriptionFormat_t *)osal_mem_alloc(sizeof(SimpleDescriptionFormat_t));
        ; Setup parameters for call to function osal_mem_alloc
        MOV     R2,#0xc
        MOV     R3,#0x0
        LCALL   ??osal_mem_alloc?relay
        LCALL   ?Subroutine6 & 0xFFFF
??CrossCallReturnLabel_12:
        MOV     DPL,A
        MOV     A,#(Key_SimpleDesc >> 8) & 0xff
        ADDC    A,R1
        MOV     DPH,A
        MOV     A,R2
        MOVX    @DPTR,A
        INC     DPTR
        MOV     A,R3
        MOVX    @DPTR,A
//  270     SimpleDescriptionFormat_t simpleDesc_temp =
//  271     {
//  272             KEY_ENDPOINT,           //  int Endpoint;
//  273             SYS_PROFID,                //  uint16 AppProfId[2];
//  274             SYS_DEVICEID,              //  uint16 AppDeviceId[2];
//  275             SYS_DEVICE_VERSION,        //  int   AppDevVer:4;
//  276             SYS_FLAGS,                 //  int   AppFlags:4;
//  277             KEY_MAX_CLUSTERS,          //  byte  AppNumInClusters;
//  278             (cId_t *)Key_ClusterList,  //  byte *pAppInClusterList;
//  279             KEY_MAX_CLUSTERS,          //  byte  AppNumInClusters;
//  280             (cId_t *)Key_ClusterList   //  byte *pAppInClusterList;
//  281     };
        MOV     A,#0x9
        LCALL   ?XSTACK_DISP0_8
        MOV     R4,DPL
        MOV     R5,DPH
        MOV     DPH,#(`?<Constant {10, 3844, 1, 0, 0, 4, Key_ClusterL` >> 8) & 0xff
        MOV     DPL,#`?<Constant {10, 3844, 1, 0, 0, 4, Key_ClusterL` & 0xff
        MOV     A,#0xc
        LCALL   ?MOVE_LONG8_XDATA_XDATA
//  282     
//  283     // Fill out the endpoint description.
//  284     Key_epDesc[keyCnt]->endPoint = KEY_ENDPOINT+keyCnt;
        MOV     DPTR,#keyCnt
        MOVX    A,@DPTR
        ADD     A,#0xa
        PUSH    A
        CFI CFA_SP SP+-1
        LCALL   ?Subroutine11 & 0xFFFF
??CrossCallReturnLabel_16:
        LCALL   ??Subroutine20_0 & 0xFFFF
??CrossCallReturnLabel_38:
        POP     A
        CFI CFA_SP SP+0
        MOVX    @DPTR,A
//  285     Key_epDesc[keyCnt]->task_id = &Key_TaskID;
        MOV     DPTR,#keyCnt
        MOVX    A,@DPTR
        CLR     C
        RLC     A
        MOV     ?V0 + 2,A
        CLR     A
        RLC     A
        MOV     ?V0 + 3,A
        MOV     A,#Key_epDesc & 0xff
        ADD     A,?V0 + 2
        MOV     DPL,A
        MOV     A,#(Key_epDesc >> 8) & 0xff
        ADDC    A,?V0 + 3
        LCALL   ?Subroutine8 & 0xFFFF
??CrossCallReturnLabel_14:
        MOV     A,#Key_TaskID & 0xff
        MOVX    @DPTR,A
        INC     DPTR
        MOV     A,#(Key_TaskID >> 8) & 0xff
        MOVX    @DPTR,A
//  286 
//  287     osal_memcpy(Key_SimpleDesc[keyCnt], &simpleDesc_temp, sizeof(SimpleDescriptionFormat_t));
        ; Setup parameters for call to function osal_memcpy
        MOV     A,#0x9
        LCALL   ?XSTACK_DISP0_8
        MOV     R1,DPL
        MOV     R2,DPH
        MOV     ?V0 + 4,R1
        MOV     ?V0 + 5,R2
        MOV     ?V0 + 6,#0x0
        MOV     R0,#?V0 + 4
        LCALL   ?PUSH_XSTACK_I_THREE
        CFI CFA_XSP16 add(XSP16, 42)
        MOV     R4,#0xc
        MOV     R5,#0x0
        MOV     A,#Key_SimpleDesc & 0xff
        ADD     A,?V0 + 2
        MOV     DPL,A
        MOV     A,#(Key_SimpleDesc >> 8) & 0xff
        ADDC    A,?V0 + 3
        MOV     DPH,A
        LCALL   ??Subroutine19_0 & 0xFFFF
??CrossCallReturnLabel_35:
        LCALL   ??osal_memcpy?relay
        MOV     A,#0x3
        LCALL   ?DEALLOC_XSTACK8
        CFI CFA_XSP16 add(XSP16, 39)
//  288     
//  289     Key_epDesc[keyCnt]->simpleDesc
//  290                                         = (SimpleDescriptionFormat_t *)(Key_SimpleDesc[keyCnt]);
        LCALL   ?Subroutine6 & 0xFFFF
??CrossCallReturnLabel_13:
        MOV     R2,A
        MOV     A,#(Key_SimpleDesc >> 8) & 0xff
        ADDC    A,R1
        MOV     R3,A
        MOV     DPL,R2
        MOV     DPH,R3
        MOVX    A,@DPTR
        MOV     R4,A
        INC     DPTR
        MOVX    A,@DPTR
        MOV     R5,A
        MOV     A,#Key_epDesc & 0xff
        ADD     A,R0
        MOV     DPL,A
        MOV     A,#(Key_epDesc >> 8) & 0xff
        ADDC    A,R1
        LCALL   ?Subroutine8 & 0xFFFF
??CrossCallReturnLabel_15:
        INC     DPTR
        INC     DPTR
        MOV     A,R4
        MOVX    @DPTR,A
        INC     DPTR
        MOV     A,R5
        MOVX    @DPTR,A
//  291     Key_SimpleDesc[keyCnt]->EndPoint += keyCnt;
        MOV     DPTR,#keyCnt
        MOVX    A,@DPTR
        MOV     R0,A
        MOV     DPL,R2
        MOV     DPH,R3
        MOVX    A,@DPTR
        MOV     R1,A
        INC     DPTR
        MOVX    A,@DPTR
        MOV     DPH,A
        MOV     DPL,R1
        MOVX    A,@DPTR
        ADD     A,R0
        LCALL   ?Subroutine0 & 0xFFFF
//  292     Key_epDesc[keyCnt]->latencyReq = noLatencyReqs;
??CrossCallReturnLabel_0:
        MOV     R2,A
        INC     DPTR
        MOVX    A,@DPTR
        MOV     R3,A
        MOV     DPL,R2
        MOV     DPH,R3
        INC     DPTR
        INC     DPTR
        INC     DPTR
        INC     DPTR
        INC     DPTR
        CLR     A
        MOVX    @DPTR,A
//  293     
//  294     // Register the endpoint description with the AF
//  295     afRegister( Key_epDesc[keyCnt] );
        ; Setup parameters for call to function afRegister
        LCALL   ??afRegister?relay
//  296   
//  297   if ( create )
        MOV     A,?V0 + 1
        JNZ     $+5
        LJMP    ??Key_BindDevice_0 & 0xFFFF
//  298   {
//  299     if (key_bindInProgress == 0xffff)
        MOV     DPTR,#key_bindInProgress
        MOVX    A,@DPTR
        CPL     A
        JNZ     ??Key_BindDevice_1
        INC     DPTR
        MOVX    A,@DPTR
        CPL     A
??Key_BindDevice_1:
        JZ      $+5
        LJMP    ??CrossCallReturnLabel_32 & 0xFFFF
//  300     {
//  301       if ( pDestination )
        MOV     A,R6
        ORL     A,R7
        JZ      ??Key_BindDevice_2
//  302       {
//  303         destination.addrMode = Addr64Bit;
        MOV     A,#0x8
        LCALL   ?XSTACK_DISP0_8
        MOV     A,#0x3
        MOVX    @DPTR,A
//  304         osal_cpyExtAddr( destination.addr.extAddr, pDestination );
        ; Setup parameters for call to function sAddrExtCpy
        MOV     A,R6
        MOV     R4,A
        MOV     A,R7
        MOV     R5,A
        MOV     DPL,?XSP + 0
        MOV     DPH,?XSP + 1
        MOV     R2,DPL
        MOV     R3,DPH
        LCALL   ??sAddrExtCpy?relay
//  305           // srcEndpoint, dstEndpoint
//  306         ret = APSME_BindRequest( endpoint, commandId[0],
//  307                                             &destination, endpoint );
//  308 
//  309         if ( ret == ZSuccess )
        ; Setup parameters for call to function APSME_BindRequest
        MOV     A,?V0 + 0
        MOV     ?V0 + 2,A
        MOV     R0,#?V0 + 2
        LCALL   ?PUSH_XSTACK_I_ONE
        CFI CFA_XSP16 add(XSP16, 40)
        MOV     A,#0x1
        LCALL   ?XSTACK_DISP0_8
        MOV     R4,DPL
        MOV     R5,DPH
        LCALL   ?Subroutine7 & 0xFFFF
??CrossCallReturnLabel_36:
        MOV     R1,?V0 + 0
        LCALL   ??APSME_BindRequest?relay
        MOV     A,#0x1
        LCALL   ?DEALLOC_XSTACK8
        CFI CFA_XSP16 add(XSP16, 39)
        MOV     A,R1
        JZ      $+5
        LJMP    ??CrossCallReturnLabel_32 & 0xFFFF
//  310         {
//  311           // Find nwk addr
//  312           ZDP_NwkAddrReq(pDestination, ZDP_ADDR_REQTYPE_SINGLE, 0, 0 );
        ; Setup parameters for call to function ZDP_NwkAddrReq
        MOV     R5,#0x0
        MOV     R4,#0x0
        MOV     R1,#0x0
        MOV     A,R6
        MOV     R2,A
        MOV     A,R7
        MOV     R3,A
        LCALL   ??ZDP_NwkAddrReq?relay
//  313           osal_start_timerEx( ZDAppTaskID, ZDO_NWK_UPDATE_NV, 250 );
        ; Setup parameters for call to function osal_start_timerEx
        LJMP    ??Key_BindDevice_3 & 0xFFFF
//  314         }
//  315       }
//  316       else
//  317       {
//  318         ret = ZB_INVALID_PARAMETER;
//  319         destination.addrMode = Addr16Bit;
??Key_BindDevice_2:
        MOV     A,#0x8
        LCALL   ?XSTACK_DISP0_8
        MOV     A,#0x2
        MOVX    @DPTR,A
//  320         destination.addr.shortAddr = NWK_BROADCAST_SHORTADDR;
        MOV     DPL,?XSP + 0
        MOV     DPH,?XSP + 1
        MOV     A,#-0x1
        MOVX    @DPTR,A
        INC     DPTR
        LCALL   ?Subroutine0 & 0xFFFF
//  321         if ( ZDO_AnyClusterMatches( KEY_MAX_CLUSTERS, commandId, Key_epDesc[keyCnt]->simpleDesc->AppNumOutClusters,
//  322                                                 Key_epDesc[keyCnt]->simpleDesc->pAppOutClusterList ) )
??CrossCallReturnLabel_1:
        LCALL   ?Subroutine2 & 0xFFFF
??CrossCallReturnLabel_4:
        INC     DPTR
        INC     DPTR
        INC     DPTR
        LCALL   ?PUSH_XSTACK8_X_TWO
        CFI CFA_XSP16 add(XSP16, 41)
        LCALL   ?Subroutine4 & 0xFFFF
??CrossCallReturnLabel_8:
        INC     DPTR
        INC     DPTR
        INC     DPTR
        LCALL   ?Subroutine5 & 0xFFFF
??CrossCallReturnLabel_10:
        LCALL   ?DEALLOC_XSTACK8
        CFI CFA_XSP16 add(XSP16, 39)
        MOV     A,R1
        JZ      ??Key_BindDevice_4
//  323         {
//  324           // Try to match with a device in the allow bind mode
//  325           ret = ZDP_MatchDescReq( &destination, NWK_BROADCAST_SHORTADDR,
//  326               Key_epDesc[keyCnt]->simpleDesc->AppProfId, KEY_MAX_CLUSTERS, commandId, KEY_MAX_CLUSTERS, commandId, 0 );
//  327         }
//  328         else if ( ZDO_AnyClusterMatches( KEY_MAX_CLUSTERS, commandId, Key_epDesc[keyCnt]->simpleDesc->AppNumInClusters,
//  329                                                 Key_epDesc[keyCnt]->simpleDesc->pAppInClusterList ) )
//  330         {
//  331           ret = ZDP_MatchDescReq( &destination, NWK_BROADCAST_SHORTADDR,
//  332               Key_epDesc[keyCnt]->simpleDesc->AppProfId, KEY_MAX_CLUSTERS, commandId, KEY_MAX_CLUSTERS, commandId, 0 );
//  333         }
//  334 
//  335         if ( ret == ZB_SUCCESS )
??Key_BindDevice_5:
        ; Setup parameters for call to function ZDP_MatchDescReq
        MOV     ?V0 + 2,#0x0
        MOV     R0,#?V0 + 2
        LCALL   ?PUSH_XSTACK_I_ONE
        CFI CFA_XSP16 add(XSP16, 40)
        MOV     R0,#?V0 + 8
        LCALL   ?PUSH_XSTACK_I_TWO
        CFI CFA_XSP16 add(XSP16, 42)
        MOV     ?V0 + 2,#0x4
        MOV     R0,#?V0 + 2
        LCALL   ?PUSH_XSTACK_I_ONE
        CFI CFA_XSP16 add(XSP16, 43)
        MOV     R0,#?V0 + 8
        LCALL   ?PUSH_XSTACK_I_TWO
        CFI CFA_XSP16 add(XSP16, 45)
        LCALL   ?Subroutine1 & 0xFFFF
??CrossCallReturnLabel_3:
        INC     DPTR
        LCALL   ?PUSH_XSTACK8_X_TWO
        CFI CFA_XSP16 add(XSP16, 47)
        MOV     R1,#0x4
        MOV     R4,#-0x1
        MOV     R5,#-0x1
        MOV     A,#0x8
        LCALL   ?XSTACK_DISP0_8
        MOV     R2,DPL
        MOV     R3,DPH
        LCALL   ??ZDP_MatchDescReq?relay
        MOV     A,#0x8
        LCALL   ?DEALLOC_XSTACK8
        CFI CFA_XSP16 add(XSP16, 39)
        MOV     A,R1
        JNZ     ??CrossCallReturnLabel_32
//  336         {
//  337           // Set a timer to make sure bind completes
//  338 #if ( ZG_BUILD_RTR_TYPE )
//  339           osal_start_timerEx(Key_TaskID, KEY_BIND_TIMER, AIB_MaxBindingTime);
        ; Setup parameters for call to function osal_start_timerEx
        MOV     DPTR,#AIB_MaxBindingTime
        MOVX    A,@DPTR
        MOV     R4,A
        INC     DPTR
        MOVX    A,@DPTR
        MOV     R5,A
        MOV     R2,#0x21
        MOV     R3,#0x0
        MOV     DPTR,#Key_TaskID
        LCALL   ??Subroutine18_0 & 0xFFFF
//  340 #else
//  341           // AIB_MaxBindingTime is not defined for an End Device
//  342           osal_start_timerEx(Key_TaskID, KEY_BIND_TIMER, zgApsDefaultMaxBindingTime);
//  343 #endif
//  344           key_bindInProgress = commandId[0];
??CrossCallReturnLabel_33:
        MOV     DPL,?V0 + 8
        MOV     DPH,?V0 + 9
        MOVX    A,@DPTR
        MOV     R0,A
        INC     DPTR
        MOVX    A,@DPTR
        MOV     R1,A
        MOV     DPTR,#key_bindInProgress
        MOV     A,R0
        MOVX    @DPTR,A
        INC     DPTR
        MOV     A,R1
        MOVX    @DPTR,A
//  345           return; // dont send cback event
        SJMP    ??CrossCallReturnLabel_32
//  346         }
??Key_BindDevice_4:
        LCALL   ?Subroutine14 & 0xFFFF
//  347       }
//  348     }
//  349 
//  350   //  SAPI_SendCback( SAPICB_BIND_CNF, ret, commandId );
//  351   }
??CrossCallReturnLabel_22:
        LCALL   ?Subroutine11 & 0xFFFF
??CrossCallReturnLabel_17:
        LCALL   ?Subroutine2 & 0xFFFF
??CrossCallReturnLabel_5:
        LCALL   ?PUSH_XSTACK8_X_TWO
        CFI CFA_XSP16 add(XSP16, 41)
        LCALL   ?Subroutine4 & 0xFFFF
??CrossCallReturnLabel_9:
        LCALL   ?Subroutine5 & 0xFFFF
??CrossCallReturnLabel_11:
        LCALL   ?DEALLOC_XSTACK8
        CFI CFA_XSP16 add(XSP16, 39)
        MOV     A,R1
        JNZ     ??Key_BindDevice_5
        SJMP    ??CrossCallReturnLabel_32
//  352   else
//  353   {
//  354     // Remove local bindings for the commandId
//  355     BindingEntry_t *pBind;
//  356 
//  357     // Loop through bindings an remove any that match the cluster
//  358     while ( pBind = bindFind( endpoint, commandId[0], 0 ) )
//  359     {
//  360       bindRemoveEntry(pBind);
??Key_BindDevice_6:
        ; Setup parameters for call to function bindRemoveEntry
        LCALL   ??bindRemoveEntry?relay
//  361     }
??Key_BindDevice_0:
        ; Setup parameters for call to function bindFind
        MOV     R4,#0x0
        LCALL   ?Subroutine7 & 0xFFFF
??CrossCallReturnLabel_37:
        MOV     R1,?V0 + 0
        LCALL   ??bindFind?relay
        MOV     A,R2
        ORL     A,R3
        JNZ     ??Key_BindDevice_6
//  362     osal_start_timerEx( ZDAppTaskID, ZDO_NWK_UPDATE_NV, 250 );
        ; Setup parameters for call to function osal_start_timerEx
//  363   }
??Key_BindDevice_3:
        LCALL   ?Subroutine9 & 0xFFFF
??CrossCallReturnLabel_32:
        MOV     A,#0x15
        LCALL   ?DEALLOC_XSTACK8
        CFI CFA_XSP16 add(XSP16, 18)
        MOV     R7,#0xa
        LJMP    ?BANKED_LEAVE_XDATA
        CFI EndBlock cfiBlock22
//  364   return;
//  365 }

        RSEG BANKED_CODE:CODE:NOROOT(0)
?Subroutine11:
        CFI Block cfiCond23 Using cfiCommon0
        CFI NoFunction
        CFI Conditional ??CrossCallReturnLabel_16
        CFI R6 load(1, XDATA, add(CFA_XSP16, literal(-18)))
        CFI VB load(1, XDATA, add(CFA_XSP16, literal(-17)))
        CFI V0 load(1, XDATA, add(CFA_XSP16, literal(-16)))
        CFI V1 load(1, XDATA, add(CFA_XSP16, literal(-15)))
        CFI V2 load(1, XDATA, add(CFA_XSP16, literal(-14)))
        CFI V3 load(1, XDATA, add(CFA_XSP16, literal(-13)))
        CFI V4 load(1, XDATA, add(CFA_XSP16, literal(-12)))
        CFI V5 load(1, XDATA, add(CFA_XSP16, literal(-11)))
        CFI V6 load(1, XDATA, add(CFA_XSP16, literal(-10)))
        CFI V7 load(1, XDATA, add(CFA_XSP16, literal(-9)))
        CFI V8 load(1, XDATA, add(CFA_XSP16, literal(-8)))
        CFI V9 load(1, XDATA, add(CFA_XSP16, literal(-7)))
        CFI R7 load(1, XDATA, add(CFA_XSP16, literal(-6)))
        CFI ?RET_LOW load(1, XDATA, add(CFA_XSP16, literal(-5)))
        CFI ?RET_HIGH load(1, XDATA, add(CFA_XSP16, literal(-4)))
        CFI ?BRET_EXT load(1, XDATA, add(CFA_XSP16, literal(-3)))
        CFI DPL0 load(1, XDATA, add(CFA_XSP16, literal(-2)))
        CFI DPH0 load(1, XDATA, add(CFA_XSP16, literal(-1)))
        CFI CFA_SP SP+-1
        CFI CFA_XSP16 add(XSP16, 39)
        CFI Block cfiCond24 Using cfiCommon0
        CFI (cfiCond24) NoFunction
        CFI (cfiCond24) Conditional ??CrossCallReturnLabel_17
        CFI (cfiCond24) R6 load(1, XDATA, add(CFA_XSP16, literal(-18)))
        CFI (cfiCond24) VB load(1, XDATA, add(CFA_XSP16, literal(-17)))
        CFI (cfiCond24) V0 load(1, XDATA, add(CFA_XSP16, literal(-16)))
        CFI (cfiCond24) V1 load(1, XDATA, add(CFA_XSP16, literal(-15)))
        CFI (cfiCond24) V2 load(1, XDATA, add(CFA_XSP16, literal(-14)))
        CFI (cfiCond24) V3 load(1, XDATA, add(CFA_XSP16, literal(-13)))
        CFI (cfiCond24) V4 load(1, XDATA, add(CFA_XSP16, literal(-12)))
        CFI (cfiCond24) V5 load(1, XDATA, add(CFA_XSP16, literal(-11)))
        CFI (cfiCond24) V6 load(1, XDATA, add(CFA_XSP16, literal(-10)))
        CFI (cfiCond24) V7 load(1, XDATA, add(CFA_XSP16, literal(-9)))
        CFI (cfiCond24) V8 load(1, XDATA, add(CFA_XSP16, literal(-8)))
        CFI (cfiCond24) V9 load(1, XDATA, add(CFA_XSP16, literal(-7)))
        CFI (cfiCond24) R7 load(1, XDATA, add(CFA_XSP16, literal(-6)))
        CFI (cfiCond24) ?RET_LOW load(1, XDATA, add(CFA_XSP16, literal(-5)))
        CFI (cfiCond24) ?RET_HIGH load(1, XDATA, add(CFA_XSP16, literal(-4)))
        CFI (cfiCond24) ?BRET_EXT load(1, XDATA, add(CFA_XSP16, literal(-3)))
        CFI (cfiCond24) DPL0 load(1, XDATA, add(CFA_XSP16, literal(-2)))
        CFI (cfiCond24) DPH0 load(1, XDATA, add(CFA_XSP16, literal(-1)))
        CFI (cfiCond24) CFA_SP SP+0
        CFI (cfiCond24) CFA_XSP16 add(XSP16, 39)
        CFI Block cfiPicker25 Using cfiCommon1
        CFI (cfiPicker25) NoFunction
        CFI (cfiPicker25) Picker
        LCALL   ?Subroutine16 & 0xFFFF
??CrossCallReturnLabel_25:
        RET
        CFI EndBlock cfiCond23
        CFI EndBlock cfiCond24
        CFI EndBlock cfiPicker25

        RSEG BANKED_CODE:CODE:NOROOT(0)
?Subroutine8:
        CFI Block cfiCond26 Using cfiCommon0
        CFI NoFunction
        CFI Conditional ??CrossCallReturnLabel_14
        CFI R6 load(1, XDATA, add(CFA_XSP16, literal(-18)))
        CFI VB load(1, XDATA, add(CFA_XSP16, literal(-17)))
        CFI V0 load(1, XDATA, add(CFA_XSP16, literal(-16)))
        CFI V1 load(1, XDATA, add(CFA_XSP16, literal(-15)))
        CFI V2 load(1, XDATA, add(CFA_XSP16, literal(-14)))
        CFI V3 load(1, XDATA, add(CFA_XSP16, literal(-13)))
        CFI V4 load(1, XDATA, add(CFA_XSP16, literal(-12)))
        CFI V5 load(1, XDATA, add(CFA_XSP16, literal(-11)))
        CFI V6 load(1, XDATA, add(CFA_XSP16, literal(-10)))
        CFI V7 load(1, XDATA, add(CFA_XSP16, literal(-9)))
        CFI V8 load(1, XDATA, add(CFA_XSP16, literal(-8)))
        CFI V9 load(1, XDATA, add(CFA_XSP16, literal(-7)))
        CFI R7 load(1, XDATA, add(CFA_XSP16, literal(-6)))
        CFI ?RET_LOW load(1, XDATA, add(CFA_XSP16, literal(-5)))
        CFI ?RET_HIGH load(1, XDATA, add(CFA_XSP16, literal(-4)))
        CFI ?BRET_EXT load(1, XDATA, add(CFA_XSP16, literal(-3)))
        CFI DPL0 load(1, XDATA, add(CFA_XSP16, literal(-2)))
        CFI DPH0 load(1, XDATA, add(CFA_XSP16, literal(-1)))
        CFI CFA_SP SP+0
        CFI CFA_XSP16 add(XSP16, 39)
        CFI Block cfiCond27 Using cfiCommon0
        CFI (cfiCond27) NoFunction
        CFI (cfiCond27) Conditional ??CrossCallReturnLabel_15
        CFI (cfiCond27) R6 load(1, XDATA, add(CFA_XSP16, literal(-18)))
        CFI (cfiCond27) VB load(1, XDATA, add(CFA_XSP16, literal(-17)))
        CFI (cfiCond27) V0 load(1, XDATA, add(CFA_XSP16, literal(-16)))
        CFI (cfiCond27) V1 load(1, XDATA, add(CFA_XSP16, literal(-15)))
        CFI (cfiCond27) V2 load(1, XDATA, add(CFA_XSP16, literal(-14)))
        CFI (cfiCond27) V3 load(1, XDATA, add(CFA_XSP16, literal(-13)))
        CFI (cfiCond27) V4 load(1, XDATA, add(CFA_XSP16, literal(-12)))
        CFI (cfiCond27) V5 load(1, XDATA, add(CFA_XSP16, literal(-11)))
        CFI (cfiCond27) V6 load(1, XDATA, add(CFA_XSP16, literal(-10)))
        CFI (cfiCond27) V7 load(1, XDATA, add(CFA_XSP16, literal(-9)))
        CFI (cfiCond27) V8 load(1, XDATA, add(CFA_XSP16, literal(-8)))
        CFI (cfiCond27) V9 load(1, XDATA, add(CFA_XSP16, literal(-7)))
        CFI (cfiCond27) R7 load(1, XDATA, add(CFA_XSP16, literal(-6)))
        CFI (cfiCond27) ?RET_LOW load(1, XDATA, add(CFA_XSP16, literal(-5)))
        CFI (cfiCond27) ?RET_HIGH load(1, XDATA, add(CFA_XSP16, literal(-4)))
        CFI (cfiCond27) ?BRET_EXT load(1, XDATA, add(CFA_XSP16, literal(-3)))
        CFI (cfiCond27) DPL0 load(1, XDATA, add(CFA_XSP16, literal(-2)))
        CFI (cfiCond27) DPH0 load(1, XDATA, add(CFA_XSP16, literal(-1)))
        CFI (cfiCond27) CFA_SP SP+0
        CFI (cfiCond27) CFA_XSP16 add(XSP16, 39)
        CFI Block cfiPicker28 Using cfiCommon1
        CFI (cfiPicker28) NoFunction
        CFI (cfiPicker28) Picker
        MOV     DPH,A
        LCALL   ?Subroutine13 & 0xFFFF
??CrossCallReturnLabel_21:
        RET
        CFI EndBlock cfiCond26
        CFI EndBlock cfiCond27
        CFI EndBlock cfiPicker28

        RSEG BANKED_CODE:CODE:NOROOT(0)
?Subroutine13:
        CFI Block cfiCond29 Using cfiCommon0
        CFI NoFunction
        CFI Conditional ??CrossCallReturnLabel_21, ??CrossCallReturnLabel_14
        CFI R6 load(1, XDATA, add(CFA_XSP16, literal(-18)))
        CFI VB load(1, XDATA, add(CFA_XSP16, literal(-17)))
        CFI V0 load(1, XDATA, add(CFA_XSP16, literal(-16)))
        CFI V1 load(1, XDATA, add(CFA_XSP16, literal(-15)))
        CFI V2 load(1, XDATA, add(CFA_XSP16, literal(-14)))
        CFI V3 load(1, XDATA, add(CFA_XSP16, literal(-13)))
        CFI V4 load(1, XDATA, add(CFA_XSP16, literal(-12)))
        CFI V5 load(1, XDATA, add(CFA_XSP16, literal(-11)))
        CFI V6 load(1, XDATA, add(CFA_XSP16, literal(-10)))
        CFI V7 load(1, XDATA, add(CFA_XSP16, literal(-9)))
        CFI V8 load(1, XDATA, add(CFA_XSP16, literal(-8)))
        CFI V9 load(1, XDATA, add(CFA_XSP16, literal(-7)))
        CFI R7 load(1, XDATA, add(CFA_XSP16, literal(-6)))
        CFI ?RET_LOW load(1, XDATA, add(CFA_XSP16, literal(-5)))
        CFI ?RET_HIGH load(1, XDATA, add(CFA_XSP16, literal(-4)))
        CFI ?BRET_EXT load(1, XDATA, add(CFA_XSP16, literal(-3)))
        CFI DPL0 load(1, XDATA, add(CFA_XSP16, literal(-2)))
        CFI DPH0 load(1, XDATA, add(CFA_XSP16, literal(-1)))
        CFI CFA_SP SP+0
        CFI CFA_XSP16 add(XSP16, 39)
        CFI Block cfiCond30 Using cfiCommon0
        CFI (cfiCond30) NoFunction
        CFI (cfiCond30) Conditional ??CrossCallReturnLabel_21, ??CrossCallReturnLabel_15
        CFI (cfiCond30) R6 load(1, XDATA, add(CFA_XSP16, literal(-18)))
        CFI (cfiCond30) VB load(1, XDATA, add(CFA_XSP16, literal(-17)))
        CFI (cfiCond30) V0 load(1, XDATA, add(CFA_XSP16, literal(-16)))
        CFI (cfiCond30) V1 load(1, XDATA, add(CFA_XSP16, literal(-15)))
        CFI (cfiCond30) V2 load(1, XDATA, add(CFA_XSP16, literal(-14)))
        CFI (cfiCond30) V3 load(1, XDATA, add(CFA_XSP16, literal(-13)))
        CFI (cfiCond30) V4 load(1, XDATA, add(CFA_XSP16, literal(-12)))
        CFI (cfiCond30) V5 load(1, XDATA, add(CFA_XSP16, literal(-11)))
        CFI (cfiCond30) V6 load(1, XDATA, add(CFA_XSP16, literal(-10)))
        CFI (cfiCond30) V7 load(1, XDATA, add(CFA_XSP16, literal(-9)))
        CFI (cfiCond30) V8 load(1, XDATA, add(CFA_XSP16, literal(-8)))
        CFI (cfiCond30) V9 load(1, XDATA, add(CFA_XSP16, literal(-7)))
        CFI (cfiCond30) R7 load(1, XDATA, add(CFA_XSP16, literal(-6)))
        CFI (cfiCond30) ?RET_LOW load(1, XDATA, add(CFA_XSP16, literal(-5)))
        CFI (cfiCond30) ?RET_HIGH load(1, XDATA, add(CFA_XSP16, literal(-4)))
        CFI (cfiCond30) ?BRET_EXT load(1, XDATA, add(CFA_XSP16, literal(-3)))
        CFI (cfiCond30) DPL0 load(1, XDATA, add(CFA_XSP16, literal(-2)))
        CFI (cfiCond30) DPH0 load(1, XDATA, add(CFA_XSP16, literal(-1)))
        CFI (cfiCond30) CFA_SP SP+0
        CFI (cfiCond30) CFA_XSP16 add(XSP16, 39)
        CFI Block cfiCond31 Using cfiCommon0
        CFI (cfiCond31) NoFunction
        CFI (cfiCond31) Conditional ??CrossCallReturnLabel_20, ??CrossCallReturnLabel_8
        CFI (cfiCond31) R6 load(1, XDATA, add(CFA_XSP16, literal(-18)))
        CFI (cfiCond31) VB load(1, XDATA, add(CFA_XSP16, literal(-17)))
        CFI (cfiCond31) V0 load(1, XDATA, add(CFA_XSP16, literal(-16)))
        CFI (cfiCond31) V1 load(1, XDATA, add(CFA_XSP16, literal(-15)))
        CFI (cfiCond31) V2 load(1, XDATA, add(CFA_XSP16, literal(-14)))
        CFI (cfiCond31) V3 load(1, XDATA, add(CFA_XSP16, literal(-13)))
        CFI (cfiCond31) V4 load(1, XDATA, add(CFA_XSP16, literal(-12)))
        CFI (cfiCond31) V5 load(1, XDATA, add(CFA_XSP16, literal(-11)))
        CFI (cfiCond31) V6 load(1, XDATA, add(CFA_XSP16, literal(-10)))
        CFI (cfiCond31) V7 load(1, XDATA, add(CFA_XSP16, literal(-9)))
        CFI (cfiCond31) V8 load(1, XDATA, add(CFA_XSP16, literal(-8)))
        CFI (cfiCond31) V9 load(1, XDATA, add(CFA_XSP16, literal(-7)))
        CFI (cfiCond31) R7 load(1, XDATA, add(CFA_XSP16, literal(-6)))
        CFI (cfiCond31) ?RET_LOW load(1, XDATA, add(CFA_XSP16, literal(-5)))
        CFI (cfiCond31) ?RET_HIGH load(1, XDATA, add(CFA_XSP16, literal(-4)))
        CFI (cfiCond31) ?BRET_EXT load(1, XDATA, add(CFA_XSP16, literal(-3)))
        CFI (cfiCond31) DPL0 load(1, XDATA, add(CFA_XSP16, literal(-2)))
        CFI (cfiCond31) DPH0 load(1, XDATA, add(CFA_XSP16, literal(-1)))
        CFI (cfiCond31) CFA_SP SP+0
        CFI (cfiCond31) CFA_XSP16 add(XSP16, 41)
        CFI Block cfiCond32 Using cfiCommon0
        CFI (cfiCond32) NoFunction
        CFI (cfiCond32) Conditional ??CrossCallReturnLabel_20, ??CrossCallReturnLabel_9
        CFI (cfiCond32) R6 load(1, XDATA, add(CFA_XSP16, literal(-18)))
        CFI (cfiCond32) VB load(1, XDATA, add(CFA_XSP16, literal(-17)))
        CFI (cfiCond32) V0 load(1, XDATA, add(CFA_XSP16, literal(-16)))
        CFI (cfiCond32) V1 load(1, XDATA, add(CFA_XSP16, literal(-15)))
        CFI (cfiCond32) V2 load(1, XDATA, add(CFA_XSP16, literal(-14)))
        CFI (cfiCond32) V3 load(1, XDATA, add(CFA_XSP16, literal(-13)))
        CFI (cfiCond32) V4 load(1, XDATA, add(CFA_XSP16, literal(-12)))
        CFI (cfiCond32) V5 load(1, XDATA, add(CFA_XSP16, literal(-11)))
        CFI (cfiCond32) V6 load(1, XDATA, add(CFA_XSP16, literal(-10)))
        CFI (cfiCond32) V7 load(1, XDATA, add(CFA_XSP16, literal(-9)))
        CFI (cfiCond32) V8 load(1, XDATA, add(CFA_XSP16, literal(-8)))
        CFI (cfiCond32) V9 load(1, XDATA, add(CFA_XSP16, literal(-7)))
        CFI (cfiCond32) R7 load(1, XDATA, add(CFA_XSP16, literal(-6)))
        CFI (cfiCond32) ?RET_LOW load(1, XDATA, add(CFA_XSP16, literal(-5)))
        CFI (cfiCond32) ?RET_HIGH load(1, XDATA, add(CFA_XSP16, literal(-4)))
        CFI (cfiCond32) ?BRET_EXT load(1, XDATA, add(CFA_XSP16, literal(-3)))
        CFI (cfiCond32) DPL0 load(1, XDATA, add(CFA_XSP16, literal(-2)))
        CFI (cfiCond32) DPH0 load(1, XDATA, add(CFA_XSP16, literal(-1)))
        CFI (cfiCond32) CFA_SP SP+0
        CFI (cfiCond32) CFA_XSP16 add(XSP16, 41)
        CFI Block cfiPicker33 Using cfiCommon1
        CFI (cfiPicker33) NoFunction
        CFI (cfiPicker33) Picker
        LCALL   ?Subroutine15 & 0xFFFF
??CrossCallReturnLabel_41:
        INC     DPTR
        RET
        CFI EndBlock cfiCond29
        CFI EndBlock cfiCond30
        CFI EndBlock cfiCond31
        CFI EndBlock cfiCond32
        CFI EndBlock cfiPicker33

        RSEG BANKED_CODE:CODE:NOROOT(0)
?Subroutine7:
        CFI Block cfiCond34 Using cfiCommon0
        CFI NoFunction
        CFI Conditional ??CrossCallReturnLabel_36
        CFI R6 load(1, XDATA, add(CFA_XSP16, literal(-18)))
        CFI VB load(1, XDATA, add(CFA_XSP16, literal(-17)))
        CFI V0 load(1, XDATA, add(CFA_XSP16, literal(-16)))
        CFI V1 load(1, XDATA, add(CFA_XSP16, literal(-15)))
        CFI V2 load(1, XDATA, add(CFA_XSP16, literal(-14)))
        CFI V3 load(1, XDATA, add(CFA_XSP16, literal(-13)))
        CFI V4 load(1, XDATA, add(CFA_XSP16, literal(-12)))
        CFI V5 load(1, XDATA, add(CFA_XSP16, literal(-11)))
        CFI V6 load(1, XDATA, add(CFA_XSP16, literal(-10)))
        CFI V7 load(1, XDATA, add(CFA_XSP16, literal(-9)))
        CFI V8 load(1, XDATA, add(CFA_XSP16, literal(-8)))
        CFI V9 load(1, XDATA, add(CFA_XSP16, literal(-7)))
        CFI R7 load(1, XDATA, add(CFA_XSP16, literal(-6)))
        CFI ?RET_LOW load(1, XDATA, add(CFA_XSP16, literal(-5)))
        CFI ?RET_HIGH load(1, XDATA, add(CFA_XSP16, literal(-4)))
        CFI ?BRET_EXT load(1, XDATA, add(CFA_XSP16, literal(-3)))
        CFI DPL0 load(1, XDATA, add(CFA_XSP16, literal(-2)))
        CFI DPH0 load(1, XDATA, add(CFA_XSP16, literal(-1)))
        CFI CFA_SP SP+0
        CFI CFA_XSP16 add(XSP16, 40)
        CFI Block cfiCond35 Using cfiCommon0
        CFI (cfiCond35) NoFunction
        CFI (cfiCond35) Conditional ??CrossCallReturnLabel_37
        CFI (cfiCond35) R6 load(1, XDATA, add(CFA_XSP16, literal(-18)))
        CFI (cfiCond35) VB load(1, XDATA, add(CFA_XSP16, literal(-17)))
        CFI (cfiCond35) V0 load(1, XDATA, add(CFA_XSP16, literal(-16)))
        CFI (cfiCond35) V1 load(1, XDATA, add(CFA_XSP16, literal(-15)))
        CFI (cfiCond35) V2 load(1, XDATA, add(CFA_XSP16, literal(-14)))
        CFI (cfiCond35) V3 load(1, XDATA, add(CFA_XSP16, literal(-13)))
        CFI (cfiCond35) V4 load(1, XDATA, add(CFA_XSP16, literal(-12)))
        CFI (cfiCond35) V5 load(1, XDATA, add(CFA_XSP16, literal(-11)))
        CFI (cfiCond35) V6 load(1, XDATA, add(CFA_XSP16, literal(-10)))
        CFI (cfiCond35) V7 load(1, XDATA, add(CFA_XSP16, literal(-9)))
        CFI (cfiCond35) V8 load(1, XDATA, add(CFA_XSP16, literal(-8)))
        CFI (cfiCond35) V9 load(1, XDATA, add(CFA_XSP16, literal(-7)))
        CFI (cfiCond35) R7 load(1, XDATA, add(CFA_XSP16, literal(-6)))
        CFI (cfiCond35) ?RET_LOW load(1, XDATA, add(CFA_XSP16, literal(-5)))
        CFI (cfiCond35) ?RET_HIGH load(1, XDATA, add(CFA_XSP16, literal(-4)))
        CFI (cfiCond35) ?BRET_EXT load(1, XDATA, add(CFA_XSP16, literal(-3)))
        CFI (cfiCond35) DPL0 load(1, XDATA, add(CFA_XSP16, literal(-2)))
        CFI (cfiCond35) DPH0 load(1, XDATA, add(CFA_XSP16, literal(-1)))
        CFI (cfiCond35) CFA_SP SP+0
        CFI (cfiCond35) CFA_XSP16 add(XSP16, 39)
        CFI Block cfiPicker36 Using cfiCommon1
        CFI (cfiPicker36) NoFunction
        CFI (cfiPicker36) Picker
        MOV     DPL,?V0 + 8
        MOV     DPH,?V0 + 9
        CFI EndBlock cfiCond34
        CFI EndBlock cfiCond35
        CFI EndBlock cfiPicker36
        REQUIRE ??Subroutine19_0
        ; // Fall through to label ??Subroutine19_0

        RSEG BANKED_CODE:CODE:NOROOT(0)
??Subroutine19_0:
        CFI Block cfiCond37 Using cfiCommon0
        CFI NoFunction
        CFI Conditional ??CrossCallReturnLabel_34
        CFI R6 load(1, XDATA, add(CFA_XSP16, literal(-11)))
        CFI VB load(1, XDATA, add(CFA_XSP16, literal(-10)))
        CFI V0 load(1, XDATA, add(CFA_XSP16, literal(-9)))
        CFI V1 load(1, XDATA, add(CFA_XSP16, literal(-8)))
        CFI V2 load(1, XDATA, add(CFA_XSP16, literal(-7)))
        CFI R7 load(1, XDATA, add(CFA_XSP16, literal(-6)))
        CFI ?RET_LOW load(1, XDATA, add(CFA_XSP16, literal(-5)))
        CFI ?RET_HIGH load(1, XDATA, add(CFA_XSP16, literal(-4)))
        CFI ?BRET_EXT load(1, XDATA, add(CFA_XSP16, literal(-3)))
        CFI DPL0 load(1, XDATA, add(CFA_XSP16, literal(-2)))
        CFI DPH0 load(1, XDATA, add(CFA_XSP16, literal(-1)))
        CFI CFA_SP SP+0
        CFI CFA_XSP16 add(XSP16, 20)
        CFI Block cfiCond38 Using cfiCommon0
        CFI (cfiCond38) NoFunction
        CFI (cfiCond38) Conditional ??CrossCallReturnLabel_35
        CFI (cfiCond38) R6 load(1, XDATA, add(CFA_XSP16, literal(-18)))
        CFI (cfiCond38) VB load(1, XDATA, add(CFA_XSP16, literal(-17)))
        CFI (cfiCond38) V0 load(1, XDATA, add(CFA_XSP16, literal(-16)))
        CFI (cfiCond38) V1 load(1, XDATA, add(CFA_XSP16, literal(-15)))
        CFI (cfiCond38) V2 load(1, XDATA, add(CFA_XSP16, literal(-14)))
        CFI (cfiCond38) V3 load(1, XDATA, add(CFA_XSP16, literal(-13)))
        CFI (cfiCond38) V4 load(1, XDATA, add(CFA_XSP16, literal(-12)))
        CFI (cfiCond38) V5 load(1, XDATA, add(CFA_XSP16, literal(-11)))
        CFI (cfiCond38) V6 load(1, XDATA, add(CFA_XSP16, literal(-10)))
        CFI (cfiCond38) V7 load(1, XDATA, add(CFA_XSP16, literal(-9)))
        CFI (cfiCond38) V8 load(1, XDATA, add(CFA_XSP16, literal(-8)))
        CFI (cfiCond38) V9 load(1, XDATA, add(CFA_XSP16, literal(-7)))
        CFI (cfiCond38) R7 load(1, XDATA, add(CFA_XSP16, literal(-6)))
        CFI (cfiCond38) ?RET_LOW load(1, XDATA, add(CFA_XSP16, literal(-5)))
        CFI (cfiCond38) ?RET_HIGH load(1, XDATA, add(CFA_XSP16, literal(-4)))
        CFI (cfiCond38) ?BRET_EXT load(1, XDATA, add(CFA_XSP16, literal(-3)))
        CFI (cfiCond38) DPL0 load(1, XDATA, add(CFA_XSP16, literal(-2)))
        CFI (cfiCond38) DPH0 load(1, XDATA, add(CFA_XSP16, literal(-1)))
        CFI (cfiCond38) CFA_SP SP+0
        CFI (cfiCond38) CFA_XSP16 add(XSP16, 42)
        CFI Block cfiCond39 Using cfiCommon0
        CFI (cfiCond39) NoFunction
        CFI (cfiCond39) Conditional ??CrossCallReturnLabel_36
        CFI (cfiCond39) R6 load(1, XDATA, add(CFA_XSP16, literal(-18)))
        CFI (cfiCond39) VB load(1, XDATA, add(CFA_XSP16, literal(-17)))
        CFI (cfiCond39) V0 load(1, XDATA, add(CFA_XSP16, literal(-16)))
        CFI (cfiCond39) V1 load(1, XDATA, add(CFA_XSP16, literal(-15)))
        CFI (cfiCond39) V2 load(1, XDATA, add(CFA_XSP16, literal(-14)))
        CFI (cfiCond39) V3 load(1, XDATA, add(CFA_XSP16, literal(-13)))
        CFI (cfiCond39) V4 load(1, XDATA, add(CFA_XSP16, literal(-12)))
        CFI (cfiCond39) V5 load(1, XDATA, add(CFA_XSP16, literal(-11)))
        CFI (cfiCond39) V6 load(1, XDATA, add(CFA_XSP16, literal(-10)))
        CFI (cfiCond39) V7 load(1, XDATA, add(CFA_XSP16, literal(-9)))
        CFI (cfiCond39) V8 load(1, XDATA, add(CFA_XSP16, literal(-8)))
        CFI (cfiCond39) V9 load(1, XDATA, add(CFA_XSP16, literal(-7)))
        CFI (cfiCond39) R7 load(1, XDATA, add(CFA_XSP16, literal(-6)))
        CFI (cfiCond39) ?RET_LOW load(1, XDATA, add(CFA_XSP16, literal(-5)))
        CFI (cfiCond39) ?RET_HIGH load(1, XDATA, add(CFA_XSP16, literal(-4)))
        CFI (cfiCond39) ?BRET_EXT load(1, XDATA, add(CFA_XSP16, literal(-3)))
        CFI (cfiCond39) DPL0 load(1, XDATA, add(CFA_XSP16, literal(-2)))
        CFI (cfiCond39) DPH0 load(1, XDATA, add(CFA_XSP16, literal(-1)))
        CFI (cfiCond39) CFA_SP SP+0
        CFI (cfiCond39) CFA_XSP16 add(XSP16, 40)
        CFI Block cfiCond40 Using cfiCommon0
        CFI (cfiCond40) NoFunction
        CFI (cfiCond40) Conditional ??CrossCallReturnLabel_37
        CFI (cfiCond40) R6 load(1, XDATA, add(CFA_XSP16, literal(-18)))
        CFI (cfiCond40) VB load(1, XDATA, add(CFA_XSP16, literal(-17)))
        CFI (cfiCond40) V0 load(1, XDATA, add(CFA_XSP16, literal(-16)))
        CFI (cfiCond40) V1 load(1, XDATA, add(CFA_XSP16, literal(-15)))
        CFI (cfiCond40) V2 load(1, XDATA, add(CFA_XSP16, literal(-14)))
        CFI (cfiCond40) V3 load(1, XDATA, add(CFA_XSP16, literal(-13)))
        CFI (cfiCond40) V4 load(1, XDATA, add(CFA_XSP16, literal(-12)))
        CFI (cfiCond40) V5 load(1, XDATA, add(CFA_XSP16, literal(-11)))
        CFI (cfiCond40) V6 load(1, XDATA, add(CFA_XSP16, literal(-10)))
        CFI (cfiCond40) V7 load(1, XDATA, add(CFA_XSP16, literal(-9)))
        CFI (cfiCond40) V8 load(1, XDATA, add(CFA_XSP16, literal(-8)))
        CFI (cfiCond40) V9 load(1, XDATA, add(CFA_XSP16, literal(-7)))
        CFI (cfiCond40) R7 load(1, XDATA, add(CFA_XSP16, literal(-6)))
        CFI (cfiCond40) ?RET_LOW load(1, XDATA, add(CFA_XSP16, literal(-5)))
        CFI (cfiCond40) ?RET_HIGH load(1, XDATA, add(CFA_XSP16, literal(-4)))
        CFI (cfiCond40) ?BRET_EXT load(1, XDATA, add(CFA_XSP16, literal(-3)))
        CFI (cfiCond40) DPL0 load(1, XDATA, add(CFA_XSP16, literal(-2)))
        CFI (cfiCond40) DPH0 load(1, XDATA, add(CFA_XSP16, literal(-1)))
        CFI (cfiCond40) CFA_SP SP+0
        CFI (cfiCond40) CFA_XSP16 add(XSP16, 39)
        CFI Block cfiPicker41 Using cfiCommon1
        CFI (cfiPicker41) NoFunction
        CFI (cfiPicker41) Picker
        MOVX    A,@DPTR
        MOV     R2,A
        INC     DPTR
        MOVX    A,@DPTR
        MOV     R3,A
        RET
        CFI EndBlock cfiCond37
        CFI EndBlock cfiCond38
        CFI EndBlock cfiCond39
        CFI EndBlock cfiCond40
        CFI EndBlock cfiPicker41

        RSEG BANKED_CODE:CODE:NOROOT(0)
?Subroutine6:
        CFI Block cfiCond42 Using cfiCommon0
        CFI NoFunction
        CFI Conditional ??CrossCallReturnLabel_12
        CFI R6 load(1, XDATA, add(CFA_XSP16, literal(-18)))
        CFI VB load(1, XDATA, add(CFA_XSP16, literal(-17)))
        CFI V0 load(1, XDATA, add(CFA_XSP16, literal(-16)))
        CFI V1 load(1, XDATA, add(CFA_XSP16, literal(-15)))
        CFI V2 load(1, XDATA, add(CFA_XSP16, literal(-14)))
        CFI V3 load(1, XDATA, add(CFA_XSP16, literal(-13)))
        CFI V4 load(1, XDATA, add(CFA_XSP16, literal(-12)))
        CFI V5 load(1, XDATA, add(CFA_XSP16, literal(-11)))
        CFI V6 load(1, XDATA, add(CFA_XSP16, literal(-10)))
        CFI V7 load(1, XDATA, add(CFA_XSP16, literal(-9)))
        CFI V8 load(1, XDATA, add(CFA_XSP16, literal(-8)))
        CFI V9 load(1, XDATA, add(CFA_XSP16, literal(-7)))
        CFI R7 load(1, XDATA, add(CFA_XSP16, literal(-6)))
        CFI ?RET_LOW load(1, XDATA, add(CFA_XSP16, literal(-5)))
        CFI ?RET_HIGH load(1, XDATA, add(CFA_XSP16, literal(-4)))
        CFI ?BRET_EXT load(1, XDATA, add(CFA_XSP16, literal(-3)))
        CFI DPL0 load(1, XDATA, add(CFA_XSP16, literal(-2)))
        CFI DPH0 load(1, XDATA, add(CFA_XSP16, literal(-1)))
        CFI CFA_SP SP+0
        CFI CFA_XSP16 add(XSP16, 39)
        CFI Block cfiCond43 Using cfiCommon0
        CFI (cfiCond43) NoFunction
        CFI (cfiCond43) Conditional ??CrossCallReturnLabel_13
        CFI (cfiCond43) R6 load(1, XDATA, add(CFA_XSP16, literal(-18)))
        CFI (cfiCond43) VB load(1, XDATA, add(CFA_XSP16, literal(-17)))
        CFI (cfiCond43) V0 load(1, XDATA, add(CFA_XSP16, literal(-16)))
        CFI (cfiCond43) V1 load(1, XDATA, add(CFA_XSP16, literal(-15)))
        CFI (cfiCond43) V2 load(1, XDATA, add(CFA_XSP16, literal(-14)))
        CFI (cfiCond43) V3 load(1, XDATA, add(CFA_XSP16, literal(-13)))
        CFI (cfiCond43) V4 load(1, XDATA, add(CFA_XSP16, literal(-12)))
        CFI (cfiCond43) V5 load(1, XDATA, add(CFA_XSP16, literal(-11)))
        CFI (cfiCond43) V6 load(1, XDATA, add(CFA_XSP16, literal(-10)))
        CFI (cfiCond43) V7 load(1, XDATA, add(CFA_XSP16, literal(-9)))
        CFI (cfiCond43) V8 load(1, XDATA, add(CFA_XSP16, literal(-8)))
        CFI (cfiCond43) V9 load(1, XDATA, add(CFA_XSP16, literal(-7)))
        CFI (cfiCond43) R7 load(1, XDATA, add(CFA_XSP16, literal(-6)))
        CFI (cfiCond43) ?RET_LOW load(1, XDATA, add(CFA_XSP16, literal(-5)))
        CFI (cfiCond43) ?RET_HIGH load(1, XDATA, add(CFA_XSP16, literal(-4)))
        CFI (cfiCond43) ?BRET_EXT load(1, XDATA, add(CFA_XSP16, literal(-3)))
        CFI (cfiCond43) DPL0 load(1, XDATA, add(CFA_XSP16, literal(-2)))
        CFI (cfiCond43) DPH0 load(1, XDATA, add(CFA_XSP16, literal(-1)))
        CFI (cfiCond43) CFA_SP SP+0
        CFI (cfiCond43) CFA_XSP16 add(XSP16, 39)
        CFI Block cfiPicker44 Using cfiCommon1
        CFI (cfiPicker44) NoFunction
        CFI (cfiPicker44) Picker
        LCALL   ?Subroutine14 & 0xFFFF
??CrossCallReturnLabel_23:
        MOV     A,#Key_SimpleDesc & 0xff
        ADD     A,R0
        RET
        CFI EndBlock cfiCond42
        CFI EndBlock cfiCond43
        CFI EndBlock cfiPicker44

        RSEG BANKED_CODE:CODE:NOROOT(0)
?Subroutine14:
        CFI Block cfiCond45 Using cfiCommon0
        CFI NoFunction
        CFI Conditional ??CrossCallReturnLabel_22
        CFI R6 load(1, XDATA, add(CFA_XSP16, literal(-18)))
        CFI VB load(1, XDATA, add(CFA_XSP16, literal(-17)))
        CFI V0 load(1, XDATA, add(CFA_XSP16, literal(-16)))
        CFI V1 load(1, XDATA, add(CFA_XSP16, literal(-15)))
        CFI V2 load(1, XDATA, add(CFA_XSP16, literal(-14)))
        CFI V3 load(1, XDATA, add(CFA_XSP16, literal(-13)))
        CFI V4 load(1, XDATA, add(CFA_XSP16, literal(-12)))
        CFI V5 load(1, XDATA, add(CFA_XSP16, literal(-11)))
        CFI V6 load(1, XDATA, add(CFA_XSP16, literal(-10)))
        CFI V7 load(1, XDATA, add(CFA_XSP16, literal(-9)))
        CFI V8 load(1, XDATA, add(CFA_XSP16, literal(-8)))
        CFI V9 load(1, XDATA, add(CFA_XSP16, literal(-7)))
        CFI R7 load(1, XDATA, add(CFA_XSP16, literal(-6)))
        CFI ?RET_LOW load(1, XDATA, add(CFA_XSP16, literal(-5)))
        CFI ?RET_HIGH load(1, XDATA, add(CFA_XSP16, literal(-4)))
        CFI ?BRET_EXT load(1, XDATA, add(CFA_XSP16, literal(-3)))
        CFI DPL0 load(1, XDATA, add(CFA_XSP16, literal(-2)))
        CFI DPH0 load(1, XDATA, add(CFA_XSP16, literal(-1)))
        CFI CFA_SP SP+0
        CFI CFA_XSP16 add(XSP16, 39)
        CFI Block cfiCond46 Using cfiCommon0
        CFI (cfiCond46) NoFunction
        CFI (cfiCond46) Conditional ??CrossCallReturnLabel_23, ??CrossCallReturnLabel_12
        CFI (cfiCond46) R6 load(1, XDATA, add(CFA_XSP16, literal(-18)))
        CFI (cfiCond46) VB load(1, XDATA, add(CFA_XSP16, literal(-17)))
        CFI (cfiCond46) V0 load(1, XDATA, add(CFA_XSP16, literal(-16)))
        CFI (cfiCond46) V1 load(1, XDATA, add(CFA_XSP16, literal(-15)))
        CFI (cfiCond46) V2 load(1, XDATA, add(CFA_XSP16, literal(-14)))
        CFI (cfiCond46) V3 load(1, XDATA, add(CFA_XSP16, literal(-13)))
        CFI (cfiCond46) V4 load(1, XDATA, add(CFA_XSP16, literal(-12)))
        CFI (cfiCond46) V5 load(1, XDATA, add(CFA_XSP16, literal(-11)))
        CFI (cfiCond46) V6 load(1, XDATA, add(CFA_XSP16, literal(-10)))
        CFI (cfiCond46) V7 load(1, XDATA, add(CFA_XSP16, literal(-9)))
        CFI (cfiCond46) V8 load(1, XDATA, add(CFA_XSP16, literal(-8)))
        CFI (cfiCond46) V9 load(1, XDATA, add(CFA_XSP16, literal(-7)))
        CFI (cfiCond46) R7 load(1, XDATA, add(CFA_XSP16, literal(-6)))
        CFI (cfiCond46) ?RET_LOW load(1, XDATA, add(CFA_XSP16, literal(-5)))
        CFI (cfiCond46) ?RET_HIGH load(1, XDATA, add(CFA_XSP16, literal(-4)))
        CFI (cfiCond46) ?BRET_EXT load(1, XDATA, add(CFA_XSP16, literal(-3)))
        CFI (cfiCond46) DPL0 load(1, XDATA, add(CFA_XSP16, literal(-2)))
        CFI (cfiCond46) DPH0 load(1, XDATA, add(CFA_XSP16, literal(-1)))
        CFI (cfiCond46) CFA_SP SP+0
        CFI (cfiCond46) CFA_XSP16 add(XSP16, 39)
        CFI Block cfiCond47 Using cfiCommon0
        CFI (cfiCond47) NoFunction
        CFI (cfiCond47) Conditional ??CrossCallReturnLabel_23, ??CrossCallReturnLabel_13
        CFI (cfiCond47) R6 load(1, XDATA, add(CFA_XSP16, literal(-18)))
        CFI (cfiCond47) VB load(1, XDATA, add(CFA_XSP16, literal(-17)))
        CFI (cfiCond47) V0 load(1, XDATA, add(CFA_XSP16, literal(-16)))
        CFI (cfiCond47) V1 load(1, XDATA, add(CFA_XSP16, literal(-15)))
        CFI (cfiCond47) V2 load(1, XDATA, add(CFA_XSP16, literal(-14)))
        CFI (cfiCond47) V3 load(1, XDATA, add(CFA_XSP16, literal(-13)))
        CFI (cfiCond47) V4 load(1, XDATA, add(CFA_XSP16, literal(-12)))
        CFI (cfiCond47) V5 load(1, XDATA, add(CFA_XSP16, literal(-11)))
        CFI (cfiCond47) V6 load(1, XDATA, add(CFA_XSP16, literal(-10)))
        CFI (cfiCond47) V7 load(1, XDATA, add(CFA_XSP16, literal(-9)))
        CFI (cfiCond47) V8 load(1, XDATA, add(CFA_XSP16, literal(-8)))
        CFI (cfiCond47) V9 load(1, XDATA, add(CFA_XSP16, literal(-7)))
        CFI (cfiCond47) R7 load(1, XDATA, add(CFA_XSP16, literal(-6)))
        CFI (cfiCond47) ?RET_LOW load(1, XDATA, add(CFA_XSP16, literal(-5)))
        CFI (cfiCond47) ?RET_HIGH load(1, XDATA, add(CFA_XSP16, literal(-4)))
        CFI (cfiCond47) ?BRET_EXT load(1, XDATA, add(CFA_XSP16, literal(-3)))
        CFI (cfiCond47) DPL0 load(1, XDATA, add(CFA_XSP16, literal(-2)))
        CFI (cfiCond47) DPH0 load(1, XDATA, add(CFA_XSP16, literal(-1)))
        CFI (cfiCond47) CFA_SP SP+0
        CFI (cfiCond47) CFA_XSP16 add(XSP16, 39)
        CFI Block cfiCond48 Using cfiCommon0
        CFI (cfiCond48) NoFunction
        CFI (cfiCond48) Conditional ??CrossCallReturnLabel_24, ??CrossCallReturnLabel_19, ??CrossCallReturnLabel_2
        CFI (cfiCond48) R6 load(1, XDATA, add(CFA_XSP16, literal(-11)))
        CFI (cfiCond48) VB load(1, XDATA, add(CFA_XSP16, literal(-10)))
        CFI (cfiCond48) V0 load(1, XDATA, add(CFA_XSP16, literal(-9)))
        CFI (cfiCond48) V1 load(1, XDATA, add(CFA_XSP16, literal(-8)))
        CFI (cfiCond48) V2 load(1, XDATA, add(CFA_XSP16, literal(-7)))
        CFI (cfiCond48) R7 load(1, XDATA, add(CFA_XSP16, literal(-6)))
        CFI (cfiCond48) ?RET_LOW load(1, XDATA, add(CFA_XSP16, literal(-5)))
        CFI (cfiCond48) ?RET_HIGH load(1, XDATA, add(CFA_XSP16, literal(-4)))
        CFI (cfiCond48) ?BRET_EXT load(1, XDATA, add(CFA_XSP16, literal(-3)))
        CFI (cfiCond48) DPL0 load(1, XDATA, add(CFA_XSP16, literal(-2)))
        CFI (cfiCond48) DPH0 load(1, XDATA, add(CFA_XSP16, literal(-1)))
        CFI (cfiCond48) CFA_SP SP+0
        CFI (cfiCond48) CFA_XSP16 add(XSP16, 21)
        CFI Block cfiCond49 Using cfiCommon0
        CFI (cfiCond49) NoFunction
        CFI (cfiCond49) Conditional ??CrossCallReturnLabel_24, ??CrossCallReturnLabel_19, ??CrossCallReturnLabel_3
        CFI (cfiCond49) R6 load(1, XDATA, add(CFA_XSP16, literal(-18)))
        CFI (cfiCond49) VB load(1, XDATA, add(CFA_XSP16, literal(-17)))
        CFI (cfiCond49) V0 load(1, XDATA, add(CFA_XSP16, literal(-16)))
        CFI (cfiCond49) V1 load(1, XDATA, add(CFA_XSP16, literal(-15)))
        CFI (cfiCond49) V2 load(1, XDATA, add(CFA_XSP16, literal(-14)))
        CFI (cfiCond49) V3 load(1, XDATA, add(CFA_XSP16, literal(-13)))
        CFI (cfiCond49) V4 load(1, XDATA, add(CFA_XSP16, literal(-12)))
        CFI (cfiCond49) V5 load(1, XDATA, add(CFA_XSP16, literal(-11)))
        CFI (cfiCond49) V6 load(1, XDATA, add(CFA_XSP16, literal(-10)))
        CFI (cfiCond49) V7 load(1, XDATA, add(CFA_XSP16, literal(-9)))
        CFI (cfiCond49) V8 load(1, XDATA, add(CFA_XSP16, literal(-8)))
        CFI (cfiCond49) V9 load(1, XDATA, add(CFA_XSP16, literal(-7)))
        CFI (cfiCond49) R7 load(1, XDATA, add(CFA_XSP16, literal(-6)))
        CFI (cfiCond49) ?RET_LOW load(1, XDATA, add(CFA_XSP16, literal(-5)))
        CFI (cfiCond49) ?RET_HIGH load(1, XDATA, add(CFA_XSP16, literal(-4)))
        CFI (cfiCond49) ?BRET_EXT load(1, XDATA, add(CFA_XSP16, literal(-3)))
        CFI (cfiCond49) DPL0 load(1, XDATA, add(CFA_XSP16, literal(-2)))
        CFI (cfiCond49) DPH0 load(1, XDATA, add(CFA_XSP16, literal(-1)))
        CFI (cfiCond49) CFA_SP SP+0
        CFI (cfiCond49) CFA_XSP16 add(XSP16, 45)
        CFI Block cfiCond50 Using cfiCommon0
        CFI (cfiCond50) NoFunction
        CFI (cfiCond50) Conditional ??CrossCallReturnLabel_24, ??CrossCallReturnLabel_18, ??CrossCallReturnLabel_0
        CFI (cfiCond50) R6 load(1, XDATA, add(CFA_XSP16, literal(-18)))
        CFI (cfiCond50) VB load(1, XDATA, add(CFA_XSP16, literal(-17)))
        CFI (cfiCond50) V0 load(1, XDATA, add(CFA_XSP16, literal(-16)))
        CFI (cfiCond50) V1 load(1, XDATA, add(CFA_XSP16, literal(-15)))
        CFI (cfiCond50) V2 load(1, XDATA, add(CFA_XSP16, literal(-14)))
        CFI (cfiCond50) V3 load(1, XDATA, add(CFA_XSP16, literal(-13)))
        CFI (cfiCond50) V4 load(1, XDATA, add(CFA_XSP16, literal(-12)))
        CFI (cfiCond50) V5 load(1, XDATA, add(CFA_XSP16, literal(-11)))
        CFI (cfiCond50) V6 load(1, XDATA, add(CFA_XSP16, literal(-10)))
        CFI (cfiCond50) V7 load(1, XDATA, add(CFA_XSP16, literal(-9)))
        CFI (cfiCond50) V8 load(1, XDATA, add(CFA_XSP16, literal(-8)))
        CFI (cfiCond50) V9 load(1, XDATA, add(CFA_XSP16, literal(-7)))
        CFI (cfiCond50) R7 load(1, XDATA, add(CFA_XSP16, literal(-6)))
        CFI (cfiCond50) ?RET_LOW load(1, XDATA, add(CFA_XSP16, literal(-5)))
        CFI (cfiCond50) ?RET_HIGH load(1, XDATA, add(CFA_XSP16, literal(-4)))
        CFI (cfiCond50) ?BRET_EXT load(1, XDATA, add(CFA_XSP16, literal(-3)))
        CFI (cfiCond50) DPL0 load(1, XDATA, add(CFA_XSP16, literal(-2)))
        CFI (cfiCond50) DPH0 load(1, XDATA, add(CFA_XSP16, literal(-1)))
        CFI (cfiCond50) CFA_SP SP+0
        CFI (cfiCond50) CFA_XSP16 add(XSP16, 39)
        CFI Block cfiCond51 Using cfiCommon0
        CFI (cfiCond51) NoFunction
        CFI (cfiCond51) Conditional ??CrossCallReturnLabel_24, ??CrossCallReturnLabel_18, ??CrossCallReturnLabel_1
        CFI (cfiCond51) R6 load(1, XDATA, add(CFA_XSP16, literal(-18)))
        CFI (cfiCond51) VB load(1, XDATA, add(CFA_XSP16, literal(-17)))
        CFI (cfiCond51) V0 load(1, XDATA, add(CFA_XSP16, literal(-16)))
        CFI (cfiCond51) V1 load(1, XDATA, add(CFA_XSP16, literal(-15)))
        CFI (cfiCond51) V2 load(1, XDATA, add(CFA_XSP16, literal(-14)))
        CFI (cfiCond51) V3 load(1, XDATA, add(CFA_XSP16, literal(-13)))
        CFI (cfiCond51) V4 load(1, XDATA, add(CFA_XSP16, literal(-12)))
        CFI (cfiCond51) V5 load(1, XDATA, add(CFA_XSP16, literal(-11)))
        CFI (cfiCond51) V6 load(1, XDATA, add(CFA_XSP16, literal(-10)))
        CFI (cfiCond51) V7 load(1, XDATA, add(CFA_XSP16, literal(-9)))
        CFI (cfiCond51) V8 load(1, XDATA, add(CFA_XSP16, literal(-8)))
        CFI (cfiCond51) V9 load(1, XDATA, add(CFA_XSP16, literal(-7)))
        CFI (cfiCond51) R7 load(1, XDATA, add(CFA_XSP16, literal(-6)))
        CFI (cfiCond51) ?RET_LOW load(1, XDATA, add(CFA_XSP16, literal(-5)))
        CFI (cfiCond51) ?RET_HIGH load(1, XDATA, add(CFA_XSP16, literal(-4)))
        CFI (cfiCond51) ?BRET_EXT load(1, XDATA, add(CFA_XSP16, literal(-3)))
        CFI (cfiCond51) DPL0 load(1, XDATA, add(CFA_XSP16, literal(-2)))
        CFI (cfiCond51) DPH0 load(1, XDATA, add(CFA_XSP16, literal(-1)))
        CFI (cfiCond51) CFA_SP SP+0
        CFI (cfiCond51) CFA_XSP16 add(XSP16, 39)
        CFI Block cfiPicker52 Using cfiCommon1
        CFI (cfiPicker52) NoFunction
        CFI (cfiPicker52) Picker
        MOV     DPTR,#keyCnt
        MOVX    A,@DPTR
        CLR     C
        RLC     A
        MOV     R0,A
        CLR     A
        RLC     A
        MOV     R1,A
        RET
        CFI EndBlock cfiCond45
        CFI EndBlock cfiCond46
        CFI EndBlock cfiCond47
        CFI EndBlock cfiCond48
        CFI EndBlock cfiCond49
        CFI EndBlock cfiCond50
        CFI EndBlock cfiCond51
        CFI EndBlock cfiPicker52

        RSEG BANKED_CODE:CODE:NOROOT(0)
?Subroutine5:
        CFI Block cfiCond53 Using cfiCommon0
        CFI NoFunction
        CFI Conditional ??CrossCallReturnLabel_10
        CFI R6 load(1, XDATA, add(CFA_XSP16, literal(-18)))
        CFI VB load(1, XDATA, add(CFA_XSP16, literal(-17)))
        CFI V0 load(1, XDATA, add(CFA_XSP16, literal(-16)))
        CFI V1 load(1, XDATA, add(CFA_XSP16, literal(-15)))
        CFI V2 load(1, XDATA, add(CFA_XSP16, literal(-14)))
        CFI V3 load(1, XDATA, add(CFA_XSP16, literal(-13)))
        CFI V4 load(1, XDATA, add(CFA_XSP16, literal(-12)))
        CFI V5 load(1, XDATA, add(CFA_XSP16, literal(-11)))
        CFI V6 load(1, XDATA, add(CFA_XSP16, literal(-10)))
        CFI V7 load(1, XDATA, add(CFA_XSP16, literal(-9)))
        CFI V8 load(1, XDATA, add(CFA_XSP16, literal(-8)))
        CFI V9 load(1, XDATA, add(CFA_XSP16, literal(-7)))
        CFI R7 load(1, XDATA, add(CFA_XSP16, literal(-6)))
        CFI ?RET_LOW load(1, XDATA, add(CFA_XSP16, literal(-5)))
        CFI ?RET_HIGH load(1, XDATA, add(CFA_XSP16, literal(-4)))
        CFI ?BRET_EXT load(1, XDATA, add(CFA_XSP16, literal(-3)))
        CFI DPL0 load(1, XDATA, add(CFA_XSP16, literal(-2)))
        CFI DPH0 load(1, XDATA, add(CFA_XSP16, literal(-1)))
        CFI CFA_SP SP+0
        CFI CFA_XSP16 add(XSP16, 41)
        CFI Block cfiCond54 Using cfiCommon0
        CFI (cfiCond54) NoFunction
        CFI (cfiCond54) Conditional ??CrossCallReturnLabel_11
        CFI (cfiCond54) R6 load(1, XDATA, add(CFA_XSP16, literal(-18)))
        CFI (cfiCond54) VB load(1, XDATA, add(CFA_XSP16, literal(-17)))
        CFI (cfiCond54) V0 load(1, XDATA, add(CFA_XSP16, literal(-16)))
        CFI (cfiCond54) V1 load(1, XDATA, add(CFA_XSP16, literal(-15)))
        CFI (cfiCond54) V2 load(1, XDATA, add(CFA_XSP16, literal(-14)))
        CFI (cfiCond54) V3 load(1, XDATA, add(CFA_XSP16, literal(-13)))
        CFI (cfiCond54) V4 load(1, XDATA, add(CFA_XSP16, literal(-12)))
        CFI (cfiCond54) V5 load(1, XDATA, add(CFA_XSP16, literal(-11)))
        CFI (cfiCond54) V6 load(1, XDATA, add(CFA_XSP16, literal(-10)))
        CFI (cfiCond54) V7 load(1, XDATA, add(CFA_XSP16, literal(-9)))
        CFI (cfiCond54) V8 load(1, XDATA, add(CFA_XSP16, literal(-8)))
        CFI (cfiCond54) V9 load(1, XDATA, add(CFA_XSP16, literal(-7)))
        CFI (cfiCond54) R7 load(1, XDATA, add(CFA_XSP16, literal(-6)))
        CFI (cfiCond54) ?RET_LOW load(1, XDATA, add(CFA_XSP16, literal(-5)))
        CFI (cfiCond54) ?RET_HIGH load(1, XDATA, add(CFA_XSP16, literal(-4)))
        CFI (cfiCond54) ?BRET_EXT load(1, XDATA, add(CFA_XSP16, literal(-3)))
        CFI (cfiCond54) DPL0 load(1, XDATA, add(CFA_XSP16, literal(-2)))
        CFI (cfiCond54) DPH0 load(1, XDATA, add(CFA_XSP16, literal(-1)))
        CFI (cfiCond54) CFA_SP SP+0
        CFI (cfiCond54) CFA_XSP16 add(XSP16, 41)
        CFI Block cfiPicker55 Using cfiCommon1
        CFI (cfiPicker55) NoFunction
        CFI (cfiPicker55) Picker
        MOVX    A,@DPTR
        MOV     R4,A
        MOV     R2,?V0 + 8
        MOV     R3,?V0 + 9
        MOV     R1,#0x4
        LCALL   ??ZDO_AnyClusterMatches?relay
        MOV     A,#0x2
        RET
        CFI EndBlock cfiCond53
        CFI EndBlock cfiCond54
        CFI EndBlock cfiPicker55

        RSEG BANKED_CODE:CODE:NOROOT(0)
?Subroutine4:
        CFI Block cfiCond56 Using cfiCommon0
        CFI NoFunction
        CFI Conditional ??CrossCallReturnLabel_8
        CFI R6 load(1, XDATA, add(CFA_XSP16, literal(-18)))
        CFI VB load(1, XDATA, add(CFA_XSP16, literal(-17)))
        CFI V0 load(1, XDATA, add(CFA_XSP16, literal(-16)))
        CFI V1 load(1, XDATA, add(CFA_XSP16, literal(-15)))
        CFI V2 load(1, XDATA, add(CFA_XSP16, literal(-14)))
        CFI V3 load(1, XDATA, add(CFA_XSP16, literal(-13)))
        CFI V4 load(1, XDATA, add(CFA_XSP16, literal(-12)))
        CFI V5 load(1, XDATA, add(CFA_XSP16, literal(-11)))
        CFI V6 load(1, XDATA, add(CFA_XSP16, literal(-10)))
        CFI V7 load(1, XDATA, add(CFA_XSP16, literal(-9)))
        CFI V8 load(1, XDATA, add(CFA_XSP16, literal(-8)))
        CFI V9 load(1, XDATA, add(CFA_XSP16, literal(-7)))
        CFI R7 load(1, XDATA, add(CFA_XSP16, literal(-6)))
        CFI ?RET_LOW load(1, XDATA, add(CFA_XSP16, literal(-5)))
        CFI ?RET_HIGH load(1, XDATA, add(CFA_XSP16, literal(-4)))
        CFI ?BRET_EXT load(1, XDATA, add(CFA_XSP16, literal(-3)))
        CFI DPL0 load(1, XDATA, add(CFA_XSP16, literal(-2)))
        CFI DPH0 load(1, XDATA, add(CFA_XSP16, literal(-1)))
        CFI CFA_SP SP+0
        CFI CFA_XSP16 add(XSP16, 41)
        CFI Block cfiCond57 Using cfiCommon0
        CFI (cfiCond57) NoFunction
        CFI (cfiCond57) Conditional ??CrossCallReturnLabel_9
        CFI (cfiCond57) R6 load(1, XDATA, add(CFA_XSP16, literal(-18)))
        CFI (cfiCond57) VB load(1, XDATA, add(CFA_XSP16, literal(-17)))
        CFI (cfiCond57) V0 load(1, XDATA, add(CFA_XSP16, literal(-16)))
        CFI (cfiCond57) V1 load(1, XDATA, add(CFA_XSP16, literal(-15)))
        CFI (cfiCond57) V2 load(1, XDATA, add(CFA_XSP16, literal(-14)))
        CFI (cfiCond57) V3 load(1, XDATA, add(CFA_XSP16, literal(-13)))
        CFI (cfiCond57) V4 load(1, XDATA, add(CFA_XSP16, literal(-12)))
        CFI (cfiCond57) V5 load(1, XDATA, add(CFA_XSP16, literal(-11)))
        CFI (cfiCond57) V6 load(1, XDATA, add(CFA_XSP16, literal(-10)))
        CFI (cfiCond57) V7 load(1, XDATA, add(CFA_XSP16, literal(-9)))
        CFI (cfiCond57) V8 load(1, XDATA, add(CFA_XSP16, literal(-8)))
        CFI (cfiCond57) V9 load(1, XDATA, add(CFA_XSP16, literal(-7)))
        CFI (cfiCond57) R7 load(1, XDATA, add(CFA_XSP16, literal(-6)))
        CFI (cfiCond57) ?RET_LOW load(1, XDATA, add(CFA_XSP16, literal(-5)))
        CFI (cfiCond57) ?RET_HIGH load(1, XDATA, add(CFA_XSP16, literal(-4)))
        CFI (cfiCond57) ?BRET_EXT load(1, XDATA, add(CFA_XSP16, literal(-3)))
        CFI (cfiCond57) DPL0 load(1, XDATA, add(CFA_XSP16, literal(-2)))
        CFI (cfiCond57) DPH0 load(1, XDATA, add(CFA_XSP16, literal(-1)))
        CFI (cfiCond57) CFA_SP SP+0
        CFI (cfiCond57) CFA_XSP16 add(XSP16, 41)
        CFI Block cfiPicker58 Using cfiCommon1
        CFI (cfiPicker58) NoFunction
        CFI (cfiPicker58) Picker
        MOV     DPL,R0
        MOV     DPH,R1
        LCALL   ?Subroutine13 & 0xFFFF
??CrossCallReturnLabel_20:
        INC     DPTR
        INC     DPTR
        INC     DPTR
        INC     DPTR
        INC     DPTR
        RET
        CFI EndBlock cfiCond56
        CFI EndBlock cfiCond57
        CFI EndBlock cfiPicker58

        RSEG BANKED_CODE:CODE:NOROOT(0)
?Subroutine2:
        CFI Block cfiCond59 Using cfiCommon0
        CFI NoFunction
        CFI Conditional ??CrossCallReturnLabel_4
        CFI R6 load(1, XDATA, add(CFA_XSP16, literal(-18)))
        CFI VB load(1, XDATA, add(CFA_XSP16, literal(-17)))
        CFI V0 load(1, XDATA, add(CFA_XSP16, literal(-16)))
        CFI V1 load(1, XDATA, add(CFA_XSP16, literal(-15)))
        CFI V2 load(1, XDATA, add(CFA_XSP16, literal(-14)))
        CFI V3 load(1, XDATA, add(CFA_XSP16, literal(-13)))
        CFI V4 load(1, XDATA, add(CFA_XSP16, literal(-12)))
        CFI V5 load(1, XDATA, add(CFA_XSP16, literal(-11)))
        CFI V6 load(1, XDATA, add(CFA_XSP16, literal(-10)))
        CFI V7 load(1, XDATA, add(CFA_XSP16, literal(-9)))
        CFI V8 load(1, XDATA, add(CFA_XSP16, literal(-8)))
        CFI V9 load(1, XDATA, add(CFA_XSP16, literal(-7)))
        CFI R7 load(1, XDATA, add(CFA_XSP16, literal(-6)))
        CFI ?RET_LOW load(1, XDATA, add(CFA_XSP16, literal(-5)))
        CFI ?RET_HIGH load(1, XDATA, add(CFA_XSP16, literal(-4)))
        CFI ?BRET_EXT load(1, XDATA, add(CFA_XSP16, literal(-3)))
        CFI DPL0 load(1, XDATA, add(CFA_XSP16, literal(-2)))
        CFI DPH0 load(1, XDATA, add(CFA_XSP16, literal(-1)))
        CFI CFA_SP SP+0
        CFI CFA_XSP16 add(XSP16, 39)
        CFI Block cfiCond60 Using cfiCommon0
        CFI (cfiCond60) NoFunction
        CFI (cfiCond60) Conditional ??CrossCallReturnLabel_5
        CFI (cfiCond60) R6 load(1, XDATA, add(CFA_XSP16, literal(-18)))
        CFI (cfiCond60) VB load(1, XDATA, add(CFA_XSP16, literal(-17)))
        CFI (cfiCond60) V0 load(1, XDATA, add(CFA_XSP16, literal(-16)))
        CFI (cfiCond60) V1 load(1, XDATA, add(CFA_XSP16, literal(-15)))
        CFI (cfiCond60) V2 load(1, XDATA, add(CFA_XSP16, literal(-14)))
        CFI (cfiCond60) V3 load(1, XDATA, add(CFA_XSP16, literal(-13)))
        CFI (cfiCond60) V4 load(1, XDATA, add(CFA_XSP16, literal(-12)))
        CFI (cfiCond60) V5 load(1, XDATA, add(CFA_XSP16, literal(-11)))
        CFI (cfiCond60) V6 load(1, XDATA, add(CFA_XSP16, literal(-10)))
        CFI (cfiCond60) V7 load(1, XDATA, add(CFA_XSP16, literal(-9)))
        CFI (cfiCond60) V8 load(1, XDATA, add(CFA_XSP16, literal(-8)))
        CFI (cfiCond60) V9 load(1, XDATA, add(CFA_XSP16, literal(-7)))
        CFI (cfiCond60) R7 load(1, XDATA, add(CFA_XSP16, literal(-6)))
        CFI (cfiCond60) ?RET_LOW load(1, XDATA, add(CFA_XSP16, literal(-5)))
        CFI (cfiCond60) ?RET_HIGH load(1, XDATA, add(CFA_XSP16, literal(-4)))
        CFI (cfiCond60) ?BRET_EXT load(1, XDATA, add(CFA_XSP16, literal(-3)))
        CFI (cfiCond60) DPL0 load(1, XDATA, add(CFA_XSP16, literal(-2)))
        CFI (cfiCond60) DPH0 load(1, XDATA, add(CFA_XSP16, literal(-1)))
        CFI (cfiCond60) CFA_SP SP+0
        CFI (cfiCond60) CFA_XSP16 add(XSP16, 39)
        CFI Block cfiPicker61 Using cfiCommon1
        CFI (cfiPicker61) NoFunction
        CFI (cfiPicker61) Picker
        ADD     A,#0x3
        MOV     R0,A
        INC     DPTR
        MOVX    A,@DPTR
        ADDC    A,#0x0
        MOV     R1,A
        ; Setup parameters for call to function ZDO_AnyClusterMatches
        ; Setup parameters for call to function ZDO_AnyClusterMatches
        MOV     DPL,R0
        MOV     DPH,R1
        MOVX    A,@DPTR
        MOV     R2,A
        INC     DPTR
        MOVX    A,@DPTR
        MOV     DPH,A
        MOV     DPL,R2
        INC     DPTR
        INC     DPTR
        INC     DPTR
        INC     DPTR
        INC     DPTR
        INC     DPTR
        INC     DPTR
        RET
        CFI EndBlock cfiCond59
        CFI EndBlock cfiCond60
        CFI EndBlock cfiPicker61

        RSEG BANKED_CODE:CODE:NOROOT(0)
?Subroutine1:
        CFI Block cfiCond62 Using cfiCommon0
        CFI NoFunction
        CFI Conditional ??CrossCallReturnLabel_2
        CFI R6 load(1, XDATA, add(CFA_XSP16, literal(-11)))
        CFI VB load(1, XDATA, add(CFA_XSP16, literal(-10)))
        CFI V0 load(1, XDATA, add(CFA_XSP16, literal(-9)))
        CFI V1 load(1, XDATA, add(CFA_XSP16, literal(-8)))
        CFI V2 load(1, XDATA, add(CFA_XSP16, literal(-7)))
        CFI R7 load(1, XDATA, add(CFA_XSP16, literal(-6)))
        CFI ?RET_LOW load(1, XDATA, add(CFA_XSP16, literal(-5)))
        CFI ?RET_HIGH load(1, XDATA, add(CFA_XSP16, literal(-4)))
        CFI ?BRET_EXT load(1, XDATA, add(CFA_XSP16, literal(-3)))
        CFI DPL0 load(1, XDATA, add(CFA_XSP16, literal(-2)))
        CFI DPH0 load(1, XDATA, add(CFA_XSP16, literal(-1)))
        CFI CFA_SP SP+0
        CFI CFA_XSP16 add(XSP16, 21)
        CFI Block cfiCond63 Using cfiCommon0
        CFI (cfiCond63) NoFunction
        CFI (cfiCond63) Conditional ??CrossCallReturnLabel_3
        CFI (cfiCond63) R6 load(1, XDATA, add(CFA_XSP16, literal(-18)))
        CFI (cfiCond63) VB load(1, XDATA, add(CFA_XSP16, literal(-17)))
        CFI (cfiCond63) V0 load(1, XDATA, add(CFA_XSP16, literal(-16)))
        CFI (cfiCond63) V1 load(1, XDATA, add(CFA_XSP16, literal(-15)))
        CFI (cfiCond63) V2 load(1, XDATA, add(CFA_XSP16, literal(-14)))
        CFI (cfiCond63) V3 load(1, XDATA, add(CFA_XSP16, literal(-13)))
        CFI (cfiCond63) V4 load(1, XDATA, add(CFA_XSP16, literal(-12)))
        CFI (cfiCond63) V5 load(1, XDATA, add(CFA_XSP16, literal(-11)))
        CFI (cfiCond63) V6 load(1, XDATA, add(CFA_XSP16, literal(-10)))
        CFI (cfiCond63) V7 load(1, XDATA, add(CFA_XSP16, literal(-9)))
        CFI (cfiCond63) V8 load(1, XDATA, add(CFA_XSP16, literal(-8)))
        CFI (cfiCond63) V9 load(1, XDATA, add(CFA_XSP16, literal(-7)))
        CFI (cfiCond63) R7 load(1, XDATA, add(CFA_XSP16, literal(-6)))
        CFI (cfiCond63) ?RET_LOW load(1, XDATA, add(CFA_XSP16, literal(-5)))
        CFI (cfiCond63) ?RET_HIGH load(1, XDATA, add(CFA_XSP16, literal(-4)))
        CFI (cfiCond63) ?BRET_EXT load(1, XDATA, add(CFA_XSP16, literal(-3)))
        CFI (cfiCond63) DPL0 load(1, XDATA, add(CFA_XSP16, literal(-2)))
        CFI (cfiCond63) DPH0 load(1, XDATA, add(CFA_XSP16, literal(-1)))
        CFI (cfiCond63) CFA_SP SP+0
        CFI (cfiCond63) CFA_XSP16 add(XSP16, 45)
        CFI Block cfiPicker64 Using cfiCommon1
        CFI (cfiPicker64) NoFunction
        CFI (cfiPicker64) Picker
        LCALL   ?Subroutine12 & 0xFFFF
??CrossCallReturnLabel_19:
        LCALL   ??Subroutine20_0 & 0xFFFF
??CrossCallReturnLabel_39:
        INC     DPTR
        INC     DPTR
        INC     DPTR
        LCALL   ?Subroutine15 & 0xFFFF
??CrossCallReturnLabel_40:
        RET
        CFI EndBlock cfiCond62
        CFI EndBlock cfiCond63
        CFI EndBlock cfiPicker64

        RSEG BANKED_CODE:CODE:NOROOT(0)
?Subroutine15:
        CFI Block cfiCond65 Using cfiCommon0
        CFI NoFunction
        CFI Conditional ??CrossCallReturnLabel_41, ??CrossCallReturnLabel_21, ??CrossCallReturnLabel_14
        CFI R6 load(1, XDATA, add(CFA_XSP16, literal(-18)))
        CFI VB load(1, XDATA, add(CFA_XSP16, literal(-17)))
        CFI V0 load(1, XDATA, add(CFA_XSP16, literal(-16)))
        CFI V1 load(1, XDATA, add(CFA_XSP16, literal(-15)))
        CFI V2 load(1, XDATA, add(CFA_XSP16, literal(-14)))
        CFI V3 load(1, XDATA, add(CFA_XSP16, literal(-13)))
        CFI V4 load(1, XDATA, add(CFA_XSP16, literal(-12)))
        CFI V5 load(1, XDATA, add(CFA_XSP16, literal(-11)))
        CFI V6 load(1, XDATA, add(CFA_XSP16, literal(-10)))
        CFI V7 load(1, XDATA, add(CFA_XSP16, literal(-9)))
        CFI V8 load(1, XDATA, add(CFA_XSP16, literal(-8)))
        CFI V9 load(1, XDATA, add(CFA_XSP16, literal(-7)))
        CFI R7 load(1, XDATA, add(CFA_XSP16, literal(-6)))
        CFI ?RET_LOW load(1, XDATA, add(CFA_XSP16, literal(-5)))
        CFI ?RET_HIGH load(1, XDATA, add(CFA_XSP16, literal(-4)))
        CFI ?BRET_EXT load(1, XDATA, add(CFA_XSP16, literal(-3)))
        CFI DPL0 load(1, XDATA, add(CFA_XSP16, literal(-2)))
        CFI DPH0 load(1, XDATA, add(CFA_XSP16, literal(-1)))
        CFI CFA_SP SP+0
        CFI CFA_XSP16 add(XSP16, 39)
        CFI Block cfiCond66 Using cfiCommon0
        CFI (cfiCond66) NoFunction
        CFI (cfiCond66) Conditional ??CrossCallReturnLabel_41, ??CrossCallReturnLabel_21, ??CrossCallReturnLabel_15
        CFI (cfiCond66) R6 load(1, XDATA, add(CFA_XSP16, literal(-18)))
        CFI (cfiCond66) VB load(1, XDATA, add(CFA_XSP16, literal(-17)))
        CFI (cfiCond66) V0 load(1, XDATA, add(CFA_XSP16, literal(-16)))
        CFI (cfiCond66) V1 load(1, XDATA, add(CFA_XSP16, literal(-15)))
        CFI (cfiCond66) V2 load(1, XDATA, add(CFA_XSP16, literal(-14)))
        CFI (cfiCond66) V3 load(1, XDATA, add(CFA_XSP16, literal(-13)))
        CFI (cfiCond66) V4 load(1, XDATA, add(CFA_XSP16, literal(-12)))
        CFI (cfiCond66) V5 load(1, XDATA, add(CFA_XSP16, literal(-11)))
        CFI (cfiCond66) V6 load(1, XDATA, add(CFA_XSP16, literal(-10)))
        CFI (cfiCond66) V7 load(1, XDATA, add(CFA_XSP16, literal(-9)))
        CFI (cfiCond66) V8 load(1, XDATA, add(CFA_XSP16, literal(-8)))
        CFI (cfiCond66) V9 load(1, XDATA, add(CFA_XSP16, literal(-7)))
        CFI (cfiCond66) R7 load(1, XDATA, add(CFA_XSP16, literal(-6)))
        CFI (cfiCond66) ?RET_LOW load(1, XDATA, add(CFA_XSP16, literal(-5)))
        CFI (cfiCond66) ?RET_HIGH load(1, XDATA, add(CFA_XSP16, literal(-4)))
        CFI (cfiCond66) ?BRET_EXT load(1, XDATA, add(CFA_XSP16, literal(-3)))
        CFI (cfiCond66) DPL0 load(1, XDATA, add(CFA_XSP16, literal(-2)))
        CFI (cfiCond66) DPH0 load(1, XDATA, add(CFA_XSP16, literal(-1)))
        CFI (cfiCond66) CFA_SP SP+0
        CFI (cfiCond66) CFA_XSP16 add(XSP16, 39)
        CFI Block cfiCond67 Using cfiCommon0
        CFI (cfiCond67) NoFunction
        CFI (cfiCond67) Conditional ??CrossCallReturnLabel_41, ??CrossCallReturnLabel_20, ??CrossCallReturnLabel_8
        CFI (cfiCond67) R6 load(1, XDATA, add(CFA_XSP16, literal(-18)))
        CFI (cfiCond67) VB load(1, XDATA, add(CFA_XSP16, literal(-17)))
        CFI (cfiCond67) V0 load(1, XDATA, add(CFA_XSP16, literal(-16)))
        CFI (cfiCond67) V1 load(1, XDATA, add(CFA_XSP16, literal(-15)))
        CFI (cfiCond67) V2 load(1, XDATA, add(CFA_XSP16, literal(-14)))
        CFI (cfiCond67) V3 load(1, XDATA, add(CFA_XSP16, literal(-13)))
        CFI (cfiCond67) V4 load(1, XDATA, add(CFA_XSP16, literal(-12)))
        CFI (cfiCond67) V5 load(1, XDATA, add(CFA_XSP16, literal(-11)))
        CFI (cfiCond67) V6 load(1, XDATA, add(CFA_XSP16, literal(-10)))
        CFI (cfiCond67) V7 load(1, XDATA, add(CFA_XSP16, literal(-9)))
        CFI (cfiCond67) V8 load(1, XDATA, add(CFA_XSP16, literal(-8)))
        CFI (cfiCond67) V9 load(1, XDATA, add(CFA_XSP16, literal(-7)))
        CFI (cfiCond67) R7 load(1, XDATA, add(CFA_XSP16, literal(-6)))
        CFI (cfiCond67) ?RET_LOW load(1, XDATA, add(CFA_XSP16, literal(-5)))
        CFI (cfiCond67) ?RET_HIGH load(1, XDATA, add(CFA_XSP16, literal(-4)))
        CFI (cfiCond67) ?BRET_EXT load(1, XDATA, add(CFA_XSP16, literal(-3)))
        CFI (cfiCond67) DPL0 load(1, XDATA, add(CFA_XSP16, literal(-2)))
        CFI (cfiCond67) DPH0 load(1, XDATA, add(CFA_XSP16, literal(-1)))
        CFI (cfiCond67) CFA_SP SP+0
        CFI (cfiCond67) CFA_XSP16 add(XSP16, 41)
        CFI Block cfiCond68 Using cfiCommon0
        CFI (cfiCond68) NoFunction
        CFI (cfiCond68) Conditional ??CrossCallReturnLabel_41, ??CrossCallReturnLabel_20, ??CrossCallReturnLabel_9
        CFI (cfiCond68) R6 load(1, XDATA, add(CFA_XSP16, literal(-18)))
        CFI (cfiCond68) VB load(1, XDATA, add(CFA_XSP16, literal(-17)))
        CFI (cfiCond68) V0 load(1, XDATA, add(CFA_XSP16, literal(-16)))
        CFI (cfiCond68) V1 load(1, XDATA, add(CFA_XSP16, literal(-15)))
        CFI (cfiCond68) V2 load(1, XDATA, add(CFA_XSP16, literal(-14)))
        CFI (cfiCond68) V3 load(1, XDATA, add(CFA_XSP16, literal(-13)))
        CFI (cfiCond68) V4 load(1, XDATA, add(CFA_XSP16, literal(-12)))
        CFI (cfiCond68) V5 load(1, XDATA, add(CFA_XSP16, literal(-11)))
        CFI (cfiCond68) V6 load(1, XDATA, add(CFA_XSP16, literal(-10)))
        CFI (cfiCond68) V7 load(1, XDATA, add(CFA_XSP16, literal(-9)))
        CFI (cfiCond68) V8 load(1, XDATA, add(CFA_XSP16, literal(-8)))
        CFI (cfiCond68) V9 load(1, XDATA, add(CFA_XSP16, literal(-7)))
        CFI (cfiCond68) R7 load(1, XDATA, add(CFA_XSP16, literal(-6)))
        CFI (cfiCond68) ?RET_LOW load(1, XDATA, add(CFA_XSP16, literal(-5)))
        CFI (cfiCond68) ?RET_HIGH load(1, XDATA, add(CFA_XSP16, literal(-4)))
        CFI (cfiCond68) ?BRET_EXT load(1, XDATA, add(CFA_XSP16, literal(-3)))
        CFI (cfiCond68) DPL0 load(1, XDATA, add(CFA_XSP16, literal(-2)))
        CFI (cfiCond68) DPH0 load(1, XDATA, add(CFA_XSP16, literal(-1)))
        CFI (cfiCond68) CFA_SP SP+0
        CFI (cfiCond68) CFA_XSP16 add(XSP16, 41)
        CFI Block cfiCond69 Using cfiCommon0
        CFI (cfiCond69) NoFunction
        CFI (cfiCond69) Conditional ??CrossCallReturnLabel_40, ??CrossCallReturnLabel_2
        CFI (cfiCond69) R6 load(1, XDATA, add(CFA_XSP16, literal(-11)))
        CFI (cfiCond69) VB load(1, XDATA, add(CFA_XSP16, literal(-10)))
        CFI (cfiCond69) V0 load(1, XDATA, add(CFA_XSP16, literal(-9)))
        CFI (cfiCond69) V1 load(1, XDATA, add(CFA_XSP16, literal(-8)))
        CFI (cfiCond69) V2 load(1, XDATA, add(CFA_XSP16, literal(-7)))
        CFI (cfiCond69) R7 load(1, XDATA, add(CFA_XSP16, literal(-6)))
        CFI (cfiCond69) ?RET_LOW load(1, XDATA, add(CFA_XSP16, literal(-5)))
        CFI (cfiCond69) ?RET_HIGH load(1, XDATA, add(CFA_XSP16, literal(-4)))
        CFI (cfiCond69) ?BRET_EXT load(1, XDATA, add(CFA_XSP16, literal(-3)))
        CFI (cfiCond69) DPL0 load(1, XDATA, add(CFA_XSP16, literal(-2)))
        CFI (cfiCond69) DPH0 load(1, XDATA, add(CFA_XSP16, literal(-1)))
        CFI (cfiCond69) CFA_SP SP+0
        CFI (cfiCond69) CFA_XSP16 add(XSP16, 21)
        CFI Block cfiCond70 Using cfiCommon0
        CFI (cfiCond70) NoFunction
        CFI (cfiCond70) Conditional ??CrossCallReturnLabel_40, ??CrossCallReturnLabel_3
        CFI (cfiCond70) R6 load(1, XDATA, add(CFA_XSP16, literal(-18)))
        CFI (cfiCond70) VB load(1, XDATA, add(CFA_XSP16, literal(-17)))
        CFI (cfiCond70) V0 load(1, XDATA, add(CFA_XSP16, literal(-16)))
        CFI (cfiCond70) V1 load(1, XDATA, add(CFA_XSP16, literal(-15)))
        CFI (cfiCond70) V2 load(1, XDATA, add(CFA_XSP16, literal(-14)))
        CFI (cfiCond70) V3 load(1, XDATA, add(CFA_XSP16, literal(-13)))
        CFI (cfiCond70) V4 load(1, XDATA, add(CFA_XSP16, literal(-12)))
        CFI (cfiCond70) V5 load(1, XDATA, add(CFA_XSP16, literal(-11)))
        CFI (cfiCond70) V6 load(1, XDATA, add(CFA_XSP16, literal(-10)))
        CFI (cfiCond70) V7 load(1, XDATA, add(CFA_XSP16, literal(-9)))
        CFI (cfiCond70) V8 load(1, XDATA, add(CFA_XSP16, literal(-8)))
        CFI (cfiCond70) V9 load(1, XDATA, add(CFA_XSP16, literal(-7)))
        CFI (cfiCond70) R7 load(1, XDATA, add(CFA_XSP16, literal(-6)))
        CFI (cfiCond70) ?RET_LOW load(1, XDATA, add(CFA_XSP16, literal(-5)))
        CFI (cfiCond70) ?RET_HIGH load(1, XDATA, add(CFA_XSP16, literal(-4)))
        CFI (cfiCond70) ?BRET_EXT load(1, XDATA, add(CFA_XSP16, literal(-3)))
        CFI (cfiCond70) DPL0 load(1, XDATA, add(CFA_XSP16, literal(-2)))
        CFI (cfiCond70) DPH0 load(1, XDATA, add(CFA_XSP16, literal(-1)))
        CFI (cfiCond70) CFA_SP SP+0
        CFI (cfiCond70) CFA_XSP16 add(XSP16, 45)
        CFI Block cfiPicker71 Using cfiCommon1
        CFI (cfiPicker71) NoFunction
        CFI (cfiPicker71) Picker
        MOVX    A,@DPTR
        CFI EndBlock cfiCond65
        CFI EndBlock cfiCond66
        CFI EndBlock cfiCond67
        CFI EndBlock cfiCond68
        CFI EndBlock cfiCond69
        CFI EndBlock cfiCond70
        CFI EndBlock cfiPicker71
        REQUIRE ??Subroutine20_0
        ; // Fall through to label ??Subroutine20_0

        RSEG BANKED_CODE:CODE:NOROOT(0)
??Subroutine20_0:
        CFI Block cfiCond72 Using cfiCommon0
        CFI NoFunction
        CFI Conditional ??CrossCallReturnLabel_38
        CFI R6 load(1, XDATA, add(CFA_XSP16, literal(-18)))
        CFI VB load(1, XDATA, add(CFA_XSP16, literal(-17)))
        CFI V0 load(1, XDATA, add(CFA_XSP16, literal(-16)))
        CFI V1 load(1, XDATA, add(CFA_XSP16, literal(-15)))
        CFI V2 load(1, XDATA, add(CFA_XSP16, literal(-14)))
        CFI V3 load(1, XDATA, add(CFA_XSP16, literal(-13)))
        CFI V4 load(1, XDATA, add(CFA_XSP16, literal(-12)))
        CFI V5 load(1, XDATA, add(CFA_XSP16, literal(-11)))
        CFI V6 load(1, XDATA, add(CFA_XSP16, literal(-10)))
        CFI V7 load(1, XDATA, add(CFA_XSP16, literal(-9)))
        CFI V8 load(1, XDATA, add(CFA_XSP16, literal(-8)))
        CFI V9 load(1, XDATA, add(CFA_XSP16, literal(-7)))
        CFI R7 load(1, XDATA, add(CFA_XSP16, literal(-6)))
        CFI ?RET_LOW load(1, XDATA, add(CFA_XSP16, literal(-5)))
        CFI ?RET_HIGH load(1, XDATA, add(CFA_XSP16, literal(-4)))
        CFI ?BRET_EXT load(1, XDATA, add(CFA_XSP16, literal(-3)))
        CFI DPL0 load(1, XDATA, add(CFA_XSP16, literal(-2)))
        CFI DPH0 load(1, XDATA, add(CFA_XSP16, literal(-1)))
        CFI CFA_SP SP+-1
        CFI CFA_XSP16 add(XSP16, 39)
        CFI Block cfiCond73 Using cfiCommon0
        CFI (cfiCond73) NoFunction
        CFI (cfiCond73) Conditional ??CrossCallReturnLabel_39, ??CrossCallReturnLabel_2
        CFI (cfiCond73) R6 load(1, XDATA, add(CFA_XSP16, literal(-11)))
        CFI (cfiCond73) VB load(1, XDATA, add(CFA_XSP16, literal(-10)))
        CFI (cfiCond73) V0 load(1, XDATA, add(CFA_XSP16, literal(-9)))
        CFI (cfiCond73) V1 load(1, XDATA, add(CFA_XSP16, literal(-8)))
        CFI (cfiCond73) V2 load(1, XDATA, add(CFA_XSP16, literal(-7)))
        CFI (cfiCond73) R7 load(1, XDATA, add(CFA_XSP16, literal(-6)))
        CFI (cfiCond73) ?RET_LOW load(1, XDATA, add(CFA_XSP16, literal(-5)))
        CFI (cfiCond73) ?RET_HIGH load(1, XDATA, add(CFA_XSP16, literal(-4)))
        CFI (cfiCond73) ?BRET_EXT load(1, XDATA, add(CFA_XSP16, literal(-3)))
        CFI (cfiCond73) DPL0 load(1, XDATA, add(CFA_XSP16, literal(-2)))
        CFI (cfiCond73) DPH0 load(1, XDATA, add(CFA_XSP16, literal(-1)))
        CFI (cfiCond73) CFA_SP SP+0
        CFI (cfiCond73) CFA_XSP16 add(XSP16, 21)
        CFI Block cfiCond74 Using cfiCommon0
        CFI (cfiCond74) NoFunction
        CFI (cfiCond74) Conditional ??CrossCallReturnLabel_39, ??CrossCallReturnLabel_3
        CFI (cfiCond74) R6 load(1, XDATA, add(CFA_XSP16, literal(-18)))
        CFI (cfiCond74) VB load(1, XDATA, add(CFA_XSP16, literal(-17)))
        CFI (cfiCond74) V0 load(1, XDATA, add(CFA_XSP16, literal(-16)))
        CFI (cfiCond74) V1 load(1, XDATA, add(CFA_XSP16, literal(-15)))
        CFI (cfiCond74) V2 load(1, XDATA, add(CFA_XSP16, literal(-14)))
        CFI (cfiCond74) V3 load(1, XDATA, add(CFA_XSP16, literal(-13)))
        CFI (cfiCond74) V4 load(1, XDATA, add(CFA_XSP16, literal(-12)))
        CFI (cfiCond74) V5 load(1, XDATA, add(CFA_XSP16, literal(-11)))
        CFI (cfiCond74) V6 load(1, XDATA, add(CFA_XSP16, literal(-10)))
        CFI (cfiCond74) V7 load(1, XDATA, add(CFA_XSP16, literal(-9)))
        CFI (cfiCond74) V8 load(1, XDATA, add(CFA_XSP16, literal(-8)))
        CFI (cfiCond74) V9 load(1, XDATA, add(CFA_XSP16, literal(-7)))
        CFI (cfiCond74) R7 load(1, XDATA, add(CFA_XSP16, literal(-6)))
        CFI (cfiCond74) ?RET_LOW load(1, XDATA, add(CFA_XSP16, literal(-5)))
        CFI (cfiCond74) ?RET_HIGH load(1, XDATA, add(CFA_XSP16, literal(-4)))
        CFI (cfiCond74) ?BRET_EXT load(1, XDATA, add(CFA_XSP16, literal(-3)))
        CFI (cfiCond74) DPL0 load(1, XDATA, add(CFA_XSP16, literal(-2)))
        CFI (cfiCond74) DPH0 load(1, XDATA, add(CFA_XSP16, literal(-1)))
        CFI (cfiCond74) CFA_SP SP+0
        CFI (cfiCond74) CFA_XSP16 add(XSP16, 45)
        CFI Block cfiCond75 Using cfiCommon0
        CFI (cfiCond75) NoFunction
        CFI (cfiCond75) Conditional ??CrossCallReturnLabel_41, ??CrossCallReturnLabel_21, ??CrossCallReturnLabel_14
        CFI (cfiCond75) R6 load(1, XDATA, add(CFA_XSP16, literal(-18)))
        CFI (cfiCond75) VB load(1, XDATA, add(CFA_XSP16, literal(-17)))
        CFI (cfiCond75) V0 load(1, XDATA, add(CFA_XSP16, literal(-16)))
        CFI (cfiCond75) V1 load(1, XDATA, add(CFA_XSP16, literal(-15)))
        CFI (cfiCond75) V2 load(1, XDATA, add(CFA_XSP16, literal(-14)))
        CFI (cfiCond75) V3 load(1, XDATA, add(CFA_XSP16, literal(-13)))
        CFI (cfiCond75) V4 load(1, XDATA, add(CFA_XSP16, literal(-12)))
        CFI (cfiCond75) V5 load(1, XDATA, add(CFA_XSP16, literal(-11)))
        CFI (cfiCond75) V6 load(1, XDATA, add(CFA_XSP16, literal(-10)))
        CFI (cfiCond75) V7 load(1, XDATA, add(CFA_XSP16, literal(-9)))
        CFI (cfiCond75) V8 load(1, XDATA, add(CFA_XSP16, literal(-8)))
        CFI (cfiCond75) V9 load(1, XDATA, add(CFA_XSP16, literal(-7)))
        CFI (cfiCond75) R7 load(1, XDATA, add(CFA_XSP16, literal(-6)))
        CFI (cfiCond75) ?RET_LOW load(1, XDATA, add(CFA_XSP16, literal(-5)))
        CFI (cfiCond75) ?RET_HIGH load(1, XDATA, add(CFA_XSP16, literal(-4)))
        CFI (cfiCond75) ?BRET_EXT load(1, XDATA, add(CFA_XSP16, literal(-3)))
        CFI (cfiCond75) DPL0 load(1, XDATA, add(CFA_XSP16, literal(-2)))
        CFI (cfiCond75) DPH0 load(1, XDATA, add(CFA_XSP16, literal(-1)))
        CFI (cfiCond75) CFA_SP SP+0
        CFI (cfiCond75) CFA_XSP16 add(XSP16, 39)
        CFI Block cfiCond76 Using cfiCommon0
        CFI (cfiCond76) NoFunction
        CFI (cfiCond76) Conditional ??CrossCallReturnLabel_41, ??CrossCallReturnLabel_21, ??CrossCallReturnLabel_15
        CFI (cfiCond76) R6 load(1, XDATA, add(CFA_XSP16, literal(-18)))
        CFI (cfiCond76) VB load(1, XDATA, add(CFA_XSP16, literal(-17)))
        CFI (cfiCond76) V0 load(1, XDATA, add(CFA_XSP16, literal(-16)))
        CFI (cfiCond76) V1 load(1, XDATA, add(CFA_XSP16, literal(-15)))
        CFI (cfiCond76) V2 load(1, XDATA, add(CFA_XSP16, literal(-14)))
        CFI (cfiCond76) V3 load(1, XDATA, add(CFA_XSP16, literal(-13)))
        CFI (cfiCond76) V4 load(1, XDATA, add(CFA_XSP16, literal(-12)))
        CFI (cfiCond76) V5 load(1, XDATA, add(CFA_XSP16, literal(-11)))
        CFI (cfiCond76) V6 load(1, XDATA, add(CFA_XSP16, literal(-10)))
        CFI (cfiCond76) V7 load(1, XDATA, add(CFA_XSP16, literal(-9)))
        CFI (cfiCond76) V8 load(1, XDATA, add(CFA_XSP16, literal(-8)))
        CFI (cfiCond76) V9 load(1, XDATA, add(CFA_XSP16, literal(-7)))
        CFI (cfiCond76) R7 load(1, XDATA, add(CFA_XSP16, literal(-6)))
        CFI (cfiCond76) ?RET_LOW load(1, XDATA, add(CFA_XSP16, literal(-5)))
        CFI (cfiCond76) ?RET_HIGH load(1, XDATA, add(CFA_XSP16, literal(-4)))
        CFI (cfiCond76) ?BRET_EXT load(1, XDATA, add(CFA_XSP16, literal(-3)))
        CFI (cfiCond76) DPL0 load(1, XDATA, add(CFA_XSP16, literal(-2)))
        CFI (cfiCond76) DPH0 load(1, XDATA, add(CFA_XSP16, literal(-1)))
        CFI (cfiCond76) CFA_SP SP+0
        CFI (cfiCond76) CFA_XSP16 add(XSP16, 39)
        CFI Block cfiCond77 Using cfiCommon0
        CFI (cfiCond77) NoFunction
        CFI (cfiCond77) Conditional ??CrossCallReturnLabel_41, ??CrossCallReturnLabel_20, ??CrossCallReturnLabel_8
        CFI (cfiCond77) R6 load(1, XDATA, add(CFA_XSP16, literal(-18)))
        CFI (cfiCond77) VB load(1, XDATA, add(CFA_XSP16, literal(-17)))
        CFI (cfiCond77) V0 load(1, XDATA, add(CFA_XSP16, literal(-16)))
        CFI (cfiCond77) V1 load(1, XDATA, add(CFA_XSP16, literal(-15)))
        CFI (cfiCond77) V2 load(1, XDATA, add(CFA_XSP16, literal(-14)))
        CFI (cfiCond77) V3 load(1, XDATA, add(CFA_XSP16, literal(-13)))
        CFI (cfiCond77) V4 load(1, XDATA, add(CFA_XSP16, literal(-12)))
        CFI (cfiCond77) V5 load(1, XDATA, add(CFA_XSP16, literal(-11)))
        CFI (cfiCond77) V6 load(1, XDATA, add(CFA_XSP16, literal(-10)))
        CFI (cfiCond77) V7 load(1, XDATA, add(CFA_XSP16, literal(-9)))
        CFI (cfiCond77) V8 load(1, XDATA, add(CFA_XSP16, literal(-8)))
        CFI (cfiCond77) V9 load(1, XDATA, add(CFA_XSP16, literal(-7)))
        CFI (cfiCond77) R7 load(1, XDATA, add(CFA_XSP16, literal(-6)))
        CFI (cfiCond77) ?RET_LOW load(1, XDATA, add(CFA_XSP16, literal(-5)))
        CFI (cfiCond77) ?RET_HIGH load(1, XDATA, add(CFA_XSP16, literal(-4)))
        CFI (cfiCond77) ?BRET_EXT load(1, XDATA, add(CFA_XSP16, literal(-3)))
        CFI (cfiCond77) DPL0 load(1, XDATA, add(CFA_XSP16, literal(-2)))
        CFI (cfiCond77) DPH0 load(1, XDATA, add(CFA_XSP16, literal(-1)))
        CFI (cfiCond77) CFA_SP SP+0
        CFI (cfiCond77) CFA_XSP16 add(XSP16, 41)
        CFI Block cfiCond78 Using cfiCommon0
        CFI (cfiCond78) NoFunction
        CFI (cfiCond78) Conditional ??CrossCallReturnLabel_41, ??CrossCallReturnLabel_20, ??CrossCallReturnLabel_9
        CFI (cfiCond78) R6 load(1, XDATA, add(CFA_XSP16, literal(-18)))
        CFI (cfiCond78) VB load(1, XDATA, add(CFA_XSP16, literal(-17)))
        CFI (cfiCond78) V0 load(1, XDATA, add(CFA_XSP16, literal(-16)))
        CFI (cfiCond78) V1 load(1, XDATA, add(CFA_XSP16, literal(-15)))
        CFI (cfiCond78) V2 load(1, XDATA, add(CFA_XSP16, literal(-14)))
        CFI (cfiCond78) V3 load(1, XDATA, add(CFA_XSP16, literal(-13)))
        CFI (cfiCond78) V4 load(1, XDATA, add(CFA_XSP16, literal(-12)))
        CFI (cfiCond78) V5 load(1, XDATA, add(CFA_XSP16, literal(-11)))
        CFI (cfiCond78) V6 load(1, XDATA, add(CFA_XSP16, literal(-10)))
        CFI (cfiCond78) V7 load(1, XDATA, add(CFA_XSP16, literal(-9)))
        CFI (cfiCond78) V8 load(1, XDATA, add(CFA_XSP16, literal(-8)))
        CFI (cfiCond78) V9 load(1, XDATA, add(CFA_XSP16, literal(-7)))
        CFI (cfiCond78) R7 load(1, XDATA, add(CFA_XSP16, literal(-6)))
        CFI (cfiCond78) ?RET_LOW load(1, XDATA, add(CFA_XSP16, literal(-5)))
        CFI (cfiCond78) ?RET_HIGH load(1, XDATA, add(CFA_XSP16, literal(-4)))
        CFI (cfiCond78) ?BRET_EXT load(1, XDATA, add(CFA_XSP16, literal(-3)))
        CFI (cfiCond78) DPL0 load(1, XDATA, add(CFA_XSP16, literal(-2)))
        CFI (cfiCond78) DPH0 load(1, XDATA, add(CFA_XSP16, literal(-1)))
        CFI (cfiCond78) CFA_SP SP+0
        CFI (cfiCond78) CFA_XSP16 add(XSP16, 41)
        CFI Block cfiCond79 Using cfiCommon0
        CFI (cfiCond79) NoFunction
        CFI (cfiCond79) Conditional ??CrossCallReturnLabel_40, ??CrossCallReturnLabel_2
        CFI (cfiCond79) R6 load(1, XDATA, add(CFA_XSP16, literal(-11)))
        CFI (cfiCond79) VB load(1, XDATA, add(CFA_XSP16, literal(-10)))
        CFI (cfiCond79) V0 load(1, XDATA, add(CFA_XSP16, literal(-9)))
        CFI (cfiCond79) V1 load(1, XDATA, add(CFA_XSP16, literal(-8)))
        CFI (cfiCond79) V2 load(1, XDATA, add(CFA_XSP16, literal(-7)))
        CFI (cfiCond79) R7 load(1, XDATA, add(CFA_XSP16, literal(-6)))
        CFI (cfiCond79) ?RET_LOW load(1, XDATA, add(CFA_XSP16, literal(-5)))
        CFI (cfiCond79) ?RET_HIGH load(1, XDATA, add(CFA_XSP16, literal(-4)))
        CFI (cfiCond79) ?BRET_EXT load(1, XDATA, add(CFA_XSP16, literal(-3)))
        CFI (cfiCond79) DPL0 load(1, XDATA, add(CFA_XSP16, literal(-2)))
        CFI (cfiCond79) DPH0 load(1, XDATA, add(CFA_XSP16, literal(-1)))
        CFI (cfiCond79) CFA_SP SP+0
        CFI (cfiCond79) CFA_XSP16 add(XSP16, 21)
        CFI Block cfiCond80 Using cfiCommon0
        CFI (cfiCond80) NoFunction
        CFI (cfiCond80) Conditional ??CrossCallReturnLabel_40, ??CrossCallReturnLabel_3
        CFI (cfiCond80) R6 load(1, XDATA, add(CFA_XSP16, literal(-18)))
        CFI (cfiCond80) VB load(1, XDATA, add(CFA_XSP16, literal(-17)))
        CFI (cfiCond80) V0 load(1, XDATA, add(CFA_XSP16, literal(-16)))
        CFI (cfiCond80) V1 load(1, XDATA, add(CFA_XSP16, literal(-15)))
        CFI (cfiCond80) V2 load(1, XDATA, add(CFA_XSP16, literal(-14)))
        CFI (cfiCond80) V3 load(1, XDATA, add(CFA_XSP16, literal(-13)))
        CFI (cfiCond80) V4 load(1, XDATA, add(CFA_XSP16, literal(-12)))
        CFI (cfiCond80) V5 load(1, XDATA, add(CFA_XSP16, literal(-11)))
        CFI (cfiCond80) V6 load(1, XDATA, add(CFA_XSP16, literal(-10)))
        CFI (cfiCond80) V7 load(1, XDATA, add(CFA_XSP16, literal(-9)))
        CFI (cfiCond80) V8 load(1, XDATA, add(CFA_XSP16, literal(-8)))
        CFI (cfiCond80) V9 load(1, XDATA, add(CFA_XSP16, literal(-7)))
        CFI (cfiCond80) R7 load(1, XDATA, add(CFA_XSP16, literal(-6)))
        CFI (cfiCond80) ?RET_LOW load(1, XDATA, add(CFA_XSP16, literal(-5)))
        CFI (cfiCond80) ?RET_HIGH load(1, XDATA, add(CFA_XSP16, literal(-4)))
        CFI (cfiCond80) ?BRET_EXT load(1, XDATA, add(CFA_XSP16, literal(-3)))
        CFI (cfiCond80) DPL0 load(1, XDATA, add(CFA_XSP16, literal(-2)))
        CFI (cfiCond80) DPH0 load(1, XDATA, add(CFA_XSP16, literal(-1)))
        CFI (cfiCond80) CFA_SP SP+0
        CFI (cfiCond80) CFA_XSP16 add(XSP16, 45)
        CFI Block cfiPicker81 Using cfiCommon1
        CFI (cfiPicker81) NoFunction
        CFI (cfiPicker81) Picker
        MOV     R0,A
        INC     DPTR
        MOVX    A,@DPTR
        MOV     DPH,A
        MOV     DPL,R0
        RET
        CFI EndBlock cfiCond72
        CFI EndBlock cfiCond73
        CFI EndBlock cfiCond74
        CFI EndBlock cfiCond75
        CFI EndBlock cfiCond76
        CFI EndBlock cfiCond77
        CFI EndBlock cfiCond78
        CFI EndBlock cfiCond79
        CFI EndBlock cfiCond80
        CFI EndBlock cfiPicker81

        RSEG BANKED_CODE:CODE:NOROOT(0)
?Subroutine0:
        CFI Block cfiCond82 Using cfiCommon0
        CFI NoFunction
        CFI Conditional ??CrossCallReturnLabel_0
        CFI R6 load(1, XDATA, add(CFA_XSP16, literal(-18)))
        CFI VB load(1, XDATA, add(CFA_XSP16, literal(-17)))
        CFI V0 load(1, XDATA, add(CFA_XSP16, literal(-16)))
        CFI V1 load(1, XDATA, add(CFA_XSP16, literal(-15)))
        CFI V2 load(1, XDATA, add(CFA_XSP16, literal(-14)))
        CFI V3 load(1, XDATA, add(CFA_XSP16, literal(-13)))
        CFI V4 load(1, XDATA, add(CFA_XSP16, literal(-12)))
        CFI V5 load(1, XDATA, add(CFA_XSP16, literal(-11)))
        CFI V6 load(1, XDATA, add(CFA_XSP16, literal(-10)))
        CFI V7 load(1, XDATA, add(CFA_XSP16, literal(-9)))
        CFI V8 load(1, XDATA, add(CFA_XSP16, literal(-8)))
        CFI V9 load(1, XDATA, add(CFA_XSP16, literal(-7)))
        CFI R7 load(1, XDATA, add(CFA_XSP16, literal(-6)))
        CFI ?RET_LOW load(1, XDATA, add(CFA_XSP16, literal(-5)))
        CFI ?RET_HIGH load(1, XDATA, add(CFA_XSP16, literal(-4)))
        CFI ?BRET_EXT load(1, XDATA, add(CFA_XSP16, literal(-3)))
        CFI DPL0 load(1, XDATA, add(CFA_XSP16, literal(-2)))
        CFI DPH0 load(1, XDATA, add(CFA_XSP16, literal(-1)))
        CFI CFA_SP SP+0
        CFI CFA_XSP16 add(XSP16, 39)
        CFI Block cfiCond83 Using cfiCommon0
        CFI (cfiCond83) NoFunction
        CFI (cfiCond83) Conditional ??CrossCallReturnLabel_1
        CFI (cfiCond83) R6 load(1, XDATA, add(CFA_XSP16, literal(-18)))
        CFI (cfiCond83) VB load(1, XDATA, add(CFA_XSP16, literal(-17)))
        CFI (cfiCond83) V0 load(1, XDATA, add(CFA_XSP16, literal(-16)))
        CFI (cfiCond83) V1 load(1, XDATA, add(CFA_XSP16, literal(-15)))
        CFI (cfiCond83) V2 load(1, XDATA, add(CFA_XSP16, literal(-14)))
        CFI (cfiCond83) V3 load(1, XDATA, add(CFA_XSP16, literal(-13)))
        CFI (cfiCond83) V4 load(1, XDATA, add(CFA_XSP16, literal(-12)))
        CFI (cfiCond83) V5 load(1, XDATA, add(CFA_XSP16, literal(-11)))
        CFI (cfiCond83) V6 load(1, XDATA, add(CFA_XSP16, literal(-10)))
        CFI (cfiCond83) V7 load(1, XDATA, add(CFA_XSP16, literal(-9)))
        CFI (cfiCond83) V8 load(1, XDATA, add(CFA_XSP16, literal(-8)))
        CFI (cfiCond83) V9 load(1, XDATA, add(CFA_XSP16, literal(-7)))
        CFI (cfiCond83) R7 load(1, XDATA, add(CFA_XSP16, literal(-6)))
        CFI (cfiCond83) ?RET_LOW load(1, XDATA, add(CFA_XSP16, literal(-5)))
        CFI (cfiCond83) ?RET_HIGH load(1, XDATA, add(CFA_XSP16, literal(-4)))
        CFI (cfiCond83) ?BRET_EXT load(1, XDATA, add(CFA_XSP16, literal(-3)))
        CFI (cfiCond83) DPL0 load(1, XDATA, add(CFA_XSP16, literal(-2)))
        CFI (cfiCond83) DPH0 load(1, XDATA, add(CFA_XSP16, literal(-1)))
        CFI (cfiCond83) CFA_SP SP+0
        CFI (cfiCond83) CFA_XSP16 add(XSP16, 39)
        CFI Block cfiPicker84 Using cfiCommon1
        CFI (cfiPicker84) NoFunction
        CFI (cfiPicker84) Picker
        MOVX    @DPTR,A
        LCALL   ?Subroutine12 & 0xFFFF
??CrossCallReturnLabel_18:
        RET
        CFI EndBlock cfiCond82
        CFI EndBlock cfiCond83
        CFI EndBlock cfiPicker84

        RSEG BANKED_CODE:CODE:NOROOT(0)
?Subroutine12:
        CFI Block cfiCond85 Using cfiCommon0
        CFI NoFunction
        CFI Conditional ??CrossCallReturnLabel_19, ??CrossCallReturnLabel_2
        CFI R6 load(1, XDATA, add(CFA_XSP16, literal(-11)))
        CFI VB load(1, XDATA, add(CFA_XSP16, literal(-10)))
        CFI V0 load(1, XDATA, add(CFA_XSP16, literal(-9)))
        CFI V1 load(1, XDATA, add(CFA_XSP16, literal(-8)))
        CFI V2 load(1, XDATA, add(CFA_XSP16, literal(-7)))
        CFI R7 load(1, XDATA, add(CFA_XSP16, literal(-6)))
        CFI ?RET_LOW load(1, XDATA, add(CFA_XSP16, literal(-5)))
        CFI ?RET_HIGH load(1, XDATA, add(CFA_XSP16, literal(-4)))
        CFI ?BRET_EXT load(1, XDATA, add(CFA_XSP16, literal(-3)))
        CFI DPL0 load(1, XDATA, add(CFA_XSP16, literal(-2)))
        CFI DPH0 load(1, XDATA, add(CFA_XSP16, literal(-1)))
        CFI CFA_SP SP+0
        CFI CFA_XSP16 add(XSP16, 21)
        CFI Block cfiCond86 Using cfiCommon0
        CFI (cfiCond86) NoFunction
        CFI (cfiCond86) Conditional ??CrossCallReturnLabel_19, ??CrossCallReturnLabel_3
        CFI (cfiCond86) R6 load(1, XDATA, add(CFA_XSP16, literal(-18)))
        CFI (cfiCond86) VB load(1, XDATA, add(CFA_XSP16, literal(-17)))
        CFI (cfiCond86) V0 load(1, XDATA, add(CFA_XSP16, literal(-16)))
        CFI (cfiCond86) V1 load(1, XDATA, add(CFA_XSP16, literal(-15)))
        CFI (cfiCond86) V2 load(1, XDATA, add(CFA_XSP16, literal(-14)))
        CFI (cfiCond86) V3 load(1, XDATA, add(CFA_XSP16, literal(-13)))
        CFI (cfiCond86) V4 load(1, XDATA, add(CFA_XSP16, literal(-12)))
        CFI (cfiCond86) V5 load(1, XDATA, add(CFA_XSP16, literal(-11)))
        CFI (cfiCond86) V6 load(1, XDATA, add(CFA_XSP16, literal(-10)))
        CFI (cfiCond86) V7 load(1, XDATA, add(CFA_XSP16, literal(-9)))
        CFI (cfiCond86) V8 load(1, XDATA, add(CFA_XSP16, literal(-8)))
        CFI (cfiCond86) V9 load(1, XDATA, add(CFA_XSP16, literal(-7)))
        CFI (cfiCond86) R7 load(1, XDATA, add(CFA_XSP16, literal(-6)))
        CFI (cfiCond86) ?RET_LOW load(1, XDATA, add(CFA_XSP16, literal(-5)))
        CFI (cfiCond86) ?RET_HIGH load(1, XDATA, add(CFA_XSP16, literal(-4)))
        CFI (cfiCond86) ?BRET_EXT load(1, XDATA, add(CFA_XSP16, literal(-3)))
        CFI (cfiCond86) DPL0 load(1, XDATA, add(CFA_XSP16, literal(-2)))
        CFI (cfiCond86) DPH0 load(1, XDATA, add(CFA_XSP16, literal(-1)))
        CFI (cfiCond86) CFA_SP SP+0
        CFI (cfiCond86) CFA_XSP16 add(XSP16, 45)
        CFI Block cfiCond87 Using cfiCommon0
        CFI (cfiCond87) NoFunction
        CFI (cfiCond87) Conditional ??CrossCallReturnLabel_18, ??CrossCallReturnLabel_0
        CFI (cfiCond87) R6 load(1, XDATA, add(CFA_XSP16, literal(-18)))
        CFI (cfiCond87) VB load(1, XDATA, add(CFA_XSP16, literal(-17)))
        CFI (cfiCond87) V0 load(1, XDATA, add(CFA_XSP16, literal(-16)))
        CFI (cfiCond87) V1 load(1, XDATA, add(CFA_XSP16, literal(-15)))
        CFI (cfiCond87) V2 load(1, XDATA, add(CFA_XSP16, literal(-14)))
        CFI (cfiCond87) V3 load(1, XDATA, add(CFA_XSP16, literal(-13)))
        CFI (cfiCond87) V4 load(1, XDATA, add(CFA_XSP16, literal(-12)))
        CFI (cfiCond87) V5 load(1, XDATA, add(CFA_XSP16, literal(-11)))
        CFI (cfiCond87) V6 load(1, XDATA, add(CFA_XSP16, literal(-10)))
        CFI (cfiCond87) V7 load(1, XDATA, add(CFA_XSP16, literal(-9)))
        CFI (cfiCond87) V8 load(1, XDATA, add(CFA_XSP16, literal(-8)))
        CFI (cfiCond87) V9 load(1, XDATA, add(CFA_XSP16, literal(-7)))
        CFI (cfiCond87) R7 load(1, XDATA, add(CFA_XSP16, literal(-6)))
        CFI (cfiCond87) ?RET_LOW load(1, XDATA, add(CFA_XSP16, literal(-5)))
        CFI (cfiCond87) ?RET_HIGH load(1, XDATA, add(CFA_XSP16, literal(-4)))
        CFI (cfiCond87) ?BRET_EXT load(1, XDATA, add(CFA_XSP16, literal(-3)))
        CFI (cfiCond87) DPL0 load(1, XDATA, add(CFA_XSP16, literal(-2)))
        CFI (cfiCond87) DPH0 load(1, XDATA, add(CFA_XSP16, literal(-1)))
        CFI (cfiCond87) CFA_SP SP+0
        CFI (cfiCond87) CFA_XSP16 add(XSP16, 39)
        CFI Block cfiCond88 Using cfiCommon0
        CFI (cfiCond88) NoFunction
        CFI (cfiCond88) Conditional ??CrossCallReturnLabel_18, ??CrossCallReturnLabel_1
        CFI (cfiCond88) R6 load(1, XDATA, add(CFA_XSP16, literal(-18)))
        CFI (cfiCond88) VB load(1, XDATA, add(CFA_XSP16, literal(-17)))
        CFI (cfiCond88) V0 load(1, XDATA, add(CFA_XSP16, literal(-16)))
        CFI (cfiCond88) V1 load(1, XDATA, add(CFA_XSP16, literal(-15)))
        CFI (cfiCond88) V2 load(1, XDATA, add(CFA_XSP16, literal(-14)))
        CFI (cfiCond88) V3 load(1, XDATA, add(CFA_XSP16, literal(-13)))
        CFI (cfiCond88) V4 load(1, XDATA, add(CFA_XSP16, literal(-12)))
        CFI (cfiCond88) V5 load(1, XDATA, add(CFA_XSP16, literal(-11)))
        CFI (cfiCond88) V6 load(1, XDATA, add(CFA_XSP16, literal(-10)))
        CFI (cfiCond88) V7 load(1, XDATA, add(CFA_XSP16, literal(-9)))
        CFI (cfiCond88) V8 load(1, XDATA, add(CFA_XSP16, literal(-8)))
        CFI (cfiCond88) V9 load(1, XDATA, add(CFA_XSP16, literal(-7)))
        CFI (cfiCond88) R7 load(1, XDATA, add(CFA_XSP16, literal(-6)))
        CFI (cfiCond88) ?RET_LOW load(1, XDATA, add(CFA_XSP16, literal(-5)))
        CFI (cfiCond88) ?RET_HIGH load(1, XDATA, add(CFA_XSP16, literal(-4)))
        CFI (cfiCond88) ?BRET_EXT load(1, XDATA, add(CFA_XSP16, literal(-3)))
        CFI (cfiCond88) DPL0 load(1, XDATA, add(CFA_XSP16, literal(-2)))
        CFI (cfiCond88) DPH0 load(1, XDATA, add(CFA_XSP16, literal(-1)))
        CFI (cfiCond88) CFA_SP SP+0
        CFI (cfiCond88) CFA_XSP16 add(XSP16, 39)
        CFI Block cfiPicker89 Using cfiCommon1
        CFI (cfiPicker89) NoFunction
        CFI (cfiPicker89) Picker
        LCALL   ?Subroutine14 & 0xFFFF
??CrossCallReturnLabel_24:
        LCALL   ?Subroutine16 & 0xFFFF
??CrossCallReturnLabel_26:
        RET
        CFI EndBlock cfiCond85
        CFI EndBlock cfiCond86
        CFI EndBlock cfiCond87
        CFI EndBlock cfiCond88
        CFI EndBlock cfiPicker89

        RSEG BANKED_CODE:CODE:NOROOT(0)
?Subroutine16:
        CFI Block cfiCond90 Using cfiCommon0
        CFI NoFunction
        CFI Conditional ??CrossCallReturnLabel_25, ??CrossCallReturnLabel_16
        CFI R6 load(1, XDATA, add(CFA_XSP16, literal(-18)))
        CFI VB load(1, XDATA, add(CFA_XSP16, literal(-17)))
        CFI V0 load(1, XDATA, add(CFA_XSP16, literal(-16)))
        CFI V1 load(1, XDATA, add(CFA_XSP16, literal(-15)))
        CFI V2 load(1, XDATA, add(CFA_XSP16, literal(-14)))
        CFI V3 load(1, XDATA, add(CFA_XSP16, literal(-13)))
        CFI V4 load(1, XDATA, add(CFA_XSP16, literal(-12)))
        CFI V5 load(1, XDATA, add(CFA_XSP16, literal(-11)))
        CFI V6 load(1, XDATA, add(CFA_XSP16, literal(-10)))
        CFI V7 load(1, XDATA, add(CFA_XSP16, literal(-9)))
        CFI V8 load(1, XDATA, add(CFA_XSP16, literal(-8)))
        CFI V9 load(1, XDATA, add(CFA_XSP16, literal(-7)))
        CFI R7 load(1, XDATA, add(CFA_XSP16, literal(-6)))
        CFI ?RET_LOW load(1, XDATA, add(CFA_XSP16, literal(-5)))
        CFI ?RET_HIGH load(1, XDATA, add(CFA_XSP16, literal(-4)))
        CFI ?BRET_EXT load(1, XDATA, add(CFA_XSP16, literal(-3)))
        CFI DPL0 load(1, XDATA, add(CFA_XSP16, literal(-2)))
        CFI DPH0 load(1, XDATA, add(CFA_XSP16, literal(-1)))
        CFI CFA_SP SP+-1
        CFI CFA_XSP16 add(XSP16, 39)
        CFI Block cfiCond91 Using cfiCommon0
        CFI (cfiCond91) NoFunction
        CFI (cfiCond91) Conditional ??CrossCallReturnLabel_25, ??CrossCallReturnLabel_17
        CFI (cfiCond91) R6 load(1, XDATA, add(CFA_XSP16, literal(-18)))
        CFI (cfiCond91) VB load(1, XDATA, add(CFA_XSP16, literal(-17)))
        CFI (cfiCond91) V0 load(1, XDATA, add(CFA_XSP16, literal(-16)))
        CFI (cfiCond91) V1 load(1, XDATA, add(CFA_XSP16, literal(-15)))
        CFI (cfiCond91) V2 load(1, XDATA, add(CFA_XSP16, literal(-14)))
        CFI (cfiCond91) V3 load(1, XDATA, add(CFA_XSP16, literal(-13)))
        CFI (cfiCond91) V4 load(1, XDATA, add(CFA_XSP16, literal(-12)))
        CFI (cfiCond91) V5 load(1, XDATA, add(CFA_XSP16, literal(-11)))
        CFI (cfiCond91) V6 load(1, XDATA, add(CFA_XSP16, literal(-10)))
        CFI (cfiCond91) V7 load(1, XDATA, add(CFA_XSP16, literal(-9)))
        CFI (cfiCond91) V8 load(1, XDATA, add(CFA_XSP16, literal(-8)))
        CFI (cfiCond91) V9 load(1, XDATA, add(CFA_XSP16, literal(-7)))
        CFI (cfiCond91) R7 load(1, XDATA, add(CFA_XSP16, literal(-6)))
        CFI (cfiCond91) ?RET_LOW load(1, XDATA, add(CFA_XSP16, literal(-5)))
        CFI (cfiCond91) ?RET_HIGH load(1, XDATA, add(CFA_XSP16, literal(-4)))
        CFI (cfiCond91) ?BRET_EXT load(1, XDATA, add(CFA_XSP16, literal(-3)))
        CFI (cfiCond91) DPL0 load(1, XDATA, add(CFA_XSP16, literal(-2)))
        CFI (cfiCond91) DPH0 load(1, XDATA, add(CFA_XSP16, literal(-1)))
        CFI (cfiCond91) CFA_SP SP+0
        CFI (cfiCond91) CFA_XSP16 add(XSP16, 39)
        CFI Block cfiCond92 Using cfiCommon0
        CFI (cfiCond92) NoFunction
        CFI (cfiCond92) Conditional ??CrossCallReturnLabel_26, ??CrossCallReturnLabel_19, ??CrossCallReturnLabel_2
        CFI (cfiCond92) R6 load(1, XDATA, add(CFA_XSP16, literal(-11)))
        CFI (cfiCond92) VB load(1, XDATA, add(CFA_XSP16, literal(-10)))
        CFI (cfiCond92) V0 load(1, XDATA, add(CFA_XSP16, literal(-9)))
        CFI (cfiCond92) V1 load(1, XDATA, add(CFA_XSP16, literal(-8)))
        CFI (cfiCond92) V2 load(1, XDATA, add(CFA_XSP16, literal(-7)))
        CFI (cfiCond92) R7 load(1, XDATA, add(CFA_XSP16, literal(-6)))
        CFI (cfiCond92) ?RET_LOW load(1, XDATA, add(CFA_XSP16, literal(-5)))
        CFI (cfiCond92) ?RET_HIGH load(1, XDATA, add(CFA_XSP16, literal(-4)))
        CFI (cfiCond92) ?BRET_EXT load(1, XDATA, add(CFA_XSP16, literal(-3)))
        CFI (cfiCond92) DPL0 load(1, XDATA, add(CFA_XSP16, literal(-2)))
        CFI (cfiCond92) DPH0 load(1, XDATA, add(CFA_XSP16, literal(-1)))
        CFI (cfiCond92) CFA_SP SP+0
        CFI (cfiCond92) CFA_XSP16 add(XSP16, 21)
        CFI Block cfiCond93 Using cfiCommon0
        CFI (cfiCond93) NoFunction
        CFI (cfiCond93) Conditional ??CrossCallReturnLabel_26, ??CrossCallReturnLabel_19, ??CrossCallReturnLabel_3
        CFI (cfiCond93) R6 load(1, XDATA, add(CFA_XSP16, literal(-18)))
        CFI (cfiCond93) VB load(1, XDATA, add(CFA_XSP16, literal(-17)))
        CFI (cfiCond93) V0 load(1, XDATA, add(CFA_XSP16, literal(-16)))
        CFI (cfiCond93) V1 load(1, XDATA, add(CFA_XSP16, literal(-15)))
        CFI (cfiCond93) V2 load(1, XDATA, add(CFA_XSP16, literal(-14)))
        CFI (cfiCond93) V3 load(1, XDATA, add(CFA_XSP16, literal(-13)))
        CFI (cfiCond93) V4 load(1, XDATA, add(CFA_XSP16, literal(-12)))
        CFI (cfiCond93) V5 load(1, XDATA, add(CFA_XSP16, literal(-11)))
        CFI (cfiCond93) V6 load(1, XDATA, add(CFA_XSP16, literal(-10)))
        CFI (cfiCond93) V7 load(1, XDATA, add(CFA_XSP16, literal(-9)))
        CFI (cfiCond93) V8 load(1, XDATA, add(CFA_XSP16, literal(-8)))
        CFI (cfiCond93) V9 load(1, XDATA, add(CFA_XSP16, literal(-7)))
        CFI (cfiCond93) R7 load(1, XDATA, add(CFA_XSP16, literal(-6)))
        CFI (cfiCond93) ?RET_LOW load(1, XDATA, add(CFA_XSP16, literal(-5)))
        CFI (cfiCond93) ?RET_HIGH load(1, XDATA, add(CFA_XSP16, literal(-4)))
        CFI (cfiCond93) ?BRET_EXT load(1, XDATA, add(CFA_XSP16, literal(-3)))
        CFI (cfiCond93) DPL0 load(1, XDATA, add(CFA_XSP16, literal(-2)))
        CFI (cfiCond93) DPH0 load(1, XDATA, add(CFA_XSP16, literal(-1)))
        CFI (cfiCond93) CFA_SP SP+0
        CFI (cfiCond93) CFA_XSP16 add(XSP16, 45)
        CFI Block cfiCond94 Using cfiCommon0
        CFI (cfiCond94) NoFunction
        CFI (cfiCond94) Conditional ??CrossCallReturnLabel_26, ??CrossCallReturnLabel_18, ??CrossCallReturnLabel_0
        CFI (cfiCond94) R6 load(1, XDATA, add(CFA_XSP16, literal(-18)))
        CFI (cfiCond94) VB load(1, XDATA, add(CFA_XSP16, literal(-17)))
        CFI (cfiCond94) V0 load(1, XDATA, add(CFA_XSP16, literal(-16)))
        CFI (cfiCond94) V1 load(1, XDATA, add(CFA_XSP16, literal(-15)))
        CFI (cfiCond94) V2 load(1, XDATA, add(CFA_XSP16, literal(-14)))
        CFI (cfiCond94) V3 load(1, XDATA, add(CFA_XSP16, literal(-13)))
        CFI (cfiCond94) V4 load(1, XDATA, add(CFA_XSP16, literal(-12)))
        CFI (cfiCond94) V5 load(1, XDATA, add(CFA_XSP16, literal(-11)))
        CFI (cfiCond94) V6 load(1, XDATA, add(CFA_XSP16, literal(-10)))
        CFI (cfiCond94) V7 load(1, XDATA, add(CFA_XSP16, literal(-9)))
        CFI (cfiCond94) V8 load(1, XDATA, add(CFA_XSP16, literal(-8)))
        CFI (cfiCond94) V9 load(1, XDATA, add(CFA_XSP16, literal(-7)))
        CFI (cfiCond94) R7 load(1, XDATA, add(CFA_XSP16, literal(-6)))
        CFI (cfiCond94) ?RET_LOW load(1, XDATA, add(CFA_XSP16, literal(-5)))
        CFI (cfiCond94) ?RET_HIGH load(1, XDATA, add(CFA_XSP16, literal(-4)))
        CFI (cfiCond94) ?BRET_EXT load(1, XDATA, add(CFA_XSP16, literal(-3)))
        CFI (cfiCond94) DPL0 load(1, XDATA, add(CFA_XSP16, literal(-2)))
        CFI (cfiCond94) DPH0 load(1, XDATA, add(CFA_XSP16, literal(-1)))
        CFI (cfiCond94) CFA_SP SP+0
        CFI (cfiCond94) CFA_XSP16 add(XSP16, 39)
        CFI Block cfiCond95 Using cfiCommon0
        CFI (cfiCond95) NoFunction
        CFI (cfiCond95) Conditional ??CrossCallReturnLabel_26, ??CrossCallReturnLabel_18, ??CrossCallReturnLabel_1
        CFI (cfiCond95) R6 load(1, XDATA, add(CFA_XSP16, literal(-18)))
        CFI (cfiCond95) VB load(1, XDATA, add(CFA_XSP16, literal(-17)))
        CFI (cfiCond95) V0 load(1, XDATA, add(CFA_XSP16, literal(-16)))
        CFI (cfiCond95) V1 load(1, XDATA, add(CFA_XSP16, literal(-15)))
        CFI (cfiCond95) V2 load(1, XDATA, add(CFA_XSP16, literal(-14)))
        CFI (cfiCond95) V3 load(1, XDATA, add(CFA_XSP16, literal(-13)))
        CFI (cfiCond95) V4 load(1, XDATA, add(CFA_XSP16, literal(-12)))
        CFI (cfiCond95) V5 load(1, XDATA, add(CFA_XSP16, literal(-11)))
        CFI (cfiCond95) V6 load(1, XDATA, add(CFA_XSP16, literal(-10)))
        CFI (cfiCond95) V7 load(1, XDATA, add(CFA_XSP16, literal(-9)))
        CFI (cfiCond95) V8 load(1, XDATA, add(CFA_XSP16, literal(-8)))
        CFI (cfiCond95) V9 load(1, XDATA, add(CFA_XSP16, literal(-7)))
        CFI (cfiCond95) R7 load(1, XDATA, add(CFA_XSP16, literal(-6)))
        CFI (cfiCond95) ?RET_LOW load(1, XDATA, add(CFA_XSP16, literal(-5)))
        CFI (cfiCond95) ?RET_HIGH load(1, XDATA, add(CFA_XSP16, literal(-4)))
        CFI (cfiCond95) ?BRET_EXT load(1, XDATA, add(CFA_XSP16, literal(-3)))
        CFI (cfiCond95) DPL0 load(1, XDATA, add(CFA_XSP16, literal(-2)))
        CFI (cfiCond95) DPH0 load(1, XDATA, add(CFA_XSP16, literal(-1)))
        CFI (cfiCond95) CFA_SP SP+0
        CFI (cfiCond95) CFA_XSP16 add(XSP16, 39)
        CFI Block cfiPicker96 Using cfiCommon1
        CFI (cfiPicker96) NoFunction
        CFI (cfiPicker96) Picker
        MOV     A,#Key_epDesc & 0xff
        ADD     A,R0
        MOV     DPL,A
        MOV     A,#(Key_epDesc >> 8) & 0xff
        ADDC    A,R1
        MOV     DPH,A
        MOVX    A,@DPTR
        RET
        CFI EndBlock cfiCond90
        CFI EndBlock cfiCond91
        CFI EndBlock cfiCond92
        CFI EndBlock cfiCond93
        CFI EndBlock cfiCond94
        CFI EndBlock cfiCond95
        CFI EndBlock cfiPicker96
//  366 
//  367 
//  368 /*********************************************************************
//  369  * @fn      Key_HandleKeys
//  370  *
//  371  * @brief   Handles all key events for this device.
//  372  *
//  373  * @param   shift - true if in shift/alt.
//  374  * @param   keys - bit field for key events. Valid entries:
//  375  *                 HAL_KEY_SW_4
//  376  *                 HAL_KEY_SW_3
//  377  *                 HAL_KEY_SW_2
//  378  *                 HAL_KEY_SW_1
//  379  *
//  380  * @return  none
//  381  */

        RSEG BANKED_CODE:CODE:NOROOT(0)
//  382 void Key_HandleKeys( byte shift, byte keys )
Key_HandleKeys:
        CFI Block cfiBlock97 Using cfiCommon0
        CFI Function Key_HandleKeys
        CODE
//  383 {
        PUSH    DPL
        CFI DPL0 Frame(CFA_SP, 4)
        CFI CFA_SP SP+-4
        PUSH    DPH
        CFI DPH0 Frame(CFA_SP, 5)
        CFI CFA_SP SP+-5
        ; Saved register size: 2
        ; Auto size: 0
//  384   // Shift is used to make each key/switch dual purpose.
//  385   if ( shift )
        MOV     A,R1
        JNZ     ??Key_HandleKeys_0
//  386   {
//  387     if ( keys & HAL_KEY_SW_1 )
//  388     {
//  389     }
//  390     if ( keys & HAL_KEY_SW_2 )
//  391     {
//  392     }
//  393     if ( keys & HAL_KEY_SW_3 )
//  394     {
//  395     }
//  396     if ( keys & HAL_KEY_SW_6 )
//  397     {
//  398        
//  399     }
//  400   }
//  401   else
//  402   {
//  403     if ( keys & HAL_KEY_SW_1 )
        MOV     A,R2
        MOV     C,0xE0 /* A   */.0
        JNC     ??Key_HandleKeys_0
//  404     {
//  405       if(myAppState == APP_INIT) {
        MOV     DPTR,#myAppState
        MOVX    A,@DPTR
        JNZ     ??Key_HandleKeys_0
//  406         
//  407         myAppState = APP_START;
        MOV     A,#0x1
        MOVX    @DPTR,A
//  408       }
//  409       else
//  410       {
//  411         
//  412       }
//  413     }
//  414 
//  415     if ( keys & HAL_KEY_SW_2 )
//  416     {
//  417     }
//  418 
//  419     if ( keys & HAL_KEY_SW_3 )
//  420     {
//  421     }
//  422 
//  423     // 是用来查找有没有东西可以匹配?    if ( keys & HAL_KEY_SW_4 )
//  424     {/*
//  425       HalLedSet ( HAL_LED_4, HAL_LED_MODE_OFF );
//  426       // Initiate a Match Description Request (Service Discovery)
//  427       dstAddr.addrMode = AddrBroadcast;
//  428       dstAddr.addr.shortAddr = NWK_BROADCAST_SHORTADDR;
//  429       ZDP_MatchDescReq( &dstAddr, NWK_BROADCAST_SHORTADDR,
//  430                         SYS_PROFID,
//  431                         SYS_MAX_CLUSTERS, (cId_t *)Key_ClusterList,
//  432                         SYS_MAX_CLUSTERS, (cId_t *)Key_ClusterList,
//  433                         FALSE );
//  434                         */
//  435     }
//  436   }
//  437 }
??Key_HandleKeys_0:
        POP     DPH
        CFI DPH0 SameValue
        CFI CFA_SP SP+-4
        POP     DPL
        CFI DPL0 SameValue
        CFI CFA_SP SP+-3
        LJMP    ?BRET
        CFI EndBlock cfiBlock97

        RSEG XDATA_ID:CODE:NOROOT(0)
`?<Initializer for Key_ClusterList>`:
        DATA16
        DW 1
        DW 2
        DW 4
        DW 0

        RSEG BANK_RELAYS:CODE:REORDER:NOROOT(0)
??Key_Init?relay:
        LCALL   ?BDISPATCH
        DATA
        DC24    Key_Init

        RSEG BANK_RELAYS:CODE:REORDER:NOROOT(0)
??Key_ProcessEvent?relay:
        LCALL   ?BDISPATCH
        DATA
        DC24    Key_ProcessEvent

        RSEG BANK_RELAYS:CODE:REORDER:NOROOT(0)
??Key_ProcessZDOMsgs?relay:
        LCALL   ?BDISPATCH
        DATA
        DC24    Key_ProcessZDOMsgs

        RSEG BANK_RELAYS:CODE:REORDER:NOROOT(0)
??Key_BindDevice?relay:
        LCALL   ?BDISPATCH
        DATA
        DC24    Key_BindDevice

        RSEG BANK_RELAYS:CODE:REORDER:NOROOT(0)
??Key_HandleKeys?relay:
        LCALL   ?BDISPATCH
        DATA
        DC24    Key_HandleKeys

        RSEG XDATA_ROM_C:CONST:REORDER:NOROOT(0)
        DATA8
`?<Constant {10, 3844, 1, 0, 0, 4, Key_ClusterL`:
        DB 10
        DATA16
        DW 3844
        DW 1
        DATA8
        DB 0
        DB 4
        DATA16
        DW Key_ClusterList
        DATA8
        DB 4
        DATA16
        DW Key_ClusterList

        END
//  438 
//  439 
//  440 /******************************************************************************
//  441  * @fn          Key_ReceiveDataIndication
//  442  *
//  443  * @brief       The SAPI_ReceiveDataIndication callback function is called
//  444  *              asynchronously by the ZigBee stack to notify the application
//  445  *              when data is received from a peer device.
//  446  *
//  447  * @param       source - The short address of the peer device that sent the data
//  448  *              command - The commandId associated with the data
//  449  *              len - The number of bytes in the pData parameter
//  450  *              pData - The data sent by the peer device
//  451  *
//  452  * @return      none
//  453  */
//  454 void Key_ReceiveDataIndication( uint16 source, uint8 endPoint, uint16 command, uint16 len, uint8 *pData  )
//  455 {
//  456   uint8 *buff = (uint8 *)osal_mem_alloc(sizeof(uint8)*(len+1));
//  457   uint8 i;
//  458   buff[0] = endPoint - KEY_ENDPOINT;
//  459   for(i=1; i<len+1; i++,pData++)
//  460   {
//  461     buff[i] = *pData;
//  462   }
//  463   if(command == OPERATE_CLUSTER)
//  464   {
//  465     HalUARTWrite(0, buff, (byte)osal_strlen( buff ) + 1);
//  466   }
//  467 }
//  468 
//  469 
//  470 /*********************************
//  471  * CALLBACK FUNCTIONS   */
//  472 /******************************************************************************
//  473  * @fn          SAPI_BindConfirm
//  474  *
//  475  * @brief       The SAPI_BindConfirm callback is called by the ZigBee stack
//  476  *              after a bind operation completes.
//  477  *
//  478  * @param       commandId - The command ID of the binding being confirmed.
//  479  *              status - The status of the bind operation.
//  480  *              allowBind - TRUE if the bind operation was initiated by a call
//  481  *                          to zb_AllowBindRespones.  FALSE if the operation
//  482  *                          was initiated by a call to ZB_BindDevice
//  483  *
//  484  * @return      none
//  485  */
//  486 void SAPI_BindConfirm( uint16 commandId, uint8 status )
//  487 {
//  488     Sys_BindConfirm( commandId, status );
//  489 }
// 
// 1 416 bytes in segment BANKED_CODE
//    30 bytes in segment BANK_RELAYS
//     8 bytes in segment XDATA_I
//     8 bytes in segment XDATA_ID
//    12 bytes in segment XDATA_ROM_C
//   216 bytes in segment XDATA_Z
// 
// 1 454 bytes of CODE  memory
//    12 bytes of CONST memory
//   224 bytes of XDATA memory
//
//Errors: none
//Warnings: 1
