###############################################################################
#                                                                             #
# IAR C/C++ Compiler V8.10.3.10338/W32 for 8051         17/Apr/2018  12:32:56 #
# Copyright 2004-2011 IAR Systems AB.                                         #
#                                                                             #
#    Core               =  plain                                              #
#    Code model         =  banked                                             #
#    Data model         =  large                                              #
#    Calling convention =  xdata reentrant                                    #
#    Constant location  =  data_rom                                           #
#    Dptr setup         =  1,16                                               #
#    Source file        =  D:\ProgramData\Hardware\zigbee\Projects\zstack\Sam #
#                          ples\SensorSys\Source\Key_Coor.c                   #
#    Command line       =  -f D:\ProgramData\Hardware\zigbee\Projects\zstack\ #
#                          Samples\SensorSys\CC2530DB\..\..\..\Tools\CC2530DB #
#                          \f8wCoord.cfg (-DCPU32MHZ -DROOT=__near_func       #
#                          -DMAC_CFG_APP_PENDING_QUEUE=TRUE                   #
#                          -DMAC_CFG_TX_DATA_MAX=5 -DMAC_CFG_TX_MAX=8         #
#                          -DMAC_CFG_RX_MAX=5 -DZDO_COORDINATOR -DRTR_NWK)    #
#                          -f D:\ProgramData\Hardware\zigbee\Projects\zstack\ #
#                          Samples\SensorSys\CC2530DB\..\..\..\Tools\CC2530DB #
#                          \f8wConfig.cfg (-DZIGBEEPRO -DSECURE=0             #
#                          -DZG_SECURE_DYNAMIC=0 -DREFLECTOR                  #
#                          -DDEFAULT_CHANLIST=0x00000800                      #
#                          -DZDAPP_CONFIG_PAN_ID=0xFFF1                       #
#                          -DNWK_START_DELAY=100 -DEXTENDED_JOINING_RANDOM_MA #
#                          SK=0x007F -DBEACON_REQUEST_DELAY=100               #
#                          -DBEACON_REQ_DELAY_MASK=0x00FF                     #
#                          -DLINK_STATUS_JITTER_MASK=0x007F                   #
#                          -DROUTE_EXPIRY_TIME=30 -DAPSC_ACK_WAIT_DURATION_PO #
#                          LLED=3000 -DNWK_INDIRECT_MSG_TIMEOUT=7             #
#                          -DMAX_RREQ_ENTRIES=8 -DAPSC_MAX_FRAME_RETRIES=3    #
#                          -DNWK_MAX_DATA_RETRIES=2                           #
#                          -DMAX_POLL_FAILURE_RETRIES=2 -DMAX_BCAST=9         #
#                          -DAPS_MAX_GROUPS=16 -DMAX_RTG_ENTRIES=40           #
#                          -DNWK_MAX_BINDING_ENTRIES=4                        #
#                          -DMAX_BINDING_CLUSTER_IDS=4 "-DDEFAULT_KEY={0x01,  #
#                          0x03, 0x05, 0x07, 0x09, 0x0B, 0x0D, 0x0F, 0x00,    #
#                          0x02, 0x04, 0x06, 0x08, 0x0A, 0x0C, 0x0D}"         #
#                          -DMAC_MAX_FRAME_SIZE=116                           #
#                          -DZDNWKMGR_MIN_TRANSMISSIONS=20 "-DCONST=const     #
#                          __code" -DGENERIC=__generic                        #
#                          -DRFD_RCVC_ALWAYS_ON=TRUE -DPOLL_RATE=1000         #
#                          -DQUEUED_POLL_RATE=100 -DRESPONSE_POLL_RATE=100)   #
#                          -DREJOIN_POLL_RATE=440 D:\ProgramData\Hardware\zig #
#                          bee\Projects\zstack\Samples\SensorSys\Source\Key_C #
#                          oor.c -D HOLD_AUTO_START -D BUILD_ALL_DEVICES -D   #
#                          REFLECTOR -D NV_INIT -D COOR -D xNV_RESTORE -D     #
#                          ZTOOL_P1 -D xMT_TASK -D xMT_SYS_FUNC -D            #
#                          xMT_SAPI_FUNC -D xMT_SAPI_CB_FUNC -lC              #
#                          D:\ProgramData\Hardware\zigbee\Projects\zstack\Sam #
#                          ples\SensorSys\CC2530DB\CoordinatorEB\List\ -lA    #
#                          D:\ProgramData\Hardware\zigbee\Projects\zstack\Sam #
#                          ples\SensorSys\CC2530DB\CoordinatorEB\List\        #
#                          --diag_suppress Pe001,Pa010 -o                     #
#                          D:\ProgramData\Hardware\zigbee\Projects\zstack\Sam #
#                          ples\SensorSys\CC2530DB\CoordinatorEB\Obj\ -e      #
#                          --no_code_motion --debug --core=plain --dptr=16,1  #
#                          --data_model=large --code_model=banked             #
#                          --calling_convention=xdata_reentrant               #
#                          --place_constants=data_rom --nr_virtual_regs 16    #
#                          -I D:\ProgramData\Hardware\zigbee\Projects\zstack\ #
#                          Samples\SensorSys\CC2530DB\ -I                     #
#                          D:\ProgramData\Hardware\zigbee\Projects\zstack\Sam #
#                          ples\SensorSys\CC2530DB\..\Source\ -I              #
#                          D:\ProgramData\Hardware\zigbee\Projects\zstack\Sam #
#                          ples\SensorSys\CC2530DB\..\..\..\ZMain\TI2530DB\   #
#                          -I D:\ProgramData\Hardware\zigbee\Projects\zstack\ #
#                          Samples\SensorSys\CC2530DB\..\..\..\..\..\Componen #
#                          ts\hal\include\ -I D:\ProgramData\Hardware\zigbee\ #
#                          Projects\zstack\Samples\SensorSys\CC2530DB\..\..\. #
#                          .\..\..\Components\hal\target\CC2530EB\ -I         #
#                          D:\ProgramData\Hardware\zigbee\Projects\zstack\Sam #
#                          ples\SensorSys\CC2530DB\..\..\..\..\..\Components\ #
#                          mac\include\ -I D:\ProgramData\Hardware\zigbee\Pro #
#                          jects\zstack\Samples\SensorSys\CC2530DB\..\..\..\. #
#                          .\..\Components\mac\high_level\ -I                 #
#                          D:\ProgramData\Hardware\zigbee\Projects\zstack\Sam #
#                          ples\SensorSys\CC2530DB\..\..\..\..\..\Components\ #
#                          mac\low_level\srf04\ -I D:\ProgramData\Hardware\zi #
#                          gbee\Projects\zstack\Samples\SensorSys\CC2530DB\.. #
#                          \..\..\..\..\Components\mac\low_level\srf04\single #
#                          _chip\ -I D:\ProgramData\Hardware\zigbee\Projects\ #
#                          zstack\Samples\SensorSys\CC2530DB\..\..\..\..\..\C #
#                          omponents\mt\ -I D:\ProgramData\Hardware\zigbee\Pr #
#                          ojects\zstack\Samples\SensorSys\CC2530DB\..\..\..\ #
#                          ..\..\Components\osal\include\ -I                  #
#                          D:\ProgramData\Hardware\zigbee\Projects\zstack\Sam #
#                          ples\SensorSys\CC2530DB\..\..\..\..\..\Components\ #
#                          services\saddr\ -I D:\ProgramData\Hardware\zigbee\ #
#                          Projects\zstack\Samples\SensorSys\CC2530DB\..\..\. #
#                          .\..\..\Components\services\sdata\ -I              #
#                          D:\ProgramData\Hardware\zigbee\Projects\zstack\Sam #
#                          ples\SensorSys\CC2530DB\..\..\..\..\..\Components\ #
#                          stack\af\ -I D:\ProgramData\Hardware\zigbee\Projec #
#                          ts\zstack\Samples\SensorSys\CC2530DB\..\..\..\..\. #
#                          .\Components\stack\nwk\ -I                         #
#                          D:\ProgramData\Hardware\zigbee\Projects\zstack\Sam #
#                          ples\SensorSys\CC2530DB\..\..\..\..\..\Components\ #
#                          stack\sapi\ -I D:\ProgramData\Hardware\zigbee\Proj #
#                          ects\zstack\Samples\SensorSys\CC2530DB\..\..\..\.. #
#                          \..\Components\stack\sec\ -I                       #
#                          D:\ProgramData\Hardware\zigbee\Projects\zstack\Sam #
#                          ples\SensorSys\CC2530DB\..\..\..\..\..\Components\ #
#                          stack\sys\ -I D:\ProgramData\Hardware\zigbee\Proje #
#                          cts\zstack\Samples\SensorSys\CC2530DB\..\..\..\..\ #
#                          ..\Components\stack\zdo\ -I                        #
#                          D:\ProgramData\Hardware\zigbee\Projects\zstack\Sam #
#                          ples\SensorSys\CC2530DB\..\..\..\..\..\Components\ #
#                          zmac\ -I D:\ProgramData\Hardware\zigbee\Projects\z #
#                          stack\Samples\SensorSys\CC2530DB\..\..\..\..\..\Co #
#                          mponents\zmac\f8w\ -Ohz --require_prototypes       #
#    List file          =  D:\ProgramData\Hardware\zigbee\Projects\zstack\Sam #
#                          ples\SensorSys\CC2530DB\CoordinatorEB\List\Key_Coo #
#                          r.lst                                              #
#    Object file        =  D:\ProgramData\Hardware\zigbee\Projects\zstack\Sam #
#                          ples\SensorSys\CC2530DB\CoordinatorEB\Obj\Key_Coor #
#                          .r51                                               #
#                                                                             #
#                                                                             #
###############################################################################

D:\ProgramData\Hardware\zigbee\Projects\zstack\Samples\SensorSys\Source\Key_Coor.c
      1          /*********************************************************************
      2           * INCLUDES
      3           */
      4          #include "OSAL.h"
      5          #include "AF.h"
      6          #include "ZDApp.h"
      7          #include "ZDObject.h"
      8          #include "ZDProfile.h"
      9          #include "sapi.h"
     10          
     11          #include "SensorSys_Coor.h"
     12          #include "device.h"
     13          #include "DebugTrace.h"
     14          
     15          #if !defined( WIN32 )
     16            #include "OnBoard.h"
     17          #endif
     18          
     19          /* HAL */
     20          #include "hal_led.h"
     21          #include "hal_key.h"
     22          #include "hal_uart.h"
     23          
     24          /*********************************************************************
     25           * MACROS
     26           */
     27          
     28          /*********************************************************************
     29           * CONSTANTS
     30           */
     31          
     32          /*********************************************************************
     33           * TYPEDEFS
     34           */
     35          
     36          /*********************************************************************
     37           * GLOBAL VARIABLES
     38           */

   \                                 In  segment XDATA_Z, align 1, keep-with-next
     39          byte Key_TaskID;
   \                     Key_TaskID:
   \   000000                DS 1
   \   000001                REQUIRE __INIT_XDATA_Z

   \                                 In  segment XDATA_Z, align 1, keep-with-next
     40          uint8 keyCnt;
   \                     keyCnt:
   \   000000                DS 1
   \   000001                REQUIRE __INIT_XDATA_Z
     41          
     42          // Key ç«¯ç‚¹çš„ç°‡ID
     43          // This list should be filled with Application specific Cluster IDs.

   \                                 In  segment XDATA_I, align 1, keep-with-next
     44          cId_t Key_ClusterList[KEY_MAX_CLUSTERS] =
   \                     Key_ClusterList:
   \   000000                DS 8
   \   000008                REQUIRE `?<Initializer for Key_ClusterList>`
   \   000008                REQUIRE __INIT_XDATA_I
     45          {
     46            PORT_INIT_CLUSTER,
     47              OPERATE_CLUSTER,
     48              DELETE_CLUSTER
     49          };
     50          
     51          // Key ç«¯ç‚¹ç®€å•æè¿°ç¬¦

   \                                 In  segment XDATA_Z, align 1, keep-with-next
     52          SimpleDescriptionFormat_t *Key_SimpleDesc[KEY_NUM_MAX];
   \                     Key_SimpleDesc:
   \   000000                DS 100
   \   000064                REQUIRE __INIT_XDATA_Z
     53          

   \                                 In  segment XDATA_Z, align 1, keep-with-next
     54          endPointDesc_t *Key_epDesc[KEY_NUM_MAX];
   \                     Key_epDesc:
   \   000000                DS 100
   \   000064                REQUIRE __INIT_XDATA_Z
     55          
     56          /*********************************************************************
     57           * EXTERNAL VARIABLES
     58           */
     59          extern uint8 myAppState;
     60          /*********************************************************************
     61           * EXTERNAL FUNCTIONS
     62           */
     63          
     64          /*********************************************************************
     65           * LOCAL VARIABLES
     66           */
     67          

   \                                 In  segment XDATA_Z, align 1, keep-with-next
     68          afAddrType_t Key_DstAddr;
   \                     Key_DstAddr:
   \   000000                DS 12
   \   00000C                REQUIRE __INIT_XDATA_Z

   \                                 In  segment XDATA_Z, align 1, keep-with-next
     69          uint16 key_bindInProgress;
   \                     key_bindInProgress:
   \   000000                DS 2
   \   000002                REQUIRE __INIT_XDATA_Z
     70          
     71          
     72          /*********************************************************************
     73           * LOCAL FUNCTIONS
     74           */
     75          void Key_Init( byte task_id );
     76          void Key_ProcessZDOMsgs( zdoIncomingMsg_t *inMsg );
     77          void Key_HandleKeys( byte shift, byte keys );
     78          
     79          void Key_BindDevice ( uint8 create, uint8 endpoint, uint16 *commandId, uint8 *pDestination );
     80          
     81          static void Key_ReceiveDataIndication( uint16 source, uint8 endPoint, uint16 command, uint16 len, uint8 *pData  );
     82          static void SAPI_BindConfirm( uint16 commandId, uint8 status );
     83          /*********************************************************************
     84           * @fn      Key_Init
     85           *
     86           * @brief   Initialization function for the Generic App Task.
     87           *          This is called during initialization and should contain
     88           *          any application specific initialization (ie. hardware
     89           *          initialization/setup, table initialization, power up
     90           *          notificaiton ... ).
     91           *
     92           * @param   task_id - the ID assigned by OSAL.  This ID should be
     93           *                    used to send messages and set timers.
     94           *
     95           * @return  none
     96           */

   \                                 In  segment BANKED_CODE, align 1, keep-with-next
     97          void Key_Init( byte task_id )
   \                     Key_Init:
     98          {
   \   000000   74F7         MOV     A,#-0x9
   \   000002   12....       LCALL   ?BANKED_ENTER_XDATA
   \   000005                ; Saved register size: 9
   \   000005                ; Auto size: 0
   \   000005   E9           MOV     A,R1
     99            Key_TaskID = task_id;
   \   000006   90....       MOV     DPTR,#Key_TaskID
   \   000009   F0           MOVX    @DPTR,A
    100            keyCnt = 0;
   \   00000A   90....       MOV     DPTR,#keyCnt
   \   00000D   E4           CLR     A
   \   00000E   F0           MOVX    @DPTR,A
    101            
    102            // Device hardware initialization can be added here or in main() (Zmain.c).
    103            // If the hardware is application specific - add it here.
    104            // If the hardware is other parts of the device add it in main().
    105          
    106            Key_DstAddr.addrMode = (afAddrMode_t)AddrNotPresent;
   \   00000F   90....       MOV     DPTR,#Key_DstAddr + 8
   \   000012   F0           MOVX    @DPTR,A
    107            Key_DstAddr.endPoint = 0;
   \   000013   A3           INC     DPTR
   \   000014   F0           MOVX    @DPTR,A
    108            Key_DstAddr.addr.shortAddr = 0;
   \   000015   90....       MOV     DPTR,#Key_DstAddr
   \   000018   F0           MOVX    @DPTR,A
   \   000019   A3           INC     DPTR
   \   00001A   F0           MOVX    @DPTR,A
    109          
    110            key_bindInProgress = 0xffff;
   \   00001B   90....       MOV     DPTR,#key_bindInProgress
   \   00001E   74FF         MOV     A,#-0x1
   \   000020   F0           MOVX    @DPTR,A
   \   000021   A3           INC     DPTR
   \   000022   F0           MOVX    @DPTR,A
    111          
    112            // Register for all key events - This app will handle all key events
    113            RegisterForKeys( Key_TaskID );
   \   000023                ; Setup parameters for call to function RegisterForKeys
   \   000023   12....       LCALL   ??RegisterForKeys?relay
    114          
    115            // To Update the display...
    116            ZDO_RegisterForZDOMsg( Key_TaskID, Match_Desc_rsp );
   \   000026                ; Setup parameters for call to function ZDO_RegisterForZDOMsg
   \   000026   7A06         MOV     R2,#0x6
   \   000028   7B80         MOV     R3,#-0x80
   \   00002A   90....       MOV     DPTR,#Key_TaskID
   \   00002D   E0           MOVX    A,@DPTR
   \   00002E   F9           MOV     R1,A
   \   00002F   12....       LCALL   ??ZDO_RegisterForZDOMsg?relay
    117          }
   \   000032   7F01         MOV     R7,#0x1
   \   000034   02....       LJMP    ?BANKED_LEAVE_XDATA
    118          
    119          /*********************************************************************
    120           * @fn      Key_ProcessEvent
    121           *
    122           * @brief   Generic Application Task event processor.  This function
    123           *          is called to process all events for the task.  Events
    124           *          include timers, messages and any other user defined events.
    125           *
    126           * @param   task_id  - The OSAL assigned task ID.
    127           * @param   events - events to process.  This is a bit map and can
    128           *                   contain more than one event.
    129           *
    130           * @return  none
    131           */

   \                                 In  segment BANKED_CODE, align 1, keep-with-next
    132          UINT16 Key_ProcessEvent( byte task_id, UINT16 events )
   \                     Key_ProcessEvent:
    133          {
   \   000000   74EA         MOV     A,#-0x16
   \   000002   12....       LCALL   ?BANKED_ENTER_XDATA
   \   000005                ; Saved register size: 22
   \   000005                ; Auto size: 0
   \   000005   EA           MOV     A,R2
   \   000006   FE           MOV     R6,A
   \   000007   EB           MOV     A,R3
   \   000008   FF           MOV     R7,A
    134            afIncomingMSGPacket_t *MSGpkt = NULL;
    135          
    136            (void)task_id;  // Intentionally unreferenced parameter
    137          
    138            if ( events & SYS_EVENT_MSG )
   \   000009   5480         ANL     A,#0x80
   \   00000B   7003         JNZ     $+5
   \   00000D   02....       LJMP    ??Key_ProcessEvent_0 & 0xFFFF
    139            {
    140              MSGpkt = (afIncomingMSGPacket_t *)osal_msg_receive( task_id );
   \   000010                ; Setup parameters for call to function osal_msg_receive
   \   000010   8065         SJMP    ??Key_ProcessEvent_1
    141              while ( MSGpkt )
    142              {
    143                switch ( MSGpkt->hdr.event )
    144                {
    145                  case ZDO_CB_MSG:  // æ”¶åˆ°è¢«ç»‘å®šèŠ‚ç‚¹çš„rsp
    146                    Key_ProcessZDOMsgs( (zdoIncomingMsg_t *)MSGpkt);
    147                    break;
    148          
    149                  case KEY_CHANGE:
    150                    Key_HandleKeys( ((keyChange_t *)MSGpkt)->state, ((keyChange_t *)MSGpkt)->keys );
    151                    break;
    152                    
    153                  case AF_INCOMING_MSG_CMD:
    154                    Key_ReceiveDataIndication( MSGpkt->srcAddr.addr.shortAddr, MSGpkt->endPoint, MSGpkt->clusterId,
    155                                              MSGpkt->cmd.DataLength, MSGpkt->cmd.Data);
   \                     ??Key_ProcessEvent_2:
   \   000012   85..82       MOV     DPL,?V0 + 4
   \   000015   85..83       MOV     DPH,?V0 + 5
   \   000018   E0           MOVX    A,@DPTR
   \   000019   C0E0         PUSH    A
   \   00001B   E5..         MOV     A,?V0 + 2
   \   00001D   25..         ADD     A,?V0 + 12
   \   00001F   F582         MOV     DPL,A
   \   000021   EB           MOV     A,R3
   \   000022   3400         ADDC    A,#0x0
   \   000024   F583         MOV     DPH,A
   \   000026   D0E0         POP     A
   \   000028   F0           MOVX    @DPTR,A
   \   000029   0A           INC     R2
   \   00002A   85..82       MOV     DPL,?V0 + 4
   \   00002D   85..83       MOV     DPH,?V0 + 5
   \   000030   A3           INC     DPTR
   \   000031   8582..       MOV     ?V0 + 4,DPL
   \   000034   8583..       MOV     ?V0 + 5,DPH
   \                     ??Key_ProcessEvent_3:
   \   000037   8A..         MOV     ?V0 + 12,R2
   \   000039   E5..         MOV     A,?V0 + 6
   \   00003B   2401         ADD     A,#0x1
   \   00003D   F8           MOV     R0,A
   \   00003E   E5..         MOV     A,?V0 + 7
   \   000040   3400         ADDC    A,#0x0
   \   000042   F9           MOV     R1,A
   \   000043   C3           CLR     C
   \   000044   E5..         MOV     A,?V0 + 12
   \   000046   98           SUBB    A,R0
   \   000047   E4           CLR     A
   \   000048   99           SUBB    A,R1
   \   000049   40C7         JC      ??Key_ProcessEvent_2
   \   00004B   7402         MOV     A,#0x2
   \   00004D   65..         XRL     A,?V0 + 8
   \   00004F   7002         JNZ     ??Key_ProcessEvent_4
   \   000051   E5..         MOV     A,?V0 + 9
   \                     ??Key_ProcessEvent_4:
   \   000053   7016         JNZ     ??Key_ProcessEvent_5
   \   000055                ; Setup parameters for call to function HalUARTWrite
   \   000055                ; Setup parameters for call to function osal_strlen
   \   000055   AA..         MOV     R2,?V0 + 2
   \   000057   12....       LCALL   ??osal_strlen?relay
   \   00005A   EA           MOV     A,R2
   \   00005B   2401         ADD     A,#0x1
   \   00005D   FC           MOV     R4,A
   \   00005E   E4           CLR     A
   \   00005F   3400         ADDC    A,#0x0
   \   000061   FD           MOV     R5,A
   \   000062   AA..         MOV     R2,?V0 + 2
   \   000064   AB..         MOV     R3,?V0 + 3
   \   000066   7900         MOV     R1,#0x0
   \   000068   12....       LCALL   ??HalUARTWrite?relay
    156                    break;
    157                }
    158                // Release the memory
    159                osal_msg_deallocate( (uint8 *)MSGpkt );
   \                     ??Key_ProcessEvent_5:
   \   00006B                ; Setup parameters for call to function osal_msg_deallocate
   \   00006B   AA..         MOV     R2,?V0 + 0
   \   00006D   AB..         MOV     R3,?V0 + 1
   \   00006F   12....       LCALL   ??osal_msg_deallocate?relay
    160          
    161                // Next
    162                MSGpkt = (afIncomingMSGPacket_t *)osal_msg_receive( Key_TaskID );
   \   000072                ; Setup parameters for call to function osal_msg_receive
   \   000072   90....       MOV     DPTR,#Key_TaskID
   \   000075   E0           MOVX    A,@DPTR
   \   000076   F9           MOV     R1,A
   \                     ??Key_ProcessEvent_1:
   \   000077   12....       LCALL   ??osal_msg_receive?relay
   \   00007A   8A..         MOV     ?V0 + 0,R2
   \   00007C   8B..         MOV     ?V0 + 1,R3
   \   00007E   E5..         MOV     A,?V0 + 0
   \   000080   45..         ORL     A,?V0 + 1
   \   000082   7003         JNZ     $+5
   \   000084   02....       LJMP    ??Key_ProcessEvent_6 & 0xFFFF
   \   000087   85..82       MOV     DPL,?V0 + 0
   \   00008A   85..83       MOV     DPH,?V0 + 1
   \   00008D   E0           MOVX    A,@DPTR
   \   00008E   24E6         ADD     A,#-0x1a
   \   000090   6025         JZ      ??Key_ProcessEvent_7
   \   000092   245A         ADD     A,#0x5a
   \   000094   600D         JZ      ??Key_ProcessEvent_8
   \   000096   24ED         ADD     A,#-0x13
   \   000098   70D1         JNZ     ??Key_ProcessEvent_5
   \   00009A                ; Setup parameters for call to function Key_ProcessZDOMsgs
   \   00009A   AA..         MOV     R2,?V0 + 0
   \   00009C   AB..         MOV     R3,?V0 + 1
   \   00009E   12....       LCALL   ??Key_ProcessZDOMsgs?relay
   \   0000A1   80C8         SJMP    ??Key_ProcessEvent_5
   \                     ??Key_ProcessEvent_8:
   \   0000A3                ; Setup parameters for call to function Key_HandleKeys
   \   0000A3   A3           INC     DPTR
   \   0000A4   A3           INC     DPTR
   \   0000A5   A3           INC     DPTR
   \   0000A6   E0           MOVX    A,@DPTR
   \   0000A7   FA           MOV     R2,A
   \   0000A8   85..82       MOV     DPL,?V0 + 0
   \   0000AB   85..83       MOV     DPH,?V0 + 1
   \   0000AE   A3           INC     DPTR
   \   0000AF   A3           INC     DPTR
   \   0000B0   E0           MOVX    A,@DPTR
   \   0000B1   F9           MOV     R1,A
   \   0000B2   12....       LCALL   ??Key_HandleKeys?relay
   \   0000B5   80B4         SJMP    ??Key_ProcessEvent_5
   \                     ??Key_ProcessEvent_7:
   \   0000B7   E5..         MOV     A,?V0 + 0
   \   0000B9   2422         ADD     A,#0x22
   \   0000BB   12....       LCALL   ?Subroutine10 & 0xFFFF
    163              }
   \                     ??CrossCallReturnLabel_28:
   \   0000BE   F5..         MOV     ?V0 + 4,A
   \   0000C0   A3           INC     DPTR
   \   0000C1   E0           MOVX    A,@DPTR
   \   0000C2   F5..         MOV     ?V0 + 5,A
   \   0000C4   E5..         MOV     A,?V0 + 0
   \   0000C6   2420         ADD     A,#0x20
   \   0000C8   12....       LCALL   ?Subroutine10 & 0xFFFF
   \                     ??CrossCallReturnLabel_29:
   \   0000CB   F5..         MOV     ?V0 + 6,A
   \   0000CD   A3           INC     DPTR
   \   0000CE   E0           MOVX    A,@DPTR
   \   0000CF   F5..         MOV     ?V0 + 7,A
   \   0000D1   85..82       MOV     DPL,?V0 + 0
   \   0000D4   85..83       MOV     DPH,?V0 + 1
   \   0000D7   A3           INC     DPTR
   \   0000D8   A3           INC     DPTR
   \   0000D9   A3           INC     DPTR
   \   0000DA   A3           INC     DPTR
   \   0000DB   E0           MOVX    A,@DPTR
   \   0000DC   F5..         MOV     ?V0 + 8,A
   \   0000DE   A3           INC     DPTR
   \   0000DF   E0           MOVX    A,@DPTR
   \   0000E0   F5..         MOV     ?V0 + 9,A
   \   0000E2   E5..         MOV     A,?V0 + 0
   \   0000E4   2414         ADD     A,#0x14
   \   0000E6   12....       LCALL   ?Subroutine10 & 0xFFFF
   \                     ??CrossCallReturnLabel_30:
   \   0000E9   F5..         MOV     ?V0 + 11,A
   \   0000EB                ; Setup parameters for call to function osal_mem_alloc
   \   0000EB   E5..         MOV     A,?V0 + 6
   \   0000ED   2401         ADD     A,#0x1
   \   0000EF   FA           MOV     R2,A
   \   0000F0   E5..         MOV     A,?V0 + 7
   \   0000F2   3400         ADDC    A,#0x0
   \   0000F4   FB           MOV     R3,A
   \   0000F5   12....       LCALL   ??osal_mem_alloc?relay
   \   0000F8   8A..         MOV     ?V0 + 2,R2
   \   0000FA   8B..         MOV     ?V0 + 3,R3
   \   0000FC   74F6         MOV     A,#-0xa
   \   0000FE   25..         ADD     A,?V0 + 11
   \   000100   8A82         MOV     DPL,R2
   \   000102   8B83         MOV     DPH,R3
   \   000104   F0           MOVX    @DPTR,A
   \   000105   7A01         MOV     R2,#0x1
   \   000107   02....       LJMP    ??Key_ProcessEvent_3 & 0xFFFF
    164             return (events ^ SYS_EVENT_MSG);
   \                     ??Key_ProcessEvent_6:
   \   00010A   EE           MOV     A,R6
   \   00010B   FA           MOV     R2,A
   \   00010C   EF           MOV     A,R7
   \   00010D   6480         XRL     A,#0x80
   \                     ??Key_ProcessEvent_9:
   \   00010F   FB           MOV     R3,A
   \   000110   8046         SJMP    ??Key_ProcessEvent_10
    165            }
    166          
    167            if( events & MATCH_BIND_EVT ) // å¹¿æ’­ match ç»‘å®š
   \                     ??Key_ProcessEvent_0:
   \   000112   EE           MOV     A,R6
   \   000113   5402         ANL     A,#0x2
   \   000115   602E         JZ      ??Key_ProcessEvent_11
    168            {
    169              if(keyCnt == KEY_NUM_MAX)
   \   000117   90....       MOV     DPTR,#keyCnt
   \   00011A   E0           MOVX    A,@DPTR
   \   00011B   6432         XRL     A,#0x32
   \   00011D   601F         JZ      ??Key_ProcessEvent_12
    170              {
    171                  // do something
    172              }
    173              else
    174              {
    175                  Key_BindDevice(TRUE, KEY_ENDPOINT+keyCnt, Key_ClusterList, NULL); 
   \   00011F                ; Setup parameters for call to function Key_BindDevice
   \   00011F   E4           CLR     A
   \   000120   F5..         MOV     ?V0 + 0,A
   \   000122   F5..         MOV     ?V0 + 1,A
   \   000124   78..         MOV     R0,#?V0 + 0
   \   000126   12....       LCALL   ?PUSH_XSTACK_I_TWO
   \   000129   7C..         MOV     R4,#Key_ClusterList & 0xff
   \   00012B   7D..         MOV     R5,#(Key_ClusterList >> 8) & 0xff
   \   00012D   90....       MOV     DPTR,#keyCnt
   \   000130   E0           MOVX    A,@DPTR
   \   000131   240A         ADD     A,#0xa
   \   000133   FA           MOV     R2,A
   \   000134   7901         MOV     R1,#0x1
   \   000136   12....       LCALL   ??Key_BindDevice?relay
   \   000139   7402         MOV     A,#0x2
   \   00013B   12....       LCALL   ?DEALLOC_XSTACK8
    176              }
    177              return (events ^ MATCH_BIND_EVT);
   \                     ??Key_ProcessEvent_12:
   \   00013E   EE           MOV     A,R6
   \   00013F   6402         XRL     A,#0x2
   \                     ??Key_ProcessEvent_13:
   \   000141   FA           MOV     R2,A
   \   000142   EF           MOV     A,R7
   \   000143   80CA         SJMP    ??Key_ProcessEvent_9
    178            }
    179            
    180            if ( events & KEY_BIND_TIMER )
   \                     ??Key_ProcessEvent_11:
   \   000145   EE           MOV     A,R6
   \   000146   5421         ANL     A,#0x21
   \   000148   600A         JZ      ??Key_ProcessEvent_14
    181            {
    182              // Send bind confirm callback to application
    183              SAPI_BindConfirm( key_bindInProgress, ZB_TIMEOUT );
   \   00014A                ; Setup parameters for call to function Sys_BindConfirm
   \   00014A   7921         MOV     R1,#0x21
   \   00014C   12....       LCALL   ?Subroutine3 & 0xFFFF
    184              key_bindInProgress = 0xffff;
    185          
    186              return (events ^ KEY_BIND_TIMER);
   \                     ??CrossCallReturnLabel_6:
   \   00014F   EE           MOV     A,R6
   \   000150   6421         XRL     A,#0x21
   \   000152   80ED         SJMP    ??Key_ProcessEvent_13
    187            }
    188            
    189            return 0;
   \                     ??Key_ProcessEvent_14:
   \   000154   7A00         MOV     R2,#0x0
   \   000156   7B00         MOV     R3,#0x0
   \                     ??Key_ProcessEvent_10:
   \   000158   7F0E         MOV     R7,#0xe
   \   00015A   02....       LJMP    ?BANKED_LEAVE_XDATA
    190          }

   \                                 In  segment BANKED_CODE, align 1, keep-with-next
   \                     ?Subroutine10:
   \   000000   F582         MOV     DPL,A
   \   000002   E5..         MOV     A,?V0 + 1
   \   000004                REQUIRE ??Subroutine17_0
   \   000004                ; // Fall through to label ??Subroutine17_0

   \                                 In  segment BANKED_CODE, align 1, keep-with-next
   \                     ??Subroutine17_0:
   \   000000   3400         ADDC    A,#0x0
   \   000002   F583         MOV     DPH,A
   \   000004   E0           MOVX    A,@DPTR
   \   000005   22           RET

   \                                 In  segment BANKED_CODE, align 1, keep-with-next
   \                     ?Subroutine3:
   \   000000   90....       MOV     DPTR,#key_bindInProgress
   \   000003   E0           MOVX    A,@DPTR
   \   000004   FA           MOV     R2,A
   \   000005   A3           INC     DPTR
   \   000006   E0           MOVX    A,@DPTR
   \   000007   FB           MOV     R3,A
   \   000008   12....       LCALL   ??Sys_BindConfirm?relay
   \   00000B   90....       MOV     DPTR,#key_bindInProgress
   \   00000E   74FF         MOV     A,#-0x1
   \   000010   F0           MOVX    @DPTR,A
   \   000011   A3           INC     DPTR
   \   000012   F0           MOVX    @DPTR,A
   \   000013   22           RET
    191          
    192          /*********************************************************************
    193           * @fn      Key_ProcessZDOMsgs()
    194           *
    195           * @brief   Process response messages
    196           *
    197           * @param   none
    198           *
    199           * @return  none
    200           */

   \                                 In  segment BANKED_CODE, align 1, keep-with-next
    201          void Key_ProcessZDOMsgs( zdoIncomingMsg_t *inMsg )
   \                     Key_ProcessZDOMsgs:
    202          {
   \   000000   74F5         MOV     A,#-0xb
   \   000002   12....       LCALL   ?BANKED_ENTER_XDATA
   \   000005                ; Saved register size: 11
   \   000005                ; Auto size: 9
   \   000005   74F7         MOV     A,#-0x9
   \   000007   12....       LCALL   ?ALLOC_XSTACK8
    203            switch ( inMsg->clusterID )
   \   00000A   EA           MOV     A,R2
   \   00000B   240C         ADD     A,#0xc
   \   00000D   F582         MOV     DPL,A
   \   00000F   EB           MOV     A,R3
   \   000010   12....       LCALL   ??Subroutine17_0 & 0xFFFF
   \                     ??CrossCallReturnLabel_27:
   \   000013   6406         XRL     A,#0x6
   \   000015   7004         JNZ     ??Key_ProcessZDOMsgs_0
   \   000017   A3           INC     DPTR
   \   000018   E0           MOVX    A,@DPTR
   \   000019   6480         XRL     A,#0x80
   \                     ??Key_ProcessZDOMsgs_0:
   \   00001B   6003         JZ      $+5
   \   00001D   02....       LJMP    ??Key_ProcessZDOMsgs_1 & 0xFFFF
    204            {
    205              case Match_Desc_rsp:
    206                {
    207                  zAddrType_t dstAddr;
    208                  ZDO_ActiveEndpointRsp_t *pRsp = ZDO_ParseEPListRsp( inMsg );
   \   000020                ; Setup parameters for call to function ZDO_ParseEPListRsp
   \   000020   12....       LCALL   ??ZDO_ParseEPListRsp?relay
   \   000023   8A..         MOV     ?V0 + 0,R2
   \   000025   8B..         MOV     ?V0 + 1,R3
   \   000027   AE..         MOV     R6,?V0 + 0
   \   000029   AF..         MOV     R7,?V0 + 1
    209          
    210                  if ( key_bindInProgress != 0xffff )
   \   00002B   90....       MOV     DPTR,#key_bindInProgress
   \   00002E   E0           MOVX    A,@DPTR
   \   00002F   F4           CPL     A
   \   000030   7003         JNZ     ??Key_ProcessZDOMsgs_2
   \   000032   A3           INC     DPTR
   \   000033   E0           MOVX    A,@DPTR
   \   000034   F4           CPL     A
   \                     ??Key_ProcessZDOMsgs_2:
   \   000035   7003         JNZ     $+5
   \   000037   02....       LJMP    ??Key_ProcessZDOMsgs_1 & 0xFFFF
    211                  {
    212                    uint8 ret = 0;
    213                    // Create a binding table entry
    214                    dstAddr.addrMode = Addr16Bit;
   \   00003A   7408         MOV     A,#0x8
   \   00003C   12....       LCALL   ?XSTACK_DISP0_8
   \   00003F   7402         MOV     A,#0x2
   \   000041   F0           MOVX    @DPTR,A
    215                    dstAddr.addr.shortAddr = pRsp->nwkAddr;
   \   000042   8E82         MOV     DPL,R6
   \   000044   8F83         MOV     DPH,R7
   \   000046   A3           INC     DPTR
   \   000047   E0           MOVX    A,@DPTR
   \   000048   F8           MOV     R0,A
   \   000049   A3           INC     DPTR
   \   00004A   E0           MOVX    A,@DPTR
   \   00004B   F9           MOV     R1,A
   \   00004C   85..82       MOV     DPL,?XSP + 0
   \   00004F   85..83       MOV     DPH,?XSP + 1
   \   000052   E8           MOV     A,R0
   \   000053   F0           MOVX    @DPTR,A
   \   000054   A3           INC     DPTR
   \   000055   E9           MOV     A,R1
   \   000056   F0           MOVX    @DPTR,A
    216                    
    217                     for(char i=0; i<KEY_MAX_CLUSTERS; i++)
   \   000057   75..00       MOV     ?V0 + 2,#0x0
    218                    {
    219                          if ( APSME_BindRequest( Key_epDesc[keyCnt]->simpleDesc->EndPoint,
    220                               key_bindInProgress+i, &dstAddr, pRsp->epList[0] ) != ZSuccess )
   \                     ??Key_ProcessZDOMsgs_3:
   \   00005A                ; Setup parameters for call to function APSME_BindRequest
   \   00005A   8E82         MOV     DPL,R6
   \   00005C   8F83         MOV     DPH,R7
   \   00005E   A3           INC     DPTR
   \   00005F   A3           INC     DPTR
   \   000060   A3           INC     DPTR
   \   000061   A3           INC     DPTR
   \   000062   E0           MOVX    A,@DPTR
   \   000063   F5..         MOV     ?V0 + 0,A
   \   000065   78..         MOV     R0,#?V0 + 0
   \   000067   12....       LCALL   ?PUSH_XSTACK_I_ONE
   \   00006A   7401         MOV     A,#0x1
   \   00006C   12....       LCALL   ?XSTACK_DISP0_8
   \   00006F   AC82         MOV     R4,DPL
   \   000071   AD83         MOV     R5,DPH
   \   000073   90....       MOV     DPTR,#key_bindInProgress
   \   000076   85....       MOV     ?V0 + 0,?V0 + 2
   \   000079   E0           MOVX    A,@DPTR
   \   00007A   25..         ADD     A,?V0 + 0
   \   00007C   FA           MOV     R2,A
   \   00007D   A3           INC     DPTR
   \   00007E   E0           MOVX    A,@DPTR
   \   00007F   3400         ADDC    A,#0x0
   \   000081   FB           MOV     R3,A
   \   000082   12....       LCALL   ?Subroutine1 & 0xFFFF
    221                          {
    222                              ret = 1;
    223                              break;
    224                          }
    225                    }
   \                     ??CrossCallReturnLabel_2:
   \   000085   E0           MOVX    A,@DPTR
   \   000086   F9           MOV     R1,A
   \   000087   12....       LCALL   ??APSME_BindRequest?relay
   \   00008A   7401         MOV     A,#0x1
   \   00008C   12....       LCALL   ?DEALLOC_XSTACK8
   \   00008F   E9           MOV     A,R1
   \   000090   7034         JNZ     ??Key_ProcessZDOMsgs_1
   \   000092   05..         INC     ?V0 + 2
   \   000094   E5..         MOV     A,?V0 + 2
   \   000096   C3           CLR     C
   \   000097   9404         SUBB    A,#0x4
   \   000099   40BF         JC      ??Key_ProcessZDOMsgs_3
    226                    if(ret == ZSuccess)
    227                    {
    228                      osal_stop_timerEx(Key_TaskID,  KEY_BIND_TIMER);
   \   00009B                ; Setup parameters for call to function osal_stop_timerEx
   \   00009B   7A21         MOV     R2,#0x21
   \   00009D   7B00         MOV     R3,#0x0
   \   00009F   90....       MOV     DPTR,#Key_TaskID
   \   0000A2   E0           MOVX    A,@DPTR
   \   0000A3   F9           MOV     R1,A
   \   0000A4   12....       LCALL   ??osal_stop_timerEx?relay
    229                      osal_start_timerEx( ZDAppTaskID, ZDO_NWK_UPDATE_NV, 250 );
   \   0000A7                ; Setup parameters for call to function osal_start_timerEx
   \   0000A7   12....       LCALL   ?Subroutine9 & 0xFFFF
    230                      // Find IEEE addr
    231                      ZDP_IEEEAddrReq( pRsp->nwkAddr, ZDP_ADDR_REQTYPE_SINGLE, 0, 0 );
   \                     ??CrossCallReturnLabel_31:
   \   0000AA                ; Setup parameters for call to function ZDP_IEEEAddrReq
   \   0000AA   7D00         MOV     R5,#0x0
   \   0000AC   7C00         MOV     R4,#0x0
   \   0000AE   7900         MOV     R1,#0x0
   \   0000B0   8E82         MOV     DPL,R6
   \   0000B2   8F83         MOV     DPH,R7
   \   0000B4   A3           INC     DPTR
   \   0000B5   12....       LCALL   ??Subroutine19_0 & 0xFFFF
   \                     ??CrossCallReturnLabel_34:
   \   0000B8   12....       LCALL   ??ZDP_IEEEAddrReq?relay
    232                      // Send bind confirm callback to application
    233                      Sys_BindConfirm( key_bindInProgress, ZB_SUCCESS );
   \   0000BB                ; Setup parameters for call to function Sys_BindConfirm
   \   0000BB   7900         MOV     R1,#0x0
   \   0000BD   12....       LCALL   ?Subroutine3 & 0xFFFF
    234                      key_bindInProgress = 0xffff;
    235          
    236                      keyCnt++;
   \                     ??CrossCallReturnLabel_7:
   \   0000C0   90....       MOV     DPTR,#keyCnt
   \   0000C3   E0           MOVX    A,@DPTR
   \   0000C4   04           INC     A
   \   0000C5   F0           MOVX    @DPTR,A
    237                    }
    238                    else
    239                    {
    240                          // ClusterID wrong
    241                    }
    242                  }
    243                }
    244              break;
    245            }
    246          }
   \                     ??Key_ProcessZDOMsgs_1:
   \   0000C6   7409         MOV     A,#0x9
   \   0000C8   12....       LCALL   ?DEALLOC_XSTACK8
   \   0000CB   7F03         MOV     R7,#0x3
   \   0000CD   02....       LJMP    ?BANKED_LEAVE_XDATA

   \                                 In  segment BANKED_CODE, align 1, keep-with-next
   \                     ?Subroutine9:
   \   000000   7CFA         MOV     R4,#-0x6
   \   000002   7D00         MOV     R5,#0x0
   \   000004   7A00         MOV     R2,#0x0
   \   000006   7B02         MOV     R3,#0x2
   \   000008   90....       MOV     DPTR,#ZDAppTaskID
   \   00000B                REQUIRE ??Subroutine18_0
   \   00000B                ; // Fall through to label ??Subroutine18_0

   \                                 In  segment BANKED_CODE, align 1, keep-with-next
   \                     ??Subroutine18_0:
   \   000000   E0           MOVX    A,@DPTR
   \   000001   F9           MOV     R1,A
   \   000002   12....       LCALL   ??osal_start_timerEx?relay
   \   000005   22           RET

   \                                 In  segment BANKED_CODE, align 1, keep-with-next
   \                     ??Subroutine19_0:
   \   000000   E0           MOVX    A,@DPTR
   \   000001   FA           MOV     R2,A
   \   000002   A3           INC     DPTR
   \   000003   E0           MOVX    A,@DPTR
   \   000004   FB           MOV     R3,A
   \   000005   22           RET

   \                                 In  segment BANKED_CODE, align 1, keep-with-next
   \                     ?Subroutine14:
   \   000000   90....       MOV     DPTR,#keyCnt
   \   000003   E0           MOVX    A,@DPTR
   \   000004   C3           CLR     C
   \   000005   33           RLC     A
   \   000006   F8           MOV     R0,A
   \   000007   E4           CLR     A
   \   000008   33           RLC     A
   \   000009   F9           MOV     R1,A
   \   00000A   22           RET

   \                                 In  segment BANKED_CODE, align 1, keep-with-next
   \                     ?Subroutine1:
   \   000000   12....       LCALL   ?Subroutine12 & 0xFFFF
   \                     ??CrossCallReturnLabel_19:
   \   000003   12....       LCALL   ??Subroutine20_0 & 0xFFFF
   \                     ??CrossCallReturnLabel_39:
   \   000006   A3           INC     DPTR
   \   000007   A3           INC     DPTR
   \   000008   A3           INC     DPTR
   \   000009   12....       LCALL   ?Subroutine15 & 0xFFFF
   \                     ??CrossCallReturnLabel_40:
   \   00000C   22           RET

   \                                 In  segment BANKED_CODE, align 1, keep-with-next
   \                     ?Subroutine15:
   \   000000   E0           MOVX    A,@DPTR
   \   000001                REQUIRE ??Subroutine20_0
   \   000001                ; // Fall through to label ??Subroutine20_0

   \                                 In  segment BANKED_CODE, align 1, keep-with-next
   \                     ??Subroutine20_0:
   \   000000   F8           MOV     R0,A
   \   000001   A3           INC     DPTR
   \   000002   E0           MOVX    A,@DPTR
   \   000003   F583         MOV     DPH,A
   \   000005   8882         MOV     DPL,R0
   \   000007   22           RET

   \                                 In  segment BANKED_CODE, align 1, keep-with-next
   \                     ?Subroutine12:
   \   000000   12....       LCALL   ?Subroutine14 & 0xFFFF
   \                     ??CrossCallReturnLabel_24:
   \   000003   12....       LCALL   ?Subroutine16 & 0xFFFF
   \                     ??CrossCallReturnLabel_26:
   \   000006   22           RET

   \                                 In  segment BANKED_CODE, align 1, keep-with-next
   \                     ?Subroutine16:
   \   000000   74..         MOV     A,#Key_epDesc & 0xff
   \   000002   28           ADD     A,R0
   \   000003   F582         MOV     DPL,A
   \   000005   74..         MOV     A,#(Key_epDesc >> 8) & 0xff
   \   000007   39           ADDC    A,R1
   \   000008   F583         MOV     DPH,A
   \   00000A   E0           MOVX    A,@DPTR
   \   00000B   22           RET
    247          
    248          /******************************************************************************
    249           * @fn          Key_BindDevice
    250           *
    251           * @brief       The zb_BindDevice function establishes or removes a ¡®binding? *              between two devices.  Once bound, an application can send
    252           *              messages to a device by referencing the commandId for the
    253           *              binding.
    254           *
    255           * @param       create - TRUE to create a binding, FALSE to remove a binding
    256           *              commandId - The identifier of the binding
    257           *              pDestination - The 64-bit IEEE address of the device to bind to
    258           *
    259           * @return      The status of the bind operation is returned in the
    260           *              Sys_BindConfirm callback.
    261           */

   \                                 In  segment BANKED_CODE, align 1, keep-with-next
    262          void Key_BindDevice ( uint8 create, uint8 endpoint, uint16 *commandId, uint8 *pDestination )
   \                     Key_BindDevice:
    263          {
   \   000000   74EE         MOV     A,#-0x12
   \   000002   12....       LCALL   ?BANKED_ENTER_XDATA
   \   000005                ; Saved register size: 18
   \   000005                ; Auto size: 21
   \   000005   74EB         MOV     A,#-0x15
   \   000007   12....       LCALL   ?ALLOC_XSTACK8
   \   00000A   89..         MOV     ?V0 + 1,R1
   \   00000C   8A..         MOV     ?V0 + 0,R2
   \   00000E   8C..         MOV     ?V0 + 8,R4
   \   000010   8D..         MOV     ?V0 + 9,R5
   \   000012   7427         MOV     A,#0x27
   \   000014   12....       LCALL   ?XSTACK_DISP0_8
   \   000017   E0           MOVX    A,@DPTR
   \   000018   FE           MOV     R6,A
   \   000019   A3           INC     DPTR
   \   00001A   E0           MOVX    A,@DPTR
   \   00001B   FF           MOV     R7,A
    264            zAddrType_t destination;
    265            uint8 ret = ZB_ALREADY_IN_PROGRESS;
    266          
    267            // malloc epDesc
    268              Key_epDesc[keyCnt] = (endPointDesc_t *)osal_mem_alloc(sizeof(endPointDesc_t));
   \   00001C                ; Setup parameters for call to function osal_mem_alloc
   \   00001C   7A06         MOV     R2,#0x6
   \   00001E   7B00         MOV     R3,#0x0
   \   000020   12....       LCALL   ??osal_mem_alloc?relay
   \   000023   8A..         MOV     ?V0 + 2,R2
   \   000025   8B..         MOV     ?V0 + 3,R3
   \   000027   90....       MOV     DPTR,#keyCnt
   \   00002A   E0           MOVX    A,@DPTR
   \   00002B   C3           CLR     C
   \   00002C   33           RLC     A
   \   00002D   FA           MOV     R2,A
   \   00002E   E4           CLR     A
   \   00002F   33           RLC     A
   \   000030   FB           MOV     R3,A
   \   000031   74..         MOV     A,#Key_epDesc & 0xff
   \   000033   2A           ADD     A,R2
   \   000034   F582         MOV     DPL,A
   \   000036   74..         MOV     A,#(Key_epDesc >> 8) & 0xff
   \   000038   3B           ADDC    A,R3
   \   000039   F583         MOV     DPH,A
   \   00003B   E5..         MOV     A,?V0 + 2
   \   00003D   F0           MOVX    @DPTR,A
   \   00003E   A3           INC     DPTR
   \   00003F   E5..         MOV     A,?V0 + 3
   \   000041   F0           MOVX    @DPTR,A
    269              Key_SimpleDesc[keyCnt] = (SimpleDescriptionFormat_t *)osal_mem_alloc(sizeof(SimpleDescriptionFormat_t));
   \   000042                ; Setup parameters for call to function osal_mem_alloc
   \   000042   7A0C         MOV     R2,#0xc
   \   000044   7B00         MOV     R3,#0x0
   \   000046   12....       LCALL   ??osal_mem_alloc?relay
   \   000049   12....       LCALL   ?Subroutine6 & 0xFFFF
   \                     ??CrossCallReturnLabel_12:
   \   00004C   F582         MOV     DPL,A
   \   00004E   74..         MOV     A,#(Key_SimpleDesc >> 8) & 0xff
   \   000050   39           ADDC    A,R1
   \   000051   F583         MOV     DPH,A
   \   000053   EA           MOV     A,R2
   \   000054   F0           MOVX    @DPTR,A
   \   000055   A3           INC     DPTR
   \   000056   EB           MOV     A,R3
   \   000057   F0           MOVX    @DPTR,A
    270              SimpleDescriptionFormat_t simpleDesc_temp =
    271              {
    272                      KEY_ENDPOINT,           //  int Endpoint;
    273                      SYS_PROFID,                //  uint16 AppProfId[2];
    274                      SYS_DEVICEID,              //  uint16 AppDeviceId[2];
    275                      SYS_DEVICE_VERSION,        //  int   AppDevVer:4;
    276                      SYS_FLAGS,                 //  int   AppFlags:4;
    277                      KEY_MAX_CLUSTERS,          //  byte  AppNumInClusters;
    278                      (cId_t *)Key_ClusterList,  //  byte *pAppInClusterList;
    279                      KEY_MAX_CLUSTERS,          //  byte  AppNumInClusters;
    280                      (cId_t *)Key_ClusterList   //  byte *pAppInClusterList;
    281              };
   \   000058   7409         MOV     A,#0x9
   \   00005A   12....       LCALL   ?XSTACK_DISP0_8
   \   00005D   AC82         MOV     R4,DPL
   \   00005F   AD83         MOV     R5,DPH
   \   000061   7583..       MOV     DPH,#(`?<Constant {10, 3844, 1, 0, 0, 4, Key_ClusterL` >> 8) & 0xff
   \   000064   7582..       MOV     DPL,#`?<Constant {10, 3844, 1, 0, 0, 4, Key_ClusterL` & 0xff
   \   000067   740C         MOV     A,#0xc
   \   000069   12....       LCALL   ?MOVE_LONG8_XDATA_XDATA
    282              
    283              // Fill out the endpoint description.
    284              Key_epDesc[keyCnt]->endPoint = KEY_ENDPOINT+keyCnt;
   \   00006C   90....       MOV     DPTR,#keyCnt
   \   00006F   E0           MOVX    A,@DPTR
   \   000070   240A         ADD     A,#0xa
   \   000072   C0E0         PUSH    A
   \   000074   12....       LCALL   ?Subroutine11 & 0xFFFF
   \                     ??CrossCallReturnLabel_16:
   \   000077   12....       LCALL   ??Subroutine20_0 & 0xFFFF
   \                     ??CrossCallReturnLabel_38:
   \   00007A   D0E0         POP     A
   \   00007C   F0           MOVX    @DPTR,A
    285              Key_epDesc[keyCnt]->task_id = &Key_TaskID;
   \   00007D   90....       MOV     DPTR,#keyCnt
   \   000080   E0           MOVX    A,@DPTR
   \   000081   C3           CLR     C
   \   000082   33           RLC     A
   \   000083   F5..         MOV     ?V0 + 2,A
   \   000085   E4           CLR     A
   \   000086   33           RLC     A
   \   000087   F5..         MOV     ?V0 + 3,A
   \   000089   74..         MOV     A,#Key_epDesc & 0xff
   \   00008B   25..         ADD     A,?V0 + 2
   \   00008D   F582         MOV     DPL,A
   \   00008F   74..         MOV     A,#(Key_epDesc >> 8) & 0xff
   \   000091   35..         ADDC    A,?V0 + 3
   \   000093   12....       LCALL   ?Subroutine8 & 0xFFFF
   \                     ??CrossCallReturnLabel_14:
   \   000096   74..         MOV     A,#Key_TaskID & 0xff
   \   000098   F0           MOVX    @DPTR,A
   \   000099   A3           INC     DPTR
   \   00009A   74..         MOV     A,#(Key_TaskID >> 8) & 0xff
   \   00009C   F0           MOVX    @DPTR,A
    286          
    287              osal_memcpy(Key_SimpleDesc[keyCnt], &simpleDesc_temp, sizeof(SimpleDescriptionFormat_t));
   \   00009D                ; Setup parameters for call to function osal_memcpy
   \   00009D   7409         MOV     A,#0x9
   \   00009F   12....       LCALL   ?XSTACK_DISP0_8
   \   0000A2   A982         MOV     R1,DPL
   \   0000A4   AA83         MOV     R2,DPH
   \   0000A6   89..         MOV     ?V0 + 4,R1
   \   0000A8   8A..         MOV     ?V0 + 5,R2
   \   0000AA   75..00       MOV     ?V0 + 6,#0x0
   \   0000AD   78..         MOV     R0,#?V0 + 4
   \   0000AF   12....       LCALL   ?PUSH_XSTACK_I_THREE
   \   0000B2   7C0C         MOV     R4,#0xc
   \   0000B4   7D00         MOV     R5,#0x0
   \   0000B6   74..         MOV     A,#Key_SimpleDesc & 0xff
   \   0000B8   25..         ADD     A,?V0 + 2
   \   0000BA   F582         MOV     DPL,A
   \   0000BC   74..         MOV     A,#(Key_SimpleDesc >> 8) & 0xff
   \   0000BE   35..         ADDC    A,?V0 + 3
   \   0000C0   F583         MOV     DPH,A
   \   0000C2   12....       LCALL   ??Subroutine19_0 & 0xFFFF
   \                     ??CrossCallReturnLabel_35:
   \   0000C5   12....       LCALL   ??osal_memcpy?relay
   \   0000C8   7403         MOV     A,#0x3
   \   0000CA   12....       LCALL   ?DEALLOC_XSTACK8
    288              
    289              Key_epDesc[keyCnt]->simpleDesc
    290                                                  = (SimpleDescriptionFormat_t *)(Key_SimpleDesc[keyCnt]);
   \   0000CD   12....       LCALL   ?Subroutine6 & 0xFFFF
   \                     ??CrossCallReturnLabel_13:
   \   0000D0   FA           MOV     R2,A
   \   0000D1   74..         MOV     A,#(Key_SimpleDesc >> 8) & 0xff
   \   0000D3   39           ADDC    A,R1
   \   0000D4   FB           MOV     R3,A
   \   0000D5   8A82         MOV     DPL,R2
   \   0000D7   8B83         MOV     DPH,R3
   \   0000D9   E0           MOVX    A,@DPTR
   \   0000DA   FC           MOV     R4,A
   \   0000DB   A3           INC     DPTR
   \   0000DC   E0           MOVX    A,@DPTR
   \   0000DD   FD           MOV     R5,A
   \   0000DE   74..         MOV     A,#Key_epDesc & 0xff
   \   0000E0   28           ADD     A,R0
   \   0000E1   F582         MOV     DPL,A
   \   0000E3   74..         MOV     A,#(Key_epDesc >> 8) & 0xff
   \   0000E5   39           ADDC    A,R1
   \   0000E6   12....       LCALL   ?Subroutine8 & 0xFFFF
   \                     ??CrossCallReturnLabel_15:
   \   0000E9   A3           INC     DPTR
   \   0000EA   A3           INC     DPTR
   \   0000EB   EC           MOV     A,R4
   \   0000EC   F0           MOVX    @DPTR,A
   \   0000ED   A3           INC     DPTR
   \   0000EE   ED           MOV     A,R5
   \   0000EF   F0           MOVX    @DPTR,A
    291              Key_SimpleDesc[keyCnt]->EndPoint += keyCnt;
   \   0000F0   90....       MOV     DPTR,#keyCnt
   \   0000F3   E0           MOVX    A,@DPTR
   \   0000F4   F8           MOV     R0,A
   \   0000F5   8A82         MOV     DPL,R2
   \   0000F7   8B83         MOV     DPH,R3
   \   0000F9   E0           MOVX    A,@DPTR
   \   0000FA   F9           MOV     R1,A
   \   0000FB   A3           INC     DPTR
   \   0000FC   E0           MOVX    A,@DPTR
   \   0000FD   F583         MOV     DPH,A
   \   0000FF   8982         MOV     DPL,R1
   \   000101   E0           MOVX    A,@DPTR
   \   000102   28           ADD     A,R0
   \   000103   12....       LCALL   ?Subroutine0 & 0xFFFF
    292              Key_epDesc[keyCnt]->latencyReq = noLatencyReqs;
   \                     ??CrossCallReturnLabel_0:
   \   000106   FA           MOV     R2,A
   \   000107   A3           INC     DPTR
   \   000108   E0           MOVX    A,@DPTR
   \   000109   FB           MOV     R3,A
   \   00010A   8A82         MOV     DPL,R2
   \   00010C   8B83         MOV     DPH,R3
   \   00010E   A3           INC     DPTR
   \   00010F   A3           INC     DPTR
   \   000110   A3           INC     DPTR
   \   000111   A3           INC     DPTR
   \   000112   A3           INC     DPTR
   \   000113   E4           CLR     A
   \   000114   F0           MOVX    @DPTR,A
    293              
    294              // Register the endpoint description with the AF
    295              afRegister( Key_epDesc[keyCnt] );
   \   000115                ; Setup parameters for call to function afRegister
   \   000115   12....       LCALL   ??afRegister?relay
    296            
    297            if ( create )
   \   000118   E5..         MOV     A,?V0 + 1
   \   00011A   7003         JNZ     $+5
   \   00011C   02....       LJMP    ??Key_BindDevice_0 & 0xFFFF
    298            {
    299              if (key_bindInProgress == 0xffff)
   \   00011F   90....       MOV     DPTR,#key_bindInProgress
   \   000122   E0           MOVX    A,@DPTR
   \   000123   F4           CPL     A
   \   000124   7003         JNZ     ??Key_BindDevice_1
   \   000126   A3           INC     DPTR
   \   000127   E0           MOVX    A,@DPTR
   \   000128   F4           CPL     A
   \                     ??Key_BindDevice_1:
   \   000129   6003         JZ      $+5
   \   00012B   02....       LJMP    ??CrossCallReturnLabel_32 & 0xFFFF
    300              {
    301                if ( pDestination )
   \   00012E   EE           MOV     A,R6
   \   00012F   4F           ORL     A,R7
   \   000130   604E         JZ      ??Key_BindDevice_2
    302                {
    303                  destination.addrMode = Addr64Bit;
   \   000132   7408         MOV     A,#0x8
   \   000134   12....       LCALL   ?XSTACK_DISP0_8
   \   000137   7403         MOV     A,#0x3
   \   000139   F0           MOVX    @DPTR,A
    304                  osal_cpyExtAddr( destination.addr.extAddr, pDestination );
   \   00013A                ; Setup parameters for call to function sAddrExtCpy
   \   00013A   EE           MOV     A,R6
   \   00013B   FC           MOV     R4,A
   \   00013C   EF           MOV     A,R7
   \   00013D   FD           MOV     R5,A
   \   00013E   85..82       MOV     DPL,?XSP + 0
   \   000141   85..83       MOV     DPH,?XSP + 1
   \   000144   AA82         MOV     R2,DPL
   \   000146   AB83         MOV     R3,DPH
   \   000148   12....       LCALL   ??sAddrExtCpy?relay
    305                    // srcEndpoint, dstEndpoint
    306                  ret = APSME_BindRequest( endpoint, commandId[0],
    307                                                      &destination, endpoint );
    308          
    309                  if ( ret == ZSuccess )
   \   00014B                ; Setup parameters for call to function APSME_BindRequest
   \   00014B   E5..         MOV     A,?V0 + 0
   \   00014D   F5..         MOV     ?V0 + 2,A
   \   00014F   78..         MOV     R0,#?V0 + 2
   \   000151   12....       LCALL   ?PUSH_XSTACK_I_ONE
   \   000154   7401         MOV     A,#0x1
   \   000156   12....       LCALL   ?XSTACK_DISP0_8
   \   000159   AC82         MOV     R4,DPL
   \   00015B   AD83         MOV     R5,DPH
   \   00015D   12....       LCALL   ?Subroutine7 & 0xFFFF
   \                     ??CrossCallReturnLabel_36:
   \   000160   A9..         MOV     R1,?V0 + 0
   \   000162   12....       LCALL   ??APSME_BindRequest?relay
   \   000165   7401         MOV     A,#0x1
   \   000167   12....       LCALL   ?DEALLOC_XSTACK8
   \   00016A   E9           MOV     A,R1
   \   00016B   6003         JZ      $+5
   \   00016D   02....       LJMP    ??CrossCallReturnLabel_32 & 0xFFFF
    310                  {
    311                    // Find nwk addr
    312                    ZDP_NwkAddrReq(pDestination, ZDP_ADDR_REQTYPE_SINGLE, 0, 0 );
   \   000170                ; Setup parameters for call to function ZDP_NwkAddrReq
   \   000170   7D00         MOV     R5,#0x0
   \   000172   7C00         MOV     R4,#0x0
   \   000174   7900         MOV     R1,#0x0
   \   000176   EE           MOV     A,R6
   \   000177   FA           MOV     R2,A
   \   000178   EF           MOV     A,R7
   \   000179   FB           MOV     R3,A
   \   00017A   12....       LCALL   ??ZDP_NwkAddrReq?relay
    313                    osal_start_timerEx( ZDAppTaskID, ZDO_NWK_UPDATE_NV, 250 );
   \   00017D                ; Setup parameters for call to function osal_start_timerEx
   \   00017D   02....       LJMP    ??Key_BindDevice_3 & 0xFFFF
    314                  }
    315                }
    316                else
    317                {
    318                  ret = ZB_INVALID_PARAMETER;
    319                  destination.addrMode = Addr16Bit;
   \                     ??Key_BindDevice_2:
   \   000180   7408         MOV     A,#0x8
   \   000182   12....       LCALL   ?XSTACK_DISP0_8
   \   000185   7402         MOV     A,#0x2
   \   000187   F0           MOVX    @DPTR,A
    320                  destination.addr.shortAddr = NWK_BROADCAST_SHORTADDR;
   \   000188   85..82       MOV     DPL,?XSP + 0
   \   00018B   85..83       MOV     DPH,?XSP + 1
   \   00018E   74FF         MOV     A,#-0x1
   \   000190   F0           MOVX    @DPTR,A
   \   000191   A3           INC     DPTR
   \   000192   12....       LCALL   ?Subroutine0 & 0xFFFF
    321                  if ( ZDO_AnyClusterMatches( KEY_MAX_CLUSTERS, commandId, Key_epDesc[keyCnt]->simpleDesc->AppNumOutClusters,
    322                                                          Key_epDesc[keyCnt]->simpleDesc->pAppOutClusterList ) )
   \                     ??CrossCallReturnLabel_1:
   \   000195   12....       LCALL   ?Subroutine2 & 0xFFFF
   \                     ??CrossCallReturnLabel_4:
   \   000198   A3           INC     DPTR
   \   000199   A3           INC     DPTR
   \   00019A   A3           INC     DPTR
   \   00019B   12....       LCALL   ?PUSH_XSTACK8_X_TWO
   \   00019E   12....       LCALL   ?Subroutine4 & 0xFFFF
   \                     ??CrossCallReturnLabel_8:
   \   0001A1   A3           INC     DPTR
   \   0001A2   A3           INC     DPTR
   \   0001A3   A3           INC     DPTR
   \   0001A4   12....       LCALL   ?Subroutine5 & 0xFFFF
   \                     ??CrossCallReturnLabel_10:
   \   0001A7   12....       LCALL   ?DEALLOC_XSTACK8
   \   0001AA   E9           MOV     A,R1
   \   0001AB   6062         JZ      ??Key_BindDevice_4
    323                  {
    324                    // Try to match with a device in the allow bind mode
    325                    ret = ZDP_MatchDescReq( &destination, NWK_BROADCAST_SHORTADDR,
    326                        Key_epDesc[keyCnt]->simpleDesc->AppProfId, KEY_MAX_CLUSTERS, commandId, KEY_MAX_CLUSTERS, commandId, 0 );
    327                  }
    328                  else if ( ZDO_AnyClusterMatches( KEY_MAX_CLUSTERS, commandId, Key_epDesc[keyCnt]->simpleDesc->AppNumInClusters,
    329                                                          Key_epDesc[keyCnt]->simpleDesc->pAppInClusterList ) )
    330                  {
    331                    ret = ZDP_MatchDescReq( &destination, NWK_BROADCAST_SHORTADDR,
    332                        Key_epDesc[keyCnt]->simpleDesc->AppProfId, KEY_MAX_CLUSTERS, commandId, KEY_MAX_CLUSTERS, commandId, 0 );
    333                  }
    334          
    335                  if ( ret == ZB_SUCCESS )
   \                     ??Key_BindDevice_5:
   \   0001AD                ; Setup parameters for call to function ZDP_MatchDescReq
   \   0001AD   75..00       MOV     ?V0 + 2,#0x0
   \   0001B0   78..         MOV     R0,#?V0 + 2
   \   0001B2   12....       LCALL   ?PUSH_XSTACK_I_ONE
   \   0001B5   78..         MOV     R0,#?V0 + 8
   \   0001B7   12....       LCALL   ?PUSH_XSTACK_I_TWO
   \   0001BA   75..04       MOV     ?V0 + 2,#0x4
   \   0001BD   78..         MOV     R0,#?V0 + 2
   \   0001BF   12....       LCALL   ?PUSH_XSTACK_I_ONE
   \   0001C2   78..         MOV     R0,#?V0 + 8
   \   0001C4   12....       LCALL   ?PUSH_XSTACK_I_TWO
   \   0001C7   12....       LCALL   ?Subroutine1 & 0xFFFF
   \                     ??CrossCallReturnLabel_3:
   \   0001CA   A3           INC     DPTR
   \   0001CB   12....       LCALL   ?PUSH_XSTACK8_X_TWO
   \   0001CE   7904         MOV     R1,#0x4
   \   0001D0   7CFF         MOV     R4,#-0x1
   \   0001D2   7DFF         MOV     R5,#-0x1
   \   0001D4   7408         MOV     A,#0x8
   \   0001D6   12....       LCALL   ?XSTACK_DISP0_8
   \   0001D9   AA82         MOV     R2,DPL
   \   0001DB   AB83         MOV     R3,DPH
   \   0001DD   12....       LCALL   ??ZDP_MatchDescReq?relay
   \   0001E0   7408         MOV     A,#0x8
   \   0001E2   12....       LCALL   ?DEALLOC_XSTACK8
   \   0001E5   E9           MOV     A,R1
   \   0001E6   7055         JNZ     ??CrossCallReturnLabel_32
    336                  {
    337                    // Set a timer to make sure bind completes
    338          #if ( ZG_BUILD_RTR_TYPE )
    339                    osal_start_timerEx(Key_TaskID, KEY_BIND_TIMER, AIB_MaxBindingTime);
   \   0001E8                ; Setup parameters for call to function osal_start_timerEx
   \   0001E8   90....       MOV     DPTR,#AIB_MaxBindingTime
   \   0001EB   E0           MOVX    A,@DPTR
   \   0001EC   FC           MOV     R4,A
   \   0001ED   A3           INC     DPTR
   \   0001EE   E0           MOVX    A,@DPTR
   \   0001EF   FD           MOV     R5,A
   \   0001F0   7A21         MOV     R2,#0x21
   \   0001F2   7B00         MOV     R3,#0x0
   \   0001F4   90....       MOV     DPTR,#Key_TaskID
   \   0001F7   12....       LCALL   ??Subroutine18_0 & 0xFFFF
    340          #else
    341                    // AIB_MaxBindingTime is not defined for an End Device
    342                    osal_start_timerEx(Key_TaskID, KEY_BIND_TIMER, zgApsDefaultMaxBindingTime);
    343          #endif
    344                    key_bindInProgress = commandId[0];
   \                     ??CrossCallReturnLabel_33:
   \   0001FA   85..82       MOV     DPL,?V0 + 8
   \   0001FD   85..83       MOV     DPH,?V0 + 9
   \   000200   E0           MOVX    A,@DPTR
   \   000201   F8           MOV     R0,A
   \   000202   A3           INC     DPTR
   \   000203   E0           MOVX    A,@DPTR
   \   000204   F9           MOV     R1,A
   \   000205   90....       MOV     DPTR,#key_bindInProgress
   \   000208   E8           MOV     A,R0
   \   000209   F0           MOVX    @DPTR,A
   \   00020A   A3           INC     DPTR
   \   00020B   E9           MOV     A,R1
   \   00020C   F0           MOVX    @DPTR,A
    345                    return; // dont send cback event
   \   00020D   802E         SJMP    ??CrossCallReturnLabel_32
    346                  }
   \                     ??Key_BindDevice_4:
   \   00020F   12....       LCALL   ?Subroutine14 & 0xFFFF
    347                }
    348              }
    349          
    350            //  SAPI_SendCback( SAPICB_BIND_CNF, ret, commandId );
    351            }
   \                     ??CrossCallReturnLabel_22:
   \   000212   12....       LCALL   ?Subroutine11 & 0xFFFF
   \                     ??CrossCallReturnLabel_17:
   \   000215   12....       LCALL   ?Subroutine2 & 0xFFFF
   \                     ??CrossCallReturnLabel_5:
   \   000218   12....       LCALL   ?PUSH_XSTACK8_X_TWO
   \   00021B   12....       LCALL   ?Subroutine4 & 0xFFFF
   \                     ??CrossCallReturnLabel_9:
   \   00021E   12....       LCALL   ?Subroutine5 & 0xFFFF
   \                     ??CrossCallReturnLabel_11:
   \   000221   12....       LCALL   ?DEALLOC_XSTACK8
   \   000224   E9           MOV     A,R1
   \   000225   7086         JNZ     ??Key_BindDevice_5
   \   000227   8014         SJMP    ??CrossCallReturnLabel_32
    352            else
    353            {
    354              // Remove local bindings for the commandId
    355              BindingEntry_t *pBind;
    356          
    357              // Loop through bindings an remove any that match the cluster
    358              while ( pBind = bindFind( endpoint, commandId[0], 0 ) )
    359              {
    360                bindRemoveEntry(pBind);
   \                     ??Key_BindDevice_6:
   \   000229                ; Setup parameters for call to function bindRemoveEntry
   \   000229   12....       LCALL   ??bindRemoveEntry?relay
    361              }
   \                     ??Key_BindDevice_0:
   \   00022C                ; Setup parameters for call to function bindFind
   \   00022C   7C00         MOV     R4,#0x0
   \   00022E   12....       LCALL   ?Subroutine7 & 0xFFFF
   \                     ??CrossCallReturnLabel_37:
   \   000231   A9..         MOV     R1,?V0 + 0
   \   000233   12....       LCALL   ??bindFind?relay
   \   000236   EA           MOV     A,R2
   \   000237   4B           ORL     A,R3
   \   000238   70EF         JNZ     ??Key_BindDevice_6
    362              osal_start_timerEx( ZDAppTaskID, ZDO_NWK_UPDATE_NV, 250 );
   \   00023A                ; Setup parameters for call to function osal_start_timerEx
    363            }
   \                     ??Key_BindDevice_3:
   \   00023A   12....       LCALL   ?Subroutine9 & 0xFFFF
   \                     ??CrossCallReturnLabel_32:
   \   00023D   7415         MOV     A,#0x15
   \   00023F   12....       LCALL   ?DEALLOC_XSTACK8
   \   000242   7F0A         MOV     R7,#0xa
   \   000244   02....       LJMP    ?BANKED_LEAVE_XDATA
    364            return;
    365          }

   \                                 In  segment BANKED_CODE, align 1, keep-with-next
   \                     ?Subroutine11:
   \   000000   12....       LCALL   ?Subroutine16 & 0xFFFF
   \                     ??CrossCallReturnLabel_25:
   \   000003   22           RET

   \                                 In  segment BANKED_CODE, align 1, keep-with-next
   \                     ?Subroutine8:
   \   000000   F583         MOV     DPH,A
   \   000002   12....       LCALL   ?Subroutine13 & 0xFFFF
   \                     ??CrossCallReturnLabel_21:
   \   000005   22           RET

   \                                 In  segment BANKED_CODE, align 1, keep-with-next
   \                     ?Subroutine13:
   \   000000   12....       LCALL   ?Subroutine15 & 0xFFFF
   \                     ??CrossCallReturnLabel_41:
   \   000003   A3           INC     DPTR
   \   000004   22           RET

   \                                 In  segment BANKED_CODE, align 1, keep-with-next
   \                     ?Subroutine7:
   \   000000   85..82       MOV     DPL,?V0 + 8
   \   000003   85..83       MOV     DPH,?V0 + 9
   \   000006                REQUIRE ??Subroutine19_0
   \   000006                ; // Fall through to label ??Subroutine19_0

   \                                 In  segment BANKED_CODE, align 1, keep-with-next
   \                     ?Subroutine6:
   \   000000   12....       LCALL   ?Subroutine14 & 0xFFFF
   \                     ??CrossCallReturnLabel_23:
   \   000003   74..         MOV     A,#Key_SimpleDesc & 0xff
   \   000005   28           ADD     A,R0
   \   000006   22           RET

   \                                 In  segment BANKED_CODE, align 1, keep-with-next
   \                     ?Subroutine5:
   \   000000   E0           MOVX    A,@DPTR
   \   000001   FC           MOV     R4,A
   \   000002   AA..         MOV     R2,?V0 + 8
   \   000004   AB..         MOV     R3,?V0 + 9
   \   000006   7904         MOV     R1,#0x4
   \   000008   12....       LCALL   ??ZDO_AnyClusterMatches?relay
   \   00000B   7402         MOV     A,#0x2
   \   00000D   22           RET

   \                                 In  segment BANKED_CODE, align 1, keep-with-next
   \                     ?Subroutine4:
   \   000000   8882         MOV     DPL,R0
   \   000002   8983         MOV     DPH,R1
   \   000004   12....       LCALL   ?Subroutine13 & 0xFFFF
   \                     ??CrossCallReturnLabel_20:
   \   000007   A3           INC     DPTR
   \   000008   A3           INC     DPTR
   \   000009   A3           INC     DPTR
   \   00000A   A3           INC     DPTR
   \   00000B   A3           INC     DPTR
   \   00000C   22           RET

   \                                 In  segment BANKED_CODE, align 1, keep-with-next
   \                     ?Subroutine2:
   \   000000   2403         ADD     A,#0x3
   \   000002   F8           MOV     R0,A
   \   000003   A3           INC     DPTR
   \   000004   E0           MOVX    A,@DPTR
   \   000005   3400         ADDC    A,#0x0
   \   000007   F9           MOV     R1,A
   \   000008                ; Setup parameters for call to function ZDO_AnyClusterMatches
   \   000008                ; Setup parameters for call to function ZDO_AnyClusterMatches
   \   000008   8882         MOV     DPL,R0
   \   00000A   8983         MOV     DPH,R1
   \   00000C   E0           MOVX    A,@DPTR
   \   00000D   FA           MOV     R2,A
   \   00000E   A3           INC     DPTR
   \   00000F   E0           MOVX    A,@DPTR
   \   000010   F583         MOV     DPH,A
   \   000012   8A82         MOV     DPL,R2
   \   000014   A3           INC     DPTR
   \   000015   A3           INC     DPTR
   \   000016   A3           INC     DPTR
   \   000017   A3           INC     DPTR
   \   000018   A3           INC     DPTR
   \   000019   A3           INC     DPTR
   \   00001A   A3           INC     DPTR
   \   00001B   22           RET

   \                                 In  segment BANKED_CODE, align 1, keep-with-next
   \                     ?Subroutine0:
   \   000000   F0           MOVX    @DPTR,A
   \   000001   12....       LCALL   ?Subroutine12 & 0xFFFF
   \                     ??CrossCallReturnLabel_18:
   \   000004   22           RET
    366          
    367          
    368          /*********************************************************************
    369           * @fn      Key_HandleKeys
    370           *
    371           * @brief   Handles all key events for this device.
    372           *
    373           * @param   shift - true if in shift/alt.
    374           * @param   keys - bit field for key events. Valid entries:
    375           *                 HAL_KEY_SW_4
    376           *                 HAL_KEY_SW_3
    377           *                 HAL_KEY_SW_2
    378           *                 HAL_KEY_SW_1
    379           *
    380           * @return  none
    381           */

   \                                 In  segment BANKED_CODE, align 1, keep-with-next
    382          void Key_HandleKeys( byte shift, byte keys )
   \                     Key_HandleKeys:
    383          {
   \   000000   C082         PUSH    DPL
   \   000002   C083         PUSH    DPH
   \   000004                ; Saved register size: 2
   \   000004                ; Auto size: 0
    384            // Shift is used to make each key/switch dual purpose.
    385            if ( shift )
   \   000004   E9           MOV     A,R1
   \   000005   700E         JNZ     ??Key_HandleKeys_0
    386            {
    387              if ( keys & HAL_KEY_SW_1 )
    388              {
    389              }
    390              if ( keys & HAL_KEY_SW_2 )
    391              {
    392              }
    393              if ( keys & HAL_KEY_SW_3 )
    394              {
    395              }
    396              if ( keys & HAL_KEY_SW_6 )
    397              {
    398                 
    399              }
    400            }
    401            else
    402            {
    403              if ( keys & HAL_KEY_SW_1 )
   \   000007   EA           MOV     A,R2
   \   000008   A2E0         MOV     C,0xE0 /* A   */.0
   \   00000A   5009         JNC     ??Key_HandleKeys_0
    404              {
    405                if(myAppState == APP_INIT) {
   \   00000C   90....       MOV     DPTR,#myAppState
   \   00000F   E0           MOVX    A,@DPTR
   \   000010   7003         JNZ     ??Key_HandleKeys_0
    406                  
    407                  myAppState = APP_START;
   \   000012   7401         MOV     A,#0x1
   \   000014   F0           MOVX    @DPTR,A
    408                }
    409                else
    410                {
    411                  
    412                }
    413              }
    414          
    415              if ( keys & HAL_KEY_SW_2 )
    416              {
    417              }
    418          
    419              if ( keys & HAL_KEY_SW_3 )
    420              {
    421              }
    422          
    423              // æ˜¯ç”¨æ¥æŸ¥æ‰¾æœ‰æ²¡æœ‰ä¸œè¥¿å¯ä»¥åŒ¹é…çš?    if ( keys & HAL_KEY_SW_4 )
    424              {/*
    425                HalLedSet ( HAL_LED_4, HAL_LED_MODE_OFF );
    426                // Initiate a Match Description Request (Service Discovery)
    427                dstAddr.addrMode = AddrBroadcast;
    428                dstAddr.addr.shortAddr = NWK_BROADCAST_SHORTADDR;
    429                ZDP_MatchDescReq( &dstAddr, NWK_BROADCAST_SHORTADDR,
    430                                  SYS_PROFID,
    431                                  SYS_MAX_CLUSTERS, (cId_t *)Key_ClusterList,
    432                                  SYS_MAX_CLUSTERS, (cId_t *)Key_ClusterList,
    433                                  FALSE );
    434                                  */
    435              }
    436            }
    437          }
   \                     ??Key_HandleKeys_0:
   \   000015   D083         POP     DPH
   \   000017   D082         POP     DPL
   \   000019   02....       LJMP    ?BRET

   \                                 In  segment XDATA_ID, align 1, keep-with-next
   \                     `?<Initializer for Key_ClusterList>`:
   \   000000   0100         DW 1
   \   000002   0200         DW 2
   \   000004   0400         DW 4
   \   000006   0000         DW 0

   \                                 In  segment BANK_RELAYS, align 1
   \                     ??Key_Init?relay:
   \   000000   12....       LCALL   ?BDISPATCH
   \   000003   ......       DC24    Key_Init

   \                                 In  segment BANK_RELAYS, align 1
   \                     ??Key_ProcessEvent?relay:
   \   000000   12....       LCALL   ?BDISPATCH
   \   000003   ......       DC24    Key_ProcessEvent

   \                                 In  segment BANK_RELAYS, align 1
   \                     ??Key_ProcessZDOMsgs?relay:
   \   000000   12....       LCALL   ?BDISPATCH
   \   000003   ......       DC24    Key_ProcessZDOMsgs

   \                                 In  segment BANK_RELAYS, align 1
   \                     ??Key_BindDevice?relay:
   \   000000   12....       LCALL   ?BDISPATCH
   \   000003   ......       DC24    Key_BindDevice

   \                                 In  segment BANK_RELAYS, align 1
   \                     ??Key_HandleKeys?relay:
   \   000000   12....       LCALL   ?BDISPATCH
   \   000003   ......       DC24    Key_HandleKeys

   \                                 In  segment XDATA_ROM_C, align 1
   \                     `?<Constant {10, 3844, 1, 0, 0, 4, Key_ClusterL`:
   \   000000   0A           DB 10
   \   000001   040F         DW 3844
   \   000003   0100         DW 1
   \   000005   00           DB 0
   \   000006   04           DB 4
   \   000007   ....         DW Key_ClusterList
   \   000009   04           DB 4
   \   00000A   ....         DW Key_ClusterList
    438          
    439          
    440          /******************************************************************************
    441           * @fn          Key_ReceiveDataIndication
    442           *
    443           * @brief       The SAPI_ReceiveDataIndication callback function is called
    444           *              asynchronously by the ZigBee stack to notify the application
    445           *              when data is received from a peer device.
    446           *
    447           * @param       source - The short address of the peer device that sent the data
    448           *              command - The commandId associated with the data
    449           *              len - The number of bytes in the pData parameter
    450           *              pData - The data sent by the peer device
    451           *
    452           * @return      none
    453           */
    454          void Key_ReceiveDataIndication( uint16 source, uint8 endPoint, uint16 command, uint16 len, uint8 *pData  )
    455          {
    456            uint8 *buff = (uint8 *)osal_mem_alloc(sizeof(uint8)*(len+1));
    457            uint8 i;
    458            buff[0] = endPoint - KEY_ENDPOINT;
    459            for(i=1; i<len+1; i++,pData++)
    460            {
    461              buff[i] = *pData;
    462            }
    463            if(command == OPERATE_CLUSTER)
    464            {
    465              HalUARTWrite(0, buff, (byte)osal_strlen( buff ) + 1);
                                                              ^
Warning[Pe167]: argument of type "unsigned char *" is incompatible with
          parameter of type "char *"
    466            }
    467          }
    468          
    469          
    470          /*********************************
    471           * CALLBACK FUNCTIONS   */
    472          /******************************************************************************
    473           * @fn          SAPI_BindConfirm
    474           *
    475           * @brief       The SAPI_BindConfirm callback is called by the ZigBee stack
    476           *              after a bind operation completes.
    477           *
    478           * @param       commandId - The command ID of the binding being confirmed.
    479           *              status - The status of the bind operation.
    480           *              allowBind - TRUE if the bind operation was initiated by a call
    481           *                          to zb_AllowBindRespones.  FALSE if the operation
    482           *                          was initiated by a call to ZB_BindDevice
    483           *
    484           * @return      none
    485           */
    486          void SAPI_BindConfirm( uint16 commandId, uint8 status )
    487          {
    488              Sys_BindConfirm( commandId, status );
    489          }

   Maximum stack usage in bytes:

     Function                   ISTACK PSTACK XSTACK
     --------                   ------ ------ ------
     Key_BindDevice                 2      0     71
       -> osal_mem_alloc            0      0     78
       -> osal_mem_alloc            0      0     78
       -> osal_memcpy               0      0     84
       -> afRegister                0      0     78
       -> sAddrExtCpy               0      0     78
       -> APSME_BindRequest         0      0     80
       -> ZDP_NwkAddrReq            0      0     78
       -> osal_start_timerEx        0      0     78
       -> ZDO_AnyClusterMatches     0      0     82
       -> ZDP_MatchDescReq          0      0     94
       -> osal_start_timerEx        0      0     78
       -> ZDO_AnyClusterMatches     0      0     82
       -> bindRemoveEntry           0      0     78
       -> bindFind                  0      0     78
       -> osal_start_timerEx        0      0     78
     Key_HandleKeys                 2      0     22
     Key_Init                       0      0      9
       -> RegisterForKeys           0      0     18
       -> ZDO_RegisterForZDOMsg     0      0     18
     Key_ProcessEvent               1      0     24
       -> osal_msg_receive          0      0     44
       -> osal_strlen               0      0     44
       -> HalUARTWrite              0      0     44
       -> osal_msg_deallocate       0      0     44
       -> osal_msg_receive          0      0     44
       -> Key_ProcessZDOMsgs        0      0     44
       -> Key_HandleKeys            0      0     44
       -> osal_mem_alloc            0      0     44
       -> Key_BindDevice            0      0     48
       -> Sys_BindConfirm           0      0     44
     Key_ProcessZDOMsgs             0      0     43
       -> ZDO_ParseEPListRsp        0      0     40
       -> APSME_BindRequest         0      0     42
       -> osal_stop_timerEx         0      0     40
       -> osal_start_timerEx        0      0     40
       -> ZDP_IEEEAddrReq           0      0     40
       -> Sys_BindConfirm           0      0     40


   Segment part sizes:

     Function/Label                                 Bytes
     --------------                                 -----
     Key_TaskID                                        1
     keyCnt                                            1
     Key_ClusterList                                   8
     Key_SimpleDesc                                  100
     Key_epDesc                                      100
     Key_DstAddr                                      12
     key_bindInProgress                                2
     Key_Init                                         55
     Key_ProcessEvent                                349
     ?Subroutine10                                     4
     ??Subroutine17_0                                  6
     ?Subroutine3                                     20
     Key_ProcessZDOMsgs                              208
     ?Subroutine9                                     11
     ??Subroutine18_0                                  6
     ??Subroutine19_0                                  6
     ?Subroutine14                                    11
     ?Subroutine1                                     13
     ?Subroutine15                                     1
     ??Subroutine20_0                                  8
     ?Subroutine12                                     7
     ?Subroutine16                                    12
     Key_BindDevice                                  583
     ?Subroutine11                                     4
     ?Subroutine8                                      6
     ?Subroutine13                                     5
     ?Subroutine7                                      6
     ?Subroutine6                                      7
     ?Subroutine5                                     14
     ?Subroutine4                                     13
     ?Subroutine2                                     28
     ?Subroutine0                                      5
     Key_HandleKeys                                   28
     ?<Initializer for Key_ClusterList>                8
     ??Key_Init?relay                                  6
     ??Key_ProcessEvent?relay                          6
     ??Key_ProcessZDOMsgs?relay                        6
     ??Key_BindDevice?relay                            6
     ??Key_HandleKeys?relay                            6
     ?<Constant {10, 3844, 1, 0, 0, 4, Key_ClusterL   12

 
 1 416 bytes in segment BANKED_CODE
    30 bytes in segment BANK_RELAYS
     8 bytes in segment XDATA_I
     8 bytes in segment XDATA_ID
    12 bytes in segment XDATA_ROM_C
   216 bytes in segment XDATA_Z
 
 1 454 bytes of CODE  memory
    12 bytes of CONST memory
   224 bytes of XDATA memory

Errors: none
Warnings: 1
