###############################################################################
#                                                                             #
# IAR C/C++ Compiler V8.10.3.10338/W32 for 8051         30/Mar/2018  16:46:35 #
# Copyright 2004-2011 IAR Systems AB.                                         #
#                                                                             #
#    Core               =  plain                                              #
#    Code model         =  banked                                             #
#    Data model         =  large                                              #
#    Calling convention =  xdata reentrant                                    #
#    Constant location  =  data_rom                                           #
#    Dptr setup         =  1,16                                               #
#    Source file        =  D:\ProgramData\Hardware\zigbee\Projects\zstack\Sam #
#                          ples\SensorSys\Source\Led_Coor.c                   #
#    Command line       =  -f D:\ProgramData\Hardware\zigbee\Projects\zstack\ #
#                          Samples\SensorSys\CC2530DB\..\..\..\Tools\CC2530DB #
#                          \f8wCoord.cfg (-DCPU32MHZ -DROOT=__near_func       #
#                          -DMAC_CFG_APP_PENDING_QUEUE=TRUE                   #
#                          -DMAC_CFG_TX_DATA_MAX=5 -DMAC_CFG_TX_MAX=8         #
#                          -DMAC_CFG_RX_MAX=5 -DZDO_COORDINATOR -DRTR_NWK)    #
#                          -f D:\ProgramData\Hardware\zigbee\Projects\zstack\ #
#                          Samples\SensorSys\CC2530DB\..\..\..\Tools\CC2530DB #
#                          \f8wConfig.cfg (-DZIGBEEPRO -DSECURE=0             #
#                          -DZG_SECURE_DYNAMIC=0 -DREFLECTOR                  #
#                          -DDEFAULT_CHANLIST=0x00000800                      #
#                          -DZDAPP_CONFIG_PAN_ID=0xFFF1                       #
#                          -DNWK_START_DELAY=100 -DEXTENDED_JOINING_RANDOM_MA #
#                          SK=0x007F -DBEACON_REQUEST_DELAY=100               #
#                          -DBEACON_REQ_DELAY_MASK=0x00FF                     #
#                          -DLINK_STATUS_JITTER_MASK=0x007F                   #
#                          -DROUTE_EXPIRY_TIME=30 -DAPSC_ACK_WAIT_DURATION_PO #
#                          LLED=3000 -DNWK_INDIRECT_MSG_TIMEOUT=7             #
#                          -DMAX_RREQ_ENTRIES=8 -DAPSC_MAX_FRAME_RETRIES=3    #
#                          -DNWK_MAX_DATA_RETRIES=2                           #
#                          -DMAX_POLL_FAILURE_RETRIES=2 -DMAX_BCAST=9         #
#                          -DAPS_MAX_GROUPS=16 -DMAX_RTG_ENTRIES=40           #
#                          -DNWK_MAX_BINDING_ENTRIES=4                        #
#                          -DMAX_BINDING_CLUSTER_IDS=4 "-DDEFAULT_KEY={0x01,  #
#                          0x03, 0x05, 0x07, 0x09, 0x0B, 0x0D, 0x0F, 0x00,    #
#                          0x02, 0x04, 0x06, 0x08, 0x0A, 0x0C, 0x0D}"         #
#                          -DMAC_MAX_FRAME_SIZE=116                           #
#                          -DZDNWKMGR_MIN_TRANSMISSIONS=20 "-DCONST=const     #
#                          __code" -DGENERIC=__generic                        #
#                          -DRFD_RCVC_ALWAYS_ON=TRUE -DPOLL_RATE=1000         #
#                          -DQUEUED_POLL_RATE=100 -DRESPONSE_POLL_RATE=100)   #
#                          -DREJOIN_POLL_RATE=440 D:\ProgramData\Hardware\zig #
#                          bee\Projects\zstack\Samples\SensorSys\Source\Led_C #
#                          oor.c -D HOLD_AUTO_START -D BUILD_ALL_DEVICES -D   #
#                          REFLECTOR -D NV_INIT -D xNV_RESTORE -D xZTOOL_P1   #
#                          -D xMT_TASK -D xMT_SYS_FUNC -D xMT_SAPI_FUNC -D    #
#                          xMT_SAPI_CB_FUNC -lC D:\ProgramData\Hardware\zigbe #
#                          e\Projects\zstack\Samples\SensorSys\CC2530DB\Coord #
#                          inatorEB\List\ -lA D:\ProgramData\Hardware\zigbee\ #
#                          Projects\zstack\Samples\SensorSys\CC2530DB\Coordin #
#                          atorEB\List\ --diag_suppress Pe001,Pa010 -o        #
#                          D:\ProgramData\Hardware\zigbee\Projects\zstack\Sam #
#                          ples\SensorSys\CC2530DB\CoordinatorEB\Obj\ -e      #
#                          --no_code_motion --debug --core=plain --dptr=16,1  #
#                          --data_model=large --code_model=banked             #
#                          --calling_convention=xdata_reentrant               #
#                          --place_constants=data_rom --nr_virtual_regs 16    #
#                          -I D:\ProgramData\Hardware\zigbee\Projects\zstack\ #
#                          Samples\SensorSys\CC2530DB\ -I                     #
#                          D:\ProgramData\Hardware\zigbee\Projects\zstack\Sam #
#                          ples\SensorSys\CC2530DB\..\Source\ -I              #
#                          D:\ProgramData\Hardware\zigbee\Projects\zstack\Sam #
#                          ples\SensorSys\CC2530DB\..\..\..\ZMain\TI2530DB\   #
#                          -I D:\ProgramData\Hardware\zigbee\Projects\zstack\ #
#                          Samples\SensorSys\CC2530DB\..\..\..\..\..\Componen #
#                          ts\hal\include\ -I D:\ProgramData\Hardware\zigbee\ #
#                          Projects\zstack\Samples\SensorSys\CC2530DB\..\..\. #
#                          .\..\..\Components\hal\target\CC2530EB\ -I         #
#                          D:\ProgramData\Hardware\zigbee\Projects\zstack\Sam #
#                          ples\SensorSys\CC2530DB\..\..\..\..\..\Components\ #
#                          mac\include\ -I D:\ProgramData\Hardware\zigbee\Pro #
#                          jects\zstack\Samples\SensorSys\CC2530DB\..\..\..\. #
#                          .\..\Components\mac\high_level\ -I                 #
#                          D:\ProgramData\Hardware\zigbee\Projects\zstack\Sam #
#                          ples\SensorSys\CC2530DB\..\..\..\..\..\Components\ #
#                          mac\low_level\srf04\ -I D:\ProgramData\Hardware\zi #
#                          gbee\Projects\zstack\Samples\SensorSys\CC2530DB\.. #
#                          \..\..\..\..\Components\mac\low_level\srf04\single #
#                          _chip\ -I D:\ProgramData\Hardware\zigbee\Projects\ #
#                          zstack\Samples\SensorSys\CC2530DB\..\..\..\..\..\C #
#                          omponents\mt\ -I D:\ProgramData\Hardware\zigbee\Pr #
#                          ojects\zstack\Samples\SensorSys\CC2530DB\..\..\..\ #
#                          ..\..\Components\osal\include\ -I                  #
#                          D:\ProgramData\Hardware\zigbee\Projects\zstack\Sam #
#                          ples\SensorSys\CC2530DB\..\..\..\..\..\Components\ #
#                          services\saddr\ -I D:\ProgramData\Hardware\zigbee\ #
#                          Projects\zstack\Samples\SensorSys\CC2530DB\..\..\. #
#                          .\..\..\Components\services\sdata\ -I              #
#                          D:\ProgramData\Hardware\zigbee\Projects\zstack\Sam #
#                          ples\SensorSys\CC2530DB\..\..\..\..\..\Components\ #
#                          stack\af\ -I D:\ProgramData\Hardware\zigbee\Projec #
#                          ts\zstack\Samples\SensorSys\CC2530DB\..\..\..\..\. #
#                          .\Components\stack\nwk\ -I                         #
#                          D:\ProgramData\Hardware\zigbee\Projects\zstack\Sam #
#                          ples\SensorSys\CC2530DB\..\..\..\..\..\Components\ #
#                          stack\sapi\ -I D:\ProgramData\Hardware\zigbee\Proj #
#                          ects\zstack\Samples\SensorSys\CC2530DB\..\..\..\.. #
#                          \..\Components\stack\sec\ -I                       #
#                          D:\ProgramData\Hardware\zigbee\Projects\zstack\Sam #
#                          ples\SensorSys\CC2530DB\..\..\..\..\..\Components\ #
#                          stack\sys\ -I D:\ProgramData\Hardware\zigbee\Proje #
#                          cts\zstack\Samples\SensorSys\CC2530DB\..\..\..\..\ #
#                          ..\Components\stack\zdo\ -I                        #
#                          D:\ProgramData\Hardware\zigbee\Projects\zstack\Sam #
#                          ples\SensorSys\CC2530DB\..\..\..\..\..\Components\ #
#                          zmac\ -I D:\ProgramData\Hardware\zigbee\Projects\z #
#                          stack\Samples\SensorSys\CC2530DB\..\..\..\..\..\Co #
#                          mponents\zmac\f8w\ -Ohz --require_prototypes       #
#    List file          =  D:\ProgramData\Hardware\zigbee\Projects\zstack\Sam #
#                          ples\SensorSys\CC2530DB\CoordinatorEB\List\Led_Coo #
#                          r.lst                                              #
#    Object file        =  D:\ProgramData\Hardware\zigbee\Projects\zstack\Sam #
#                          ples\SensorSys\CC2530DB\CoordinatorEB\Obj\Led_Coor #
#                          .r51                                               #
#                                                                             #
#                                                                             #
###############################################################################

D:\ProgramData\Hardware\zigbee\Projects\zstack\Samples\SensorSys\Source\Led_Coor.c
      1          /*********************************************************************
      2           * INCLUDES
      3           */
      4          #include "OSAL.h"
      5          #include "AF.h"
      6          #include "ZDApp.h"
      7          #include "ZDObject.h"
      8          #include "ZDProfile.h"
      9          #include "sapi.h"
     10          
     11          #include "SensorSys_Coor.h"
     12          #include "device.h"
     13          #include "DebugTrace.h"
     14          
     15          #if !defined( WIN32 )
     16            #include "OnBoard.h"
     17          #endif
     18          
     19          /* HAL */
     20          #include "hal_led.h"
     21          #include "hal_uart.h"
     22          
     23          /*********************************************************************
     24           * MACROS
     25           */
     26          
     27          /*********************************************************************
     28           * CONSTANTS
     29           */
     30          
     31          /*********************************************************************
     32           * TYPEDEFS
     33           */
     34          
     35          /*********************************************************************
     36           * GLOBAL VARIABLES
     37           */

   \                                 In  segment XDATA_Z, align 1, keep-with-next
     38          byte Led_TaskID;
   \                     Led_TaskID:
   \   000000                DS 1
   \   000001                REQUIRE __INIT_XDATA_Z

   \                                 In  segment XDATA_Z, align 1, keep-with-next
     39          uint8 ledCnt;
   \                     ledCnt:
   \   000000                DS 1
   \   000001                REQUIRE __INIT_XDATA_Z
     40          
     41          
     42          // Led Á´ØÁÇπÁöÑÁ∞áID
     43          // This list should be filled with Application specific Cluster IDs.

   \                                 In  segment XDATA_I, align 1, keep-with-next
     44          cId_t Led_ClusterList[LED_MAX_CLUSTERS] =
   \                     Led_ClusterList:
   \   000000                DS 6
   \   000006                REQUIRE `?<Initializer for Led_ClusterList>`
   \   000006                REQUIRE __INIT_XDATA_I
     45          {
     46              LED_LIGHT,
     47              LED_DIM,
     48              LED_FLASH
     49          };
     50          
     51          // Led Á´ØÁÇπÁÆÄÂçïÊèèËø∞Á¨¶

   \                                 In  segment XDATA_I, align 1, keep-with-next
     52          SimpleDescriptionFormat_t Led_SimpleDesc[LED_NUM_MAX] =
   \                     Led_SimpleDesc:
   \   000000                DS 240
   \   0000F0                REQUIRE `?<Initializer for Led_SimpleDesc>`
   \   0000F0                REQUIRE __INIT_XDATA_I
     53          {
     54          	LED_ENDPOINT,           //  int Endpoint;
     55          	SYS_PROFID,                //  uint16 AppProfId[2];
     56          	SYS_DEVICEID,              //  uint16 AppDeviceId[2];
     57          	SYS_DEVICE_VERSION,        //  int   AppDevVer:4;
     58          	SYS_FLAGS,                 //  int   AppFlags:4;
     59          	0,                          //  byte  AppNumInClusters;
     60          	NULL,                       //  byte *pAppInClusterList;
     61          	LED_MAX_CLUSTERS,          //  byte  AppNumOutClusters;
     62          	(cId_t *)Led_ClusterList   //  byte *pAppOutClusterList;
     63          };
     64          

   \                                 In  segment XDATA_Z, align 1, keep-with-next
     65          endPointDesc_t Led_epDesc[LED_NUM_MAX];
   \                     Led_epDesc:
   \   000000                DS 120
   \   000078                REQUIRE __INIT_XDATA_Z
     66          
     67          /*********************************************************************
     68           * EXTERNAL VARIABLES
     69           */
     70          
     71          /*********************************************************************
     72           * EXTERNAL FUNCTIONS
     73           */
     74          
     75          /*********************************************************************
     76           * LOCAL VARIABLES
     77           */

   \                                 In  segment XDATA_Z, align 1, keep-with-next
     78          afAddrType_t Led_DstAddr;
   \                     Led_DstAddr:
   \   000000                DS 12
   \   00000C                REQUIRE __INIT_XDATA_Z

   \                                 In  segment XDATA_Z, align 1, keep-with-next
     79          uint16 led_bindInProgress;
   \                     led_bindInProgress:
   \   000000                DS 2
   \   000002                REQUIRE __INIT_XDATA_Z
     80          
     81          /*********************************************************************
     82           * LOCAL FUNCTIONS
     83           */
     84          void Led_Init( byte task_id );
     85          void Led_ProcessZDOMsgs( zdoIncomingMsg_t *inMsg );
     86          
     87          void Led_BindDevice ( uint8 create, uint8 endpoint, uint16 *commandId, uint8 *pDestination );
     88          
     89          static void SAPI_BindConfirm( uint16 commandId, uint8 status );
     90          /*********************************************************************
     91           * @fn      Led_Init
     92           *
     93           * @brief   Initialization function for the Generic App Task.
     94           *          This is called during initialization and should contain
     95           *          any application specific initialization (ie. hardware
     96           *          initialization/setup, table initialization, power up
     97           *          notificaiton ... ).
     98           *
     99           * @param   task_id - the ID assigned by OSAL.  This ID should be
    100           *                    used to send messages and set timers.
    101           *
    102           * @return  none
    103           */

   \                                 In  segment BANKED_CODE, align 1, keep-with-next
    104          void Led_Init( byte task_id )
   \                     Led_Init:
    105          {
   \   000000   74F7         MOV     A,#-0x9
   \   000002   12....       LCALL   ?BANKED_ENTER_XDATA
   \   000005                ; Saved register size: 9
   \   000005                ; Auto size: 0
   \   000005   E9           MOV     A,R1
    106            char i;
    107            Led_TaskID = task_id;
   \   000006   90....       MOV     DPTR,#Led_TaskID
   \   000009   F0           MOVX    @DPTR,A
    108            ledCnt = 0;
   \   00000A   90....       MOV     DPTR,#ledCnt
   \   00000D   E4           CLR     A
   \   00000E   F0           MOVX    @DPTR,A
    109            
    110            // Device hardware initialization can be added here or in main() (Zmain.c).
    111            // If the hardware is application specific - add it here.
    112            // If the hardware is other parts of the device add it in main().
    113          
    114            Led_DstAddr.addrMode = (afAddrMode_t)AddrNotPresent;
   \   00000F   90....       MOV     DPTR,#Led_DstAddr + 8
   \   000012   F0           MOVX    @DPTR,A
    115            Led_DstAddr.endPoint = 0;
   \   000013   A3           INC     DPTR
   \   000014   F0           MOVX    @DPTR,A
    116            Led_DstAddr.addr.shortAddr = 0;
   \   000015   90....       MOV     DPTR,#Led_DstAddr
   \   000018   F0           MOVX    @DPTR,A
   \   000019   A3           INC     DPTR
   \   00001A   F0           MOVX    @DPTR,A
    117          
    118              for( i=0; i<LED_NUM_MAX; i++)
   \   00001B   FF           MOV     R7,A
    119              {
    120                  // Fill out the endpoint description.
    121                  Led_epDesc[i].endPoint = LED_ENDPOINT+i;
   \                     ??Led_Init_0:
   \   00001C   8F82         MOV     DPL,R7
   \   00001E   A882         MOV     R0,DPL
   \   000020   E8           MOV     A,R0
   \   000021   75F006       MOV     B,#0x6
   \   000024   A4           MUL     AB
   \   000025   FA           MOV     R2,A
   \   000026   ABF0         MOV     R3,B
   \   000028   74..         MOV     A,#Led_epDesc & 0xff
   \   00002A   2A           ADD     A,R2
   \   00002B   FA           MOV     R2,A
   \   00002C   74..         MOV     A,#(Led_epDesc >> 8) & 0xff
   \   00002E   3B           ADDC    A,R3
   \   00002F   FB           MOV     R3,A
   \   000030   743C         MOV     A,#0x3c
   \   000032   2F           ADD     A,R7
   \   000033   8A82         MOV     DPL,R2
   \   000035   8B83         MOV     DPH,R3
   \   000037   F0           MOVX    @DPTR,A
    122                  Led_epDesc[i].task_id = &Led_TaskID;
   \   000038   A3           INC     DPTR
   \   000039   74..         MOV     A,#Led_TaskID & 0xff
   \   00003B   F0           MOVX    @DPTR,A
   \   00003C   A3           INC     DPTR
   \   00003D   74..         MOV     A,#(Led_TaskID >> 8) & 0xff
   \   00003F   F0           MOVX    @DPTR,A
    123                  Led_SimpleDesc[i] = Led_SimpleDesc[0];
   \   000040   E8           MOV     A,R0
   \   000041   75F00C       MOV     B,#0xc
   \   000044   A4           MUL     AB
   \   000045   F8           MOV     R0,A
   \   000046   A9F0         MOV     R1,B
   \   000048   74..         MOV     A,#Led_SimpleDesc & 0xff
   \   00004A   28           ADD     A,R0
   \   00004B   F8           MOV     R0,A
   \   00004C   74..         MOV     A,#(Led_SimpleDesc >> 8) & 0xff
   \   00004E   39           ADDC    A,R1
   \   00004F   F9           MOV     R1,A
   \   000050   90....       MOV     DPTR,#Led_SimpleDesc
   \   000053   E8           MOV     A,R0
   \   000054   FC           MOV     R4,A
   \   000055   E9           MOV     A,R1
   \   000056   FD           MOV     R5,A
   \   000057   740C         MOV     A,#0xc
   \   000059   12....       LCALL   ?MOVE_LONG8_XDATA_XDATA
    124                  Led_epDesc[i].simpleDesc
    125                                                      = (SimpleDescriptionFormat_t *)&(Led_SimpleDesc[i]);
   \   00005C   8A82         MOV     DPL,R2
   \   00005E   8B83         MOV     DPH,R3
   \   000060   A3           INC     DPTR
   \   000061   A3           INC     DPTR
   \   000062   A3           INC     DPTR
   \   000063   E8           MOV     A,R0
   \   000064   F0           MOVX    @DPTR,A
   \   000065   A3           INC     DPTR
   \   000066   E9           MOV     A,R1
   \   000067   F0           MOVX    @DPTR,A
    126                  Led_SimpleDesc[i].EndPoint += i;
   \   000068   8882         MOV     DPL,R0
   \   00006A   8983         MOV     DPH,R1
   \   00006C   E0           MOVX    A,@DPTR
   \   00006D   2F           ADD     A,R7
   \   00006E   F0           MOVX    @DPTR,A
    127                  Led_epDesc[i].latencyReq = noLatencyReqs;
   \   00006F   8A82         MOV     DPL,R2
   \   000071   8B83         MOV     DPH,R3
   \   000073   A3           INC     DPTR
   \   000074   A3           INC     DPTR
   \   000075   A3           INC     DPTR
   \   000076   A3           INC     DPTR
   \   000077   A3           INC     DPTR
   \   000078   E4           CLR     A
   \   000079   F0           MOVX    @DPTR,A
    128                  
    129                  // Register the endpoint description with the AF
    130                  afRegister( &(Led_epDesc[i]) );
   \   00007A                ; Setup parameters for call to function afRegister
   \   00007A   12....       LCALL   ??afRegister?relay
    131              }
   \   00007D   0F           INC     R7
   \   00007E   EF           MOV     A,R7
   \   00007F   C3           CLR     C
   \   000080   9414         SUBB    A,#0x14
   \   000082   4098         JC      ??Led_Init_0
    132          
    133            led_bindInProgress = 0xffff;
   \   000084   90....       MOV     DPTR,#led_bindInProgress
   \   000087   74FF         MOV     A,#-0x1
   \   000089   F0           MOVX    @DPTR,A
   \   00008A   A3           INC     DPTR
   \   00008B   F0           MOVX    @DPTR,A
    134          
    135            ZDO_RegisterForZDOMsg( Led_TaskID, Match_Desc_rsp );
   \   00008C                ; Setup parameters for call to function ZDO_RegisterForZDOMsg
   \   00008C   7A06         MOV     R2,#0x6
   \   00008E   7B80         MOV     R3,#-0x80
   \   000090   90....       MOV     DPTR,#Led_TaskID
   \   000093   E0           MOVX    A,@DPTR
   \   000094   F9           MOV     R1,A
   \   000095   12....       LCALL   ??ZDO_RegisterForZDOMsg?relay
    136          }
   \   000098   7F01         MOV     R7,#0x1
   \   00009A   02....       LJMP    ?BANKED_LEAVE_XDATA
    137          
    138          /*********************************************************************
    139           * @fn      Led_ProcessEvent
    140           *
    141           * @brief   Generic Application Task event processor.  This function
    142           *          is called to process all events for the task.  Events
    143           *          include timers, messages and any other user defined events.
    144           *
    145           * @param   task_id  - The OSAL assigned task ID.
    146           * @param   events - events to process.  This is a bit map and can
    147           *                   contain more than one event.
    148           *
    149           * @return  none
    150           */

   \                                 In  segment BANKED_CODE, align 1, keep-with-next
    151          UINT16 Led_ProcessEvent( byte task_id, UINT16 events )
   \                     Led_ProcessEvent:
    152          {
   \   000000   74F2         MOV     A,#-0xe
   \   000002   12....       LCALL   ?BANKED_ENTER_XDATA
   \   000005                ; Saved register size: 14
   \   000005                ; Auto size: 0
   \   000005   EA           MOV     A,R2
   \   000006   FE           MOV     R6,A
   \   000007   EB           MOV     A,R3
   \   000008   FF           MOV     R7,A
    153            afIncomingMSGPacket_t *MSGpkt = NULL;
    154          
    155            (void)task_id;  // Intentionally unreferenced parameter
    156          
    157            if ( events & SYS_EVENT_MSG )
   \   000009   5480         ANL     A,#0x80
   \   00000B   6035         JZ      ??Led_ProcessEvent_0
    158            {
    159              MSGpkt = (afIncomingMSGPacket_t *)osal_msg_receive( task_id );
   \   00000D                ; Setup parameters for call to function osal_msg_receive
   \   00000D   801E         SJMP    ??Led_ProcessEvent_1
    160              while ( MSGpkt )
    161              {
    162                switch ( MSGpkt->hdr.event )
   \                     ??Led_ProcessEvent_2:
   \   00000F   85..82       MOV     DPL,?V0 + 0
   \   000012   85..83       MOV     DPH,?V0 + 1
   \   000015   E0           MOVX    A,@DPTR
   \   000016   64D3         XRL     A,#0xd3
   \   000018   7007         JNZ     ??Led_ProcessEvent_3
    163                {
    164                  case ZDO_CB_MSG:  // Êî∂Âà∞Ë¢´ÁªëÂÆöËäÇÁÇπÁöÑrsp
    165                    Led_ProcessZDOMsgs( (zdoIncomingMsg_t *)MSGpkt);
   \   00001A                ; Setup parameters for call to function Led_ProcessZDOMsgs
   \   00001A   AA..         MOV     R2,?V0 + 0
   \   00001C   AB..         MOV     R3,?V0 + 1
   \   00001E   12....       LCALL   ??Led_ProcessZDOMsgs?relay
    166                    break;
    167                }
    168                // Release the memory
    169                osal_msg_deallocate( (uint8 *)MSGpkt );
   \                     ??Led_ProcessEvent_3:
   \   000021                ; Setup parameters for call to function osal_msg_deallocate
   \   000021   AA..         MOV     R2,?V0 + 0
   \   000023   AB..         MOV     R3,?V0 + 1
   \   000025   12....       LCALL   ??osal_msg_deallocate?relay
    170          
    171                // Next
    172                MSGpkt = (afIncomingMSGPacket_t *)osal_msg_receive( Led_TaskID );
   \   000028                ; Setup parameters for call to function osal_msg_receive
   \   000028   90....       MOV     DPTR,#Led_TaskID
   \   00002B   E0           MOVX    A,@DPTR
   \   00002C   F9           MOV     R1,A
   \                     ??Led_ProcessEvent_1:
   \   00002D   12....       LCALL   ??osal_msg_receive?relay
   \   000030   8A..         MOV     ?V0 + 0,R2
   \   000032   8B..         MOV     ?V0 + 1,R3
    173              }
   \   000034   E5..         MOV     A,?V0 + 0
   \   000036   45..         ORL     A,?V0 + 1
   \   000038   70D5         JNZ     ??Led_ProcessEvent_2
    174             return (events ^ SYS_EVENT_MSG);
   \   00003A   EE           MOV     A,R6
   \   00003B   FA           MOV     R2,A
   \   00003C   EF           MOV     A,R7
   \   00003D   6480         XRL     A,#0x80
   \                     ??Led_ProcessEvent_4:
   \   00003F   FB           MOV     R3,A
   \   000040   8046         SJMP    ??Led_ProcessEvent_5
    175            }
    176          
    177            if( events & MATCH_BIND_EVT ) // ÂπøÊí≠ match ÁªëÂÆö
   \                     ??Led_ProcessEvent_0:
   \   000042   EE           MOV     A,R6
   \   000043   5402         ANL     A,#0x2
   \   000045   602E         JZ      ??Led_ProcessEvent_6
    178            {
    179              if(ledCnt == LED_NUM_MAX)
   \   000047   90....       MOV     DPTR,#ledCnt
   \   00004A   E0           MOVX    A,@DPTR
   \   00004B   6414         XRL     A,#0x14
   \   00004D   601F         JZ      ??Led_ProcessEvent_7
    180              {
    181                  // do something
    182              }
    183              else
    184              {
    185                  Led_BindDevice(TRUE, LED_ENDPOINT+ledCnt, Led_ClusterList, NULL); 
   \   00004F                ; Setup parameters for call to function Led_BindDevice
   \   00004F   E4           CLR     A
   \   000050   F5..         MOV     ?V0 + 0,A
   \   000052   F5..         MOV     ?V0 + 1,A
   \   000054   78..         MOV     R0,#?V0 + 0
   \   000056   12....       LCALL   ?PUSH_XSTACK_I_TWO
   \   000059   7C..         MOV     R4,#Led_ClusterList & 0xff
   \   00005B   7D..         MOV     R5,#(Led_ClusterList >> 8) & 0xff
   \   00005D   90....       MOV     DPTR,#ledCnt
   \   000060   E0           MOVX    A,@DPTR
   \   000061   243C         ADD     A,#0x3c
   \   000063   FA           MOV     R2,A
   \   000064   7901         MOV     R1,#0x1
   \   000066   12....       LCALL   ??Led_BindDevice?relay
   \   000069   7402         MOV     A,#0x2
   \   00006B   12....       LCALL   ?DEALLOC_XSTACK8
    186              }
    187              return (events ^ MATCH_BIND_EVT);
   \                     ??Led_ProcessEvent_7:
   \   00006E   EE           MOV     A,R6
   \   00006F   6402         XRL     A,#0x2
   \                     ??Led_ProcessEvent_8:
   \   000071   FA           MOV     R2,A
   \   000072   EF           MOV     A,R7
   \   000073   80CA         SJMP    ??Led_ProcessEvent_4
    188            }
    189            
    190            if ( events & LED_BIND_TIMER )
   \                     ??Led_ProcessEvent_6:
   \   000075   EE           MOV     A,R6
   \   000076   5421         ANL     A,#0x21
   \   000078   600A         JZ      ??Led_ProcessEvent_9
    191            {
    192              // Send bind confirm callback to application
    193              SAPI_BindConfirm( led_bindInProgress, ZB_TIMEOUT );
   \   00007A                ; Setup parameters for call to function Sys_BindConfirm
   \   00007A   7921         MOV     R1,#0x21
   \   00007C   12....       LCALL   ?Subroutine3 & 0xFFFF
    194              led_bindInProgress = 0xffff;
    195          
    196              return (events ^ LED_BIND_TIMER);
   \                     ??CrossCallReturnLabel_4:
   \   00007F   EE           MOV     A,R6
   \   000080   6421         XRL     A,#0x21
   \   000082   80ED         SJMP    ??Led_ProcessEvent_8
    197            }
    198            
    199            return 0;
   \                     ??Led_ProcessEvent_9:
   \   000084   7A00         MOV     R2,#0x0
   \   000086   7B00         MOV     R3,#0x0
   \                     ??Led_ProcessEvent_5:
   \   000088                REQUIRE ?Subroutine0
   \   000088                ; // Fall through to label ?Subroutine0
    200          }

   \                                 In  segment BANKED_CODE, align 1, keep-with-next
   \                     ?Subroutine0:
   \   000000   7F06         MOV     R7,#0x6
   \   000002   02....       LJMP    ?BANKED_LEAVE_XDATA

   \                                 In  segment BANKED_CODE, align 1, keep-with-next
   \                     ?Subroutine3:
   \   000000   90....       MOV     DPTR,#led_bindInProgress
   \   000003   12....       LCALL   ??Subroutine10_0 & 0xFFFF
   \                     ??CrossCallReturnLabel_16:
   \   000006   12....       LCALL   ??Sys_BindConfirm?relay
   \   000009   90....       MOV     DPTR,#led_bindInProgress
   \   00000C   74FF         MOV     A,#-0x1
   \   00000E   F0           MOVX    @DPTR,A
   \   00000F   A3           INC     DPTR
   \   000010   F0           MOVX    @DPTR,A
   \   000011   22           RET
    201          
    202          /*********************************************************************
    203           * @fn      Led_ProcessZDOMsgs()
    204           *
    205           * @brief   Process response messages
    206           *
    207           * @param   none
    208           *
    209           * @return  none
    210           */

   \                                 In  segment BANKED_CODE, align 1, keep-with-next
    211          void Led_ProcessZDOMsgs( zdoIncomingMsg_t *inMsg )
   \                     Led_ProcessZDOMsgs:
    212          {
   \   000000   74F5         MOV     A,#-0xb
   \   000002   12....       LCALL   ?BANKED_ENTER_XDATA
   \   000005                ; Saved register size: 11
   \   000005                ; Auto size: 9
   \   000005   74F7         MOV     A,#-0x9
   \   000007   12....       LCALL   ?ALLOC_XSTACK8
    213            switch ( inMsg->clusterID )
   \   00000A   EA           MOV     A,R2
   \   00000B   240C         ADD     A,#0xc
   \   00000D   F582         MOV     DPL,A
   \   00000F   EB           MOV     A,R3
   \   000010   3400         ADDC    A,#0x0
   \   000012   F583         MOV     DPH,A
   \   000014   E0           MOVX    A,@DPTR
   \   000015   6406         XRL     A,#0x6
   \   000017   7004         JNZ     ??Led_ProcessZDOMsgs_0
   \   000019   A3           INC     DPTR
   \   00001A   E0           MOVX    A,@DPTR
   \   00001B   6480         XRL     A,#0x80
   \                     ??Led_ProcessZDOMsgs_0:
   \   00001D   6003         JZ      $+5
   \   00001F   02....       LJMP    ??Led_ProcessZDOMsgs_1 & 0xFFFF
    214            {
    215              case Match_Desc_rsp:
    216                {
    217                  zAddrType_t dstAddr;
    218                  ZDO_ActiveEndpointRsp_t *pRsp = ZDO_ParseEPListRsp( inMsg );
   \   000022                ; Setup parameters for call to function ZDO_ParseEPListRsp
   \   000022   12....       LCALL   ??ZDO_ParseEPListRsp?relay
   \   000025   8A..         MOV     ?V0 + 0,R2
   \   000027   8B..         MOV     ?V0 + 1,R3
   \   000029   AE..         MOV     R6,?V0 + 0
   \   00002B   AF..         MOV     R7,?V0 + 1
    219          
    220                  if ( led_bindInProgress != 0xffff )
   \   00002D   90....       MOV     DPTR,#led_bindInProgress
   \   000030   E0           MOVX    A,@DPTR
   \   000031   F4           CPL     A
   \   000032   7003         JNZ     ??Led_ProcessZDOMsgs_2
   \   000034   A3           INC     DPTR
   \   000035   E0           MOVX    A,@DPTR
   \   000036   F4           CPL     A
   \                     ??Led_ProcessZDOMsgs_2:
   \   000037   7003         JNZ     $+5
   \   000039   02....       LJMP    ??Led_ProcessZDOMsgs_1 & 0xFFFF
    221                  {
    222                    uint8 ret = 0;
    223                    // Create a binding table entry
    224                    dstAddr.addrMode = Addr16Bit;
   \   00003C   7408         MOV     A,#0x8
   \   00003E   12....       LCALL   ?XSTACK_DISP0_8
   \   000041   7402         MOV     A,#0x2
   \   000043   F0           MOVX    @DPTR,A
    225                    dstAddr.addr.shortAddr = pRsp->nwkAddr;
   \   000044   8E82         MOV     DPL,R6
   \   000046   8F83         MOV     DPH,R7
   \   000048   A3           INC     DPTR
   \   000049   E0           MOVX    A,@DPTR
   \   00004A   F8           MOV     R0,A
   \   00004B   A3           INC     DPTR
   \   00004C   E0           MOVX    A,@DPTR
   \   00004D   F9           MOV     R1,A
   \   00004E   85..82       MOV     DPL,?XSP + 0
   \   000051   85..83       MOV     DPH,?XSP + 1
   \   000054   E8           MOV     A,R0
   \   000055   F0           MOVX    @DPTR,A
   \   000056   A3           INC     DPTR
   \   000057   E9           MOV     A,R1
   \   000058   F0           MOVX    @DPTR,A
    226          
    227                    for(char i=0; i<LED_MAX_CLUSTERS; i++)
   \   000059   75..00       MOV     ?V0 + 2,#0x0
    228                    {
    229                          if ( APSME_BindRequest( Led_epDesc[ledCnt].simpleDesc->EndPoint,
    230                               led_bindInProgress+i, &dstAddr, pRsp->epList[0] ) != ZSuccess )
   \                     ??Led_ProcessZDOMsgs_3:
   \   00005C                ; Setup parameters for call to function APSME_BindRequest
   \   00005C   8E82         MOV     DPL,R6
   \   00005E   8F83         MOV     DPH,R7
   \   000060   A3           INC     DPTR
   \   000061   A3           INC     DPTR
   \   000062   A3           INC     DPTR
   \   000063   A3           INC     DPTR
   \   000064   E0           MOVX    A,@DPTR
   \   000065   F5..         MOV     ?V0 + 0,A
   \   000067   78..         MOV     R0,#?V0 + 0
   \   000069   12....       LCALL   ?PUSH_XSTACK_I_ONE
   \   00006C   7401         MOV     A,#0x1
   \   00006E   12....       LCALL   ?XSTACK_DISP0_8
   \   000071   AC82         MOV     R4,DPL
   \   000073   AD83         MOV     R5,DPH
   \   000075   90....       MOV     DPTR,#led_bindInProgress
   \   000078   85....       MOV     ?V0 + 0,?V0 + 2
   \   00007B   E0           MOVX    A,@DPTR
   \   00007C   25..         ADD     A,?V0 + 0
   \   00007E   FA           MOV     R2,A
   \   00007F   A3           INC     DPTR
   \   000080   E0           MOVX    A,@DPTR
   \   000081   3400         ADDC    A,#0x0
   \   000083   FB           MOV     R3,A
   \   000084   90....       MOV     DPTR,#ledCnt
   \   000087   E0           MOVX    A,@DPTR
   \   000088   75F006       MOV     B,#0x6
   \   00008B   A4           MUL     AB
   \   00008C   F8           MOV     R0,A
   \   00008D   85F0..       MOV     ?V0 + 0,B
   \   000090   A9..         MOV     R1,?V0 + 0
   \   000092   12....       LCALL   ?Subroutine8 & 0xFFFF
   \                     ??CrossCallReturnLabel_10:
   \   000095   F583         MOV     DPH,A
   \   000097   8882         MOV     DPL,R0
   \   000099   E0           MOVX    A,@DPTR
   \   00009A   F9           MOV     R1,A
   \   00009B   12....       LCALL   ??APSME_BindRequest?relay
   \   00009E   7401         MOV     A,#0x1
   \   0000A0   12....       LCALL   ?DEALLOC_XSTACK8
   \   0000A3   E9           MOV     A,R1
   \   0000A4   6010         JZ      ??Led_ProcessZDOMsgs_4
    231                          {
    232                              ret = 1;
    233                              break;
    234                          }
    235                    }
    236                    if(ret == ZSuccess)
    237                    {
    238                      osal_stop_timerEx(Led_TaskID,  LED_BIND_TIMER);
    239                      osal_start_timerEx( ZDAppTaskID, ZDO_NWK_UPDATE_NV, 250 );
    240                      // Find IEEE addr
    241                      ZDP_IEEEAddrReq( pRsp->nwkAddr, ZDP_ADDR_REQTYPE_SINGLE, 0, 0 );
    242                      // Send bind confirm callback to application
    243                      Sys_BindConfirm( led_bindInProgress, ZB_SUCCESS );
    244                      led_bindInProgress = 0xffff;
    245                      ledCnt++;
    246                    }
    247                    else
    248                    {
    249                          // ClusterID wrong
    250                          HalLedSet(HAL_LED_2, HAL_LED_MODE_ON);
   \   0000A6                ; Setup parameters for call to function HalLedSet
   \   0000A6   7A01         MOV     R2,#0x1
   \   0000A8   7902         MOV     R1,#0x2
   \   0000AA   12....       LCALL   ??HalLedSet?relay
    251                          HalLedSet(HAL_LED_3, HAL_LED_MODE_OFF);
   \   0000AD                ; Setup parameters for call to function HalLedSet
   \   0000AD   7A00         MOV     R2,#0x0
   \   0000AF   7904         MOV     R1,#0x4
   \   0000B1   12....       LCALL   ??HalLedSet?relay
   \   0000B4   8034         SJMP    ??Led_ProcessZDOMsgs_1
    252                    }
   \                     ??Led_ProcessZDOMsgs_4:
   \   0000B6   05..         INC     ?V0 + 2
   \   0000B8   E5..         MOV     A,?V0 + 2
   \   0000BA   C3           CLR     C
   \   0000BB   9403         SUBB    A,#0x3
   \   0000BD   409D         JC      ??Led_ProcessZDOMsgs_3
   \   0000BF                ; Setup parameters for call to function osal_stop_timerEx
   \   0000BF   7A21         MOV     R2,#0x21
   \   0000C1   7B00         MOV     R3,#0x0
   \   0000C3   90....       MOV     DPTR,#Led_TaskID
   \   0000C6   E0           MOVX    A,@DPTR
   \   0000C7   F9           MOV     R1,A
   \   0000C8   12....       LCALL   ??osal_stop_timerEx?relay
   \   0000CB                ; Setup parameters for call to function osal_start_timerEx
   \   0000CB   12....       LCALL   ?Subroutine5 & 0xFFFF
   \                     ??CrossCallReturnLabel_12:
   \   0000CE                ; Setup parameters for call to function ZDP_IEEEAddrReq
   \   0000CE   7D00         MOV     R5,#0x0
   \   0000D0   7C00         MOV     R4,#0x0
   \   0000D2   7900         MOV     R1,#0x0
   \   0000D4   8E82         MOV     DPL,R6
   \   0000D6   8F83         MOV     DPH,R7
   \   0000D8   A3           INC     DPTR
   \   0000D9   12....       LCALL   ??Subroutine10_0 & 0xFFFF
   \                     ??CrossCallReturnLabel_15:
   \   0000DC   12....       LCALL   ??ZDP_IEEEAddrReq?relay
   \   0000DF                ; Setup parameters for call to function Sys_BindConfirm
   \   0000DF   7900         MOV     R1,#0x0
   \   0000E1   12....       LCALL   ?Subroutine3 & 0xFFFF
   \                     ??CrossCallReturnLabel_5:
   \   0000E4   90....       MOV     DPTR,#ledCnt
   \   0000E7   E0           MOVX    A,@DPTR
   \   0000E8   04           INC     A
   \   0000E9   F0           MOVX    @DPTR,A
    253                  }
    254                }
    255              break;
    256            }
    257          }
   \                     ??Led_ProcessZDOMsgs_1:
   \   0000EA   7409         MOV     A,#0x9
   \   0000EC   12....       LCALL   ?DEALLOC_XSTACK8
   \   0000EF   7F03         MOV     R7,#0x3
   \   0000F1   02....       LJMP    ?BANKED_LEAVE_XDATA

   \                                 In  segment BANKED_CODE, align 1, keep-with-next
   \                     ?Subroutine5:
   \   000000   7CFA         MOV     R4,#-0x6
   \   000002   7D00         MOV     R5,#0x0
   \   000004   7A00         MOV     R2,#0x0
   \   000006   7B02         MOV     R3,#0x2
   \   000008   90....       MOV     DPTR,#ZDAppTaskID
   \   00000B                REQUIRE ??Subroutine9_0
   \   00000B                ; // Fall through to label ??Subroutine9_0

   \                                 In  segment BANKED_CODE, align 1, keep-with-next
   \                     ??Subroutine9_0:
   \   000000   E0           MOVX    A,@DPTR
   \   000001   F9           MOV     R1,A
   \   000002   12....       LCALL   ??osal_start_timerEx?relay
   \   000005   22           RET

   \                                 In  segment BANKED_CODE, align 1, keep-with-next
   \                     ??Subroutine10_0:
   \   000000   E0           MOVX    A,@DPTR
   \   000001   FA           MOV     R2,A
   \   000002   A3           INC     DPTR
   \   000003   E0           MOVX    A,@DPTR
   \   000004   FB           MOV     R3,A
   \   000005   22           RET

   \                                 In  segment BANKED_CODE, align 1, keep-with-next
   \                     ?Subroutine8:
   \   000000   74..         MOV     A,#(Led_epDesc + 3) & 0xff
   \   000002   28           ADD     A,R0
   \   000003   F582         MOV     DPL,A
   \   000005   74..         MOV     A,#((Led_epDesc + 3) >> 8) & 0xff
   \   000007   39           ADDC    A,R1
   \   000008   F583         MOV     DPH,A
   \   00000A   E0           MOVX    A,@DPTR
   \   00000B   F8           MOV     R0,A
   \   00000C   A3           INC     DPTR
   \   00000D   E0           MOVX    A,@DPTR
   \   00000E   22           RET
    258          
    259          /******************************************************************************
    260           * @fn          Led_BindDevice
    261           *
    262           * @brief       The zb_BindDevice function establishes or removes a °Æbinding? *              between two devices.  Once bound, an application can send
    263           *              messages to a device by referencing the commandId for the
    264           *              binding.
    265           *
    266           * @param       create - TRUE to create a binding, FALSE to remove a binding
    267           *              commandId - The identifier of the binding
    268           *              pDestination - The 64-bit IEEE address of the device to bind to
    269           *
    270           * @return      The status of the bind operation is returned in the
    271           *              Sys_BindConfirm callback.
    272           */

   \                                 In  segment BANKED_CODE, align 1, keep-with-next
   \                     ?Subroutine7:
   \   000000   85..82       MOV     DPL,?V0 + 2
   \   000003   85..83       MOV     DPH,?V0 + 3
   \   000006                REQUIRE ??Subroutine10_0
   \   000006                ; // Fall through to label ??Subroutine10_0

   \                                 In  segment BANKED_CODE, align 1, keep-with-next
    273          void Led_BindDevice ( uint8 create, uint8 endpoint, uint16 *commandId, uint8 *pDestination )
   \                     Led_BindDevice:
    274          {
   \   000000   74F2         MOV     A,#-0xe
   \   000002   12....       LCALL   ?BANKED_ENTER_XDATA
   \   000005                ; Saved register size: 14
   \   000005                ; Auto size: 9
   \   000005   74F7         MOV     A,#-0x9
   \   000007   12....       LCALL   ?ALLOC_XSTACK8
   \   00000A   8A..         MOV     ?V0 + 0,R2
   \   00000C   8C..         MOV     ?V0 + 2,R4
   \   00000E   8D..         MOV     ?V0 + 3,R5
   \   000010   7417         MOV     A,#0x17
   \   000012   12....       LCALL   ?XSTACK_DISP0_8
   \   000015   E0           MOVX    A,@DPTR
   \   000016   FE           MOV     R6,A
   \   000017   A3           INC     DPTR
   \   000018   E0           MOVX    A,@DPTR
   \   000019   FF           MOV     R7,A
    275            zAddrType_t destination;
    276            uint8 ret = ZB_ALREADY_IN_PROGRESS;
    277          
    278            if ( create )
   \   00001A   E9           MOV     A,R1
   \   00001B   7003         JNZ     $+5
   \   00001D   02....       LJMP    ??Led_BindDevice_0 & 0xFFFF
    279            {
    280              if (led_bindInProgress == 0xffff)
   \   000020   90....       MOV     DPTR,#led_bindInProgress
   \   000023   E0           MOVX    A,@DPTR
   \   000024   F4           CPL     A
   \   000025   7003         JNZ     ??Led_BindDevice_1
   \   000027   A3           INC     DPTR
   \   000028   E0           MOVX    A,@DPTR
   \   000029   F4           CPL     A
   \                     ??Led_BindDevice_1:
   \   00002A   6003         JZ      $+5
   \   00002C   02....       LJMP    ??CrossCallReturnLabel_13 & 0xFFFF
    281              {
    282                if ( pDestination )
   \   00002F   EE           MOV     A,R6
   \   000030   4F           ORL     A,R7
   \   000031   604E         JZ      ??Led_BindDevice_2
    283                {
    284                  destination.addrMode = Addr64Bit;
   \   000033   7408         MOV     A,#0x8
   \   000035   12....       LCALL   ?XSTACK_DISP0_8
   \   000038   7403         MOV     A,#0x3
   \   00003A   F0           MOVX    @DPTR,A
    285                  osal_cpyExtAddr( destination.addr.extAddr, pDestination );
   \   00003B                ; Setup parameters for call to function sAddrExtCpy
   \   00003B   EE           MOV     A,R6
   \   00003C   FC           MOV     R4,A
   \   00003D   EF           MOV     A,R7
   \   00003E   FD           MOV     R5,A
   \   00003F   85..82       MOV     DPL,?XSP + 0
   \   000042   85..83       MOV     DPH,?XSP + 1
   \   000045   AA82         MOV     R2,DPL
   \   000047   AB83         MOV     R3,DPH
   \   000049   12....       LCALL   ??sAddrExtCpy?relay
    286                    // srcEndpoint, dstEndpoint
    287                  ret = APSME_BindRequest( endpoint, commandId[0],
    288                                                      &destination, endpoint );
    289          
    290                  if ( ret == ZSuccess )
   \   00004C                ; Setup parameters for call to function APSME_BindRequest
   \   00004C   E5..         MOV     A,?V0 + 0
   \   00004E   F5..         MOV     ?V0 + 4,A
   \   000050   78..         MOV     R0,#?V0 + 4
   \   000052   12....       LCALL   ?PUSH_XSTACK_I_ONE
   \   000055   7401         MOV     A,#0x1
   \   000057   12....       LCALL   ?XSTACK_DISP0_8
   \   00005A   AC82         MOV     R4,DPL
   \   00005C   AD83         MOV     R5,DPH
   \   00005E   12....       LCALL   ?Subroutine7 & 0xFFFF
   \                     ??CrossCallReturnLabel_17:
   \   000061   A9..         MOV     R1,?V0 + 0
   \   000063   12....       LCALL   ??APSME_BindRequest?relay
   \   000066   7401         MOV     A,#0x1
   \   000068   12....       LCALL   ?DEALLOC_XSTACK8
   \   00006B   E9           MOV     A,R1
   \   00006C   6003         JZ      $+5
   \   00006E   02....       LJMP    ??CrossCallReturnLabel_13 & 0xFFFF
    291                  {
    292                    // Find nwk addr
    293                    ZDP_NwkAddrReq(pDestination, ZDP_ADDR_REQTYPE_SINGLE, 0, 0 );
   \   000071                ; Setup parameters for call to function ZDP_NwkAddrReq
   \   000071   7D00         MOV     R5,#0x0
   \   000073   7C00         MOV     R4,#0x0
   \   000075   7900         MOV     R1,#0x0
   \   000077   EE           MOV     A,R6
   \   000078   FA           MOV     R2,A
   \   000079   EF           MOV     A,R7
   \   00007A   FB           MOV     R3,A
   \   00007B   12....       LCALL   ??ZDP_NwkAddrReq?relay
    294                    osal_start_timerEx( ZDAppTaskID, ZDO_NWK_UPDATE_NV, 250 );
   \   00007E                ; Setup parameters for call to function osal_start_timerEx
   \   00007E   02....       LJMP    ??Led_BindDevice_3 & 0xFFFF
    295                  }
    296                }
    297                else
    298                {
    299                  ret = ZB_INVALID_PARAMETER;
    300                  destination.addrMode = Addr16Bit;
   \                     ??Led_BindDevice_2:
   \   000081   7408         MOV     A,#0x8
   \   000083   12....       LCALL   ?XSTACK_DISP0_8
   \   000086   7402         MOV     A,#0x2
   \   000088   F0           MOVX    @DPTR,A
    301                  destination.addr.shortAddr = NWK_BROADCAST_SHORTADDR;
   \   000089   85..82       MOV     DPL,?XSP + 0
   \   00008C   85..83       MOV     DPH,?XSP + 1
   \   00008F   74FF         MOV     A,#-0x1
   \   000091   F0           MOVX    @DPTR,A
   \   000092   A3           INC     DPTR
   \   000093   F0           MOVX    @DPTR,A
   \   000094   12....       LCALL   ?Subroutine1 & 0xFFFF
   \                     ??CrossCallReturnLabel_0:
   \   000097   A3           INC     DPTR
   \   000098   A3           INC     DPTR
   \   000099   A3           INC     DPTR
   \   00009A   12....       LCALL   ?PUSH_XSTACK8_X_TWO
   \   00009D   8882         MOV     DPL,R0
   \   00009F   8983         MOV     DPH,R1
   \   0000A1   A3           INC     DPTR
   \   0000A2   A3           INC     DPTR
   \   0000A3   A3           INC     DPTR
   \   0000A4   12....       LCALL   ?Subroutine4 & 0xFFFF
   \                     ??CrossCallReturnLabel_6:
   \   0000A7   12....       LCALL   ?DEALLOC_XSTACK8
   \   0000AA   E9           MOV     A,R1
   \   0000AB   6024         JZ      ??Led_BindDevice_4
    302                  if ( ZDO_AnyClusterMatches( LED_MAX_CLUSTERS, commandId, Led_epDesc[ledCnt].simpleDesc->AppNumOutClusters,
    303                                                          Led_epDesc[ledCnt].simpleDesc->pAppOutClusterList ) )
    304                  {
    305                    // Try to match with a device in the allow bind mode
    306                    ret = ZDP_MatchDescReq( &destination, NWK_BROADCAST_SHORTADDR,
    307                        Led_epDesc[ledCnt].simpleDesc->AppProfId, LED_MAX_CLUSTERS, commandId, 0, (cId_t *)NULL, 0 );
   \   0000AD                ; Setup parameters for call to function ZDP_MatchDescReq
   \   0000AD   75..00       MOV     ?V0 + 4,#0x0
   \   0000B0   78..         MOV     R0,#?V0 + 4
   \   0000B2   12....       LCALL   ?PUSH_XSTACK_I_ONE
   \   0000B5   E4           CLR     A
   \   0000B6   F5..         MOV     ?V0 + 5,A
   \   0000B8   78..         MOV     R0,#?V0 + 4
   \   0000BA   12....       LCALL   ?PUSH_XSTACK_I_TWO
   \   0000BD   78..         MOV     R0,#?V0 + 4
   \   0000BF   12....       LCALL   ?PUSH_XSTACK_I_ONE
   \   0000C2   78..         MOV     R0,#?V0 + 2
   \   0000C4   12....       LCALL   ?PUSH_XSTACK_I_TWO
   \   0000C7   12....       LCALL   ?Subroutine2 & 0xFFFF
    308                  }
   \                     ??CrossCallReturnLabel_2:
   \   0000CA   12....       LCALL   ?PUSH_XSTACK8_X_TWO
   \   0000CD   7903         MOV     R1,#0x3
   \   0000CF   803A         SJMP    ??Led_BindDevice_5
   \                     ??Led_BindDevice_4:
   \   0000D1   12....       LCALL   ?Subroutine1 & 0xFFFF
   \                     ??CrossCallReturnLabel_1:
   \   0000D4   12....       LCALL   ?PUSH_XSTACK8_X_TWO
   \   0000D7   8882         MOV     DPL,R0
   \   0000D9   8983         MOV     DPH,R1
   \   0000DB   12....       LCALL   ?Subroutine4 & 0xFFFF
   \                     ??CrossCallReturnLabel_7:
   \   0000DE   12....       LCALL   ?DEALLOC_XSTACK8
   \   0000E1   E9           MOV     A,R1
   \   0000E2   607A         JZ      ??CrossCallReturnLabel_13
    309                  else if ( ZDO_AnyClusterMatches( LED_MAX_CLUSTERS, commandId, Led_epDesc[ledCnt].simpleDesc->AppNumInClusters,
    310                                                          Led_epDesc[ledCnt].simpleDesc->pAppInClusterList ) )
    311                  {
    312                    ret = ZDP_MatchDescReq( &destination, NWK_BROADCAST_SHORTADDR,
    313                        Led_epDesc[ledCnt].simpleDesc->AppProfId, 0, (cId_t *)NULL, LED_MAX_CLUSTERS, commandId, 0 );
   \   0000E4                ; Setup parameters for call to function ZDP_MatchDescReq
   \   0000E4   75..00       MOV     ?V0 + 4,#0x0
   \   0000E7   78..         MOV     R0,#?V0 + 4
   \   0000E9   12....       LCALL   ?PUSH_XSTACK_I_ONE
   \   0000EC   78..         MOV     R0,#?V0 + 2
   \   0000EE   12....       LCALL   ?PUSH_XSTACK_I_TWO
   \   0000F1   75..03       MOV     ?V0 + 4,#0x3
   \   0000F4   78..         MOV     R0,#?V0 + 4
   \   0000F6   12....       LCALL   ?PUSH_XSTACK_I_ONE
   \   0000F9   E4           CLR     A
   \   0000FA   F5..         MOV     ?V0 + 4,A
   \   0000FC   F5..         MOV     ?V0 + 5,A
   \   0000FE   78..         MOV     R0,#?V0 + 4
   \   000100   12....       LCALL   ?PUSH_XSTACK_I_TWO
   \   000103   12....       LCALL   ?Subroutine2 & 0xFFFF
    314                  }
   \                     ??CrossCallReturnLabel_3:
   \   000106   12....       LCALL   ?PUSH_XSTACK8_X_TWO
   \   000109   7900         MOV     R1,#0x0
   \                     ??Led_BindDevice_5:
   \   00010B   7CFF         MOV     R4,#-0x1
   \   00010D   7DFF         MOV     R5,#-0x1
   \   00010F   7408         MOV     A,#0x8
   \   000111   12....       LCALL   ?XSTACK_DISP0_8
   \   000114   AA82         MOV     R2,DPL
   \   000116   AB83         MOV     R3,DPH
   \   000118   12....       LCALL   ??ZDP_MatchDescReq?relay
   \   00011B   7408         MOV     A,#0x8
   \   00011D   12....       LCALL   ?DEALLOC_XSTACK8
   \   000120   E9           MOV     A,R1
    315          
    316                  if ( ret == ZB_SUCCESS )
   \   000121   703B         JNZ     ??CrossCallReturnLabel_13
    317                  {
    318                    // Set a timer to make sure bind completes
    319          #if ( ZG_BUILD_RTR_TYPE )
    320                    osal_start_timerEx(Led_TaskID, LED_BIND_TIMER, AIB_MaxBindingTime);
   \   000123                ; Setup parameters for call to function osal_start_timerEx
   \   000123   90....       MOV     DPTR,#AIB_MaxBindingTime
   \   000126   E0           MOVX    A,@DPTR
   \   000127   FC           MOV     R4,A
   \   000128   A3           INC     DPTR
   \   000129   E0           MOVX    A,@DPTR
   \   00012A   FD           MOV     R5,A
   \   00012B   7A21         MOV     R2,#0x21
   \   00012D   7B00         MOV     R3,#0x0
   \   00012F   90....       MOV     DPTR,#Led_TaskID
   \   000132   12....       LCALL   ??Subroutine9_0 & 0xFFFF
    321          #else
    322                    // AIB_MaxBindingTime is not defined for an End Device
    323                    osal_start_timerEx(Led_TaskID, LED_BIND_TIMER, zgApsDefaultMaxBindingTime);
    324          #endif
    325                    led_bindInProgress = commandId[0];
   \                     ??CrossCallReturnLabel_14:
   \   000135   85..82       MOV     DPL,?V0 + 2
   \   000138   85..83       MOV     DPH,?V0 + 3
   \   00013B   E0           MOVX    A,@DPTR
   \   00013C   F8           MOV     R0,A
   \   00013D   A3           INC     DPTR
   \   00013E   E0           MOVX    A,@DPTR
   \   00013F   F9           MOV     R1,A
   \   000140   90....       MOV     DPTR,#led_bindInProgress
   \   000143   E8           MOV     A,R0
   \   000144   F0           MOVX    @DPTR,A
   \   000145   A3           INC     DPTR
   \   000146   E9           MOV     A,R1
   \   000147   F0           MOVX    @DPTR,A
    326                    return; // dont send cback event
   \   000148   8014         SJMP    ??CrossCallReturnLabel_13
    327                  }
    328                }
    329              }
    330          
    331            //  SAPI_SendCback( SAPICB_BIND_CNF, ret, commandId );
    332            }
    333            else
    334            {
    335              // Remove local bindings for the commandId
    336              BindingEntry_t *pBind;
    337          
    338              // Loop through bindings an remove any that match the cluster
    339              while ( pBind = bindFind( endpoint, commandId[0], 0 ) )
    340              {
    341                bindRemoveEntry(pBind);
   \                     ??Led_BindDevice_6:
   \   00014A                ; Setup parameters for call to function bindRemoveEntry
   \   00014A   12....       LCALL   ??bindRemoveEntry?relay
    342              }
   \                     ??Led_BindDevice_0:
   \   00014D                ; Setup parameters for call to function bindFind
   \   00014D   7C00         MOV     R4,#0x0
   \   00014F   12....       LCALL   ?Subroutine7 & 0xFFFF
   \                     ??CrossCallReturnLabel_18:
   \   000152   A9..         MOV     R1,?V0 + 0
   \   000154   12....       LCALL   ??bindFind?relay
   \   000157   EA           MOV     A,R2
   \   000158   4B           ORL     A,R3
   \   000159   70EF         JNZ     ??Led_BindDevice_6
    343              osal_start_timerEx( ZDAppTaskID, ZDO_NWK_UPDATE_NV, 250 );
   \   00015B                ; Setup parameters for call to function osal_start_timerEx
    344            }
   \                     ??Led_BindDevice_3:
   \   00015B   12....       LCALL   ?Subroutine5 & 0xFFFF
   \                     ??CrossCallReturnLabel_13:
   \   00015E   7409         MOV     A,#0x9
   \   000160   12....       LCALL   ?DEALLOC_XSTACK8
   \   000163   02....       LJMP    ?Subroutine0 & 0xFFFF
    345            return;
    346          }

   \                                 In  segment BANKED_CODE, align 1, keep-with-next
   \                     ?Subroutine4:
   \   000000   A3           INC     DPTR
   \   000001   A3           INC     DPTR
   \   000002   A3           INC     DPTR
   \   000003   A3           INC     DPTR
   \   000004   A3           INC     DPTR
   \   000005   A3           INC     DPTR
   \   000006   E0           MOVX    A,@DPTR
   \   000007   FC           MOV     R4,A
   \   000008   AA..         MOV     R2,?V0 + 2
   \   00000A   AB..         MOV     R3,?V0 + 3
   \   00000C   7903         MOV     R1,#0x3
   \   00000E   12....       LCALL   ??ZDO_AnyClusterMatches?relay
   \   000011   7402         MOV     A,#0x2
   \   000013   22           RET

   \                                 In  segment BANKED_CODE, align 1, keep-with-next
   \                     ?Subroutine2:
   \   000000   12....       LCALL   ?Subroutine6 & 0xFFFF
   \                     ??CrossCallReturnLabel_9:
   \   000003   F583         MOV     DPH,A
   \   000005   8882         MOV     DPL,R0
   \   000007   A3           INC     DPTR
   \   000008   22           RET

   \                                 In  segment BANKED_CODE, align 1, keep-with-next
   \                     ?Subroutine1:
   \   000000   12....       LCALL   ?Subroutine6 & 0xFFFF
   \                     ??CrossCallReturnLabel_8:
   \   000003   F9           MOV     R1,A
   \   000004                ; Setup parameters for call to function ZDO_AnyClusterMatches
   \   000004                ; Setup parameters for call to function ZDO_AnyClusterMatches
   \   000004   8882         MOV     DPL,R0
   \   000006   8983         MOV     DPH,R1
   \   000008   A3           INC     DPTR
   \   000009   A3           INC     DPTR
   \   00000A   A3           INC     DPTR
   \   00000B   A3           INC     DPTR
   \   00000C   A3           INC     DPTR
   \   00000D   A3           INC     DPTR
   \   00000E   A3           INC     DPTR
   \   00000F   22           RET

   \                                 In  segment BANKED_CODE, align 1, keep-with-next
   \                     ?Subroutine6:
   \   000000   90....       MOV     DPTR,#ledCnt
   \   000003   E0           MOVX    A,@DPTR
   \   000004   75F006       MOV     B,#0x6
   \   000007   A4           MUL     AB
   \   000008   F8           MOV     R0,A
   \   000009   A9F0         MOV     R1,B
   \   00000B   12....       LCALL   ?Subroutine8 & 0xFFFF
   \                     ??CrossCallReturnLabel_11:
   \   00000E   22           RET

   \                                 In  segment XDATA_ID, align 1, keep-with-next
   \                     `?<Initializer for Led_ClusterList>`:
   \   000000   0100         DW 1
   \   000002   0200         DW 2
   \   000004   0300         DW 3

   \                                 In  segment XDATA_ID, align 1, keep-with-next
   \                     `?<Initializer for Led_SimpleDesc>`:
   \   000000   3C           DB 60
   \   000001   040F         DW 3844
   \   000003   0100         DW 1
   \   000005   00           DB 0
   \   000006   00           DB 0
   \   000007   0000         DW 0H
   \   000009   03           DB 3
   \   00000A   ....         DW Led_ClusterList
   \   00000C   00000000     DB 0, 0, 0, 0, 0, 0, 0, 0
   \            00000000
   \   000014   00000000     DB 0, 0, 0, 0, 0, 0, 0, 0
   \            00000000
   \   00001C   00000000     DB 0, 0, 0, 0, 0, 0, 0, 0
   \            00000000
   \   000024   00000000     DB 0, 0, 0, 0, 0, 0, 0, 0
   \            00000000
   \   00002C   00000000     DB 0, 0, 0, 0, 0, 0, 0, 0
   \            00000000
   \   000034   00000000     DB 0, 0, 0, 0, 0, 0, 0, 0
   \            00000000
   \   00003C   00000000     DB 0, 0, 0, 0, 0, 0, 0, 0
   \            00000000
   \   000044   00000000     DB 0, 0, 0, 0, 0, 0, 0, 0
   \            00000000
   \   00004C   00000000     DB 0, 0, 0, 0, 0, 0, 0, 0
   \            00000000
   \   000054   00000000     DB 0, 0, 0, 0, 0, 0, 0, 0
   \            00000000
   \   00005C   00000000     DB 0, 0, 0, 0, 0, 0, 0, 0
   \            00000000
   \   000064   00000000     DB 0, 0, 0, 0, 0, 0, 0, 0
   \            00000000
   \   00006C   00000000     DB 0, 0, 0, 0, 0, 0, 0, 0
   \            00000000
   \   000074   00000000     DB 0, 0, 0, 0, 0, 0, 0, 0
   \            00000000
   \   00007C   00000000     DB 0, 0, 0, 0, 0, 0, 0, 0
   \            00000000
   \   000084   00000000     DB 0, 0, 0, 0, 0, 0, 0, 0
   \            00000000
   \   00008C   00000000     DB 0, 0, 0, 0, 0, 0, 0, 0
   \            00000000
   \   000094   00000000     DB 0, 0, 0, 0, 0, 0, 0, 0
   \            00000000
   \   00009C   00000000     DB 0, 0, 0, 0, 0, 0, 0, 0
   \            00000000
   \   0000A4   00000000     DB 0, 0, 0, 0, 0, 0, 0, 0
   \            00000000
   \   0000AC   00000000     DB 0, 0, 0, 0, 0, 0, 0, 0
   \            00000000
   \   0000B4   00000000     DB 0, 0, 0, 0, 0, 0, 0, 0
   \            00000000
   \   0000BC   00000000     DB 0, 0, 0, 0, 0, 0, 0, 0
   \            00000000
   \   0000C4   00000000     DB 0, 0, 0, 0, 0, 0, 0, 0
   \            00000000
   \   0000CC   00000000     DB 0, 0, 0, 0, 0, 0, 0, 0
   \            00000000
   \   0000D4   00000000     DB 0, 0, 0, 0, 0, 0, 0, 0
   \            00000000
   \   0000DC   00000000     DB 0, 0, 0, 0, 0, 0, 0, 0
   \            00000000
   \   0000E4   00000000     DB 0, 0, 0, 0, 0, 0, 0, 0
   \            00000000
   \   0000EC   00000000     DB 0, 0, 0, 0

   \                                 In  segment BANK_RELAYS, align 1
   \                     ??Led_Init?relay:
   \   000000   12....       LCALL   ?BDISPATCH
   \   000003   ......       DC24    Led_Init

   \                                 In  segment BANK_RELAYS, align 1
   \                     ??Led_ProcessEvent?relay:
   \   000000   12....       LCALL   ?BDISPATCH
   \   000003   ......       DC24    Led_ProcessEvent

   \                                 In  segment BANK_RELAYS, align 1
   \                     ??Led_ProcessZDOMsgs?relay:
   \   000000   12....       LCALL   ?BDISPATCH
   \   000003   ......       DC24    Led_ProcessZDOMsgs

   \                                 In  segment BANK_RELAYS, align 1
   \                     ??Led_BindDevice?relay:
   \   000000   12....       LCALL   ?BDISPATCH
   \   000003   ......       DC24    Led_BindDevice
    347          
    348          
    349          /*********************************
    350           * CALLBACK FUNCTIONS   */
    351          /******************************************************************************
    352           * @fn          SAPI_BindConfirm
    353           *
    354           * @brief       The SAPI_BindConfirm callback is called by the ZigBee stack
    355           *              after a bind operation completes.
    356           *
    357           * @param       commandId - The command ID of the binding being confirmed.
    358           *              status - The status of the bind operation.
    359           *              allowBind - TRUE if the bind operation was initiated by a call
    360           *                          to zb_AllowBindRespones.  FALSE if the operation
    361           *                          was initiated by a call to ZB_BindDevice
    362           *
    363           * @return      none
    364           */
    365          void SAPI_BindConfirm( uint16 commandId, uint8 status )
    366          {
    367              Sys_BindConfirm( commandId, status );
    368          }

   Maximum stack usage in bytes:

     Function                   ISTACK PSTACK XSTACK
     --------                   ------ ------ ------
     Led_BindDevice                 0      0     47
       -> sAddrExtCpy               0      0     46
       -> APSME_BindRequest         0      0     48
       -> ZDP_NwkAddrReq            0      0     46
       -> osal_start_timerEx        0      0     46
       -> ZDO_AnyClusterMatches     0      0     50
       -> ZDP_MatchDescReq          0      0     62
       -> ZDO_AnyClusterMatches     0      0     50
       -> ZDP_MatchDescReq          0      0     62
       -> osal_start_timerEx        0      0     46
       -> bindRemoveEntry           0      0     46
       -> bindFind                  0      0     46
       -> osal_start_timerEx        0      0     46
     Led_Init                       1      0      9
       -> afRegister                0      0     18
       -> ZDO_RegisterForZDOMsg     0      0     18
     Led_ProcessEvent               0      0     16
       -> osal_msg_receive          0      0     28
       -> Led_ProcessZDOMsgs        0      0     28
       -> osal_msg_deallocate       0      0     28
       -> osal_msg_receive          0      0     28
       -> Led_BindDevice            0      0     32
       -> Sys_BindConfirm           0      0     28
     Led_ProcessZDOMsgs             0      0     35
       -> ZDO_ParseEPListRsp        0      0     40
       -> APSME_BindRequest         0      0     42
       -> HalLedSet                 0      0     40
       -> HalLedSet                 0      0     40
       -> osal_stop_timerEx         0      0     40
       -> osal_start_timerEx        0      0     40
       -> ZDP_IEEEAddrReq           0      0     40
       -> Sys_BindConfirm           0      0     40


   Segment part sizes:

     Function/Label                     Bytes
     --------------                     -----
     Led_TaskID                            1
     ledCnt                                1
     Led_ClusterList                       6
     Led_SimpleDesc                      240
     Led_epDesc                          120
     Led_DstAddr                          12
     led_bindInProgress                    2
     Led_Init                            157
     Led_ProcessEvent                    136
     ?Subroutine0                          5
     ?Subroutine3                         18
     Led_ProcessZDOMsgs                  244
     ?Subroutine5                         11
     ??Subroutine9_0                       6
     ??Subroutine10_0                      6
     ?Subroutine8                         15
     ?Subroutine7                          6
     Led_BindDevice                      358
     ?Subroutine4                         20
     ?Subroutine2                          9
     ?Subroutine1                         16
     ?Subroutine6                         15
     ?<Initializer for Led_ClusterList>    6
     ?<Initializer for Led_SimpleDesc>   240
     ??Led_Init?relay                      6
     ??Led_ProcessEvent?relay              6
     ??Led_ProcessZDOMsgs?relay            6
     ??Led_BindDevice?relay                6

 
 1 022 bytes in segment BANKED_CODE
    24 bytes in segment BANK_RELAYS
   246 bytes in segment XDATA_I
   246 bytes in segment XDATA_ID
   136 bytes in segment XDATA_Z
 
 1 292 bytes of CODE  memory
   382 bytes of XDATA memory

Errors: none
Warnings: none
