###############################################################################
#                                                                             #
# IAR C/C++ Compiler V8.10.3.10338/W32 for 8051         15/Aug/2017  23:22:43 #
# Copyright 2004-2011 IAR Systems AB.                                         #
#                                                                             #
#    Core               =  plain                                              #
#    Code model         =  banked                                             #
#    Data model         =  large                                              #
#    Calling convention =  xdata reentrant                                    #
#    Constant location  =  data_rom                                           #
#    Dptr setup         =  1,16                                               #
#    Source file        =  D:\ProgramData\Hardware\zigbee\Components\osal\mcu #
#                          \cc2530\OSAL_Nv.c                                  #
#    Command line       =  -f D:\ProgramData\Hardware\zigbee\Projects\zstack\ #
#                          Samples\SensorSys\CC2530DB\..\..\..\Tools\CC2530DB #
#                          \f8wCoord.cfg (-DCPU32MHZ -DROOT=__near_func       #
#                          -DMAC_CFG_APP_PENDING_QUEUE=TRUE                   #
#                          -DMAC_CFG_TX_DATA_MAX=5 -DMAC_CFG_TX_MAX=8         #
#                          -DMAC_CFG_RX_MAX=5 -DZDO_COORDINATOR -DRTR_NWK)    #
#                          -f D:\ProgramData\Hardware\zigbee\Projects\zstack\ #
#                          Samples\SensorSys\CC2530DB\..\..\..\Tools\CC2530DB #
#                          \f8wConfig.cfg (-DZIGBEEPRO -DSECURE=0             #
#                          -DZG_SECURE_DYNAMIC=0 -DREFLECTOR                  #
#                          -DDEFAULT_CHANLIST=0x00000800                      #
#                          -DZDAPP_CONFIG_PAN_ID=0xFFF1                       #
#                          -DNWK_START_DELAY=100 -DEXTENDED_JOINING_RANDOM_MA #
#                          SK=0x007F -DBEACON_REQUEST_DELAY=100               #
#                          -DBEACON_REQ_DELAY_MASK=0x00FF                     #
#                          -DLINK_STATUS_JITTER_MASK=0x007F                   #
#                          -DROUTE_EXPIRY_TIME=30 -DAPSC_ACK_WAIT_DURATION_PO #
#                          LLED=3000 -DNWK_INDIRECT_MSG_TIMEOUT=7             #
#                          -DMAX_RREQ_ENTRIES=8 -DAPSC_MAX_FRAME_RETRIES=3    #
#                          -DNWK_MAX_DATA_RETRIES=2                           #
#                          -DMAX_POLL_FAILURE_RETRIES=2 -DMAX_BCAST=9         #
#                          -DAPS_MAX_GROUPS=16 -DMAX_RTG_ENTRIES=40           #
#                          -DNWK_MAX_BINDING_ENTRIES=4                        #
#                          -DMAX_BINDING_CLUSTER_IDS=4 "-DDEFAULT_KEY={0x01,  #
#                          0x03, 0x05, 0x07, 0x09, 0x0B, 0x0D, 0x0F, 0x00,    #
#                          0x02, 0x04, 0x06, 0x08, 0x0A, 0x0C, 0x0D}"         #
#                          -DMAC_MAX_FRAME_SIZE=116                           #
#                          -DZDNWKMGR_MIN_TRANSMISSIONS=20 "-DCONST=const     #
#                          __code" -DGENERIC=__generic                        #
#                          -DRFD_RCVC_ALWAYS_ON=FALSE -DPOLL_RATE=1000        #
#                          -DQUEUED_POLL_RATE=100 -DRESPONSE_POLL_RATE=100)   #
#                          -DREJOIN_POLL_RATE=440 D:\ProgramData\Hardware\zig #
#                          bee\Components\osal\mcu\cc2530\OSAL_Nv.c -D        #
#                          ZTOOL_P1 -D MT_TASK -D MT_SYS_FUNC -D MT_ZDO_FUNC  #
#                          -D LCD_SUPPORTED=DEBUG -lC                         #
#                          D:\ProgramData\Hardware\zigbee\Projects\zstack\Sam #
#                          ples\SensorSys\CC2530DB\CoordinatorEB\List\ -lA    #
#                          D:\ProgramData\Hardware\zigbee\Projects\zstack\Sam #
#                          ples\SensorSys\CC2530DB\CoordinatorEB\List\        #
#                          --diag_suppress Pe001,Pa010 -o                     #
#                          D:\ProgramData\Hardware\zigbee\Projects\zstack\Sam #
#                          ples\SensorSys\CC2530DB\CoordinatorEB\Obj\ -e      #
#                          --no_code_motion --debug --core=plain --dptr=16,1  #
#                          --data_model=large --code_model=banked             #
#                          --calling_convention=xdata_reentrant               #
#                          --place_constants=data_rom --nr_virtual_regs 16    #
#                          -I D:\ProgramData\Hardware\zigbee\Projects\zstack\ #
#                          Samples\SensorSys\CC2530DB\ -I                     #
#                          D:\ProgramData\Hardware\zigbee\Projects\zstack\Sam #
#                          ples\SensorSys\CC2530DB\..\Source\ -I              #
#                          D:\ProgramData\Hardware\zigbee\Projects\zstack\Sam #
#                          ples\SensorSys\CC2530DB\..\..\..\ZMain\TI2530DB\   #
#                          -I D:\ProgramData\Hardware\zigbee\Projects\zstack\ #
#                          Samples\SensorSys\CC2530DB\..\..\..\..\..\Componen #
#                          ts\hal\include\ -I D:\ProgramData\Hardware\zigbee\ #
#                          Projects\zstack\Samples\SensorSys\CC2530DB\..\..\. #
#                          .\..\..\Components\hal\target\CC2530EB\ -I         #
#                          D:\ProgramData\Hardware\zigbee\Projects\zstack\Sam #
#                          ples\SensorSys\CC2530DB\..\..\..\..\..\Components\ #
#                          mac\include\ -I D:\ProgramData\Hardware\zigbee\Pro #
#                          jects\zstack\Samples\SensorSys\CC2530DB\..\..\..\. #
#                          .\..\Components\mac\high_level\ -I                 #
#                          D:\ProgramData\Hardware\zigbee\Projects\zstack\Sam #
#                          ples\SensorSys\CC2530DB\..\..\..\..\..\Components\ #
#                          mac\low_level\srf04\ -I D:\ProgramData\Hardware\zi #
#                          gbee\Projects\zstack\Samples\SensorSys\CC2530DB\.. #
#                          \..\..\..\..\Components\mac\low_level\srf04\single #
#                          _chip\ -I D:\ProgramData\Hardware\zigbee\Projects\ #
#                          zstack\Samples\SensorSys\CC2530DB\..\..\..\..\..\C #
#                          omponents\mt\ -I D:\ProgramData\Hardware\zigbee\Pr #
#                          ojects\zstack\Samples\SensorSys\CC2530DB\..\..\..\ #
#                          ..\..\Components\osal\include\ -I                  #
#                          D:\ProgramData\Hardware\zigbee\Projects\zstack\Sam #
#                          ples\SensorSys\CC2530DB\..\..\..\..\..\Components\ #
#                          services\saddr\ -I D:\ProgramData\Hardware\zigbee\ #
#                          Projects\zstack\Samples\SensorSys\CC2530DB\..\..\. #
#                          .\..\..\Components\services\sdata\ -I              #
#                          D:\ProgramData\Hardware\zigbee\Projects\zstack\Sam #
#                          ples\SensorSys\CC2530DB\..\..\..\..\..\Components\ #
#                          stack\af\ -I D:\ProgramData\Hardware\zigbee\Projec #
#                          ts\zstack\Samples\SensorSys\CC2530DB\..\..\..\..\. #
#                          .\Components\stack\nwk\ -I                         #
#                          D:\ProgramData\Hardware\zigbee\Projects\zstack\Sam #
#                          ples\SensorSys\CC2530DB\..\..\..\..\..\Components\ #
#                          stack\sapi\ -I D:\ProgramData\Hardware\zigbee\Proj #
#                          ects\zstack\Samples\SensorSys\CC2530DB\..\..\..\.. #
#                          \..\Components\stack\sec\ -I                       #
#                          D:\ProgramData\Hardware\zigbee\Projects\zstack\Sam #
#                          ples\SensorSys\CC2530DB\..\..\..\..\..\Components\ #
#                          stack\sys\ -I D:\ProgramData\Hardware\zigbee\Proje #
#                          cts\zstack\Samples\SensorSys\CC2530DB\..\..\..\..\ #
#                          ..\Components\stack\zdo\ -I                        #
#                          D:\ProgramData\Hardware\zigbee\Projects\zstack\Sam #
#                          ples\SensorSys\CC2530DB\..\..\..\..\..\Components\ #
#                          zmac\ -I D:\ProgramData\Hardware\zigbee\Projects\z #
#                          stack\Samples\SensorSys\CC2530DB\..\..\..\..\..\Co #
#                          mponents\zmac\f8w\ -Ohz --require_prototypes       #
#    List file          =  D:\ProgramData\Hardware\zigbee\Projects\zstack\Sam #
#                          ples\SensorSys\CC2530DB\CoordinatorEB\List\OSAL_Nv #
#                          .lst                                               #
#    Object file        =  D:\ProgramData\Hardware\zigbee\Projects\zstack\Sam #
#                          ples\SensorSys\CC2530DB\CoordinatorEB\Obj\OSAL_Nv. #
#                          r51                                                #
#                                                                             #
#                                                                             #
###############################################################################

D:\ProgramData\Hardware\zigbee\Components\osal\mcu\cc2530\OSAL_Nv.c
      1          /**************************************************************************************************
      2            Filename:       OSAL_Nv.c
      3            Revised:        $Date: 2008-08-06 17:17:11 -0700 (Wed, 06 Aug 2008) $
      4            Revision:       $Revision: 17715 $
      5          
      6            Description:    This module contains the OSAL non-volatile memory functions.
      7          
      8          
      9            Copyright 2006-2009 Texas Instruments Incorporated. All rights reserved.
     10          
     11            IMPORTANT: Your use of this Software is limited to those specific rights
     12            granted under the terms of a software license agreement between the user
     13            who downloaded the software, his/her employer (which must be your employer)
     14            and Texas Instruments Incorporated (the "License").  You may not use this
     15            Software unless you agree to abide by the terms of the License. The License
     16            limits your use, and you acknowledge, that the Software may not be modified,
     17            copied or distributed unless embedded on a Texas Instruments microcontroller
     18            or used solely and exclusively in conjunction with a Texas Instruments radio
     19            frequency transceiver, which is integrated into your product.  Other than for
     20            the foregoing purpose, you may not use, reproduce, copy, prepare derivative
     21            works of, modify, distribute, perform, display or sell this Software and/or
     22            its documentation for any purpose.
     23          
     24            YOU FURTHER ACKNOWLEDGE AND AGREE THAT THE SOFTWARE AND DOCUMENTATION ARE
     25            PROVIDED “AS IS” WITHOUT WARRANTY OF ANY KIND, EITHER EXPRESS OR IMPLIED,
     26            INCLUDING WITHOUT LIMITATION, ANY WARRANTY OF MERCHANTABILITY, TITLE,
     27            NON-INFRINGEMENT AND FITNESS FOR A PARTICULAR PURPOSE. IN NO EVENT SHALL
     28            TEXAS INSTRUMENTS OR ITS LICENSORS BE LIABLE OR OBLIGATED UNDER CONTRACT,
     29            NEGLIGENCE, STRICT LIABILITY, CONTRIBUTION, BREACH OF WARRANTY, OR OTHER
     30            LEGAL EQUITABLE THEORY ANY DIRECT OR INDIRECT DAMAGES OR EXPENSES
     31            INCLUDING BUT NOT LIMITED TO ANY INCIDENTAL, SPECIAL, INDIRECT, PUNITIVE
     32            OR CONSEQUENTIAL DAMAGES, LOST PROFITS OR LOST DATA, COST OF PROCUREMENT
     33            OF SUBSTITUTE GOODS, TECHNOLOGY, SERVICES, OR ANY CLAIMS BY THIRD PARTIES
     34            (INCLUDING BUT NOT LIMITED TO ANY DEFENSE THEREOF), OR OTHER SIMILAR COSTS.
     35          
     36            Should you have any questions regarding your right to use this Software,
     37            contact Texas Instruments Incorporated at www.TI.com.
     38          **************************************************************************************************/
     39          
     40          /**************************************************************************************************
     41            Notes:
     42              - A trick buried deep in initPage() requires that the MSB of the NV Item Id is to
     43                be reserved for use by this module.
     44          **************************************************************************************************/
     45          
     46          /*********************************************************************
     47           * INCLUDES
     48           */
     49          
     50          #include "hal_adc.h"
     51          #include "hal_flash.h"
     52          #include "hal_types.h"
     53          #include "ZComdef.h"
     54          #include "OSAL_Nv.h"
     55          
     56          /*********************************************************************
     57           * CONSTANTS
     58           */
     59          
     60          #define OSAL_NV_PAGE_SIZE       HAL_FLASH_PAGE_SIZE
     61          #define OSAL_NV_PAGES_USED      HAL_NV_PAGE_CNT
     62          #define OSAL_NV_PAGE_BEG        HAL_NV_PAGE_BEG
     63          #define OSAL_NV_PAGE_END       (OSAL_NV_PAGE_BEG + OSAL_NV_PAGES_USED - 1)
     64          
     65          #define OSAL_NV_ACTIVE          0x00
     66          #define OSAL_NV_ERASED          0xFF
     67          #define OSAL_NV_ERASED_ID       0xFFFF
     68          #define OSAL_NV_ZEROED_ID       0x0000
     69          // Reserve MSB of Id to signal a search for the "old" source copy (new write interrupted/failed.)
     70          #define OSAL_NV_SOURCE_ID       0x8000
     71          
     72          #define OSAL_NV_PAGE_FREE       HAL_FLASH_PAGE_SIZE
     73          
     74          // In case pages 0-1 are ever used, define a null page value.
     75          #define OSAL_NV_PAGE_NULL       0
     76          
     77          // In case item Id 0 is ever used, define a null item value.
     78          #define OSAL_NV_ITEM_NULL       0
     79          
     80          #define OSAL_NV_WORD_SIZE       HAL_FLASH_WORD_SIZE
     81          
     82          #define OSAL_NV_PAGE_HDR_OFFSET 0
     83          
     84          /*********************************************************************
     85           * MACROS
     86           */
     87          
     88          #define  OSAL_NV_CHECK_BUS_VOLTAGE  (HalAdcCheckVdd( HAL_ADC_VDD_LIMIT_4 ))
     89          
     90          #define OSAL_NV_DATA_SIZE( LEN )  \
     91             ((((LEN) + OSAL_NV_WORD_SIZE - 1) / OSAL_NV_WORD_SIZE) * OSAL_NV_WORD_SIZE)
     92          
     93          #define OSAL_NV_ITEM_SIZE( LEN )  \
     94            (((((LEN) + OSAL_NV_WORD_SIZE - 1) / OSAL_NV_WORD_SIZE) * OSAL_NV_WORD_SIZE) + OSAL_NV_HDR_SIZE)
     95          
     96          /*********************************************************************
     97           * TYPEDEFS
     98           */
     99          
    100          typedef struct
    101          {
    102            uint16 id;
    103            uint16 len;   // Enforce Flash-WORD size on len.
    104            uint16 chk;   // Byte-wise checksum of the 'len' data bytes of the item.
    105            uint16 stat;  // Item status.
    106          } osalNvHdr_t;
    107          // Struct member offsets.
    108          #define OSAL_NV_HDR_ID    0
    109          #define OSAL_NV_HDR_LEN   2
    110          #define OSAL_NV_HDR_CHK   4
    111          #define OSAL_NV_HDR_STAT  6
    112          
    113          #define OSAL_NV_HDR_ITEM  2  // Length of any item of a header struct.
    114          #define OSAL_NV_HDR_SIZE  8
    115          #define OSAL_NV_HDR_HALF (OSAL_NV_HDR_SIZE / 2)
    116          
    117          typedef struct
    118          {
    119            uint16 active;
    120            uint16 inUse;
    121            uint16 xfer;
    122            uint16 spare;
    123          } osalNvPgHdr_t;
    124          // Struct member offsets.
    125          #define OSAL_NV_PG_ACTIVE 0
    126          #define OSAL_NV_PG_INUSE  2
    127          #define OSAL_NV_PG_XFER   4
    128          #define OSAL_NV_PG_SPARE  6
    129          
    130          #define OSAL_NV_PAGE_HDR_SIZE  8
    131          #define OSAL_NV_PAGE_HDR_HALF (OSAL_NV_PAGE_HDR_SIZE / 2)
    132          
    133          typedef enum
    134          {
    135            eNvXfer,
    136            eNvZero
    137          } eNvHdrEnum;
    138          
    139          typedef enum
    140          {
    141            ePgActive,
    142            ePgInUse,
    143            ePgXfer,
    144            ePgSpare
    145          } ePgHdrEnum;
    146          
    147          /*********************************************************************
    148           * EXTERNAL FUNCTIONS
    149           */
    150          
    151          extern bool HalAdcCheckVdd(uint8 limit);
    152          
    153          /*********************************************************************
    154           * GLOBAL VARIABLES
    155           */
    156          
    157          #ifndef OAD_KEEP_NV_PAGES
    158          // When NV pages are to remain intact during OAD download,
    159          // the image itself should not include NV pages.
    160          #pragma location="ZIGNV_ADDRESS_SPACE"

   \                                 In  segment ZIGNV_ADDRESS_SPACE, align 1
    161          __no_init uint8 _nvBuf[OSAL_NV_PAGES_USED * OSAL_NV_PAGE_SIZE];
   \                     _nvBuf:
   \   000000                DS 12288
    162          #pragma required=_nvBuf
    163          #pragma location="IEEE_ADDRESS_SPACE"

   \                                 In  segment IEEE_ADDRESS_SPACE, align 1
    164          __no_init uint8 _nvIEEE[Z_EXTADDR_LEN];
   \                     _nvIEEE:
   \   000000                DS 8
   \   000008                REQUIRE _nvBuf
    165          #pragma required=_nvIEEE
    166          #endif // OAD_KEEP_NV_PAGES
    167          
    168          /*********************************************************************
    169           * LOCAL VARIABLES
    170           */
    171          
    172          // Offset into the page of the first available erased space.

   \                                 In  segment XDATA_Z, align 1, keep-with-next
    173          static uint16 pgOff[OSAL_NV_PAGES_USED];
   \                     pgOff:
   \   000000                DS 12
   \   00000C                REQUIRE __INIT_XDATA_Z
   \   00000C                REQUIRE _nvIEEE
    174          
    175          // Count of the bytes lost for the zeroed-out items.

   \                                 In  segment XDATA_Z, align 1, keep-with-next
    176          static uint16 pgLost[OSAL_NV_PAGES_USED];
   \                     pgLost:
   \   000000                DS 12
   \   00000C                REQUIRE __INIT_XDATA_Z
    177          

   \                                 In  segment XDATA_Z, align 1, keep-with-next
    178          static uint8 pgRes;  // Page reserved for item compacting transfer.
   \                     pgRes:
   \   000000                DS 1
   \   000001                REQUIRE __INIT_XDATA_Z
    179          
    180          // Saving ~100 code bytes to move a uint8* parameter/return value from findItem() to a global.

   \                                 In  segment XDATA_Z, align 1, keep-with-next
    181          static uint8 findPg;
   \                     findPg:
   \   000000                DS 1
   \   000001                REQUIRE __INIT_XDATA_Z
    182          
    183          /* Immediately before the voltage critical operations of a page erase or
    184           * a word write, check bus voltage. If less than min, set global flag & abort.
    185           * Since this is to be done at the lowest level, many void functions would have to be changed to
    186           * return a value and code added to check that value before proceeding, resulting in a very
    187           * expensive code size hit for implementing this properly. Therefore, use this global as follows:
    188           * at the start of osal_nv_item_init/osal_nv_write, set to FALSE, and at the end, before returning,
    189           * check the value. Thus, the global is an accumulator of any error that occurred in any of the
    190           * attempts to modify Flash with a low bus voltage during the complicated sequence of events that
    191           * may occur on any item init or write. This is much more expedient and code saving than adding
    192           * return values and checking return values to early out. No matter which method is used, an NV
    193           * data record may end up mangled due to the low VCC conditions. The strategy is that the headers
    194           * and checksums will detect and allow recovery from such a condition.
    195           *
    196           * One unfortunate side-effect of using the global fail flag vice adding and checking return
    197           * values, is that when setting an item Id to zero has failed due to the low VCC check,
    198           * the page lost-bytes counter is still updated. Having an artificially high lost-byte
    199           * count makes it look like there are more bytes to recover from compacting a page than there may
    200           * actually be. The easy work-around implemented is it to invoke initNV() from osal_nv_item_init or
    201           * osal_nv_write anytime that the failF gets set - this will re-walk all of the pages and set the
    202           * page offset count and page lost bytes count to their actual values.
    203           */

   \                                 In  segment XDATA_Z, align 1, keep-with-next
    204          static uint8 failF;
   \                     failF:
   \   000000                DS 1
   \   000001                REQUIRE __INIT_XDATA_Z
    205          
    206          /*********************************************************************
    207           * LOCAL FUNCTIONS
    208           */
    209          
    210          static uint8  initNV( void );
    211          
    212          static void   setPageUse( uint8 pg, uint8 inUse );
    213          static uint16 initPage( uint8 pg, uint16 id, uint8 findDups );
    214          static void   erasePage( uint8 pg );
    215          static void   compactPage( uint8 pg );
    216          
    217          static uint16 findItem( uint16 id );
    218          static uint8  initItem( uint8 flag, uint16 id, uint16 len, void *buf );
    219          static void   setItem( uint8 pg, uint16 offset, eNvHdrEnum stat );
    220          
    221          static uint16 calcChkB( uint16 len, uint8 *buf );
    222          static uint16 calcChkF( byte pg, uint16 offset, uint16 len );
    223          
    224          static void   writeWord( uint8 pg, uint16 offset, uint8 *buf );
    225          static void   writeWordH( uint8 pg, uint16 offset, uint8 *buf );
    226          static void   writeWordM( uint8 pg, uint16 offset, uint8 *buf, uint16 cnt );
    227          static void   writeBuf( uint8 pg, uint16 offset, uint16 len, uint8 *buf );
    228          static void   xferBuf( uint8 srcPg, uint16 srcOff, uint8 dstPg, uint16 dstOff, uint16 len );
    229          
    230          static uint8  writeItem( uint8 pg, uint16 id, uint16 len, void *buf, uint8 flag );
    231          
    232          /*********************************************************************
    233           * @fn      initNV
    234           *
    235           * @brief   Initialize the NV flash pages.
    236           *
    237           * @param   none
    238           *
    239           * @return  TRUE
    240           */

   \                                 In  segment BANKED_CODE, align 1, keep-with-next
    241          static uint8 initNV( void )
   \                     initNV:
    242          {
   \   000000   74F4         MOV     A,#-0xc
   \   000002   12....       LCALL   ?BANKED_ENTER_XDATA
   \   000005                ; Saved register size: 12
   \   000005                ; Auto size: 8
   \   000005   74F8         MOV     A,#-0x8
   \   000007   12....       LCALL   ?ALLOC_XSTACK8
    243            osalNvPgHdr_t pgHdr;
    244            uint8 oldPg = OSAL_NV_PAGE_NULL;
   \   00000A   75..00       MOV     ?V0 + 1,#0x0
    245            uint8 newPg = OSAL_NV_PAGE_NULL;
   \   00000D   75..00       MOV     ?V0 + 0,#0x0
    246            uint8 findDups = FALSE;
   \   000010   7F00         MOV     R7,#0x0
    247            uint8 pg;
    248          
    249            pgRes = OSAL_NV_PAGE_NULL;
   \   000012   90....       MOV     DPTR,#pgRes
   \   000015   E4           CLR     A
   \   000016   F0           MOVX    @DPTR,A
    250          
    251            for ( pg = OSAL_NV_PAGE_BEG; pg <= OSAL_NV_PAGE_END; pg++ )
   \   000017   7E79         MOV     R6,#0x79
    252            {
    253              HalFlashRead(pg, OSAL_NV_PAGE_HDR_OFFSET, (uint8 *)(&pgHdr), OSAL_NV_HDR_SIZE);
   \                     ??initNV_0:
   \   000019                ; Setup parameters for call to function HalFlashRead
   \   000019   75..08       MOV     ?V0 + 2,#0x8
   \   00001C   75..00       MOV     ?V0 + 3,#0x0
   \   00001F   78..         MOV     R0,#?V0 + 2
   \   000021   12....       LCALL   ?PUSH_XSTACK_I_TWO
   \   000024   7402         MOV     A,#0x2
   \   000026   12....       LCALL   ?XSTACK_DISP0_8
   \   000029   AC82         MOV     R4,DPL
   \   00002B   AD83         MOV     R5,DPH
   \   00002D   7A00         MOV     R2,#0x0
   \   00002F   7B00         MOV     R3,#0x0
   \   000031   EE           MOV     A,R6
   \   000032   12....       LCALL   ??Subroutine38_0 & 0xFFFF
   \                     ??CrossCallReturnLabel_67:
   \   000035   12....       LCALL   ?DEALLOC_XSTACK8
    254          
    255              if ( pgHdr.active == OSAL_NV_ERASED_ID )
   \   000038   85..82       MOV     DPL,?XSP + 0
   \   00003B   85..83       MOV     DPH,?XSP + 1
   \   00003E   E0           MOVX    A,@DPTR
   \   00003F   F4           CPL     A
   \   000040   7003         JNZ     ??initNV_1
   \   000042   A3           INC     DPTR
   \   000043   E0           MOVX    A,@DPTR
   \   000044   F4           CPL     A
   \                     ??initNV_1:
   \   000045   7013         JNZ     ??initNV_2
    256              {
    257                if ( pgRes == OSAL_NV_PAGE_NULL )
   \   000047   90....       MOV     DPTR,#pgRes
   \   00004A   E0           MOVX    A,@DPTR
   \   00004B   7004         JNZ     ??initNV_3
    258                {
    259                  pgRes = pg;
   \   00004D   EE           MOV     A,R6
   \   00004E   F0           MOVX    @DPTR,A
   \   00004F   802B         SJMP    ??initNV_4
    260                }
    261                else
    262                {
    263                  setPageUse( pg, TRUE );
   \                     ??initNV_3:
   \   000051                ; Setup parameters for call to function setPageUse
   \   000051   7A01         MOV     R2,#0x1
   \   000053   EE           MOV     A,R6
   \   000054   F9           MOV     R1,A
   \   000055   12....       LCALL   ??setPageUse?relay
   \   000058   8022         SJMP    ??initNV_4
    264                }
    265              }
    266              else  // Page is active.
    267              {
    268                // If the page is not yet in use, it is the tgt of items from an xfer.
    269                if ( pgHdr.inUse == OSAL_NV_ERASED_ID )
   \                     ??initNV_2:
   \   00005A   7402         MOV     A,#0x2
   \   00005C   12....       LCALL   ?XSTACK_DISP0_8
   \   00005F   E0           MOVX    A,@DPTR
   \   000060   F4           CPL     A
   \   000061   7003         JNZ     ??initNV_5
   \   000063   A3           INC     DPTR
   \   000064   E0           MOVX    A,@DPTR
   \   000065   F4           CPL     A
   \                     ??initNV_5:
   \   000066   7004         JNZ     ??initNV_6
    270                {
    271                  newPg = pg;
   \   000068   8E..         MOV     ?V0 + 0,R6
   \   00006A   8010         SJMP    ??initNV_4
    272                }
    273                // An Xfer from this page was in progress.
    274                else if ( pgHdr.xfer != OSAL_NV_ERASED_ID )
   \                     ??initNV_6:
   \   00006C   7404         MOV     A,#0x4
   \   00006E   12....       LCALL   ?XSTACK_DISP0_8
   \   000071   E0           MOVX    A,@DPTR
   \   000072   F4           CPL     A
   \   000073   7003         JNZ     ??initNV_7
   \   000075   A3           INC     DPTR
   \   000076   E0           MOVX    A,@DPTR
   \   000077   F4           CPL     A
   \                     ??initNV_7:
   \   000078   6002         JZ      ??initNV_4
    275                {
    276                  oldPg = pg;
   \   00007A   8E..         MOV     ?V0 + 1,R6
    277                }
    278              }
    279          
    280              // Calculate page offset and lost bytes - any "old" item triggers an N^2 re-scan from start.
    281              if ( initPage( pg, OSAL_NV_ITEM_NULL, findDups ) != OSAL_NV_ITEM_NULL )
   \                     ??initNV_4:
   \   00007C                ; Setup parameters for call to function initPage
   \   00007C   EF           MOV     A,R7
   \   00007D   FC           MOV     R4,A
   \   00007E   7A00         MOV     R2,#0x0
   \   000080   7B00         MOV     R3,#0x0
   \   000082   EE           MOV     A,R6
   \   000083   F9           MOV     R1,A
   \   000084   12....       LCALL   ??initPage?relay
   \   000087   8B..         MOV     ?V0 + 3,R3
   \   000089   EA           MOV     A,R2
   \   00008A   45..         ORL     A,?V0 + 3
   \   00008C   6004         JZ      ??initNV_8
    282              {
    283                findDups = TRUE;
   \   00008E   7F01         MOV     R7,#0x1
    284                pg = OSAL_NV_PAGE_BEG-1;
   \   000090   7E78         MOV     R6,#0x78
    285                continue;
    286              }
    287            }  // for ( pg = OSAL_NV_PAGE_BEG; pg <= OSAL_NV_PAGE_END; pg++ )
   \                     ??initNV_8:
   \   000092   0E           INC     R6
   \   000093   EE           MOV     A,R6
   \   000094   C3           CLR     C
   \   000095   947F         SUBB    A,#0x7f
   \   000097   4080         JC      ??initNV_0
    288          
    289            /* First the old page is erased, and then the new page is put into use.
    290             * So if a transfer was in progress, the new page will always not yet be
    291             * marked as in use, since that is the last step to ending a transfer.
    292             */
    293            if ( newPg != OSAL_NV_PAGE_NULL )
   \   000099   E5..         MOV     A,?V0 + 0
   \   00009B   601F         JZ      ??initNV_9
    294            {
    295              /* If there is already a fallow page reserved, keep it and put the newPg in use.
    296               * An unfinished compaction will finish to the new reserve page and the old page
    297               * will be erased and reserved.
    298               */
    299              if ( pgRes != OSAL_NV_PAGE_NULL )
   \   00009D   90....       MOV     DPTR,#pgRes
   \   0000A0   E0           MOVX    A,@DPTR
   \   0000A1   600D         JZ      ??initNV_10
    300              {
    301                setPageUse( newPg, TRUE );
   \   0000A3                ; Setup parameters for call to function setPageUse
   \   0000A3   7A01         MOV     R2,#0x1
   \   0000A5   A9..         MOV     R1,?V0 + 0
   \   0000A7   12....       LCALL   ??setPageUse?relay
    302              }
    303              else if ( oldPg != OSAL_NV_PAGE_NULL )
    304              {
    305                pgRes = newPg;
    306              }
    307          
    308              /* If a page compaction was interrupted and the page being compacted is not
    309               * yet erased, then there may be items remaining to xfer before erasing.
    310               */
    311              if ( oldPg != OSAL_NV_PAGE_NULL )
   \   0000AA   E5..         MOV     A,?V0 + 1
   \   0000AC   7009         JNZ     ??initNV_11
   \   0000AE   800C         SJMP    ??initNV_9
   \                     ??initNV_10:
   \   0000B0   E5..         MOV     A,?V0 + 1
   \   0000B2   600E         JZ      ??initNV_12
   \   0000B4   E5..         MOV     A,?V0 + 0
   \   0000B6   F0           MOVX    @DPTR,A
    312              {
    313                compactPage( oldPg );
   \                     ??initNV_11:
   \   0000B7                ; Setup parameters for call to function compactPage
   \   0000B7   A9..         MOV     R1,?V0 + 1
   \   0000B9   12....       LCALL   ??compactPage?relay
    314              }
    315            }
    316          
    317            /* If no page met the criteria to be the reserve page:
    318             *  - A compactPage() failed or board reset before doing so.
    319             *  - Perhaps the user changed which Flash pages are dedicated to NV and downloaded the code
    320             *    without erasing Flash?
    321             */
    322            if ( pgRes == OSAL_NV_PAGE_NULL )
   \                     ??initNV_9:
   \   0000BC   90....       MOV     DPTR,#pgRes
   \   0000BF   E0           MOVX    A,@DPTR
   \   0000C0   7011         JNZ     ??initNV_13
    323            {
    324              for ( pg = OSAL_NV_PAGE_BEG; pg <= OSAL_NV_PAGE_END; pg++ )
   \                     ??initNV_12:
   \   0000C2   7E79         MOV     R6,#0x79
    325              {
    326                erasePage( pg );
   \                     ??initNV_14:
   \   0000C4                ; Setup parameters for call to function erasePage
   \   0000C4   EE           MOV     A,R6
   \   0000C5   F9           MOV     R1,A
   \   0000C6   12....       LCALL   ??erasePage?relay
    327              }
   \   0000C9   0E           INC     R6
   \   0000CA   EE           MOV     A,R6
   \   0000CB   C3           CLR     C
   \   0000CC   947F         SUBB    A,#0x7f
   \   0000CE   40F4         JC      ??initNV_14
    328              initNV();
   \   0000D0                ; Setup parameters for call to function initNV
   \   0000D0   12....       LCALL   ??initNV?relay
    329            }
    330          
    331            return TRUE;
   \                     ??initNV_13:
   \   0000D3   7901         MOV     R1,#0x1
   \   0000D5   7408         MOV     A,#0x8
   \   0000D7   12....       LCALL   ?DEALLOC_XSTACK8
   \   0000DA                REQUIRE ?Subroutine0
   \   0000DA                ; // Fall through to label ?Subroutine0
    332          }

   \                                 In  segment BANKED_CODE, align 1, keep-with-next
   \                     ?Subroutine0:
   \   000000   7F04         MOV     R7,#0x4
   \   000002   02....       LJMP    ?BANKED_LEAVE_XDATA

   \                                 In  segment BANKED_CODE, align 1, keep-with-next
   \                     ??Subroutine38_0:
   \   000000   F9           MOV     R1,A
   \   000001                REQUIRE ??Subroutine39_0
   \   000001                ; // Fall through to label ??Subroutine39_0

   \                                 In  segment BANKED_CODE, align 1, keep-with-next
   \                     ??Subroutine39_0:
   \   000000   12....       LCALL   ??HalFlashRead?relay
   \   000003   7402         MOV     A,#0x2
   \   000005   22           RET
    333          
    334          /*********************************************************************
    335           * @fn      setPageUse
    336           *
    337           * @brief   Set page header active/inUse state according to 'inUse'.
    338           *
    339           * @param   pg - Valid NV page to verify and init.
    340           * @param   inUse - Boolean TRUE if inUse, FALSE if only active.
    341           *
    342           * @return  none
    343           */

   \                                 In  segment BANKED_CODE, align 1, keep-with-next
    344          static void setPageUse( uint8 pg, uint8 inUse )
   \                     setPageUse:
    345          {
   \   000000   74F7         MOV     A,#-0x9
   \   000002   12....       LCALL   ?BANKED_ENTER_XDATA
   \   000005                ; Saved register size: 9
   \   000005                ; Auto size: 8
   \   000005   74F8         MOV     A,#-0x8
   \   000007   12....       LCALL   ?ALLOC_XSTACK8
   \   00000A   EA           MOV     A,R2
   \   00000B   FF           MOV     R7,A
    346            osalNvPgHdr_t pgHdr;
    347          
    348            pgHdr.active = OSAL_NV_ZEROED_ID;
   \   00000C   85..82       MOV     DPL,?XSP + 0
   \   00000F   85..83       MOV     DPH,?XSP + 1
   \   000012   E4           CLR     A
   \   000013   F0           MOVX    @DPTR,A
   \   000014   A3           INC     DPTR
   \   000015   F0           MOVX    @DPTR,A
    349          
    350            if ( inUse )
   \   000016   EF           MOV     A,R7
   \   000017   6008         JZ      ??setPageUse_0
    351            {
    352              pgHdr.inUse = OSAL_NV_ZEROED_ID;
   \   000019   7402         MOV     A,#0x2
   \   00001B   12....       LCALL   ?XSTACK_DISP0_8
   \   00001E   E4           CLR     A
   \   00001F   8007         SJMP    ??setPageUse_1
    353            }
    354            else
    355            {
    356              pgHdr.inUse = OSAL_NV_ERASED_ID;
   \                     ??setPageUse_0:
   \   000021   7402         MOV     A,#0x2
   \   000023   12....       LCALL   ?XSTACK_DISP0_8
   \   000026   74FF         MOV     A,#-0x1
    357            }
   \                     ??setPageUse_1:
   \   000028   12....       LCALL   ??Subroutine34_0 & 0xFFFF
    358          
    359            writeWord( pg, OSAL_NV_PAGE_HDR_OFFSET, (uint8*)(&pgHdr) );
   \                     ??CrossCallReturnLabel_61:
   \   00002B   7A00         MOV     R2,#0x0
   \   00002D   7B00         MOV     R3,#0x0
   \   00002F   12....       LCALL   ??writeWord?relay
    360          }
   \   000032   7408         MOV     A,#0x8
   \   000034                REQUIRE ?Subroutine1
   \   000034                ; // Fall through to label ?Subroutine1

   \                                 In  segment BANKED_CODE, align 1, keep-with-next
   \                     ?Subroutine1:
   \   000000   12....       LCALL   ?DEALLOC_XSTACK8
   \   000003                REQUIRE ??Subroutine32_0
   \   000003                ; // Fall through to label ??Subroutine32_0

   \                                 In  segment BANKED_CODE, align 1, keep-with-next
   \                     ??Subroutine32_0:
   \   000000   7F01         MOV     R7,#0x1
   \   000002   02....       LJMP    ?BANKED_LEAVE_XDATA

   \                                 In  segment BANKED_CODE, align 1, keep-with-next
   \                     ??Subroutine34_0:
   \   000000   F0           MOVX    @DPTR,A
   \   000001   A3           INC     DPTR
   \   000002                REQUIRE ??Subroutine35_0
   \   000002                ; // Fall through to label ??Subroutine35_0

   \                                 In  segment BANKED_CODE, align 1, keep-with-next
   \                     ??Subroutine35_0:
   \   000000   F0           MOVX    @DPTR,A
   \   000001                ; Setup parameters for call to function writeWordH
   \   000001                ; Setup parameters for call to function writeWord
   \   000001                ; Setup parameters for call to function writeWord
   \   000001                ; Setup parameters for call to function writeWord
   \   000001   85..82       MOV     DPL,?XSP + 0
   \   000004   85..83       MOV     DPH,?XSP + 1
   \   000007   AC82         MOV     R4,DPL
   \   000009   AD83         MOV     R5,DPH
   \   00000B   22           RET
    361          
    362          /*********************************************************************
    363           * @fn      initPage
    364           *
    365           * @brief   Walk the page items; calculate checksums, lost bytes & page offset.
    366           *
    367           * @param   pg - Valid NV page to verify and init.
    368           * @param   id - Valid NV item Id to use function as a "findItem".
    369           *               If set to NULL then just perform the page initialization.
    370           *
    371           * @return  If 'id' is non-NULL and good checksums are found, return the offset
    372           *          of the data corresponding to item Id; else OSAL_NV_ITEM_NULL.
    373           */

   \                                 In  segment BANKED_CODE, align 1, keep-with-next
    374          static uint16 initPage( uint8 pg, uint16 id, uint8 findDups )
   \                     initPage:
    375          {
   \   000000   74EE         MOV     A,#-0x12
   \   000002   12....       LCALL   ?BANKED_ENTER_XDATA
   \   000005                ; Saved register size: 18
   \   000005                ; Auto size: 8
   \   000005   74F8         MOV     A,#-0x8
   \   000007   12....       LCALL   ?ALLOC_XSTACK8
   \   00000A   89..         MOV     ?V0 + 4,R1
   \   00000C   8A..         MOV     ?V0 + 6,R2
   \   00000E   8B..         MOV     ?V0 + 7,R3
   \   000010   8C..         MOV     ?V0 + 5,R4
    376            uint16 offset = OSAL_NV_PAGE_HDR_SIZE;
   \   000012   75..08       MOV     ?V0 + 2,#0x8
   \   000015   75..00       MOV     ?V0 + 3,#0x0
    377            uint16 sz, lost = 0;
   \   000018   7E00         MOV     R6,#0x0
   \   00001A   7F00         MOV     R7,#0x0
   \   00001C   801C         SJMP    ??initPage_0
    378            osalNvHdr_t hdr;
    379          
    380            do
    381            {
    382              HalFlashRead(pg, offset, (uint8 *)(&hdr), OSAL_NV_HDR_SIZE);
    383          
    384              if ( hdr.id == OSAL_NV_ERASED_ID )
    385              {
    386                break;
    387              }
    388              offset += OSAL_NV_HDR_SIZE;
    389              sz = OSAL_NV_DATA_SIZE( hdr.len );
    390          
    391              // A bad 'len' write has blown away the rest of the page.
    392              if ( (offset + sz) > OSAL_NV_PAGE_FREE )
    393              {
    394                lost += (OSAL_NV_PAGE_FREE - offset + OSAL_NV_HDR_SIZE);
    395                offset = OSAL_NV_PAGE_FREE;
    396                break;
    397              }
    398          
    399              if ( hdr.id != OSAL_NV_ZEROED_ID )
    400              {
    401                /* This trick allows function to do double duty for findItem() without
    402                 * compromising its essential functionality at powerup initialization.
    403                 */
    404                if ( id != OSAL_NV_ITEM_NULL )
    405                {
    406                  /* This trick allows asking to find the old/transferred item in case
    407                   * of a successful new item write that gets interrupted before the
    408                   * old item can be zeroed out.
    409                   */
    410                  if ( (id & 0x7fff) == hdr.id )
    411                  {
    412                    if ( (((id & OSAL_NV_SOURCE_ID) == 0) && (hdr.stat == OSAL_NV_ERASED_ID)) ||
    413                         (((id & OSAL_NV_SOURCE_ID) != 0) && (hdr.stat != OSAL_NV_ERASED_ID)) )
    414                    {
    415                      return offset;
    416                    }
    417                  }
    418                }
    419                // When invoked from the osal_nv_init(), verify checksums and find & zero any duplicates.
    420                else
    421                {
    422                  if ( hdr.chk == calcChkF( pg, offset, hdr.len ) )
    423                  {
    424                    if ( findDups )
    425                    {
    426                      if ( hdr.stat == OSAL_NV_ERASED_ID )
    427                      {
    428                        /* The trick of setting the MSB of the item Id causes the logic
    429                         * immediately above to return a valid page only if the header 'stat'
    430                         * indicates that it was the older item being transferred.
    431                         */
    432                        uint16 off = findItem( (hdr.id | OSAL_NV_SOURCE_ID) );
    433          
    434                        if ( off != OSAL_NV_ITEM_NULL )
    435                        {
    436                          setItem( findPg, off, eNvZero );  // Mark old duplicate as invalid.
    437                        }
    438                      }
    439                    }
    440                    // Any "old" item immediately exits and triggers the N^2 exhaustive initialization.
    441                    else if ( hdr.stat != OSAL_NV_ERASED_ID )
    442                    {
    443                      return OSAL_NV_ERASED_ID;
    444                    }
    445                  }
    446                  else
    447                  {
    448                    setItem( pg, offset, eNvZero );  // Mark bad checksum as invalid.
    449                    lost += (OSAL_NV_HDR_SIZE + sz);
    450                  }
    451                }
    452              }
    453              else
    454              {
    455                lost += (OSAL_NV_HDR_SIZE + sz);
   \                     ??initPage_1:
   \   00001E   E5..         MOV     A,?V0 + 0
   \   000020   2408         ADD     A,#0x8
   \   000022   F8           MOV     R0,A
   \   000023   E5..         MOV     A,?V0 + 1
   \   000025   3400         ADDC    A,#0x0
   \   000027   F9           MOV     R1,A
   \   000028   EE           MOV     A,R6
   \   000029   28           ADD     A,R0
   \   00002A   FE           MOV     R6,A
   \   00002B   EF           MOV     A,R7
   \   00002C   39           ADDC    A,R1
   \   00002D   FF           MOV     R7,A
    456              }
    457              offset += sz;
   \                     ??initPage_2:
   \   00002E   E5..         MOV     A,?V0 + 2
   \   000030   25..         ADD     A,?V0 + 0
   \   000032   F5..         MOV     ?V0 + 2,A
   \   000034   E5..         MOV     A,?V0 + 3
   \   000036   35..         ADDC    A,?V0 + 1
   \   000038   F5..         MOV     ?V0 + 3,A
    458          
    459            } while ( TRUE );
   \                     ??initPage_0:
   \   00003A                ; Setup parameters for call to function HalFlashRead
   \   00003A   75..08       MOV     ?V0 + 0,#0x8
   \   00003D   75..00       MOV     ?V0 + 1,#0x0
   \   000040   78..         MOV     R0,#?V0 + 0
   \   000042   12....       LCALL   ?PUSH_XSTACK_I_TWO
   \   000045   7402         MOV     A,#0x2
   \   000047   12....       LCALL   ?XSTACK_DISP0_8
   \   00004A   AC82         MOV     R4,DPL
   \   00004C   AD83         MOV     R5,DPH
   \   00004E   AA..         MOV     R2,?V0 + 2
   \   000050   AB..         MOV     R3,?V0 + 3
   \   000052   A9..         MOV     R1,?V0 + 4
   \   000054   12....       LCALL   ??Subroutine39_0 & 0xFFFF
   \                     ??CrossCallReturnLabel_69:
   \   000057   12....       LCALL   ?DEALLOC_XSTACK8
   \   00005A   85..82       MOV     DPL,?XSP + 0
   \   00005D   85..83       MOV     DPH,?XSP + 1
   \   000060   E0           MOVX    A,@DPTR
   \   000061   F4           CPL     A
   \   000062   7003         JNZ     ??initPage_3
   \   000064   A3           INC     DPTR
   \   000065   E0           MOVX    A,@DPTR
   \   000066   F4           CPL     A
   \                     ??initPage_3:
   \   000067   603E         JZ      ??initPage_4
   \   000069   E5..         MOV     A,?V0 + 2
   \   00006B   2408         ADD     A,#0x8
   \   00006D   F5..         MOV     ?V0 + 2,A
   \   00006F   E5..         MOV     A,?V0 + 3
   \   000071   3400         ADDC    A,#0x0
   \   000073   F5..         MOV     ?V0 + 3,A
   \   000075   7402         MOV     A,#0x2
   \   000077   12....       LCALL   ?XSTACK_DISP0_8
   \   00007A   12....       LCALL   ?Subroutine12 & 0xFFFF
   \                     ??CrossCallReturnLabel_12:
   \   00007D   F5..         MOV     ?V0 + 0,A
   \   00007F   E9           MOV     A,R1
   \   000080   F5..         MOV     ?V0 + 1,A
   \   000082   E5..         MOV     A,?V0 + 2
   \   000084   25..         ADD     A,?V0 + 0
   \   000086   F8           MOV     R0,A
   \   000087   E5..         MOV     A,?V0 + 3
   \   000089   35..         ADDC    A,?V0 + 1
   \   00008B   12....       LCALL   ??Subroutine33_0 & 0xFFFF
   \                     ??CrossCallReturnLabel_55:
   \   00008E   4033         JC      ??initPage_5
   \   000090   EE           MOV     A,R6
   \   000091   2408         ADD     A,#0x8
   \   000093   F8           MOV     R0,A
   \   000094   EF           MOV     A,R7
   \   000095   3408         ADDC    A,#0x8
   \   000097   F9           MOV     R1,A
   \   000098   E8           MOV     A,R0
   \   000099   C3           CLR     C
   \   00009A   95..         SUBB    A,?V0 + 2
   \   00009C   FE           MOV     R6,A
   \   00009D   E9           MOV     A,R1
   \   00009E   95..         SUBB    A,?V0 + 3
   \   0000A0   FF           MOV     R7,A
   \   0000A1   75..00       MOV     ?V0 + 2,#0x0
   \   0000A4   75..08       MOV     ?V0 + 3,#0x8
    460          
    461            pgOff[pg - OSAL_NV_PAGE_BEG] = offset;
   \                     ??initPage_4:
   \   0000A7   E5..         MOV     A,?V0 + 4
   \   0000A9   12....       LCALL   ?Subroutine20 & 0xFFFF
   \                     ??CrossCallReturnLabel_32:
   \   0000AC   E5..         MOV     A,?V0 + 2
   \   0000AE   F0           MOVX    @DPTR,A
   \   0000AF   A3           INC     DPTR
   \   0000B0   E5..         MOV     A,?V0 + 3
   \   0000B2   12....       LCALL   ?Subroutine7 & 0xFFFF
    462            pgLost[pg - OSAL_NV_PAGE_BEG] = lost;
   \                     ??CrossCallReturnLabel_2:
   \   0000B5   EE           MOV     A,R6
   \   0000B6   F0           MOVX    @DPTR,A
   \   0000B7   A3           INC     DPTR
   \   0000B8   EF           MOV     A,R7
   \   0000B9   F0           MOVX    @DPTR,A
    463          
    464            return OSAL_NV_ITEM_NULL;
   \   0000BA   7A00         MOV     R2,#0x0
   \   0000BC   7B00         MOV     R3,#0x0
   \                     ??initPage_6:
   \   0000BE   7408         MOV     A,#0x8
   \   0000C0   02....       LJMP    ??Subroutine36_0 & 0xFFFF
   \                     ??initPage_5:
   \   0000C3   12....       LCALL   ?Subroutine8 & 0xFFFF
   \                     ??CrossCallReturnLabel_87:
   \   0000C6   E8           MOV     A,R0
   \   0000C7   49           ORL     A,R1
   \   0000C8   7003         JNZ     $+5
   \   0000CA   02....       LJMP    ??initPage_1 & 0xFFFF
   \   0000CD   E5..         MOV     A,?V0 + 6
   \   0000CF   45..         ORL     A,?V0 + 7
   \   0000D1   6049         JZ      ??initPage_7
   \   0000D3   A8..         MOV     R0,?V0 + 6
   \   0000D5   E5..         MOV     A,?V0 + 7
   \   0000D7   547F         ANL     A,#0x7f
   \   0000D9   F9           MOV     R1,A
   \   0000DA   85..82       MOV     DPL,?XSP + 0
   \   0000DD   85..83       MOV     DPH,?XSP + 1
   \   0000E0   E0           MOVX    A,@DPTR
   \   0000E1   68           XRL     A,R0
   \   0000E2   7003         JNZ     ??initPage_8
   \   0000E4   A3           INC     DPTR
   \   0000E5   E0           MOVX    A,@DPTR
   \   0000E6   69           XRL     A,R1
   \                     ??initPage_8:
   \   0000E7   6003         JZ      $+5
   \   0000E9   02....       LJMP    ??initPage_2 & 0xFFFF
   \   0000EC   E5..         MOV     A,?V0 + 7
   \   0000EE   5480         ANL     A,#0x80
   \   0000F0   7013         JNZ     ??initPage_9
   \   0000F2   7406         MOV     A,#0x6
   \   0000F4   12....       LCALL   ?XSTACK_DISP0_8
   \   0000F7   E0           MOVX    A,@DPTR
   \   0000F8   F4           CPL     A
   \   0000F9   7003         JNZ     ??initPage_10
   \   0000FB   A3           INC     DPTR
   \   0000FC   E0           MOVX    A,@DPTR
   \   0000FD   F4           CPL     A
   \                     ??initPage_10:
   \   0000FE   6003         JZ      $+5
   \   000100   02....       LJMP    ??initPage_2 & 0xFFFF
   \   000103   8011         SJMP    ??initPage_11
   \                     ??initPage_9:
   \   000105   7406         MOV     A,#0x6
   \   000107   12....       LCALL   ?XSTACK_DISP0_8
   \   00010A   E0           MOVX    A,@DPTR
   \   00010B   F4           CPL     A
   \   00010C   7003         JNZ     ??initPage_12
   \   00010E   A3           INC     DPTR
   \   00010F   E0           MOVX    A,@DPTR
   \   000110   F4           CPL     A
   \                     ??initPage_12:
   \   000111   7003         JNZ     $+5
   \   000113   02....       LJMP    ??initPage_2 & 0xFFFF
   \                     ??initPage_11:
   \   000116   AA..         MOV     R2,?V0 + 2
   \   000118   AB..         MOV     R3,?V0 + 3
   \   00011A   80A2         SJMP    ??initPage_6
   \                     ??initPage_7:
   \   00011C                ; Setup parameters for call to function calcChkF
   \   00011C   7402         MOV     A,#0x2
   \   00011E   12....       LCALL   ?XSTACK_DISP0_8
   \   000121   12....       LCALL   ?Subroutine14 & 0xFFFF
   \                     ??CrossCallReturnLabel_17:
   \   000124   AA..         MOV     R2,?V0 + 2
   \   000126   AB..         MOV     R3,?V0 + 3
   \   000128   A9..         MOV     R1,?V0 + 4
   \   00012A   12....       LCALL   ??calcChkF?relay
   \   00012D   8A..         MOV     ?V0 + 8,R2
   \   00012F   8B..         MOV     ?V0 + 9,R3
   \   000131   A8..         MOV     R0,?V0 + 8
   \   000133   A9..         MOV     R1,?V0 + 9
   \   000135   7404         MOV     A,#0x4
   \   000137   12....       LCALL   ?XSTACK_DISP0_8
   \   00013A   E0           MOVX    A,@DPTR
   \   00013B   68           XRL     A,R0
   \   00013C   7003         JNZ     ??initPage_13
   \   00013E   A3           INC     DPTR
   \   00013F   E0           MOVX    A,@DPTR
   \   000140   69           XRL     A,R1
   \                     ??initPage_13:
   \   000141   7051         JNZ     ??initPage_14
   \   000143   E5..         MOV     A,?V0 + 5
   \   000145   6035         JZ      ??initPage_15
   \   000147   7406         MOV     A,#0x6
   \   000149   12....       LCALL   ?XSTACK_DISP0_8
   \   00014C   E0           MOVX    A,@DPTR
   \   00014D   F4           CPL     A
   \   00014E   7003         JNZ     ??initPage_16
   \   000150   A3           INC     DPTR
   \   000151   E0           MOVX    A,@DPTR
   \   000152   F4           CPL     A
   \                     ??initPage_16:
   \   000153   6003         JZ      $+5
   \   000155   02....       LJMP    ??initPage_2 & 0xFFFF
   \   000158                ; Setup parameters for call to function findItem
   \   000158   85..82       MOV     DPL,?XSP + 0
   \   00015B   85..83       MOV     DPH,?XSP + 1
   \   00015E   E0           MOVX    A,@DPTR
   \   00015F   FA           MOV     R2,A
   \   000160   A3           INC     DPTR
   \   000161   E0           MOVX    A,@DPTR
   \   000162   4480         ORL     A,#0x80
   \   000164   FB           MOV     R3,A
   \   000165   12....       LCALL   ??findItem?relay
   \   000168   EA           MOV     A,R2
   \   000169   4B           ORL     A,R3
   \   00016A   7003         JNZ     $+5
   \   00016C   02....       LJMP    ??initPage_2 & 0xFFFF
   \   00016F                ; Setup parameters for call to function setItem
   \   00016F   7C01         MOV     R4,#0x1
   \   000171   90....       MOV     DPTR,#findPg
   \   000174   E0           MOVX    A,@DPTR
   \   000175   F9           MOV     R1,A
   \   000176   12....       LCALL   ??setItem?relay
   \   000179   02....       LJMP    ??initPage_2 & 0xFFFF
   \                     ??initPage_15:
   \   00017C   7406         MOV     A,#0x6
   \   00017E   12....       LCALL   ?XSTACK_DISP0_8
   \   000181   E0           MOVX    A,@DPTR
   \   000182   F4           CPL     A
   \   000183   7003         JNZ     ??initPage_17
   \   000185   A3           INC     DPTR
   \   000186   E0           MOVX    A,@DPTR
   \   000187   F4           CPL     A
   \                     ??initPage_17:
   \   000188   7003         JNZ     $+5
   \   00018A   02....       LJMP    ??initPage_2 & 0xFFFF
   \   00018D   7AFF         MOV     R2,#-0x1
   \   00018F   7BFF         MOV     R3,#-0x1
   \   000191   02....       LJMP    ??initPage_6 & 0xFFFF
   \                     ??initPage_14:
   \   000194                ; Setup parameters for call to function setItem
   \   000194   7C01         MOV     R4,#0x1
   \   000196   AA..         MOV     R2,?V0 + 2
   \   000198   AB..         MOV     R3,?V0 + 3
   \   00019A   A9..         MOV     R1,?V0 + 4
   \   00019C   12....       LCALL   ??setItem?relay
   \   00019F   02....       LJMP    ??initPage_1 & 0xFFFF
    465          }

   \                                 In  segment BANKED_CODE, align 1, keep-with-next
   \                     ?Subroutine20:
   \   000000   12....       LCALL   ?Subroutine30 & 0xFFFF
   \                     ??CrossCallReturnLabel_52:
   \   000003   22           RET

   \                                 In  segment BANKED_CODE, align 1, keep-with-next
   \                     ?Subroutine7:
   \   000000   F0           MOVX    @DPTR,A
   \   000001   12....       LCALL   ?Subroutine31 & 0xFFFF
   \                     ??CrossCallReturnLabel_54:
   \   000004   22           RET

   \                                 In  segment BANKED_CODE, align 1, keep-with-next
   \                     ?Subroutine31:
   \   000000   74..         MOV     A,#(pgLost + 14) & 0xff
   \   000002   28           ADD     A,R0
   \   000003   F582         MOV     DPL,A
   \   000005   74..         MOV     A,#((pgLost - 242) >> 8) & 0xff
   \   000007   39           ADDC    A,R1
   \   000008   F583         MOV     DPH,A
   \   00000A   22           RET

   \                                 In  segment BANKED_CODE, align 1, keep-with-next
   \                     ??Subroutine33_0:
   \   000000   F9           MOV     R1,A
   \   000001   C3           CLR     C
   \   000002   E8           MOV     A,R0
   \   000003   9401         SUBB    A,#0x1
   \   000005   E9           MOV     A,R1
   \   000006   9408         SUBB    A,#0x8
   \   000008   22           RET

   \                                 In  segment BANKED_CODE, align 1, keep-with-next
   \                     ?Subroutine14:
   \   000000   E0           MOVX    A,@DPTR
   \   000001   FC           MOV     R4,A
   \   000002   A3           INC     DPTR
   \   000003   E0           MOVX    A,@DPTR
   \   000004   FD           MOV     R5,A
   \   000005   22           RET

   \                                 In  segment BANKED_CODE, align 1, keep-with-next
   \                     ?Subroutine12:
   \   000000   12....       LCALL   ?Subroutine29 & 0xFFFF
   \                     ??CrossCallReturnLabel_49:
   \   000003   22           RET

   \                                 In  segment BANKED_CODE, align 1, keep-with-next
   \                     ?Subroutine29:
   \   000000   E0           MOVX    A,@DPTR
   \   000001   2403         ADD     A,#0x3
   \   000003   F8           MOV     R0,A
   \   000004   A3           INC     DPTR
   \   000005   E0           MOVX    A,@DPTR
   \   000006   3400         ADDC    A,#0x0
   \   000008   F9           MOV     R1,A
   \   000009   E8           MOV     A,R0
   \   00000A   54FC         ANL     A,#0xfc
   \   00000C   22           RET

   \                                 In  segment BANKED_CODE, align 1, keep-with-next
   \                     ?Subroutine30:
   \   000000   C3           CLR     C
   \   000001   33           RLC     A
   \   000002   F8           MOV     R0,A
   \   000003   E4           CLR     A
   \   000004   33           RLC     A
   \   000005   F9           MOV     R1,A
   \   000006   74..         MOV     A,#(pgOff + 14) & 0xff
   \   000008   28           ADD     A,R0
   \   000009   F582         MOV     DPL,A
   \   00000B   74..         MOV     A,#((pgOff - 242) >> 8) & 0xff
   \   00000D   39           ADDC    A,R1
   \   00000E   F583         MOV     DPH,A
   \   000010   22           RET

   \                                 In  segment BANKED_CODE, align 1, keep-with-next
   \                     ??Subroutine36_0:
   \   000000   12....       LCALL   ?DEALLOC_XSTACK8
   \   000003   7F0A         MOV     R7,#0xa
   \   000005   02....       LJMP    ?BANKED_LEAVE_XDATA

   \                                 In  segment BANKED_CODE, align 1, keep-with-next
   \                     ?Subroutine8:
   \   000000   85..82       MOV     DPL,?XSP + 0
   \   000003   85..83       MOV     DPH,?XSP + 1
   \   000006                REQUIRE ??Subroutine41_0
   \   000006                ; // Fall through to label ??Subroutine41_0

   \                                 In  segment BANKED_CODE, align 1, keep-with-next
   \                     ??Subroutine41_0:
   \   000000   E0           MOVX    A,@DPTR
   \   000001   F8           MOV     R0,A
   \   000002   A3           INC     DPTR
   \   000003   E0           MOVX    A,@DPTR
   \   000004   F9           MOV     R1,A
   \   000005   22           RET
    466          
    467          /*********************************************************************
    468           * @fn      erasePage
    469           *
    470           * @brief   Erases a page in Flash.
    471           *
    472           * @param   pg - Valid NV page to erase.
    473           *
    474           * @return  none
    475           */

   \                                 In  segment BANKED_CODE, align 1, keep-with-next
    476          static void erasePage( uint8 pg )
   \                     erasePage:
    477          {
   \   000000   74F7         MOV     A,#-0x9
   \   000002   12....       LCALL   ?BANKED_ENTER_XDATA
   \   000005                ; Saved register size: 9
   \   000005                ; Auto size: 0
   \   000005   E9           MOV     A,R1
   \   000006   FE           MOV     R6,A
    478            if ( !OSAL_NV_CHECK_BUS_VOLTAGE )
   \   000007                ; Setup parameters for call to function HalAdcCheckVdd
   \   000007   7904         MOV     R1,#0x4
   \   000009   12....       LCALL   ??HalAdcCheckVdd?relay
   \   00000C   E9           MOV     A,R1
   \   00000D   7007         JNZ     ??erasePage_0
    479            {
    480              failF = TRUE;
   \   00000F   90....       MOV     DPTR,#failF
   \   000012   7401         MOV     A,#0x1
   \   000014   8014         SJMP    ??erasePage_1
    481              return;
    482            }
    483          
    484            HalFlashErase(pg);
   \                     ??erasePage_0:
   \   000016                ; Setup parameters for call to function HalFlashErase
   \   000016   EE           MOV     A,R6
   \   000017   F9           MOV     R1,A
   \   000018   12....       LCALL   ??HalFlashErase?relay
    485          
    486            pgOff[pg - OSAL_NV_PAGE_BEG] = OSAL_NV_PAGE_HDR_SIZE;
   \   00001B   EE           MOV     A,R6
   \   00001C   12....       LCALL   ?Subroutine20 & 0xFFFF
   \                     ??CrossCallReturnLabel_33:
   \   00001F   7408         MOV     A,#0x8
   \   000021   F0           MOVX    @DPTR,A
   \   000022   A3           INC     DPTR
   \   000023   E4           CLR     A
   \   000024   12....       LCALL   ?Subroutine7 & 0xFFFF
    487            pgLost[pg - OSAL_NV_PAGE_BEG] = 0;
   \                     ??CrossCallReturnLabel_3:
   \   000027   E4           CLR     A
   \   000028   F0           MOVX    @DPTR,A
   \   000029   A3           INC     DPTR
   \                     ??erasePage_1:
   \   00002A   F0           MOVX    @DPTR,A
    488          }
   \   00002B   02....       LJMP    ??Subroutine32_0 & 0xFFFF
    489          
    490          /*********************************************************************
    491           * @fn      compactPage
    492           *
    493           * @brief   Compacts the page specified.
    494           *
    495           * @param   srcPg - Valid NV page to erase.
    496           *
    497           * @return  none
    498           */

   \                                 In  segment BANKED_CODE, align 1, keep-with-next
    499          static void compactPage( uint8 srcPg )
   \                     compactPage:
    500          {
   \   000000   74F2         MOV     A,#-0xe
   \   000002   12....       LCALL   ?BANKED_ENTER_XDATA
   \   000005                ; Saved register size: 14
   \   000005                ; Auto size: 10
   \   000005   74F6         MOV     A,#-0xa
   \   000007   12....       LCALL   ?ALLOC_XSTACK8
   \   00000A   E9           MOV     A,R1
   \   00000B   FE           MOV     R6,A
    501            uint16 dstOff = pgOff[pgRes-OSAL_NV_PAGE_BEG];
   \   00000C   12....       LCALL   ?Subroutine9 & 0xFFFF
   \                     ??CrossCallReturnLabel_4:
   \   00000F   E0           MOVX    A,@DPTR
   \   000010   F5..         MOV     ?V0 + 0,A
   \   000012   A3           INC     DPTR
   \   000013   E0           MOVX    A,@DPTR
   \   000014   F5..         MOV     ?V0 + 1,A
    502            uint16 srcOff = OSAL_NV_ZEROED_ID;
   \   000016   12....       LCALL   ?Subroutine5 & 0xFFFF
    503            osalNvHdr_t hdr;
    504          
    505            // Mark page as being in process of compaction.
    506            writeWordH( srcPg, OSAL_NV_PG_XFER, (uint8*)(&srcOff) );
   \                     ??CrossCallReturnLabel_59:
   \   000019   7A04         MOV     R2,#0x4
   \   00001B   FB           MOV     R3,A
   \   00001C   EE           MOV     A,R6
   \   00001D   F9           MOV     R1,A
   \   00001E   12....       LCALL   ??writeWordH?relay
    507          
    508            srcOff = OSAL_NV_PAGE_HDR_SIZE;
   \   000021   85..82       MOV     DPL,?XSP + 0
   \   000024   85..83       MOV     DPH,?XSP + 1
   \   000027   7408         MOV     A,#0x8
   \   000029   F0           MOVX    @DPTR,A
   \   00002A   A3           INC     DPTR
   \   00002B   E4           CLR     A
   \   00002C   02....       LJMP    ??compactPage_0 & 0xFFFF
    509          
    510            do
    511            {
    512              uint16 sz;
    513              HalFlashRead(srcPg, srcOff, (uint8 *)(&hdr), OSAL_NV_HDR_SIZE);
    514          
    515              if ( hdr.id == OSAL_NV_ERASED_ID )
    516              {
    517                break;
    518              }
    519          
    520              srcOff += OSAL_NV_HDR_SIZE;
    521          
    522              if ( (srcOff + hdr.len) > OSAL_NV_PAGE_FREE )
    523              {
    524                break;
    525              }
    526          
    527              sz = OSAL_NV_DATA_SIZE( hdr.len );
   \                     ??compactPage_1:
   \   00002F   7404         MOV     A,#0x4
   \   000031   12....       LCALL   ?XSTACK_DISP0_8
   \   000034   12....       LCALL   ?Subroutine12 & 0xFFFF
   \                     ??CrossCallReturnLabel_13:
   \   000037   F5..         MOV     ?V0 + 4,A
   \   000039   E9           MOV     A,R1
   \   00003A   F5..         MOV     ?V0 + 5,A
    528          
    529              if ( hdr.id != OSAL_NV_ZEROED_ID )
   \   00003C   7402         MOV     A,#0x2
   \   00003E   12....       LCALL   ?XSTACK_DISP0_8
   \   000041   12....       LCALL   ??Subroutine41_0 & 0xFFFF
   \                     ??CrossCallReturnLabel_82:
   \   000044   E8           MOV     A,R0
   \   000045   49           ORL     A,R1
   \   000046   7003         JNZ     $+5
   \   000048   02....       LJMP    ??CrossCallReturnLabel_16 & 0xFFFF
    530              {
    531                if ( hdr.chk == calcChkF( srcPg, srcOff, hdr.len ) )
   \   00004B                ; Setup parameters for call to function calcChkF
   \   00004B   7404         MOV     A,#0x4
   \   00004D   12....       LCALL   ?XSTACK_DISP0_8
   \   000050   12....       LCALL   ?Subroutine14 & 0xFFFF
   \                     ??CrossCallReturnLabel_18:
   \   000053   85..82       MOV     DPL,?XSP + 0
   \   000056   85..83       MOV     DPH,?XSP + 1
   \   000059   12....       LCALL   ?Subroutine15 & 0xFFFF
   \                     ??CrossCallReturnLabel_21:
   \   00005C   F9           MOV     R1,A
   \   00005D   12....       LCALL   ?Subroutine22 & 0xFFFF
   \                     ??CrossCallReturnLabel_36:
   \   000060   7406         MOV     A,#0x6
   \   000062   12....       LCALL   ?XSTACK_DISP0_8
   \   000065   E0           MOVX    A,@DPTR
   \   000066   68           XRL     A,R0
   \   000067   7003         JNZ     ??compactPage_2
   \   000069   A3           INC     DPTR
   \   00006A   E0           MOVX    A,@DPTR
   \   00006B   69           XRL     A,R1
   \                     ??compactPage_2:
   \   00006C   7062         JNZ     ??compactPage_3
    532                {
    533                  setItem( srcPg, srcOff, eNvXfer );
   \   00006E                ; Setup parameters for call to function setItem
   \   00006E   7C00         MOV     R4,#0x0
   \   000070   12....       LCALL   ?Subroutine13 & 0xFFFF
    534                  writeBuf( pgRes, dstOff, OSAL_NV_HDR_SIZE, (byte *)(&hdr) );
   \                     ??CrossCallReturnLabel_15:
   \   000073                ; Setup parameters for call to function writeBuf
   \   000073   7402         MOV     A,#0x2
   \   000075   12....       LCALL   ?XSTACK_DISP0_8
   \   000078   8582..       MOV     ?V0 + 2,DPL
   \   00007B   8583..       MOV     ?V0 + 3,DPH
   \   00007E   78..         MOV     R0,#?V0 + 2
   \   000080   12....       LCALL   ?PUSH_XSTACK_I_TWO
   \   000083   7C08         MOV     R4,#0x8
   \   000085   7D00         MOV     R5,#0x0
   \   000087   AA..         MOV     R2,?V0 + 0
   \   000089   AB..         MOV     R3,?V0 + 1
   \   00008B   90....       MOV     DPTR,#pgRes
   \   00008E   E0           MOVX    A,@DPTR
   \   00008F   F9           MOV     R1,A
   \   000090   12....       LCALL   ??writeBuf?relay
   \   000093   7402         MOV     A,#0x2
   \   000095   12....       LCALL   ?DEALLOC_XSTACK8
    535                  dstOff += OSAL_NV_HDR_SIZE;
   \   000098   E5..         MOV     A,?V0 + 0
   \   00009A   2408         ADD     A,#0x8
   \   00009C   F5..         MOV     ?V0 + 0,A
   \   00009E   E5..         MOV     A,?V0 + 1
   \   0000A0   3400         ADDC    A,#0x0
   \   0000A2   F5..         MOV     ?V0 + 1,A
    536                  xferBuf( srcPg, srcOff, pgRes, dstOff, sz );
   \   0000A4                ; Setup parameters for call to function xferBuf
   \   0000A4   78..         MOV     R0,#?V0 + 4
   \   0000A6   12....       LCALL   ?PUSH_XSTACK_I_TWO
   \   0000A9   78..         MOV     R0,#?V0 + 0
   \   0000AB   12....       LCALL   ?PUSH_XSTACK_I_TWO
   \   0000AE   90....       MOV     DPTR,#pgRes
   \   0000B1   E0           MOVX    A,@DPTR
   \   0000B2   FC           MOV     R4,A
   \   0000B3   7404         MOV     A,#0x4
   \   0000B5   12....       LCALL   ?XSTACK_DISP0_8
   \   0000B8   12....       LCALL   ?Subroutine15 & 0xFFFF
   \                     ??CrossCallReturnLabel_22:
   \   0000BB   F9           MOV     R1,A
   \   0000BC   12....       LCALL   ??xferBuf?relay
   \   0000BF   7404         MOV     A,#0x4
   \   0000C1   12....       LCALL   ?DEALLOC_XSTACK8
    537                  dstOff += sz;
   \   0000C4   E5..         MOV     A,?V0 + 0
   \   0000C6   25..         ADD     A,?V0 + 4
   \   0000C8   F5..         MOV     ?V0 + 0,A
   \   0000CA   E5..         MOV     A,?V0 + 1
   \   0000CC   35..         ADDC    A,?V0 + 5
   \   0000CE   F5..         MOV     ?V0 + 1,A
    538                }
    539          
    540                setItem( srcPg, srcOff, eNvZero );  // Mark old location as invalid.
   \                     ??compactPage_3:
   \   0000D0                ; Setup parameters for call to function setItem
   \   0000D0   7C01         MOV     R4,#0x1
   \   0000D2   12....       LCALL   ?Subroutine13 & 0xFFFF
    541              }
    542          
    543              srcOff += sz;
   \                     ??CrossCallReturnLabel_16:
   \   0000D5   85..82       MOV     DPL,?XSP + 0
   \   0000D8   85..83       MOV     DPH,?XSP + 1
   \   0000DB   E0           MOVX    A,@DPTR
   \   0000DC   25..         ADD     A,?V0 + 4
   \   0000DE   F0           MOVX    @DPTR,A
   \   0000DF   A3           INC     DPTR
   \   0000E0   E0           MOVX    A,@DPTR
   \   0000E1   35..         ADDC    A,?V0 + 5
   \                     ??compactPage_0:
   \   0000E3   F0           MOVX    @DPTR,A
    544          
    545            } while ( TRUE );
   \   0000E4                ; Setup parameters for call to function HalFlashRead
   \   0000E4   75..08       MOV     ?V0 + 2,#0x8
   \   0000E7   75..00       MOV     ?V0 + 3,#0x0
   \   0000EA   78..         MOV     R0,#?V0 + 2
   \   0000EC   12....       LCALL   ?PUSH_XSTACK_I_TWO
   \   0000EF   7404         MOV     A,#0x4
   \   0000F1   12....       LCALL   ?XSTACK_DISP0_8
   \   0000F4   AC82         MOV     R4,DPL
   \   0000F6   AD83         MOV     R5,DPH
   \   0000F8   7402         MOV     A,#0x2
   \   0000FA   12....       LCALL   ?XSTACK_DISP0_8
   \   0000FD   12....       LCALL   ?Subroutine15 & 0xFFFF
   \                     ??CrossCallReturnLabel_23:
   \   000100   12....       LCALL   ??Subroutine38_0 & 0xFFFF
   \                     ??CrossCallReturnLabel_68:
   \   000103   12....       LCALL   ?DEALLOC_XSTACK8
   \   000106   7402         MOV     A,#0x2
   \   000108   12....       LCALL   ?XSTACK_DISP0_8
   \   00010B   E0           MOVX    A,@DPTR
   \   00010C   F4           CPL     A
   \   00010D   7003         JNZ     ??compactPage_4
   \   00010F   A3           INC     DPTR
   \   000110   E0           MOVX    A,@DPTR
   \   000111   F4           CPL     A
   \                     ??compactPage_4:
   \   000112   6025         JZ      ??compactPage_5
   \   000114   85..82       MOV     DPL,?XSP + 0
   \   000117   85..83       MOV     DPH,?XSP + 1
   \   00011A   E0           MOVX    A,@DPTR
   \   00011B   2408         ADD     A,#0x8
   \   00011D   F0           MOVX    @DPTR,A
   \   00011E   A3           INC     DPTR
   \   00011F   E0           MOVX    A,@DPTR
   \   000120   3400         ADDC    A,#0x0
   \   000122   F0           MOVX    @DPTR,A
   \   000123   12....       LCALL   ?Subroutine8 & 0xFFFF
   \                     ??CrossCallReturnLabel_88:
   \   000126   7404         MOV     A,#0x4
   \   000128   12....       LCALL   ?XSTACK_DISP0_8
   \   00012B   E0           MOVX    A,@DPTR
   \   00012C   28           ADD     A,R0
   \   00012D   F8           MOV     R0,A
   \   00012E   A3           INC     DPTR
   \   00012F   E0           MOVX    A,@DPTR
   \   000130   39           ADDC    A,R1
   \   000131   12....       LCALL   ??Subroutine33_0 & 0xFFFF
   \                     ??CrossCallReturnLabel_56:
   \   000134   5003         JNC     $+5
   \   000136   02....       LJMP    ??compactPage_1 & 0xFFFF
    546          
    547            pgOff[pgRes-OSAL_NV_PAGE_BEG] = dstOff;
   \                     ??compactPage_5:
   \   000139   12....       LCALL   ?Subroutine9 & 0xFFFF
   \                     ??CrossCallReturnLabel_5:
   \   00013C   E5..         MOV     A,?V0 + 0
   \   00013E   F0           MOVX    @DPTR,A
   \   00013F   A3           INC     DPTR
   \   000140   E5..         MOV     A,?V0 + 1
   \   000142   F0           MOVX    @DPTR,A
    548          
    549            /* In order to recover from a page compaction that is interrupted,
    550             * the logic in osal_nv_init() depends upon the following order:
    551             * 1. Compacted page is erased.
    552             * 2. State of the target of compaction is changed ePgActive to ePgInUse.
    553             */
    554            erasePage( srcPg );
   \   000143                ; Setup parameters for call to function erasePage
   \   000143   EE           MOV     A,R6
   \   000144   F9           MOV     R1,A
   \   000145   12....       LCALL   ??erasePage?relay
    555          
    556            // Mark the reserve page as being in use.
    557            setPageUse( pgRes, TRUE );
   \   000148                ; Setup parameters for call to function setPageUse
   \   000148   7A01         MOV     R2,#0x1
   \   00014A   90....       MOV     DPTR,#pgRes
   \   00014D   E0           MOVX    A,@DPTR
   \   00014E   F9           MOV     R1,A
   \   00014F   12....       LCALL   ??setPageUse?relay
    558          
    559            // Set the reserve page to be the newly erased page.
    560            pgRes = srcPg;
   \   000152   EE           MOV     A,R6
   \   000153   90....       MOV     DPTR,#pgRes
   \   000156   F0           MOVX    @DPTR,A
    561          }
   \   000157   740A         MOV     A,#0xa
   \   000159   02....       LJMP    ?Subroutine3 & 0xFFFF

   \                                 In  segment BANKED_CODE, align 1, keep-with-next
   \                     ?Subroutine15:
   \   000000   E0           MOVX    A,@DPTR
   \   000001   FA           MOV     R2,A
   \   000002   A3           INC     DPTR
   \   000003   E0           MOVX    A,@DPTR
   \   000004   FB           MOV     R3,A
   \   000005   EE           MOV     A,R6
   \   000006   22           RET

   \                                 In  segment BANKED_CODE, align 1, keep-with-next
   \                     ?Subroutine13:
   \   000000   85..82       MOV     DPL,?XSP + 0
   \   000003   85..83       MOV     DPH,?XSP + 1
   \   000006   E0           MOVX    A,@DPTR
   \   000007   FA           MOV     R2,A
   \   000008   A3           INC     DPTR
   \   000009   E0           MOVX    A,@DPTR
   \   00000A   FB           MOV     R3,A
   \   00000B   EE           MOV     A,R6
   \   00000C   F9           MOV     R1,A
   \   00000D   12....       LCALL   ??setItem?relay
   \   000010   22           RET

   \                                 In  segment BANKED_CODE, align 1, keep-with-next
   \                     ?Subroutine9:
   \   000000   90....       MOV     DPTR,#pgRes
   \   000003   E0           MOVX    A,@DPTR
   \   000004   12....       LCALL   ?Subroutine30 & 0xFFFF
   \                     ??CrossCallReturnLabel_50:
   \   000007   22           RET

   \                                 In  segment BANKED_CODE, align 1, keep-with-next
   \                     ?Subroutine5:
   \   000000   85..82       MOV     DPL,?XSP + 0
   \   000003   85..83       MOV     DPH,?XSP + 1
   \   000006   E4           CLR     A
   \   000007                REQUIRE ??Subroutine34_0
   \   000007                ; // Fall through to label ??Subroutine34_0

   \                                 In  segment BANKED_CODE, align 1, keep-with-next
   \                     ?Subroutine22:
   \   000000   12....       LCALL   ??calcChkF?relay
   \   000003   8A..         MOV     ?V0 + 2,R2
   \   000005   8B..         MOV     ?V0 + 3,R3
   \   000007   A8..         MOV     R0,?V0 + 2
   \   000009   A9..         MOV     R1,?V0 + 3
   \   00000B   22           RET

   \                                 In  segment BANKED_CODE, align 1, keep-with-next
   \                     ?Subroutine3:
   \   000000   12....       LCALL   ?DEALLOC_XSTACK8
   \   000003                REQUIRE ??Subroutine40_0
   \   000003                ; // Fall through to label ??Subroutine40_0

   \                                 In  segment BANKED_CODE, align 1, keep-with-next
   \                     ??Subroutine40_0:
   \   000000   7F06         MOV     R7,#0x6
   \   000002   02....       LJMP    ?BANKED_LEAVE_XDATA
    562          
    563          /*********************************************************************
    564           * @fn      findItem
    565           *
    566           * @brief   Find an item Id in NV and return the page and offset to its data.
    567           *
    568           * @param   id - Valid NV item Id.
    569           *
    570           * @return  Offset of data corresponding to item Id, if found;
    571           *          otherwise OSAL_NV_ITEM_NULL.
    572           *
    573           *          The page containing the item, if found;
    574           *          otherwise no valid assignment made - left equal to item Id.
    575           *
    576           */

   \                                 In  segment BANKED_CODE, align 1, keep-with-next
    577          static uint16 findItem( uint16 id )
   \                     findItem:
    578          {
   \   000000   74F4         MOV     A,#-0xc
   \   000002   12....       LCALL   ?BANKED_ENTER_XDATA
   \   000005                ; Saved register size: 12
   \   000005                ; Auto size: 0
   \   000005   EA           MOV     A,R2
   \   000006   FE           MOV     R6,A
   \   000007   EB           MOV     A,R3
   \   000008   8003         SJMP    ??findItem_0
    579            uint16 off;
    580            uint8 pg;
    581          
    582            for ( pg = OSAL_NV_PAGE_BEG; pg <= OSAL_NV_PAGE_END; pg++ )
    583            {
    584              if ( (off = initPage( pg, id, FALSE )) != OSAL_NV_ITEM_NULL )
    585              {
    586                findPg = pg;
    587                return off;
    588              }
    589            }
    590          
    591            // Now attempt to find the item as the "old" item of a failed/interrupted NV write.
    592            if ( (id & OSAL_NV_SOURCE_ID) == 0 )
    593            {
    594              return findItem( id | OSAL_NV_SOURCE_ID );
   \                     ??findItem_1:
   \   00000A   7480         MOV     A,#-0x80
   \   00000C   4F           ORL     A,R7
   \                     ??findItem_0:
   \   00000D   FF           MOV     R7,A
    595            }
   \   00000E   75..79       MOV     ?V0 + 0,#0x79
   \                     ??findItem_2:
   \   000011                ; Setup parameters for call to function initPage
   \   000011   7C00         MOV     R4,#0x0
   \   000013   EE           MOV     A,R6
   \   000014   FA           MOV     R2,A
   \   000015   EF           MOV     A,R7
   \   000016   FB           MOV     R3,A
   \   000017   A9..         MOV     R1,?V0 + 0
   \   000019   12....       LCALL   ??initPage?relay
   \   00001C   8B..         MOV     ?V0 + 3,R3
   \   00001E   A9..         MOV     R1,?V0 + 3
   \   000020   EA           MOV     A,R2
   \   000021   49           ORL     A,R1
   \   000022   6008         JZ      ??findItem_3
   \   000024   E5..         MOV     A,?V0 + 0
   \   000026   90....       MOV     DPTR,#findPg
   \   000029   F0           MOVX    @DPTR,A
   \   00002A   8015         SJMP    ??findItem_4
   \                     ??findItem_3:
   \   00002C   05..         INC     ?V0 + 0
   \   00002E   E5..         MOV     A,?V0 + 0
   \   000030   C3           CLR     C
   \   000031   947F         SUBB    A,#0x7f
   \   000033   40DC         JC      ??findItem_2
   \   000035   EF           MOV     A,R7
   \   000036   5480         ANL     A,#0x80
   \   000038   60D0         JZ      ??findItem_1
    596            else
    597            {
    598              findPg = OSAL_NV_PAGE_NULL;
   \   00003A   90....       MOV     DPTR,#findPg
   \   00003D   E4           CLR     A
   \   00003E   F0           MOVX    @DPTR,A
    599              return OSAL_NV_ITEM_NULL;
   \   00003F   FA           MOV     R2,A
   \   000040   FB           MOV     R3,A
    600            }
   \                     ??findItem_4:
   \   000041   02....       LJMP    ?Subroutine0 & 0xFFFF
    601          }
    602          
    603          /*********************************************************************
    604           * @fn      initItem
    605           *
    606           * @brief   An NV item is created and initialized with the data passed to the function, if any.
    607           *
    608           * @param   id  - Valid NV item Id.
    609           * @param   len - Item data length.
    610           * @param  *buf - Pointer to item initalization data. Set to NULL if none.
    611           *
    612           * @return  TRUE if item write and read back checksums ok; FALSE otherwise.
    613           */

   \                                 In  segment BANKED_CODE, align 1, keep-with-next
   \                     ?Subroutine24:
   \   000000   35..         ADDC    A,?V0 + 5
   \   000002                REQUIRE ??Subroutine33_0
   \   000002                ; // Fall through to label ??Subroutine33_0

   \                                 In  segment BANKED_CODE, align 1, keep-with-next
    614          static uint8 initItem( uint8 flag, uint16 id, uint16 len, void *buf )
   \                     initItem:
    615          {
   \   000000   74F1         MOV     A,#-0xf
   \   000002   12....       LCALL   ?BANKED_ENTER_XDATA
   \   000005                ; Saved register size: 15
   \   000005                ; Auto size: 0
   \   000005   E9           MOV     A,R1
   \   000006   FF           MOV     R7,A
   \   000007   740F         MOV     A,#0xf
   \   000009   12....       LCALL   ?XSTACK_DISP0_8
   \   00000C   12....       LCALL   ?Subroutine10 & 0xFFFF
    616            uint16 sz = OSAL_NV_ITEM_SIZE( len );
   \                     ??CrossCallReturnLabel_6:
   \   00000F   EC           MOV     A,R4
   \   000010   2403         ADD     A,#0x3
   \   000012   F8           MOV     R0,A
   \   000013   ED           MOV     A,R5
   \   000014   3400         ADDC    A,#0x0
   \   000016   F9           MOV     R1,A
   \   000017   E8           MOV     A,R0
   \   000018   54FC         ANL     A,#0xfc
   \   00001A   2408         ADD     A,#0x8
   \   00001C   F5..         MOV     ?V0 + 4,A
   \   00001E   E9           MOV     A,R1
   \   00001F   3400         ADDC    A,#0x0
   \   000021   F5..         MOV     ?V0 + 5,A
    617            uint8 rtrn = FALSE;
   \   000023   75..00       MOV     ?V0 + 1,#0x0
    618            uint8 cnt = OSAL_NV_PAGES_USED;
   \   000026   75..06       MOV     ?V0 + 6,#0x6
    619            uint8 pg = pgRes+1;  // Set to 1 after the reserve page to even wear across all available pages.
   \   000029   90....       MOV     DPTR,#pgRes
   \   00002C   E0           MOVX    A,@DPTR
   \   00002D   04           INC     A
   \   00002E   FE           MOV     R6,A
    620            uint8 idx = 0;
    621          
    622            do {
    623              if (pg >= OSAL_NV_PAGE_BEG+OSAL_NV_PAGES_USED)
   \                     ??initItem_0:
   \   00002F   EE           MOV     A,R6
   \   000030   C3           CLR     C
   \   000031   947F         SUBB    A,#0x7f
   \   000033   4002         JC      ??initItem_1
    624              {
    625                pg = OSAL_NV_PAGE_BEG;
   \   000035   7E79         MOV     R6,#0x79
    626              }
    627              if ( pg != pgRes )
   \                     ??initItem_1:
   \   000037   90....       MOV     DPTR,#pgRes
   \   00003A   E0           MOVX    A,@DPTR
   \   00003B   6E           XRL     A,R6
   \   00003C   602F         JZ      ??initItem_2
    628              {
    629                idx = pg - OSAL_NV_PAGE_BEG;
   \   00003E   7487         MOV     A,#-0x79
   \   000040   2E           ADD     A,R6
   \   000041   F5..         MOV     ?V0 + 0,A
    630                if ( (pgOff[idx] - pgLost[idx] + sz) <= OSAL_NV_PAGE_FREE )
   \   000043   12....       LCALL   ?Subroutine21 & 0xFFFF
    631                {
    632                  break;
    633                }
    634              }
   \                     ??CrossCallReturnLabel_34:
   \   000046   C082         PUSH    DPL
   \   000048   C083         PUSH    DPH
   \   00004A   74..         MOV     A,#pgLost & 0xff
   \   00004C   28           ADD     A,R0
   \   00004D   F582         MOV     DPL,A
   \   00004F   74..         MOV     A,#(pgLost >> 8) & 0xff
   \   000051   39           ADDC    A,R1
   \   000052   F583         MOV     DPH,A
   \   000054   12....       LCALL   ??Subroutine41_0 & 0xFFFF
   \                     ??CrossCallReturnLabel_83:
   \   000057   D083         POP     DPH
   \   000059   D082         POP     DPL
   \   00005B   E0           MOVX    A,@DPTR
   \   00005C   C3           CLR     C
   \   00005D   98           SUBB    A,R0
   \   00005E   F8           MOV     R0,A
   \   00005F   A3           INC     DPTR
   \   000060   E0           MOVX    A,@DPTR
   \   000061   99           SUBB    A,R1
   \   000062   F9           MOV     R1,A
   \   000063   E8           MOV     A,R0
   \   000064   25..         ADD     A,?V0 + 4
   \   000066   F8           MOV     R0,A
   \   000067   E9           MOV     A,R1
   \   000068   12....       LCALL   ?Subroutine24 & 0xFFFF
   \                     ??CrossCallReturnLabel_57:
   \   00006B   4009         JC      ??initItem_3
    635              pg++;
   \                     ??initItem_2:
   \   00006D   0E           INC     R6
    636            } while (--cnt);
   \   00006E   15..         DEC     ?V0 + 6
   \   000070   E5..         MOV     A,?V0 + 6
   \   000072   70BB         JNZ     ??initItem_0
   \   000074   8052         SJMP    ??initItem_4
    637          
    638            if (cnt)
   \                     ??initItem_3:
   \   000076   E5..         MOV     A,?V0 + 6
   \   000078   604E         JZ      ??initItem_4
    639            {
    640              // Item fits if an old page is compacted.
    641              if ( (pgOff[idx] + sz) > OSAL_NV_PAGE_FREE )
   \   00007A   E5..         MOV     A,?V0 + 0
   \   00007C   12....       LCALL   ?Subroutine21 & 0xFFFF
   \                     ??CrossCallReturnLabel_35:
   \   00007F   E0           MOVX    A,@DPTR
   \   000080   25..         ADD     A,?V0 + 4
   \   000082   F8           MOV     R0,A
   \   000083   A3           INC     DPTR
   \   000084   E0           MOVX    A,@DPTR
   \   000085   12....       LCALL   ?Subroutine24 & 0xFFFF
   \                     ??CrossCallReturnLabel_58:
   \   000088   4005         JC      ??initItem_5
    642              {
    643                pg = pgRes;
   \   00008A   90....       MOV     DPTR,#pgRes
   \   00008D   E0           MOVX    A,@DPTR
   \   00008E   FE           MOV     R6,A
    644              }
    645          
    646              // New item is the first one written to the reserved page, then the old page is compacted.
    647              rtrn = writeItem( pg, id, len, buf, flag );
   \                     ??initItem_5:
   \   00008F                ; Setup parameters for call to function writeItem
   \   00008F   EF           MOV     A,R7
   \   000090   F5..         MOV     ?V0 + 1,A
   \   000092   78..         MOV     R0,#?V0 + 1
   \   000094   12....       LCALL   ?PUSH_XSTACK_I_ONE
   \   000097   78..         MOV     R0,#?V0 + 2
   \   000099   12....       LCALL   ?PUSH_XSTACK_I_TWO
   \   00009C   EE           MOV     A,R6
   \   00009D   F9           MOV     R1,A
   \   00009E   12....       LCALL   ??writeItem?relay
   \   0000A1   7403         MOV     A,#0x3
   \   0000A3   12....       LCALL   ?DEALLOC_XSTACK8
   \   0000A6   E9           MOV     A,R1
   \   0000A7   F5..         MOV     ?V0 + 1,A
    648          
    649              if ( pg == pgRes )
   \   0000A9   90....       MOV     DPTR,#pgRes
   \   0000AC   E0           MOVX    A,@DPTR
   \   0000AD   6E           XRL     A,R6
   \   0000AE   7018         JNZ     ??initItem_4
    650              {
    651                if ( flag )
   \   0000B0   EF           MOV     A,R7
   \   0000B1   600A         JZ      ??initItem_6
    652                {
    653                  compactPage( OSAL_NV_PAGE_BEG+idx );
   \   0000B3                ; Setup parameters for call to function compactPage
   \   0000B3   7479         MOV     A,#0x79
   \   0000B5   25..         ADD     A,?V0 + 0
   \   0000B7   F9           MOV     R1,A
   \   0000B8   12....       LCALL   ??compactPage?relay
   \   0000BB   800B         SJMP    ??initItem_4
    654                }
    655                else
    656                {
    657                  *(uint8 *)buf = OSAL_NV_PAGE_BEG+idx;
   \                     ??initItem_6:
   \   0000BD   7479         MOV     A,#0x79
   \   0000BF   25..         ADD     A,?V0 + 0
   \   0000C1   85..82       MOV     DPL,?V0 + 2
   \   0000C4   85..83       MOV     DPH,?V0 + 3
   \   0000C7   F0           MOVX    @DPTR,A
    658                }
    659              }
    660            }
    661          
    662            return rtrn;
   \                     ??initItem_4:
   \   0000C8   A9..         MOV     R1,?V0 + 1
   \   0000CA   7F07         MOV     R7,#0x7
   \   0000CC   02....       LJMP    ?BANKED_LEAVE_XDATA
    663          }

   \                                 In  segment BANKED_CODE, align 1, keep-with-next
   \                     ?Subroutine21:
   \   000000   C3           CLR     C
   \   000001   33           RLC     A
   \   000002   F8           MOV     R0,A
   \   000003   E4           CLR     A
   \   000004   33           RLC     A
   \   000005   F9           MOV     R1,A
   \   000006   74..         MOV     A,#pgOff & 0xff
   \   000008   28           ADD     A,R0
   \   000009   F582         MOV     DPL,A
   \   00000B   74..         MOV     A,#(pgOff >> 8) & 0xff
   \   00000D   39           ADDC    A,R1
   \   00000E   F583         MOV     DPH,A
   \   000010   22           RET

   \                                 In  segment BANKED_CODE, align 1, keep-with-next
   \                     ?Subroutine10:
   \   000000   E0           MOVX    A,@DPTR
   \   000001   F5..         MOV     ?V0 + 2,A
   \   000003   A3           INC     DPTR
   \   000004   E0           MOVX    A,@DPTR
   \   000005   F5..         MOV     ?V0 + 3,A
   \   000007   22           RET
    664          
    665          /*********************************************************************
    666           * @fn      setItem
    667           *
    668           * @brief   Set an item Id or status to mark its state.
    669           *
    670           * @param   pg - Valid NV page.
    671           * @param   offset - Valid offset into the page of the item data - the header
    672           *                   offset is calculated from this.
    673           * @param   stat - Valid enum value for the item status.
    674           *
    675           * @return  none
    676           */

   \                                 In  segment BANKED_CODE, align 1, keep-with-next
    677          static void setItem( uint8 pg, uint16 offset, eNvHdrEnum stat )
   \                     setItem:
    678          {
   \   000000   74F2         MOV     A,#-0xe
   \   000002   12....       LCALL   ?BANKED_ENTER_XDATA
   \   000005                ; Saved register size: 14
   \   000005                ; Auto size: 8
   \   000005   74F8         MOV     A,#-0x8
   \   000007   12....       LCALL   ?ALLOC_XSTACK8
   \   00000A   89..         MOV     ?V0 + 1,R1
   \   00000C   8C..         MOV     ?V0 + 0,R4
    679            osalNvHdr_t hdr;
    680          
    681            offset -= OSAL_NV_HDR_SIZE;
   \   00000E   EA           MOV     A,R2
   \   00000F   24F8         ADD     A,#-0x8
   \   000011   F5..         MOV     ?V0 + 2,A
   \   000013   EB           MOV     A,R3
   \   000014   34FF         ADDC    A,#-0x1
   \   000016   F5..         MOV     ?V0 + 3,A
    682            HalFlashRead(pg, offset, (uint8 *)(&hdr), OSAL_NV_HDR_SIZE);
   \   000018                ; Setup parameters for call to function HalFlashRead
   \   000018   75..08       MOV     ?V0 + 4,#0x8
   \   00001B   75..00       MOV     ?V0 + 5,#0x0
   \   00001E   78..         MOV     R0,#?V0 + 4
   \   000020   12....       LCALL   ?PUSH_XSTACK_I_TWO
   \   000023   7402         MOV     A,#0x2
   \   000025   12....       LCALL   ?XSTACK_DISP0_8
   \   000028   AC82         MOV     R4,DPL
   \   00002A   AD83         MOV     R5,DPH
   \   00002C   AA..         MOV     R2,?V0 + 2
   \   00002E   AB..         MOV     R3,?V0 + 3
   \   000030   12....       LCALL   ??Subroutine39_0 & 0xFFFF
   \                     ??CrossCallReturnLabel_70:
   \   000033   12....       LCALL   ?DEALLOC_XSTACK8
    683          
    684            if ( stat == eNvXfer )
   \   000036   E5..         MOV     A,?V0 + 0
   \   000038   7023         JNZ     ??setItem_0
    685            {
    686              hdr.stat = OSAL_NV_ACTIVE;
   \   00003A   7406         MOV     A,#0x6
   \   00003C   12....       LCALL   ?XSTACK_DISP0_8
   \   00003F   E4           CLR     A
   \   000040   F0           MOVX    @DPTR,A
   \   000041   A3           INC     DPTR
   \   000042   F0           MOVX    @DPTR,A
    687              writeWord( pg, offset+OSAL_NV_HDR_CHK, (uint8*)(&(hdr.chk)) );
   \   000043                ; Setup parameters for call to function writeWord
   \   000043   7404         MOV     A,#0x4
   \   000045   12....       LCALL   ?XSTACK_DISP0_8
   \   000048   AC82         MOV     R4,DPL
   \   00004A   AD83         MOV     R5,DPH
   \   00004C   E5..         MOV     A,?V0 + 2
   \   00004E   2404         ADD     A,#0x4
   \   000050   FA           MOV     R2,A
   \   000051   E5..         MOV     A,?V0 + 3
   \   000053   3400         ADDC    A,#0x0
   \   000055   FB           MOV     R3,A
   \   000056   A9..         MOV     R1,?V0 + 1
   \   000058   12....       LCALL   ??writeWord?relay
   \   00005B   802B         SJMP    ??setItem_1
    688          }
    689            else // if ( stat == eNvZero )
    690            {
    691              uint16 sz = ((hdr.len + (OSAL_NV_WORD_SIZE-1)) / OSAL_NV_WORD_SIZE) * OSAL_NV_WORD_SIZE +
    692                                                                                    OSAL_NV_HDR_SIZE;
   \                     ??setItem_0:
   \   00005D   7402         MOV     A,#0x2
   \   00005F   12....       LCALL   ?XSTACK_DISP0_8
   \   000062   12....       LCALL   ?Subroutine11 & 0xFFFF
   \                     ??CrossCallReturnLabel_10:
   \   000065   FE           MOV     R6,A
   \   000066   E9           MOV     A,R1
   \   000067   3400         ADDC    A,#0x0
   \   000069   FF           MOV     R7,A
    693              hdr.id = 0;
   \   00006A   12....       LCALL   ?Subroutine5 & 0xFFFF
    694              writeWord( pg, offset, (uint8 *)(&hdr) );
   \                     ??CrossCallReturnLabel_60:
   \   00006D   AA..         MOV     R2,?V0 + 2
   \   00006F   AB..         MOV     R3,?V0 + 3
   \   000071   A9..         MOV     R1,?V0 + 1
   \   000073   12....       LCALL   ??writeWord?relay
    695              pgLost[pg-OSAL_NV_PAGE_BEG] += sz;
   \   000076   E5..         MOV     A,?V0 + 1
   \   000078   C3           CLR     C
   \   000079   33           RLC     A
   \   00007A   F8           MOV     R0,A
   \   00007B   E4           CLR     A
   \   00007C   33           RLC     A
   \   00007D   F9           MOV     R1,A
   \   00007E   12....       LCALL   ?Subroutine31 & 0xFFFF
    696            }
   \                     ??CrossCallReturnLabel_53:
   \   000081   E0           MOVX    A,@DPTR
   \   000082   2E           ADD     A,R6
   \   000083   F0           MOVX    @DPTR,A
   \   000084   A3           INC     DPTR
   \   000085   E0           MOVX    A,@DPTR
   \   000086   3F           ADDC    A,R7
   \   000087   F0           MOVX    @DPTR,A
    697          }
   \                     ??setItem_1:
   \   000088   7408         MOV     A,#0x8
   \   00008A   02....       LJMP    ?Subroutine3 & 0xFFFF

   \                                 In  segment BANKED_CODE, align 1, keep-with-next
   \                     ?Subroutine11:
   \   000000   12....       LCALL   ?Subroutine29 & 0xFFFF
   \                     ??CrossCallReturnLabel_48:
   \   000003   2408         ADD     A,#0x8
   \   000005   22           RET
    698          
    699          /*********************************************************************
    700           * @fn      calcChkB
    701           *
    702           * @brief   Calculates the data checksum over the 'buf' parameter.
    703           *
    704           * @param   pg - A valid NV Flash page.
    705           * @param   offset - A valid offset into the page.
    706           * @param   len - Byte count of the data to be checksummed.
    707           *
    708           * @return  Calculated checksum of the data bytes.
    709           */
    710          static uint16 calcChkB( uint16 len, uint8 *buf )
    711          {
    712            uint8 fill = len % OSAL_NV_WORD_SIZE;
    713            uint16 chk;
    714          
    715            if ( !buf )
    716            {
    717              chk = len * OSAL_NV_ERASED;
    718            }
    719            else
    720            {
    721              chk = 0;
    722              while ( len-- )
    723              {
    724                chk += *buf++;
    725              }
    726            }
    727          
    728            // calcChkF() will calculate over OSAL_NV_WORD_SIZE alignment.
    729            if ( fill )
    730            {
    731              chk += (OSAL_NV_WORD_SIZE - fill) * OSAL_NV_ERASED;
    732            }
    733          
    734            return chk;
    735          }
    736          
    737          /*********************************************************************
    738           * @fn      calcChkF
    739           *
    740           * @brief   Calculates the data checksum by reading the data bytes from NV.
    741           *
    742           * @param   pg - A valid NV Flash page.
    743           * @param   offset - A valid offset into the page.
    744           * @param   len - Byte count of the data to be checksummed.
    745           *
    746           * @return  Calculated checksum of the data bytes.
    747           */

   \                                 In  segment BANKED_CODE, align 1, keep-with-next
    748          static uint16 calcChkF( byte pg, uint16 offset, uint16 len )
   \                     calcChkF:
    749          {
   \   000000   74F0         MOV     A,#-0x10
   \   000002   12....       LCALL   ?BANKED_ENTER_XDATA
   \   000005                ; Saved register size: 16
   \   000005                ; Auto size: 4
   \   000005   74FC         MOV     A,#-0x4
   \   000007   12....       LCALL   ?ALLOC_XSTACK8
   \   00000A   89..         MOV     ?V0 + 4,R1
   \   00000C   8A..         MOV     ?V0 + 2,R2
   \   00000E   8B..         MOV     ?V0 + 3,R3
   \   000010   EC           MOV     A,R4
   \   000011   FE           MOV     R6,A
   \   000012   ED           MOV     A,R5
   \   000013   FF           MOV     R7,A
    750            uint16 chk = 0;
   \   000014   75..00       MOV     ?V0 + 0,#0x0
   \   000017   75..00       MOV     ?V0 + 1,#0x0
    751          
    752            len = (len + (OSAL_NV_WORD_SIZE-1)) / OSAL_NV_WORD_SIZE;
   \   00001A   EE           MOV     A,R6
   \   00001B   2403         ADD     A,#0x3
   \   00001D   F5..         MOV     ?V0 + 6,A
   \   00001F   EF           MOV     A,R7
   \   000020   3400         ADDC    A,#0x0
   \   000022   F5..         MOV     ?V0 + 7,A
   \   000024   7402         MOV     A,#0x2
   \   000026   78..         MOV     R0,#?V0 + 6
   \   000028   12....       LCALL   ?US_SHR
   \   00002B   AE..         MOV     R6,?V0 + 6
   \   00002D   AF..         MOV     R7,?V0 + 7
    753          
    754            while ( len-- )
   \                     ??calcChkF_0:
   \   00002F   12....       LCALL   ?Subroutine27 & 0xFFFF
   \                     ??CrossCallReturnLabel_44:
   \   000032   6049         JZ      ??calcChkF_1
    755            {
    756              uint8 cnt, tmp[OSAL_NV_WORD_SIZE];
    757          
    758              HalFlashRead(pg, offset, tmp, OSAL_NV_WORD_SIZE);
   \   000034                ; Setup parameters for call to function HalFlashRead
   \   000034   75..04       MOV     ?V0 + 6,#0x4
   \   000037   75..00       MOV     ?V0 + 7,#0x0
   \   00003A   78..         MOV     R0,#?V0 + 6
   \   00003C   12....       LCALL   ?PUSH_XSTACK_I_TWO
   \   00003F   7402         MOV     A,#0x2
   \   000041   12....       LCALL   ?XSTACK_DISP0_8
   \   000044   AC82         MOV     R4,DPL
   \   000046   AD83         MOV     R5,DPH
   \   000048   AA..         MOV     R2,?V0 + 2
   \   00004A   AB..         MOV     R3,?V0 + 3
   \   00004C   A9..         MOV     R1,?V0 + 4
   \   00004E   12....       LCALL   ??Subroutine39_0 & 0xFFFF
   \                     ??CrossCallReturnLabel_71:
   \   000051   12....       LCALL   ?DEALLOC_XSTACK8
    759              offset += OSAL_NV_WORD_SIZE;
   \   000054   E5..         MOV     A,?V0 + 2
   \   000056   2404         ADD     A,#0x4
   \   000058   F5..         MOV     ?V0 + 2,A
   \   00005A   E5..         MOV     A,?V0 + 3
   \   00005C   3400         ADDC    A,#0x0
   \   00005E   F5..         MOV     ?V0 + 3,A
    760          
    761              for ( cnt = 0; cnt < OSAL_NV_WORD_SIZE; cnt++ )
   \   000060   7800         MOV     R0,#0x0
    762              {
    763                chk += tmp[cnt];
   \                     ??calcChkF_2:
   \   000062   88..         MOV     ?V0 + 6,R0
   \   000064   12....       LCALL   ?Subroutine25 & 0xFFFF
    764              }
   \                     ??CrossCallReturnLabel_40:
   \   000067   E0           MOVX    A,@DPTR
   \   000068   FA           MOV     R2,A
   \   000069   E5..         MOV     A,?V0 + 0
   \   00006B   2A           ADD     A,R2
   \   00006C   F5..         MOV     ?V0 + 0,A
   \   00006E   E5..         MOV     A,?V0 + 1
   \   000070   3400         ADDC    A,#0x0
   \   000072   F5..         MOV     ?V0 + 1,A
   \   000074   08           INC     R0
   \   000075   E8           MOV     A,R0
   \   000076   C3           CLR     C
   \   000077   9404         SUBB    A,#0x4
   \   000079   50B4         JNC     ??calcChkF_0
   \   00007B   80E5         SJMP    ??calcChkF_2
    765            }
    766          
    767            return chk;
   \                     ??calcChkF_1:
   \   00007D   AA..         MOV     R2,?V0 + 0
   \   00007F   AB..         MOV     R3,?V0 + 1
   \   000081   7404         MOV     A,#0x4
   \   000083   12....       LCALL   ?DEALLOC_XSTACK8
   \   000086   7F08         MOV     R7,#0x8
   \   000088   02....       LJMP    ?BANKED_LEAVE_XDATA
    768          }

   \                                 In  segment BANKED_CODE, align 1, keep-with-next
   \                     ?Subroutine25:
   \   000000   85..82       MOV     DPL,?XSP + 0
   \   000003   85..83       MOV     DPH,?XSP + 1
   \   000006   E582         MOV     A,DPL
   \   000008   25..         ADD     A,?V0 + 6
   \   00000A   F582         MOV     DPL,A
   \   00000C   E583         MOV     A,DPH
   \   00000E   3400         ADDC    A,#0x0
   \   000010   F583         MOV     DPH,A
   \   000012   22           RET

   \                                 In  segment BANKED_CODE, align 1, keep-with-next
   \                     ?Subroutine27:
   \   000000   EE           MOV     A,R6
   \   000001   F8           MOV     R0,A
   \   000002   EF           MOV     A,R7
   \   000003   F9           MOV     R1,A
   \   000004   E8           MOV     A,R0
   \   000005   24FF         ADD     A,#-0x1
   \   000007   1E           DEC     R6
   \   000008   E9           MOV     A,R1
   \   000009   34FF         ADDC    A,#-0x1
   \   00000B   FF           MOV     R7,A
   \   00000C   E8           MOV     A,R0
   \   00000D   49           ORL     A,R1
   \   00000E   22           RET
    769          
    770          /*********************************************************************
    771           * @fn      writeWord
    772           *
    773           * @brief   Writes a Flash-WORD to NV.
    774           *
    775           * @param   pg - A valid NV Flash page.
    776           * @param   offset - A valid offset into the page.
    777           * @param   buf - Pointer to source buffer.
    778           *
    779           * @return  none
    780           */

   \                                 In  segment BANKED_CODE, align 1, keep-with-next
    781          static void writeWord( uint8 pg, uint16 offset, uint8 *buf )
   \                     writeWord:
    782          {
   \   000000   74F3         MOV     A,#-0xd
   \   000002   12....       LCALL   ?BANKED_ENTER_XDATA
   \   000005                ; Saved register size: 13
   \   000005                ; Auto size: 0
   \   000005   89..         MOV     ?V0 + 4,R1
   \   000007   8A..         MOV     ?V0 + 0,R2
   \   000009   8B..         MOV     ?V0 + 1,R3
   \   00000B   EC           MOV     A,R4
   \   00000C   FE           MOV     R6,A
   \   00000D   ED           MOV     A,R5
   \   00000E   FF           MOV     R7,A
    783            offset = (offset >> 2) + ((uint16)pg << 9);
    784          
    785            if ( OSAL_NV_CHECK_BUS_VOLTAGE )
   \   00000F                ; Setup parameters for call to function HalAdcCheckVdd
   \   00000F   7904         MOV     R1,#0x4
   \   000011   12....       LCALL   ??HalAdcCheckVdd?relay
   \   000014   E9           MOV     A,R1
   \   000015   6034         JZ      ??writeWord_0
    786            {
    787              HalFlashWrite(offset, buf, 1);
   \   000017                ; Setup parameters for call to function HalFlashWrite
   \   000017   75..01       MOV     ?V0 + 2,#0x1
   \   00001A   75..00       MOV     ?V0 + 3,#0x0
   \   00001D   78..         MOV     R0,#?V0 + 2
   \   00001F   12....       LCALL   ?PUSH_XSTACK_I_TWO
   \   000022   EE           MOV     A,R6
   \   000023   FC           MOV     R4,A
   \   000024   EF           MOV     A,R7
   \   000025   FD           MOV     R5,A
   \   000026   7402         MOV     A,#0x2
   \   000028   78..         MOV     R0,#?V0 + 0
   \   00002A   12....       LCALL   ?US_SHR
   \   00002D   85....       MOV     ?V0 + 2,?V0 + 4
   \   000030   7409         MOV     A,#0x9
   \   000032   78..         MOV     R0,#?V0 + 2
   \   000034   12....       LCALL   ?S_SHL
   \   000037   E5..         MOV     A,?V0 + 0
   \   000039   2400         ADD     A,#0x0
   \   00003B   FA           MOV     R2,A
   \   00003C   E5..         MOV     A,?V0 + 1
   \   00003E   35..         ADDC    A,?V0 + 3
   \   000040   FB           MOV     R3,A
   \   000041   12....       LCALL   ??HalFlashWrite?relay
   \   000044   7402         MOV     A,#0x2
   \   000046   12....       LCALL   ?DEALLOC_XSTACK8
   \   000049   8006         SJMP    ??writeWord_1
    788            }
    789            else
    790            {
    791              failF = TRUE;
   \                     ??writeWord_0:
   \   00004B   90....       MOV     DPTR,#failF
   \   00004E   7401         MOV     A,#0x1
   \   000050   F0           MOVX    @DPTR,A
    792            }
    793          }
   \                     ??writeWord_1:
   \   000051   7F05         MOV     R7,#0x5
   \   000053   02....       LJMP    ?BANKED_LEAVE_XDATA
    794          
    795          /*********************************************************************
    796           * @fn      writeWordM
    797           *
    798           * @brief   Writes multiple Flash-WORDs to NV.
    799           *
    800           * @param   pg - A valid NV Flash page.
    801           * @param   offset - A valid offset into the page.
    802           * @param   buf - Pointer to source buffer.
    803           * @param   cnt - Number of 4-byte blocks to write.
    804           *
    805           * @return  none
    806           */
    807          static void writeWordM( uint8 pg, uint16 offset, uint8 *buf, uint16 cnt )
    808          {
    809            offset = (offset >> 2) + ((uint16)pg << 9);
    810          
    811            if ( OSAL_NV_CHECK_BUS_VOLTAGE )
    812            {
    813              HalFlashWrite(offset, buf, cnt);
    814            }
    815            else
    816            {
    817              failF = TRUE;
    818            }
    819          }
    820          
    821          /*********************************************************************
    822           * @fn      writeWordH
    823           *
    824           * @brief   Writes the 1st half of a Flash-WORD to NV (filling 2nd half with 0xffff).
    825           *
    826           * @param   pg - A valid NV Flash page.
    827           * @param   offset - A valid offset into the page.
    828           * @param   buf - Pointer to source buffer.
    829           *
    830           * @return  none
    831           */

   \                                 In  segment BANKED_CODE, align 1, keep-with-next
    832          static void writeWordH( uint8 pg, uint16 offset, uint8 *buf )
   \                     writeWordH:
    833          {
   \   000000   74F7         MOV     A,#-0x9
   \   000002   12....       LCALL   ?BANKED_ENTER_XDATA
   \   000005                ; Saved register size: 9
   \   000005                ; Auto size: 4
   \   000005   74FC         MOV     A,#-0x4
   \   000007   12....       LCALL   ?ALLOC_XSTACK8
    834            uint8 tmp[4];
    835          
    836            tmp[0] = buf[0];
   \   00000A   8C82         MOV     DPL,R4
   \   00000C   8D83         MOV     DPH,R5
   \   00000E   E0           MOVX    A,@DPTR
   \   00000F   85..82       MOV     DPL,?XSP + 0
   \   000012   85..83       MOV     DPH,?XSP + 1
   \   000015   F0           MOVX    @DPTR,A
    837            tmp[1] = buf[1];
   \   000016   8C82         MOV     DPL,R4
   \   000018   8D83         MOV     DPH,R5
   \   00001A   A3           INC     DPTR
   \   00001B   E0           MOVX    A,@DPTR
   \   00001C   C0E0         PUSH    A
   \   00001E   7401         MOV     A,#0x1
   \   000020   12....       LCALL   ?XSTACK_DISP0_8
   \   000023   D0E0         POP     A
   \   000025   F0           MOVX    @DPTR,A
    838            tmp[2] = OSAL_NV_ERASED;
   \   000026   7402         MOV     A,#0x2
   \   000028   12....       LCALL   ?XSTACK_DISP0_8
   \   00002B   74FF         MOV     A,#-0x1
   \   00002D   F0           MOVX    @DPTR,A
    839            tmp[3] = OSAL_NV_ERASED;
   \   00002E   7403         MOV     A,#0x3
   \   000030   12....       LCALL   ?XSTACK_DISP0_8
   \   000033   74FF         MOV     A,#-0x1
   \   000035   12....       LCALL   ??Subroutine35_0 & 0xFFFF
    840          
    841            writeWord( pg, offset, tmp );
   \                     ??CrossCallReturnLabel_62:
   \   000038   12....       LCALL   ??writeWord?relay
    842          }
   \   00003B   7404         MOV     A,#0x4
   \   00003D   02....       LJMP    ?Subroutine1 & 0xFFFF
    843          
    844          /*********************************************************************
    845           * @fn      writeBuf
    846           *
    847           * @brief   Writes a data buffer to NV.
    848           *
    849           * @param   dstPg - A valid NV Flash page.
    850           * @param   offset - A valid offset into the page.
    851           * @param   len  - Byte count of the data to write.
    852           * @param   buf  - The data to write.
    853           *
    854           * @return  TRUE if data buf checksum matches read back checksum, else FALSE.
    855           */

   \                                 In  segment BANKED_CODE, align 1, keep-with-next
    856          static void writeBuf( uint8 dstPg, uint16 dstOff, uint16 len, uint8 *buf )
   \                     writeBuf:
    857          {
   \   000000   74EE         MOV     A,#-0x12
   \   000002   12....       LCALL   ?BANKED_ENTER_XDATA
   \   000005                ; Saved register size: 18
   \   000005                ; Auto size: 4
   \   000005   74FC         MOV     A,#-0x4
   \   000007   12....       LCALL   ?ALLOC_XSTACK8
   \   00000A   89..         MOV     ?V0 + 1,R1
   \   00000C   EA           MOV     A,R2
   \   00000D   FE           MOV     R6,A
   \   00000E   EB           MOV     A,R3
   \   00000F   FF           MOV     R7,A
   \   000010   8C..         MOV     ?V0 + 4,R4
   \   000012   8D..         MOV     ?V0 + 5,R5
   \   000014   7416         MOV     A,#0x16
   \   000016   12....       LCALL   ?XSTACK_DISP0_8
   \   000019   12....       LCALL   ?Subroutine10 & 0xFFFF
    858            uint8 rem = dstOff % OSAL_NV_WORD_SIZE;
   \                     ??CrossCallReturnLabel_7:
   \   00001C   EE           MOV     A,R6
   \   00001D   5403         ANL     A,#0x3
   \   00001F   F5..         MOV     ?V0 + 0,A
    859            uint8 tmp[OSAL_NV_WORD_SIZE];
    860          
    861            if ( rem )
   \   000021   606A         JZ      ??writeBuf_0
    862            {
    863              dstOff = (dstOff / OSAL_NV_WORD_SIZE) * OSAL_NV_WORD_SIZE;
   \   000023   74FC         MOV     A,#-0x4
   \   000025   5E           ANL     A,R6
   \   000026   FE           MOV     R6,A
    864              HalFlashRead(dstPg, dstOff, tmp, OSAL_NV_WORD_SIZE);
   \   000027                ; Setup parameters for call to function HalFlashRead
   \   000027   75..04       MOV     ?V0 + 6,#0x4
   \   00002A   75..00       MOV     ?V0 + 7,#0x0
   \   00002D   78..         MOV     R0,#?V0 + 6
   \   00002F   12....       LCALL   ?PUSH_XSTACK_I_TWO
   \   000032   7402         MOV     A,#0x2
   \   000034   12....       LCALL   ?XSTACK_DISP0_8
   \   000037   AC82         MOV     R4,DPL
   \   000039   AD83         MOV     R5,DPH
   \   00003B   EE           MOV     A,R6
   \   00003C   FA           MOV     R2,A
   \   00003D   12....       LCALL   ??Subroutine39_0 & 0xFFFF
   \                     ??CrossCallReturnLabel_72:
   \   000040   12....       LCALL   ?DEALLOC_XSTACK8
   \                     ??writeBuf_1:
   \   000043   E5..         MOV     A,?V0 + 4
   \   000045   45..         ORL     A,?V0 + 5
   \   000047   6029         JZ      ??writeBuf_2
    865          
    866              while ( (rem < OSAL_NV_WORD_SIZE) && len )
    867              {
    868                tmp[rem++] = *buf++;
   \   000049   85..82       MOV     DPL,?V0 + 2
   \   00004C   85..83       MOV     DPH,?V0 + 3
   \   00004F   E0           MOVX    A,@DPTR
   \   000050   C0E0         PUSH    A
   \   000052   85....       MOV     ?V0 + 6,?V0 + 0
   \   000055   12....       LCALL   ?Subroutine25 & 0xFFFF
   \                     ??CrossCallReturnLabel_41:
   \   000058   D0E0         POP     A
   \   00005A   12....       LCALL   ?Subroutine6 & 0xFFFF
   \                     ??CrossCallReturnLabel_0:
   \   00005D   05..         INC     ?V0 + 0
    869                len--;
   \   00005F   E5..         MOV     A,?V0 + 4
   \   000061   24FF         ADD     A,#-0x1
   \   000063   F5..         MOV     ?V0 + 4,A
   \   000065   E5..         MOV     A,?V0 + 5
   \   000067   34FF         ADDC    A,#-0x1
   \   000069   F5..         MOV     ?V0 + 5,A
    870              }
   \   00006B   E5..         MOV     A,?V0 + 0
   \   00006D   C3           CLR     C
   \   00006E   9404         SUBB    A,#0x4
   \   000070   40D1         JC      ??writeBuf_1
    871          
    872              writeWord( dstPg, dstOff, tmp );
   \                     ??writeBuf_2:
   \   000072                ; Setup parameters for call to function writeWord
   \   000072   85..82       MOV     DPL,?XSP + 0
   \   000075   85..83       MOV     DPH,?XSP + 1
   \   000078   AC82         MOV     R4,DPL
   \   00007A   AD83         MOV     R5,DPH
   \   00007C   EE           MOV     A,R6
   \   00007D   FA           MOV     R2,A
   \   00007E   EF           MOV     A,R7
   \   00007F   FB           MOV     R3,A
   \   000080   A9..         MOV     R1,?V0 + 1
   \   000082   12....       LCALL   ??writeWord?relay
    873              dstOff += OSAL_NV_WORD_SIZE;
   \   000085   EE           MOV     A,R6
   \   000086   2404         ADD     A,#0x4
   \   000088   FE           MOV     R6,A
   \   000089   EF           MOV     A,R7
   \   00008A   3400         ADDC    A,#0x0
   \   00008C   FF           MOV     R7,A
    874            }
    875          
    876            rem = len % OSAL_NV_WORD_SIZE;
   \                     ??writeBuf_0:
   \   00008D   E5..         MOV     A,?V0 + 4
   \   00008F   5403         ANL     A,#0x3
   \   000091   F5..         MOV     ?V0 + 0,A
    877            len /= OSAL_NV_WORD_SIZE;
   \   000093   85....       MOV     ?V0 + 6,?V0 + 4
   \   000096   85....       MOV     ?V0 + 7,?V0 + 5
   \   000099   7402         MOV     A,#0x2
   \   00009B   78..         MOV     R0,#?V0 + 6
   \   00009D   12....       LCALL   ?US_SHR
   \   0000A0   85....       MOV     ?V0 + 4,?V0 + 6
   \   0000A3   85....       MOV     ?V0 + 5,?V0 + 7
    878          
    879            if ( len )
   \   0000A6   E5..         MOV     A,?V0 + 4
   \   0000A8   45..         ORL     A,?V0 + 5
   \   0000AA   605D         JZ      ??writeBuf_3
    880            {
    881              writeWordM( dstPg, dstOff, buf, len );
   \   0000AC                ; Setup parameters for call to function HalAdcCheckVdd
   \   0000AC   7904         MOV     R1,#0x4
   \   0000AE   12....       LCALL   ??HalAdcCheckVdd?relay
   \   0000B1   E9           MOV     A,R1
   \   0000B2   6034         JZ      ??writeBuf_4
   \   0000B4                ; Setup parameters for call to function HalFlashWrite
   \   0000B4   78..         MOV     R0,#?V0 + 4
   \   0000B6   12....       LCALL   ?PUSH_XSTACK_I_TWO
   \   0000B9   AC..         MOV     R4,?V0 + 2
   \   0000BB   AD..         MOV     R5,?V0 + 3
   \   0000BD   8E..         MOV     ?V0 + 6,R6
   \   0000BF   8F..         MOV     ?V0 + 7,R7
   \   0000C1   7402         MOV     A,#0x2
   \   0000C3   78..         MOV     R0,#?V0 + 6
   \   0000C5   12....       LCALL   ?US_SHR
   \   0000C8   85....       MOV     ?V0 + 8,?V0 + 1
   \   0000CB   F5..         MOV     ?V0 + 9,A
   \   0000CD   7409         MOV     A,#0x9
   \   0000CF   78..         MOV     R0,#?V0 + 8
   \   0000D1   12....       LCALL   ?S_SHL
   \   0000D4   E5..         MOV     A,?V0 + 6
   \   0000D6   2400         ADD     A,#0x0
   \   0000D8   FA           MOV     R2,A
   \   0000D9   E5..         MOV     A,?V0 + 7
   \   0000DB   35..         ADDC    A,?V0 + 9
   \   0000DD   FB           MOV     R3,A
   \   0000DE   12....       LCALL   ??HalFlashWrite?relay
   \   0000E1   7402         MOV     A,#0x2
   \   0000E3   12....       LCALL   ?DEALLOC_XSTACK8
   \   0000E6   8006         SJMP    ??writeBuf_5
   \                     ??writeBuf_4:
   \   0000E8   90....       MOV     DPTR,#failF
   \   0000EB   7401         MOV     A,#0x1
   \   0000ED   F0           MOVX    @DPTR,A
    882              dstOff += OSAL_NV_WORD_SIZE * len;
   \                     ??writeBuf_5:
   \   0000EE   7402         MOV     A,#0x2
   \   0000F0   78..         MOV     R0,#?V0 + 4
   \   0000F2   12....       LCALL   ?S_SHL
   \   0000F5   A8..         MOV     R0,?V0 + 4
   \   0000F7   A9..         MOV     R1,?V0 + 5
   \   0000F9   EE           MOV     A,R6
   \   0000FA   28           ADD     A,R0
   \   0000FB   FE           MOV     R6,A
   \   0000FC   EF           MOV     A,R7
   \   0000FD   39           ADDC    A,R1
   \   0000FE   FF           MOV     R7,A
    883              buf += OSAL_NV_WORD_SIZE * len;
   \   0000FF   E5..         MOV     A,?V0 + 2
   \   000101   28           ADD     A,R0
   \   000102   F5..         MOV     ?V0 + 2,A
   \   000104   E5..         MOV     A,?V0 + 3
   \   000106   39           ADDC    A,R1
   \   000107   F5..         MOV     ?V0 + 3,A
    884            }
    885          
    886            if ( rem )
   \                     ??writeBuf_3:
   \   000109   E5..         MOV     A,?V0 + 0
   \   00010B   6069         JZ      ??writeBuf_6
    887            {
    888              uint8 idx = 0;
   \   00010D   75..00       MOV     ?V0 + 6,#0x0
    889              HalFlashRead(dstPg, dstOff, tmp, OSAL_NV_WORD_SIZE);
   \   000110                ; Setup parameters for call to function HalFlashRead
   \   000110   75..04       MOV     ?V0 + 4,#0x4
   \   000113   75..00       MOV     ?V0 + 5,#0x0
   \   000116   78..         MOV     R0,#?V0 + 4
   \   000118   12....       LCALL   ?PUSH_XSTACK_I_TWO
   \   00011B   7402         MOV     A,#0x2
   \   00011D   12....       LCALL   ?XSTACK_DISP0_8
   \   000120   AC82         MOV     R4,DPL
   \   000122   AD83         MOV     R5,DPH
   \   000124   EE           MOV     A,R6
   \   000125   FA           MOV     R2,A
   \   000126   EF           MOV     A,R7
   \   000127   FB           MOV     R3,A
   \   000128   A9..         MOV     R1,?V0 + 1
   \   00012A   12....       LCALL   ??Subroutine39_0 & 0xFFFF
   \                     ??CrossCallReturnLabel_73:
   \   00012D   12....       LCALL   ?DEALLOC_XSTACK8
   \   000130   8025         SJMP    ??writeBuf_7
    890              while ( rem-- )
    891              {
    892                tmp[idx++] = *buf++;
   \                     ??writeBuf_8:
   \   000132   85..82       MOV     DPL,?V0 + 2
   \   000135   85..83       MOV     DPH,?V0 + 3
   \   000138   E0           MOVX    A,@DPTR
   \   000139   C0E0         PUSH    A
   \   00013B   85....       MOV     ?V0 + 4,?V0 + 6
   \   00013E   85..82       MOV     DPL,?XSP + 0
   \   000141   85..83       MOV     DPH,?XSP + 1
   \   000144   E582         MOV     A,DPL
   \   000146   25..         ADD     A,?V0 + 4
   \   000148   F582         MOV     DPL,A
   \   00014A   E583         MOV     A,DPH
   \   00014C   3400         ADDC    A,#0x0
   \   00014E   F583         MOV     DPH,A
   \   000150   D0E0         POP     A
   \   000152   12....       LCALL   ?Subroutine6 & 0xFFFF
    893              }
   \                     ??CrossCallReturnLabel_1:
   \   000155   05..         INC     ?V0 + 6
   \                     ??writeBuf_7:
   \   000157   85....       MOV     ?V0 + 4,?V0 + 0
   \   00015A   74FF         MOV     A,#-0x1
   \   00015C   25..         ADD     A,?V0 + 4
   \   00015E   F5..         MOV     ?V0 + 0,A
   \   000160   04           INC     A
   \   000161   70CF         JNZ     ??writeBuf_8
    894              writeWord( dstPg, dstOff, tmp );
   \   000163                ; Setup parameters for call to function writeWord
   \   000163   85..82       MOV     DPL,?XSP + 0
   \   000166   85..83       MOV     DPH,?XSP + 1
   \   000169   AC82         MOV     R4,DPL
   \   00016B   AD83         MOV     R5,DPH
   \   00016D   EE           MOV     A,R6
   \   00016E   FA           MOV     R2,A
   \   00016F   EF           MOV     A,R7
   \   000170   FB           MOV     R3,A
   \   000171   A9..         MOV     R1,?V0 + 1
   \   000173   12....       LCALL   ??writeWord?relay
    895            }
    896          }
   \                     ??writeBuf_6:
   \   000176                REQUIRE ?Subroutine2
   \   000176                ; // Fall through to label ?Subroutine2

   \                                 In  segment BANKED_CODE, align 1, keep-with-next
   \                     ?Subroutine2:
   \   000000   7404         MOV     A,#0x4
   \   000002                REQUIRE ??Subroutine36_0
   \   000002                ; // Fall through to label ??Subroutine36_0

   \                                 In  segment BANKED_CODE, align 1, keep-with-next
   \                     ?Subroutine6:
   \   000000   F0           MOVX    @DPTR,A
   \   000001   85..82       MOV     DPL,?V0 + 2
   \   000004   85..83       MOV     DPH,?V0 + 3
   \   000007   A3           INC     DPTR
   \   000008   8582..       MOV     ?V0 + 2,DPL
   \   00000B   8583..       MOV     ?V0 + 3,DPH
   \   00000E   22           RET
    897          
    898          /*********************************************************************
    899           * @fn      xferBuf
    900           *
    901           * @brief   Xfers an NV buffer from one location to another, enforcing OSAL_NV_WORD_SIZE writes.
    902           *
    903           * @return  none
    904           */

   \                                 In  segment BANKED_CODE, align 1, keep-with-next
    905          static void xferBuf( uint8 srcPg, uint16 srcOff, uint8 dstPg, uint16 dstOff, uint16 len )
   \                     xferBuf:
    906          {
   \   000000   74EE         MOV     A,#-0x12
   \   000002   12....       LCALL   ?BANKED_ENTER_XDATA
   \   000005                ; Saved register size: 18
   \   000005                ; Auto size: 4
   \   000005   74FC         MOV     A,#-0x4
   \   000007   12....       LCALL   ?ALLOC_XSTACK8
   \   00000A   89..         MOV     ?V0 + 6,R1
   \   00000C   8A..         MOV     ?V0 + 4,R2
   \   00000E   8B..         MOV     ?V0 + 5,R3
   \   000010   8C..         MOV     ?V0 + 3,R4
   \   000012   7416         MOV     A,#0x16
   \   000014   12....       LCALL   ?XSTACK_DISP0_8
   \   000017   E0           MOVX    A,@DPTR
   \   000018   F5..         MOV     ?V0 + 0,A
   \   00001A   A3           INC     DPTR
   \   00001B   E0           MOVX    A,@DPTR
   \   00001C   F5..         MOV     ?V0 + 1,A
   \   00001E   7418         MOV     A,#0x18
   \   000020   12....       LCALL   ?XSTACK_DISP0_8
   \   000023   E0           MOVX    A,@DPTR
   \   000024   FE           MOV     R6,A
   \   000025   A3           INC     DPTR
   \   000026   E0           MOVX    A,@DPTR
   \   000027   FF           MOV     R7,A
    907            uint8 rem = dstOff % OSAL_NV_WORD_SIZE;
   \   000028   E5..         MOV     A,?V0 + 0
   \   00002A   5403         ANL     A,#0x3
   \   00002C   F5..         MOV     ?V0 + 2,A
    908            uint8 tmp[OSAL_NV_WORD_SIZE];
    909          
    910            if ( rem )
   \   00002E   6063         JZ      ??CrossCallReturnLabel_26
    911            {
    912              dstOff -= rem;
   \   000030   F5..         MOV     ?V0 + 8,A
   \   000032   C3           CLR     C
   \   000033   E5..         MOV     A,?V0 + 0
   \   000035   95..         SUBB    A,?V0 + 8
   \   000037   F5..         MOV     ?V0 + 0,A
   \   000039   E5..         MOV     A,?V0 + 1
   \   00003B   9400         SUBB    A,#0x0
   \   00003D   F5..         MOV     ?V0 + 1,A
    913              HalFlashRead(dstPg, dstOff, tmp, OSAL_NV_WORD_SIZE);
   \   00003F                ; Setup parameters for call to function HalFlashRead
   \   00003F   75..04       MOV     ?V0 + 8,#0x4
   \   000042   75..00       MOV     ?V0 + 9,#0x0
   \   000045   78..         MOV     R0,#?V0 + 8
   \   000047   12....       LCALL   ?PUSH_XSTACK_I_TWO
   \   00004A   7402         MOV     A,#0x2
   \   00004C   12....       LCALL   ?XSTACK_DISP0_8
   \   00004F   AC82         MOV     R4,DPL
   \   000051   AD83         MOV     R5,DPH
   \   000053   AA..         MOV     R2,?V0 + 0
   \   000055   AB..         MOV     R3,?V0 + 1
   \   000057   A9..         MOV     R1,?V0 + 3
   \   000059   12....       LCALL   ??Subroutine39_0 & 0xFFFF
   \                     ??CrossCallReturnLabel_74:
   \   00005C   12....       LCALL   ?DEALLOC_XSTACK8
   \                     ??xferBuf_0:
   \   00005F   EE           MOV     A,R6
   \   000060   4F           ORL     A,R7
   \   000061   602D         JZ      ??xferBuf_1
    914          
    915              while ( (rem < OSAL_NV_WORD_SIZE) && len )
    916              {
    917                HalFlashRead(srcPg, srcOff, tmp+rem, 1);
   \   000063                ; Setup parameters for call to function HalFlashRead
   \   000063   75..01       MOV     ?V0 + 8,#0x1
   \   000066   78..         MOV     R0,#?V0 + 8
   \   000068   12....       LCALL   ?PUSH_XSTACK_I_TWO
   \   00006B   85....       MOV     ?V0 + 8,?V0 + 2
   \   00006E   7402         MOV     A,#0x2
   \   000070   12....       LCALL   ?XSTACK_DISP0_8
   \   000073   12....       LCALL   ?Subroutine18 & 0xFFFF
   \                     ??CrossCallReturnLabel_28:
   \   000076   12....       LCALL   ??Subroutine39_0 & 0xFFFF
   \                     ??CrossCallReturnLabel_75:
   \   000079   12....       LCALL   ?DEALLOC_XSTACK8
    918                srcOff++;
   \   00007C   12....       LCALL   ?Subroutine26 & 0xFFFF
    919                rem++;
   \                     ??CrossCallReturnLabel_42:
   \   00007F   05..         INC     ?V0 + 2
    920                len--;
   \   000081   EE           MOV     A,R6
   \   000082   24FF         ADD     A,#-0x1
   \   000084   1E           DEC     R6
   \   000085   EF           MOV     A,R7
   \   000086   34FF         ADDC    A,#-0x1
   \   000088   FF           MOV     R7,A
    921              }
   \   000089   E5..         MOV     A,?V0 + 2
   \   00008B   C3           CLR     C
   \   00008C   9404         SUBB    A,#0x4
   \   00008E   40CF         JC      ??xferBuf_0
    922          
    923              writeWord( dstPg, dstOff, tmp );
   \                     ??xferBuf_1:
   \   000090                ; Setup parameters for call to function writeWord
   \   000090   12....       LCALL   ?Subroutine17 & 0xFFFF
    924              dstOff += OSAL_NV_WORD_SIZE;
    925            }
    926          
    927            rem = len % OSAL_NV_WORD_SIZE;
   \                     ??CrossCallReturnLabel_26:
   \   000093   EE           MOV     A,R6
   \   000094   5403         ANL     A,#0x3
   \   000096   F5..         MOV     ?V0 + 2,A
    928            len /= OSAL_NV_WORD_SIZE;
   \   000098   8E..         MOV     ?V0 + 8,R6
   \   00009A   8F..         MOV     ?V0 + 9,R7
   \   00009C   7402         MOV     A,#0x2
   \   00009E   78..         MOV     R0,#?V0 + 8
   \   0000A0   12....       LCALL   ?US_SHR
   \   0000A3   AE..         MOV     R6,?V0 + 8
   \   0000A5   AF..         MOV     R7,?V0 + 9
   \   0000A7   802F         SJMP    ??CrossCallReturnLabel_27
    929          
    930            while ( len-- )
    931            {
    932              HalFlashRead(srcPg, srcOff, tmp, OSAL_NV_WORD_SIZE);
   \                     ??xferBuf_2:
   \   0000A9                ; Setup parameters for call to function HalFlashRead
   \   0000A9   75..04       MOV     ?V0 + 8,#0x4
   \   0000AC   75..00       MOV     ?V0 + 9,#0x0
   \   0000AF   78..         MOV     R0,#?V0 + 8
   \   0000B1   12....       LCALL   ?PUSH_XSTACK_I_TWO
   \   0000B4   7402         MOV     A,#0x2
   \   0000B6   12....       LCALL   ?XSTACK_DISP0_8
   \   0000B9   AC82         MOV     R4,DPL
   \   0000BB   AD83         MOV     R5,DPH
   \   0000BD   AA..         MOV     R2,?V0 + 4
   \   0000BF   AB..         MOV     R3,?V0 + 5
   \   0000C1   A9..         MOV     R1,?V0 + 6
   \   0000C3   12....       LCALL   ??Subroutine39_0 & 0xFFFF
   \                     ??CrossCallReturnLabel_76:
   \   0000C6   12....       LCALL   ?DEALLOC_XSTACK8
    933              srcOff += OSAL_NV_WORD_SIZE;
   \   0000C9   E5..         MOV     A,?V0 + 4
   \   0000CB   2404         ADD     A,#0x4
   \   0000CD   F5..         MOV     ?V0 + 4,A
   \   0000CF   E5..         MOV     A,?V0 + 5
   \   0000D1   3400         ADDC    A,#0x0
   \   0000D3   F5..         MOV     ?V0 + 5,A
    934              writeWord( dstPg, dstOff, tmp );
   \   0000D5                ; Setup parameters for call to function writeWord
   \   0000D5   12....       LCALL   ?Subroutine17 & 0xFFFF
    935              dstOff += OSAL_NV_WORD_SIZE;
    936            }
   \                     ??CrossCallReturnLabel_27:
   \   0000D8   12....       LCALL   ?Subroutine27 & 0xFFFF
   \                     ??CrossCallReturnLabel_45:
   \   0000DB   70CC         JNZ     ??xferBuf_2
    937          
    938            if ( rem )
   \   0000DD   E5..         MOV     A,?V0 + 2
   \   0000DF   605C         JZ      ??xferBuf_3
    939            {
    940              uint8 idx = 0;
   \   0000E1   7E00         MOV     R6,#0x0
    941              HalFlashRead(dstPg, dstOff, tmp, OSAL_NV_WORD_SIZE);
   \   0000E3                ; Setup parameters for call to function HalFlashRead
   \   0000E3   75..04       MOV     ?V0 + 8,#0x4
   \   0000E6   8E..         MOV     ?V0 + 9,R6
   \   0000E8   78..         MOV     R0,#?V0 + 8
   \   0000EA   12....       LCALL   ?PUSH_XSTACK_I_TWO
   \   0000ED   7402         MOV     A,#0x2
   \   0000EF   12....       LCALL   ?XSTACK_DISP0_8
   \   0000F2   AC82         MOV     R4,DPL
   \   0000F4   AD83         MOV     R5,DPH
   \   0000F6   AA..         MOV     R2,?V0 + 0
   \   0000F8   AB..         MOV     R3,?V0 + 1
   \   0000FA   A9..         MOV     R1,?V0 + 3
   \   0000FC   12....       LCALL   ??Subroutine39_0 & 0xFFFF
   \                     ??CrossCallReturnLabel_77:
   \   0000FF   12....       LCALL   ?DEALLOC_XSTACK8
   \   000102   801C         SJMP    ??xferBuf_4
    942              while ( rem-- )
    943              {
    944                HalFlashRead(srcPg, srcOff, tmp+idx, 1);
   \                     ??xferBuf_5:
   \   000104                ; Setup parameters for call to function HalFlashRead
   \   000104   75..01       MOV     ?V0 + 8,#0x1
   \   000107   78..         MOV     R0,#?V0 + 8
   \   000109   12....       LCALL   ?PUSH_XSTACK_I_TWO
   \   00010C   8E..         MOV     ?V0 + 8,R6
   \   00010E   7402         MOV     A,#0x2
   \   000110   12....       LCALL   ?XSTACK_DISP0_8
   \   000113   12....       LCALL   ?Subroutine18 & 0xFFFF
   \                     ??CrossCallReturnLabel_29:
   \   000116   12....       LCALL   ??Subroutine39_0 & 0xFFFF
   \                     ??CrossCallReturnLabel_78:
   \   000119   12....       LCALL   ?DEALLOC_XSTACK8
    945                srcOff++;
   \   00011C   12....       LCALL   ?Subroutine26 & 0xFFFF
    946                idx++;
   \                     ??CrossCallReturnLabel_43:
   \   00011F   0E           INC     R6
    947              }
   \                     ??xferBuf_4:
   \   000120   AF..         MOV     R7,?V0 + 2
   \   000122   74FF         MOV     A,#-0x1
   \   000124   2F           ADD     A,R7
   \   000125   F5..         MOV     ?V0 + 2,A
   \   000127   04           INC     A
   \   000128   70DA         JNZ     ??xferBuf_5
    948              writeWord( dstPg, dstOff, tmp );
   \   00012A                ; Setup parameters for call to function writeWord
   \   00012A   85..82       MOV     DPL,?XSP + 0
   \   00012D   85..83       MOV     DPH,?XSP + 1
   \   000130   AC82         MOV     R4,DPL
   \   000132   AD83         MOV     R5,DPH
   \   000134   AA..         MOV     R2,?V0 + 0
   \   000136   AB..         MOV     R3,?V0 + 1
   \   000138   A9..         MOV     R1,?V0 + 3
   \   00013A   12....       LCALL   ??writeWord?relay
    949            }
    950          }
   \                     ??xferBuf_3:
   \   00013D   02....       LJMP    ?Subroutine2 & 0xFFFF

   \                                 In  segment BANKED_CODE, align 1, keep-with-next
   \                     ?Subroutine26:
   \   000000   E5..         MOV     A,?V0 + 4
   \   000002   2401         ADD     A,#0x1
   \   000004   F5..         MOV     ?V0 + 4,A
   \   000006   E5..         MOV     A,?V0 + 5
   \   000008   3400         ADDC    A,#0x0
   \   00000A   F5..         MOV     ?V0 + 5,A
   \   00000C   22           RET

   \                                 In  segment BANKED_CODE, align 1, keep-with-next
   \                     ?Subroutine18:
   \   000000   E582         MOV     A,DPL
   \   000002   25..         ADD     A,?V0 + 8
   \   000004   FC           MOV     R4,A
   \   000005   E583         MOV     A,DPH
   \   000007   3400         ADDC    A,#0x0
   \   000009   FD           MOV     R5,A
   \   00000A   AA..         MOV     R2,?V0 + 4
   \   00000C   AB..         MOV     R3,?V0 + 5
   \   00000E   A9..         MOV     R1,?V0 + 6
   \   000010   22           RET

   \                                 In  segment BANKED_CODE, align 1, keep-with-next
   \                     ?Subroutine17:
   \   000000   85..82       MOV     DPL,?XSP + 0
   \   000003   85..83       MOV     DPH,?XSP + 1
   \   000006   AC82         MOV     R4,DPL
   \   000008   AD83         MOV     R5,DPH
   \   00000A   AA..         MOV     R2,?V0 + 0
   \   00000C   AB..         MOV     R3,?V0 + 1
   \   00000E   A9..         MOV     R1,?V0 + 3
   \   000010   12....       LCALL   ??writeWord?relay
   \   000013   E5..         MOV     A,?V0 + 0
   \   000015   2404         ADD     A,#0x4
   \   000017   F5..         MOV     ?V0 + 0,A
   \   000019   E5..         MOV     A,?V0 + 1
   \   00001B   3400         ADDC    A,#0x0
   \   00001D   F5..         MOV     ?V0 + 1,A
   \   00001F   22           RET
    951          
    952          /*********************************************************************
    953           * @fn      writeItem
    954           *
    955           * @brief   Writes an item header/data combo to the specified NV page.
    956           *
    957           * @param   pg - Valid NV Flash page.
    958           * @param   id - Valid NV item Id.
    959           * @param   len  - Byte count of the data to write.
    960           * @param   buf  - The data to write. If NULL, no data/checksum write.
    961           * @param   flag - TRUE if the checksum should be written, FALSE otherwise.
    962           *
    963           * @return  TRUE if header/data to write matches header/data read back, else FALSE.
    964           */

   \                                 In  segment BANKED_CODE, align 1, keep-with-next
    965          static uint8 writeItem( uint8 pg, uint16 id, uint16 len, void *buf, uint8 flag )
   \                     writeItem:
    966          {
   \   000000   74EC         MOV     A,#-0x14
   \   000002   12....       LCALL   ?BANKED_ENTER_XDATA
   \   000005                ; Saved register size: 20
   \   000005                ; Auto size: 10
   \   000005   74F6         MOV     A,#-0xa
   \   000007   12....       LCALL   ?ALLOC_XSTACK8
   \   00000A   89..         MOV     ?V0 + 0,R1
   \   00000C   8A..         MOV     ?V0 + 8,R2
   \   00000E   8B..         MOV     ?V0 + 9,R3
   \   000010   8C..         MOV     ?V0 + 2,R4
   \   000012   8D..         MOV     ?V0 + 3,R5
   \   000014   741E         MOV     A,#0x1e
   \   000016   12....       LCALL   ?XSTACK_DISP0_8
   \   000019   E0           MOVX    A,@DPTR
   \   00001A   F5..         MOV     ?V0 + 6,A
   \   00001C   A3           INC     DPTR
   \   00001D   E0           MOVX    A,@DPTR
   \   00001E   F5..         MOV     ?V0 + 7,A
   \   000020   7420         MOV     A,#0x20
   \   000022   12....       LCALL   ?XSTACK_DISP0_8
   \   000025   E0           MOVX    A,@DPTR
   \   000026   F5..         MOV     ?V0 + 4,A
    967            uint16 offset = pgOff[pg-OSAL_NV_PAGE_BEG];
   \   000028   E9           MOV     A,R1
   \   000029   12....       LCALL   ?Subroutine19 & 0xFFFF
   \                     ??CrossCallReturnLabel_30:
   \   00002C   FE           MOV     R6,A
   \   00002D   A3           INC     DPTR
   \   00002E   E0           MOVX    A,@DPTR
   \   00002F   FF           MOV     R7,A
    968            uint8 rtrn = FALSE;
   \   000030   75..00       MOV     ?V0 + 1,#0x0
    969            osalNvHdr_t hdr;
    970          
    971            if ( pg == pgRes )
   \   000033   90....       MOV     DPTR,#pgRes
   \   000036   E0           MOVX    A,@DPTR
   \   000037   65..         XRL     A,?V0 + 0
   \   000039   7007         JNZ     ??writeItem_0
    972            {
    973              /* Mark reserve page as being active, in process of receiving items.
    974               * Invoking function must effect a page compaction.
    975               */
    976              setPageUse( pg, FALSE );
   \   00003B                ; Setup parameters for call to function setPageUse
   \   00003B   7A00         MOV     R2,#0x0
   \   00003D   A9..         MOV     R1,?V0 + 0
   \   00003F   12....       LCALL   ??setPageUse?relay
    977            }
    978          
    979            hdr.id = id;
   \                     ??writeItem_0:
   \   000042   7402         MOV     A,#0x2
   \   000044   12....       LCALL   ?XSTACK_DISP0_8
   \   000047   E5..         MOV     A,?V0 + 8
   \   000049   F0           MOVX    @DPTR,A
   \   00004A   A3           INC     DPTR
   \   00004B   E5..         MOV     A,?V0 + 9
   \   00004D   F0           MOVX    @DPTR,A
    980            hdr.len = len;
   \   00004E   7404         MOV     A,#0x4
   \   000050   12....       LCALL   ?XSTACK_DISP0_8
   \   000053   E5..         MOV     A,?V0 + 2
   \   000055   F0           MOVX    @DPTR,A
   \   000056   A3           INC     DPTR
   \   000057   E5..         MOV     A,?V0 + 3
   \   000059   F0           MOVX    @DPTR,A
    981          
    982            writeWord( pg, offset, (uint8 *)&hdr );
   \   00005A                ; Setup parameters for call to function writeWord
   \   00005A   7402         MOV     A,#0x2
   \   00005C   12....       LCALL   ?XSTACK_DISP0_8
   \   00005F   AC82         MOV     R4,DPL
   \   000061   AD83         MOV     R5,DPH
   \   000063   EE           MOV     A,R6
   \   000064   FA           MOV     R2,A
   \   000065   EF           MOV     A,R7
   \   000066   FB           MOV     R3,A
   \   000067   A9..         MOV     R1,?V0 + 0
   \   000069   12....       LCALL   ??writeWord?relay
    983            HalFlashRead(pg, offset, (uint8 *)(&hdr), OSAL_NV_HDR_SIZE);
   \   00006C                ; Setup parameters for call to function HalFlashRead
   \   00006C   75..08       MOV     ?V0 + 10,#0x8
   \   00006F   75..00       MOV     ?V0 + 11,#0x0
   \   000072   78..         MOV     R0,#?V0 + 10
   \   000074   12....       LCALL   ?PUSH_XSTACK_I_TWO
   \   000077   7404         MOV     A,#0x4
   \   000079   12....       LCALL   ?XSTACK_DISP0_8
   \   00007C   AC82         MOV     R4,DPL
   \   00007E   AD83         MOV     R5,DPH
   \   000080   EE           MOV     A,R6
   \   000081   FA           MOV     R2,A
   \   000082   EF           MOV     A,R7
   \   000083   FB           MOV     R3,A
   \   000084   A9..         MOV     R1,?V0 + 0
   \   000086   12....       LCALL   ??Subroutine39_0 & 0xFFFF
   \                     ??CrossCallReturnLabel_79:
   \   000089   12....       LCALL   ?DEALLOC_XSTACK8
    984          
    985            if ( (hdr.id == id) && (hdr.len == len) )
   \   00008C   7402         MOV     A,#0x2
   \   00008E   12....       LCALL   ?XSTACK_DISP0_8
   \   000091   E0           MOVX    A,@DPTR
   \   000092   65..         XRL     A,?V0 + 8
   \   000094   7004         JNZ     ??writeItem_1
   \   000096   A3           INC     DPTR
   \   000097   E0           MOVX    A,@DPTR
   \   000098   65..         XRL     A,?V0 + 9
   \                     ??writeItem_1:
   \   00009A   6003         JZ      $+5
   \   00009C   02....       LJMP    ??writeItem_2 & 0xFFFF
   \   00009F   7404         MOV     A,#0x4
   \   0000A1   12....       LCALL   ?XSTACK_DISP0_8
   \   0000A4   E0           MOVX    A,@DPTR
   \   0000A5   65..         XRL     A,?V0 + 2
   \   0000A7   7004         JNZ     ??writeItem_3
   \   0000A9   A3           INC     DPTR
   \   0000AA   E0           MOVX    A,@DPTR
   \   0000AB   65..         XRL     A,?V0 + 3
   \                     ??writeItem_3:
   \   0000AD   6003         JZ      $+5
   \   0000AF   02....       LJMP    ??writeItem_2 & 0xFFFF
    986            {
    987              if ( flag )
   \   0000B2   E5..         MOV     A,?V0 + 4
   \   0000B4   7003         JNZ     $+5
   \   0000B6   02....       LJMP    ??writeItem_4 & 0xFFFF
    988              {
    989                uint16 chk = calcChkB( len, buf );
   \   0000B9   85..82       MOV     DPL,?V0 + 6
   \   0000BC   85..83       MOV     DPH,?V0 + 7
   \   0000BF   A8..         MOV     R0,?V0 + 2
   \   0000C1   A9..         MOV     R1,?V0 + 3
   \   0000C3   E8           MOV     A,R0
   \   0000C4   5403         ANL     A,#0x3
   \   0000C6   F5..         MOV     ?V0 + 4,A
   \   0000C8   E582         MOV     A,DPL
   \   0000CA   4583         ORL     A,DPH
   \   0000CC   7015         JNZ     ??writeItem_5
   \   0000CE   E8           MOV     A,R0
   \   0000CF   75F0FF       MOV     B,#-0x1
   \   0000D2   A4           MUL     AB
   \   0000D3   F8           MOV     R0,A
   \   0000D4   AAF0         MOV     R2,B
   \   0000D6   75F0FF       MOV     B,#-0x1
   \   0000D9   E9           MOV     A,R1
   \   0000DA   A4           MUL     AB
   \   0000DB   2A           ADD     A,R2
   \   0000DC   F9           MOV     R1,A
   \   0000DD   E8           MOV     A,R0
   \   0000DE   FA           MOV     R2,A
   \   0000DF   E9           MOV     A,R1
   \   0000E0   FB           MOV     R3,A
   \   0000E1   8020         SJMP    ??writeItem_6
   \                     ??writeItem_5:
   \   0000E3   7A00         MOV     R2,#0x0
   \   0000E5   7B00         MOV     R3,#0x0
   \   0000E7   800A         SJMP    ??writeItem_7
   \                     ??writeItem_8:
   \   0000E9   E0           MOVX    A,@DPTR
   \   0000EA   FC           MOV     R4,A
   \   0000EB   EA           MOV     A,R2
   \   0000EC   2C           ADD     A,R4
   \   0000ED   FA           MOV     R2,A
   \   0000EE   EB           MOV     A,R3
   \   0000EF   3400         ADDC    A,#0x0
   \   0000F1   FB           MOV     R3,A
   \   0000F2   A3           INC     DPTR
   \                     ??writeItem_7:
   \   0000F3   E8           MOV     A,R0
   \   0000F4   FC           MOV     R4,A
   \   0000F5   E9           MOV     A,R1
   \   0000F6   FD           MOV     R5,A
   \   0000F7   EC           MOV     A,R4
   \   0000F8   24FF         ADD     A,#-0x1
   \   0000FA   18           DEC     R0
   \   0000FB   ED           MOV     A,R5
   \   0000FC   34FF         ADDC    A,#-0x1
   \   0000FE   F9           MOV     R1,A
   \   0000FF   EC           MOV     A,R4
   \   000100   4D           ORL     A,R5
   \   000101   70E6         JNZ     ??writeItem_8
   \                     ??writeItem_6:
   \   000103   E5..         MOV     A,?V0 + 4
   \   000105   601E         JZ      ??writeItem_9
   \   000107   7404         MOV     A,#0x4
   \   000109   C3           CLR     C
   \   00010A   95..         SUBB    A,?V0 + 4
   \   00010C   F8           MOV     R0,A
   \   00010D   95E0         SUBB    A,0xE0 /* A   */
   \   00010F   F9           MOV     R1,A
   \   000110   E8           MOV     A,R0
   \   000111   75F0FF       MOV     B,#-0x1
   \   000114   A4           MUL     AB
   \   000115   F8           MOV     R0,A
   \   000116   ACF0         MOV     R4,B
   \   000118   75F0FF       MOV     B,#-0x1
   \   00011B   E9           MOV     A,R1
   \   00011C   A4           MUL     AB
   \   00011D   2C           ADD     A,R4
   \   00011E   F9           MOV     R1,A
   \   00011F   EA           MOV     A,R2
   \   000120   28           ADD     A,R0
   \   000121   FA           MOV     R2,A
   \   000122   EB           MOV     A,R3
   \   000123   39           ADDC    A,R1
   \   000124   FB           MOV     R3,A
   \                     ??writeItem_9:
   \   000125   85..82       MOV     DPL,?XSP + 0
   \   000128   85..83       MOV     DPH,?XSP + 1
   \   00012B   EA           MOV     A,R2
   \   00012C   F0           MOVX    @DPTR,A
   \   00012D   A3           INC     DPTR
   \   00012E   EB           MOV     A,R3
   \   00012F   F0           MOVX    @DPTR,A
    990          
    991                offset += OSAL_NV_HDR_SIZE;
   \   000130   EE           MOV     A,R6
   \   000131   2408         ADD     A,#0x8
   \   000133   FE           MOV     R6,A
   \   000134   EF           MOV     A,R7
   \   000135   3400         ADDC    A,#0x0
   \   000137   FF           MOV     R7,A
    992                if ( buf != NULL )
   \   000138   E5..         MOV     A,?V0 + 6
   \   00013A   45..         ORL     A,?V0 + 7
   \   00013C   6017         JZ      ??writeItem_10
    993                {
    994                  writeBuf( pg, offset, len, buf );
   \   00013E                ; Setup parameters for call to function writeBuf
   \   00013E   78..         MOV     R0,#?V0 + 6
   \   000140   12....       LCALL   ?PUSH_XSTACK_I_TWO
   \   000143   AC..         MOV     R4,?V0 + 2
   \   000145   AD..         MOV     R5,?V0 + 3
   \   000147   EE           MOV     A,R6
   \   000148   FA           MOV     R2,A
   \   000149   EF           MOV     A,R7
   \   00014A   FB           MOV     R3,A
   \   00014B   A9..         MOV     R1,?V0 + 0
   \   00014D   12....       LCALL   ??writeBuf?relay
   \   000150   7402         MOV     A,#0x2
   \   000152   12....       LCALL   ?DEALLOC_XSTACK8
    995                }
    996          
    997                if ( chk == calcChkF( pg, offset, len ) )
   \                     ??writeItem_10:
   \   000155                ; Setup parameters for call to function calcChkF
   \   000155   AC..         MOV     R4,?V0 + 2
   \   000157   AD..         MOV     R5,?V0 + 3
   \   000159   EE           MOV     A,R6
   \   00015A   FA           MOV     R2,A
   \   00015B   EF           MOV     A,R7
   \   00015C   FB           MOV     R3,A
   \   00015D   A9..         MOV     R1,?V0 + 0
   \   00015F   12....       LCALL   ?Subroutine22 & 0xFFFF
   \                     ??CrossCallReturnLabel_37:
   \   000162   85..82       MOV     DPL,?XSP + 0
   \   000165   85..83       MOV     DPH,?XSP + 1
   \   000168   E0           MOVX    A,@DPTR
   \   000169   68           XRL     A,R0
   \   00016A   7003         JNZ     ??writeItem_11
   \   00016C   A3           INC     DPTR
   \   00016D   E0           MOVX    A,@DPTR
   \   00016E   69           XRL     A,R1
   \                     ??writeItem_11:
   \   00016F   7044         JNZ     ??writeItem_2
    998                {
    999                  writeWordH(pg, (offset-OSAL_NV_WORD_SIZE), (uint8 *)&chk);
   \   000171                ; Setup parameters for call to function writeWordH
   \   000171   85..82       MOV     DPL,?XSP + 0
   \   000174   85..83       MOV     DPH,?XSP + 1
   \   000177   AC82         MOV     R4,DPL
   \   000179   AD83         MOV     R5,DPH
   \   00017B   EE           MOV     A,R6
   \   00017C   24FC         ADD     A,#-0x4
   \   00017E   FA           MOV     R2,A
   \   00017F   EF           MOV     A,R7
   \   000180   34FF         ADDC    A,#-0x1
   \   000182   12....       LCALL   ?Subroutine23 & 0xFFFF
   1000                  HalFlashRead(pg, (offset-OSAL_NV_HDR_SIZE), (uint8 *)(&hdr), OSAL_NV_HDR_SIZE);
   \                     ??CrossCallReturnLabel_38:
   \   000185   12....       LCALL   ?PUSH_XSTACK_I_TWO
   \   000188   7404         MOV     A,#0x4
   \   00018A   12....       LCALL   ?XSTACK_DISP0_8
   \   00018D   AC82         MOV     R4,DPL
   \   00018F   AD83         MOV     R5,DPH
   \   000191   EE           MOV     A,R6
   \   000192   24F8         ADD     A,#-0x8
   \   000194   FA           MOV     R2,A
   \   000195   EF           MOV     A,R7
   \   000196   34FF         ADDC    A,#-0x1
   \   000198   FB           MOV     R3,A
   \   000199   A9..         MOV     R1,?V0 + 0
   \   00019B   12....       LCALL   ??Subroutine39_0 & 0xFFFF
   \                     ??CrossCallReturnLabel_80:
   \   00019E   12....       LCALL   ?DEALLOC_XSTACK8
   1001          
   1002                  if ( chk == hdr.chk )
   \   0001A1   12....       LCALL   ?Subroutine8 & 0xFFFF
   \                     ??CrossCallReturnLabel_89:
   \   0001A4   7406         MOV     A,#0x6
   \   0001A6   12....       LCALL   ?XSTACK_DISP0_8
   \   0001A9   E0           MOVX    A,@DPTR
   \   0001AA   68           XRL     A,R0
   \   0001AB   7003         JNZ     ??writeItem_12
   \   0001AD   A3           INC     DPTR
   \   0001AE   E0           MOVX    A,@DPTR
   \   0001AF   69           XRL     A,R1
   \                     ??writeItem_12:
   \   0001B0   7003         JNZ     ??writeItem_2
   1003                  {
   1004                    rtrn = pg;
   \                     ??writeItem_4:
   \   0001B2   85....       MOV     ?V0 + 1,?V0 + 0
   1005                  }
   1006                }
   1007              }
   1008              else
   1009              {
   1010                rtrn = pg;
   1011              }
   1012            }
   1013          
   1014            len = OSAL_NV_ITEM_SIZE( hdr.len );
   1015            pgOff[pg-OSAL_NV_PAGE_BEG] += len;
   \                     ??writeItem_2:
   \   0001B5   7404         MOV     A,#0x4
   \   0001B7   12....       LCALL   ?XSTACK_DISP0_8
   \   0001BA   12....       LCALL   ?Subroutine11 & 0xFFFF
   \                     ??CrossCallReturnLabel_11:
   \   0001BD   FA           MOV     R2,A
   \   0001BE   E9           MOV     A,R1
   \   0001BF   3400         ADDC    A,#0x0
   \   0001C1   FB           MOV     R3,A
   \   0001C2   E5..         MOV     A,?V0 + 0
   \   0001C4   12....       LCALL   ?Subroutine19 & 0xFFFF
   \                     ??CrossCallReturnLabel_31:
   \   0001C7   2A           ADD     A,R2
   \   0001C8   F0           MOVX    @DPTR,A
   \   0001C9   A3           INC     DPTR
   \   0001CA   E0           MOVX    A,@DPTR
   \   0001CB   3B           ADDC    A,R3
   \   0001CC   F0           MOVX    @DPTR,A
   1016          
   1017            return rtrn;
   \   0001CD   A9..         MOV     R1,?V0 + 1
   \   0001CF   740A         MOV     A,#0xa
   \   0001D1   12....       LCALL   ?DEALLOC_XSTACK8
   \   0001D4   7F0C         MOV     R7,#0xc
   \   0001D6   02....       LJMP    ?BANKED_LEAVE_XDATA
   1018          }

   \                                 In  segment BANKED_CODE, align 1, keep-with-next
   \                     ?Subroutine19:
   \   000000   12....       LCALL   ?Subroutine30 & 0xFFFF
   \                     ??CrossCallReturnLabel_51:
   \   000003   E0           MOVX    A,@DPTR
   \   000004   22           RET

   \                                 In  segment BANKED_CODE, align 1, keep-with-next
   \                     ?Subroutine23:
   \   000000   FB           MOV     R3,A
   \   000001   A9..         MOV     R1,?V0 + 0
   \   000003   12....       LCALL   ??writeWordH?relay
   \   000006                ; Setup parameters for call to function HalFlashRead
   \   000006                ; Setup parameters for call to function HalFlashRead
   \   000006   75..08       MOV     ?V0 + 2,#0x8
   \   000009   75..00       MOV     ?V0 + 3,#0x0
   \   00000C   78..         MOV     R0,#?V0 + 2
   \   00000E   22           RET
   1019          
   1020          /*********************************************************************
   1021           * @fn      osal_nv_init
   1022           *
   1023           * @brief   Initialize NV service.
   1024           *
   1025           * @param   p - Not used.
   1026           *
   1027           * @return  none
   1028           */

   \                                 In  segment BANKED_CODE, align 1, keep-with-next
   1029          void osal_nv_init( void *p )
   \                     osal_nv_init:
   1030          {
   \   000000   C082         PUSH    DPL
   \   000002   C083         PUSH    DPH
   \   000004                ; Saved register size: 2
   \   000004                ; Auto size: 0
   1031            (void)p;  // Suppress Lint warning.
   1032            (void)initNV();  // Always returns TRUE after pages have been erased.
   \   000004                ; Setup parameters for call to function initNV
   \   000004   12....       LCALL   ??initNV?relay
   1033          }
   \   000007   D083         POP     DPH
   \   000009   D082         POP     DPL
   \   00000B   02....       LJMP    ?BRET
   1034          
   1035          /*********************************************************************
   1036           * @fn      osal_nv_item_init
   1037           *
   1038           * @brief   If the NV item does not already exist, it is created and
   1039           *          initialized with the data passed to the function, if any.
   1040           *          This function must be called before calling osal_nv_read() or
   1041           *          osal_nv_write().
   1042           *
   1043           * @param   id  - Valid NV item Id.
   1044           * @param   len - Item length.
   1045           * @param  *buf - Pointer to item initalization data. Set to NULL if none.
   1046           *
   1047           * @return  NV_ITEM_UNINIT - Id did not exist and was created successfully.
   1048           *          ZSUCCESS       - Id already existed, no action taken.
   1049           *          NV_OPER_FAILED - Failure to find or create Id.
   1050           */

   \                                 In  segment BANKED_CODE, align 1, keep-with-next
   1051          uint8 osal_nv_item_init( uint16 id, uint16 len, void *buf )
   \                     osal_nv_item_init:
   1052          {
   \   000000   74F2         MOV     A,#-0xe
   \   000002   12....       LCALL   ?BANKED_ENTER_XDATA
   \   000005                ; Saved register size: 14
   \   000005                ; Auto size: 0
   \   000005   EA           MOV     A,R2
   \   000006   FE           MOV     R6,A
   \   000007   EB           MOV     A,R3
   \   000008   FF           MOV     R7,A
   \   000009   8C..         MOV     ?V0 + 0,R4
   \   00000B   8D..         MOV     ?V0 + 1,R5
   \   00000D   740E         MOV     A,#0xe
   \   00000F   12....       LCALL   ?XSTACK_DISP0_8
   \   000012   12....       LCALL   ?Subroutine10 & 0xFFFF
   1053            /* Global fail flag for fail due to low bus voltage has less impact on code
   1054             * size than passing back a return value all the way from the lowest level.
   1055             */
   1056            failF = FALSE;
   \                     ??CrossCallReturnLabel_8:
   \   000015   90....       MOV     DPTR,#failF
   \   000018   E4           CLR     A
   \   000019   F0           MOVX    @DPTR,A
   1057          
   1058            if ( (findItem( id ) != OSAL_NV_ITEM_NULL) )
   \   00001A                ; Setup parameters for call to function findItem
   \   00001A   12....       LCALL   ??findItem?relay
   \   00001D   8B..         MOV     ?V0 + 5,R3
   \   00001F   EA           MOV     A,R2
   \   000020   45..         ORL     A,?V0 + 5
   \   000022   6004         JZ      ??osal_nv_item_init_0
   1059            {
   1060              return ZSUCCESS;
   \   000024   7900         MOV     R1,#0x0
   \   000026   802B         SJMP    ??osal_nv_item_init_1
   1061            }
   1062            else if ( initItem( TRUE, id, len, buf ) )
   \                     ??osal_nv_item_init_0:
   \   000028                ; Setup parameters for call to function initItem
   \   000028   78..         MOV     R0,#?V0 + 2
   \   00002A   12....       LCALL   ?PUSH_XSTACK_I_TWO
   \   00002D   AC..         MOV     R4,?V0 + 0
   \   00002F   AD..         MOV     R5,?V0 + 1
   \   000031   EE           MOV     A,R6
   \   000032   FA           MOV     R2,A
   \   000033   EF           MOV     A,R7
   \   000034   FB           MOV     R3,A
   \   000035   7901         MOV     R1,#0x1
   \   000037   12....       LCALL   ??initItem?relay
   \   00003A   7402         MOV     A,#0x2
   \   00003C   12....       LCALL   ?DEALLOC_XSTACK8
   \   00003F   E9           MOV     A,R1
   \   000040   600F         JZ      ??osal_nv_item_init_2
   1063            {
   1064              if ( failF )
   \   000042   90....       MOV     DPTR,#failF
   \   000045   E0           MOVX    A,@DPTR
   \   000046   6005         JZ      ??osal_nv_item_init_3
   1065              {
   1066                (void)initNV();  // See comment at the declaration of failF.
   \   000048                ; Setup parameters for call to function initNV
   \   000048   12....       LCALL   ??initNV?relay
   1067                return NV_OPER_FAILED;
   \   00004B   8004         SJMP    ??osal_nv_item_init_2
   1068              }
   1069              else
   1070              {
   1071                return NV_ITEM_UNINIT;
   \                     ??osal_nv_item_init_3:
   \   00004D   7909         MOV     R1,#0x9
   \   00004F   8002         SJMP    ??osal_nv_item_init_1
   1072              }
   1073            }
   1074            else
   1075            {
   1076              return NV_OPER_FAILED;
   \                     ??osal_nv_item_init_2:
   \   000051   790A         MOV     R1,#0xa
   1077            }
   \                     ??osal_nv_item_init_1:
   \   000053   80..         SJMP    ??Subroutine40_0
   1078          }
   1079          
   1080          /*********************************************************************
   1081           * @fn      osal_nv_item_len
   1082           *
   1083           * @brief   Get the data length of the item stored in NV memory.
   1084           *
   1085           * @param   id  - Valid NV item Id.
   1086           *
   1087           * @return  Item length, if found; zero otherwise.
   1088           */

   \                                 In  segment BANKED_CODE, align 1, keep-with-next
   \                     ?Subroutine4:
   \   000000   34FF         ADDC    A,#-0x1
   \   000002                REQUIRE ??Subroutine37_0
   \   000002                ; // Fall through to label ??Subroutine37_0

   \                                 In  segment BANKED_CODE, align 1, keep-with-next
   \                     ??Subroutine37_0:
   \   000000   FB           MOV     R3,A
   \   000001   90....       MOV     DPTR,#findPg
   \   000004   E0           MOVX    A,@DPTR
   \   000005                REQUIRE ??Subroutine38_0
   \   000005                ; // Fall through to label ??Subroutine38_0

   \                                 In  segment BANKED_CODE, align 1, keep-with-next
   1089          uint16 osal_nv_item_len( uint16 id )
   \                     osal_nv_item_len:
   1090          {
   \   000000   74F6         MOV     A,#-0xa
   \   000002   12....       LCALL   ?BANKED_ENTER_XDATA
   \   000005                ; Saved register size: 10
   \   000005                ; Auto size: 8
   \   000005   74F8         MOV     A,#-0x8
   \   000007   12....       LCALL   ?ALLOC_XSTACK8
   1091            uint16 offset = findItem( id );
   \   00000A                ; Setup parameters for call to function findItem
   \   00000A   12....       LCALL   ??findItem?relay
   1092          
   1093            if ( offset == OSAL_NV_ITEM_NULL )
   \   00000D   EA           MOV     A,R2
   \   00000E   4B           ORL     A,R3
   \   00000F   7006         JNZ     ??osal_nv_item_len_0
   1094            {
   1095              return 0;
   \   000011   7A00         MOV     R2,#0x0
   \   000013   7B00         MOV     R3,#0x0
   \   000015   8029         SJMP    ??osal_nv_item_len_1
   1096            }
   1097            else
   1098            {
   1099              osalNvHdr_t hdr;
   1100              HalFlashRead(findPg, (offset - OSAL_NV_HDR_SIZE), (uint8 *)(&hdr), OSAL_NV_HDR_SIZE);
   \                     ??osal_nv_item_len_0:
   \   000017                ; Setup parameters for call to function HalFlashRead
   \   000017   75..08       MOV     ?V0 + 0,#0x8
   \   00001A   75..00       MOV     ?V0 + 1,#0x0
   \   00001D   78..         MOV     R0,#?V0 + 0
   \   00001F   12....       LCALL   ?PUSH_XSTACK_I_TWO
   \   000022   7402         MOV     A,#0x2
   \   000024   12....       LCALL   ?XSTACK_DISP0_8
   \   000027   AC82         MOV     R4,DPL
   \   000029   AD83         MOV     R5,DPH
   \   00002B   EA           MOV     A,R2
   \   00002C   24F8         ADD     A,#-0x8
   \   00002E   FA           MOV     R2,A
   \   00002F   EB           MOV     A,R3
   \   000030   12....       LCALL   ?Subroutine4 & 0xFFFF
   \                     ??CrossCallReturnLabel_63:
   \   000033   12....       LCALL   ?DEALLOC_XSTACK8
   1101              return hdr.len;
   \   000036   7402         MOV     A,#0x2
   \   000038   12....       LCALL   ?XSTACK_DISP0_8
   \   00003B   E0           MOVX    A,@DPTR
   \   00003C   FA           MOV     R2,A
   \   00003D   A3           INC     DPTR
   \   00003E   E0           MOVX    A,@DPTR
   \   00003F   FB           MOV     R3,A
   \                     ??osal_nv_item_len_1:
   \   000040   7408         MOV     A,#0x8
   \   000042   12....       LCALL   ?DEALLOC_XSTACK8
   \   000045   7F02         MOV     R7,#0x2
   \   000047   02....       LJMP    ?BANKED_LEAVE_XDATA
   1102            }
   1103          }
   1104          
   1105          /*********************************************************************
   1106           * @fn      osal_nv_write
   1107           *
   1108           * @brief   Write a data item to NV. Function can write an entire item to NV or
   1109           *          an element of an item by indexing into the item with an offset.
   1110           *
   1111           * @param   id  - Valid NV item Id.
   1112           * @param   ndx - Index offset into item
   1113           * @param   len - Length of data to write.
   1114           * @param  *buf - Data to write.
   1115           *
   1116           * @return  ZSUCCESS if successful, NV_ITEM_UNINIT if item did not
   1117           *          exist in NV and offset is non-zero, NV_OPER_FAILED if failure.
   1118           */

   \                                 In  segment BANKED_CODE, align 1, keep-with-next
   1119          uint8 osal_nv_write( uint16 id, uint16 ndx, uint16 len, void *buf )
   \                     osal_nv_write:
   1120          {
   \   000000   74E8         MOV     A,#-0x18
   \   000002   12....       LCALL   ?BANKED_ENTER_XDATA
   \   000005                ; Saved register size: 24
   \   000005                ; Auto size: 11
   \   000005   74F5         MOV     A,#-0xb
   \   000007   12....       LCALL   ?ALLOC_XSTACK8
   \   00000A   8A..         MOV     ?V0 + 10,R2
   \   00000C   8B..         MOV     ?V0 + 11,R3
   \   00000E   8C..         MOV     ?V0 + 2,R4
   \   000010   8D..         MOV     ?V0 + 3,R5
   \   000012   7423         MOV     A,#0x23
   \   000014   12....       LCALL   ?XSTACK_DISP0_8
   \   000017   E0           MOVX    A,@DPTR
   \   000018   F5..         MOV     ?V0 + 8,A
   \   00001A   A3           INC     DPTR
   \   00001B   E0           MOVX    A,@DPTR
   \   00001C   F5..         MOV     ?V0 + 9,A
   1121            uint8 rtrn = ZSUCCESS;
   \   00001E   75..00       MOV     ?V0 + 1,#0x0
   1122          
   1123            /* Global fail flag for fail due to low bus voltage has less impact on code
   1124             * size than passing back a return value all the way from the lowest level.
   1125             */
   1126            failF = FALSE;
   \   000021   90....       MOV     DPTR,#failF
   \   000024   E4           CLR     A
   \   000025   F0           MOVX    @DPTR,A
   1127          
   1128            if ( len != 0 )
   \   000026   E5..         MOV     A,?V0 + 8
   \   000028   45..         ORL     A,?V0 + 9
   \   00002A   7003         JNZ     $+5
   \   00002C   02....       LJMP    ??osal_nv_write_0 & 0xFFFF
   1129            {
   1130              osalNvHdr_t hdr;
   1131              uint16 origOff, srcOff;
   1132              uint16 cnt;
   1133              uint8 *ptr;
   1134          
   1135              origOff = srcOff = findItem( id );
   \   00002F                ; Setup parameters for call to function findItem
   \   00002F   12....       LCALL   ??findItem?relay
   \   000032   8A..         MOV     ?V0 + 4,R2
   \   000034   8B..         MOV     ?V0 + 5,R3
   \   000036   A8..         MOV     R0,?V0 + 4
   \   000038   A9..         MOV     R1,?V0 + 5
   \   00003A   E8           MOV     A,R0
   \   00003B   FE           MOV     R6,A
   \   00003C   E9           MOV     A,R1
   \   00003D   FF           MOV     R7,A
   \   00003E   88..         MOV     ?V0 + 14,R0
   \   000040   89..         MOV     ?V0 + 15,R1
   1136              if ( srcOff == OSAL_NV_ITEM_NULL )
   \   000042   EE           MOV     A,R6
   \   000043   4F           ORL     A,R7
   \   000044   7005         JNZ     ??osal_nv_write_1
   1137              {
   1138                return NV_ITEM_UNINIT;
   \   000046   7909         MOV     R1,#0x9
   \   000048   02....       LJMP    ??osal_nv_write_2 & 0xFFFF
   1139              }
   1140          
   1141              HalFlashRead(findPg, (srcOff - OSAL_NV_HDR_SIZE), (uint8 *)(&hdr), OSAL_NV_HDR_SIZE);
   \                     ??osal_nv_write_1:
   \   00004B                ; Setup parameters for call to function HalFlashRead
   \   00004B   75..08       MOV     ?V0 + 4,#0x8
   \   00004E   75..00       MOV     ?V0 + 5,#0x0
   \   000051   78..         MOV     R0,#?V0 + 4
   \   000053   12....       LCALL   ?PUSH_XSTACK_I_TWO
   \   000056   7405         MOV     A,#0x5
   \   000058   12....       LCALL   ?XSTACK_DISP0_8
   \   00005B   AC82         MOV     R4,DPL
   \   00005D   AD83         MOV     R5,DPH
   \   00005F   EE           MOV     A,R6
   \   000060   24F8         ADD     A,#-0x8
   \   000062   FA           MOV     R2,A
   \   000063   EF           MOV     A,R7
   \   000064   12....       LCALL   ?Subroutine4 & 0xFFFF
   \                     ??CrossCallReturnLabel_64:
   \   000067   12....       LCALL   ?DEALLOC_XSTACK8
   1142              if ( hdr.len < (ndx + len) )
   \   00006A   7405         MOV     A,#0x5
   \   00006C   12....       LCALL   ?XSTACK_DISP0_8
   \   00006F   E5..         MOV     A,?V0 + 2
   \   000071   25..         ADD     A,?V0 + 8
   \   000073   F8           MOV     R0,A
   \   000074   E5..         MOV     A,?V0 + 3
   \   000076   35..         ADDC    A,?V0 + 9
   \   000078   F9           MOV     R1,A
   \   000079   C3           CLR     C
   \   00007A   E0           MOVX    A,@DPTR
   \   00007B   98           SUBB    A,R0
   \   00007C   A3           INC     DPTR
   \   00007D   E0           MOVX    A,@DPTR
   \   00007E   99           SUBB    A,R1
   \   00007F   5005         JNC     ??osal_nv_write_3
   1143              {
   1144                return NV_OPER_FAILED;
   \   000081   790A         MOV     R1,#0xa
   \   000083   02....       LJMP    ??osal_nv_write_2 & 0xFFFF
   1145              }
   1146          
   1147              srcOff += ndx;
   \                     ??osal_nv_write_3:
   \   000086   12....       LCALL   ?Subroutine28 & 0xFFFF
   1148              ptr = buf;
   \                     ??CrossCallReturnLabel_46:
   \   000089   12....       LCALL   ?XSTACK_DISP0_8
   \   00008C   E0           MOVX    A,@DPTR
   \   00008D   F5..         MOV     ?V0 + 4,A
   \   00008F   A3           INC     DPTR
   \   000090   E0           MOVX    A,@DPTR
   \   000091   F5..         MOV     ?V0 + 5,A
   1149              cnt = len;
   \   000093   85....       MOV     ?V0 + 6,?V0 + 8
   \   000096   85....       MOV     ?V0 + 7,?V0 + 9
   1150              while ( cnt )
   1151              {
   1152                uint8 tmp;
   1153                HalFlashRead(findPg, srcOff++, &tmp, 1);
   \                     ??osal_nv_write_4:
   \   000099                ; Setup parameters for call to function HalFlashRead
   \   000099   75..01       MOV     ?V0 + 12,#0x1
   \   00009C   75..00       MOV     ?V0 + 13,#0x0
   \   00009F   78..         MOV     R0,#?V0 + 12
   \   0000A1   12....       LCALL   ?PUSH_XSTACK_I_TWO
   \   0000A4   7402         MOV     A,#0x2
   \   0000A6   12....       LCALL   ?XSTACK_DISP0_8
   \   0000A9   AC82         MOV     R4,DPL
   \   0000AB   AD83         MOV     R5,DPH
   \   0000AD   EE           MOV     A,R6
   \   0000AE   FA           MOV     R2,A
   \   0000AF   EF           MOV     A,R7
   \   0000B0   12....       LCALL   ??Subroutine37_0 & 0xFFFF
   \                     ??CrossCallReturnLabel_65:
   \   0000B3   12....       LCALL   ?DEALLOC_XSTACK8
   \   0000B6   EE           MOV     A,R6
   \   0000B7   2401         ADD     A,#0x1
   \   0000B9   0E           INC     R6
   \   0000BA   EF           MOV     A,R7
   \   0000BB   3400         ADDC    A,#0x0
   \   0000BD   FF           MOV     R7,A
   1154                if ( tmp != *ptr++ )
   \   0000BE   A8..         MOV     R0,?V0 + 4
   \   0000C0   A9..         MOV     R1,?V0 + 5
   \   0000C2   8882         MOV     DPL,R0
   \   0000C4   8983         MOV     DPH,R1
   \   0000C6   A3           INC     DPTR
   \   0000C7   8582..       MOV     ?V0 + 4,DPL
   \   0000CA   8583..       MOV     ?V0 + 5,DPH
   \   0000CD   85..82       MOV     DPL,?XSP + 0
   \   0000D0   85..83       MOV     DPH,?XSP + 1
   \   0000D3   E0           MOVX    A,@DPTR
   \   0000D4   FA           MOV     R2,A
   \   0000D5   8882         MOV     DPL,R0
   \   0000D7   8983         MOV     DPH,R1
   \   0000D9   E0           MOVX    A,@DPTR
   \   0000DA   6A           XRL     A,R2
   \   0000DB   7015         JNZ     ??osal_nv_write_5
   1155                {
   1156                  break;
   1157                }
   1158                cnt--;
   1159              }
   \   0000DD   E5..         MOV     A,?V0 + 6
   \   0000DF   24FF         ADD     A,#-0x1
   \   0000E1   F5..         MOV     ?V0 + 6,A
   \   0000E3   E5..         MOV     A,?V0 + 7
   \   0000E5   34FF         ADDC    A,#-0x1
   \   0000E7   F5..         MOV     ?V0 + 7,A
   \   0000E9   E5..         MOV     A,?V0 + 6
   \   0000EB   45..         ORL     A,?V0 + 7
   \   0000ED   70AA         JNZ     ??osal_nv_write_4
   \   0000EF   02....       LJMP    ??osal_nv_write_6 & 0xFFFF
   1160          
   1161              if ( cnt != 0 )  // If the buffer to write is different in one or more bytes.
   1162              {
   1163                uint8 comPg, dstPg = initItem( FALSE, id, hdr.len, &comPg );
   \                     ??osal_nv_write_5:
   \   0000F2                ; Setup parameters for call to function initItem
   \   0000F2   85..82       MOV     DPL,?XSP + 0
   \   0000F5   85..83       MOV     DPH,?XSP + 1
   \   0000F8   8582..       MOV     ?V0 + 4,DPL
   \   0000FB   8583..       MOV     ?V0 + 5,DPH
   \   0000FE   78..         MOV     R0,#?V0 + 4
   \   000100   12....       LCALL   ?PUSH_XSTACK_I_TWO
   \   000103   7407         MOV     A,#0x7
   \   000105   12....       LCALL   ?XSTACK_DISP0_8
   \   000108   12....       LCALL   ?Subroutine14 & 0xFFFF
   \                     ??CrossCallReturnLabel_19:
   \   00010B   AA..         MOV     R2,?V0 + 10
   \   00010D   AB..         MOV     R3,?V0 + 11
   \   00010F   7900         MOV     R1,#0x0
   \   000111   12....       LCALL   ??initItem?relay
   \   000114   7402         MOV     A,#0x2
   \   000116   12....       LCALL   ?DEALLOC_XSTACK8
   \   000119   E9           MOV     A,R1
   \   00011A   F5..         MOV     ?V0 + 0,A
   1164          
   1165                if ( dstPg != OSAL_NV_PAGE_NULL )
   \   00011C   7003         JNZ     $+5
   \   00011E   02....       LJMP    ??osal_nv_write_7 & 0xFFFF
   1166                {
   1167                  uint16 tmp = OSAL_NV_DATA_SIZE( hdr.len );
   \   000121   7405         MOV     A,#0x5
   \   000123   12....       LCALL   ?XSTACK_DISP0_8
   \   000126   12....       LCALL   ?Subroutine12 & 0xFFFF
   \                     ??CrossCallReturnLabel_14:
   \   000129   F8           MOV     R0,A
   \   00012A   7401         MOV     A,#0x1
   \   00012C   12....       LCALL   ?XSTACK_DISP0_8
   \   00012F   E8           MOV     A,R0
   \   000130   F0           MOVX    @DPTR,A
   \   000131   A3           INC     DPTR
   \   000132   E9           MOV     A,R1
   \   000133   F0           MOVX    @DPTR,A
   1168                  uint16 dstOff = pgOff[dstPg-OSAL_NV_PAGE_BEG] - tmp;
   \   000134   E5..         MOV     A,?V0 + 0
   \   000136   C3           CLR     C
   \   000137   33           RLC     A
   \   000138   F8           MOV     R0,A
   \   000139   E4           CLR     A
   \   00013A   33           RLC     A
   \   00013B   F9           MOV     R1,A
   \   00013C   74..         MOV     A,#(pgOff + 14) & 0xff
   \   00013E   28           ADD     A,R0
   \   00013F   F5..         MOV     ?V0 + 6,A
   \   000141   74..         MOV     A,#((pgOff - 242) >> 8) & 0xff
   \   000143   39           ADDC    A,R1
   \   000144   F5..         MOV     ?V0 + 7,A
   \   000146   85..82       MOV     DPL,?V0 + 6
   \   000149   F583         MOV     DPH,A
   \   00014B   C082         PUSH    DPL
   \   00014D   C083         PUSH    DPH
   \   00014F   7401         MOV     A,#0x1
   \   000151   12....       LCALL   ?XSTACK_DISP0_8
   \   000154   12....       LCALL   ??Subroutine41_0 & 0xFFFF
   \                     ??CrossCallReturnLabel_84:
   \   000157   D083         POP     DPH
   \   000159   D082         POP     DPL
   \   00015B   12....       LCALL   ?Subroutine16 & 0xFFFF
   1169                  uint8 srcPg = findPg;
   \                     ??CrossCallReturnLabel_24:
   \   00015E   90....       MOV     DPTR,#findPg
   \   000161   E0           MOVX    A,@DPTR
   \   000162   F5..         MOV     ?V0 + 4,A
   1170                  srcOff = origOff;
   1171          
   1172                  setItem( srcPg, srcOff, eNvXfer );
   \   000164                ; Setup parameters for call to function setItem
   \   000164   7C00         MOV     R4,#0x0
   \   000166   AA..         MOV     R2,?V0 + 14
   \   000168   AB..         MOV     R3,?V0 + 15
   \   00016A   F9           MOV     R1,A
   \   00016B   12....       LCALL   ??setItem?relay
   1173          
   1174                  xferBuf( srcPg, srcOff, dstPg, dstOff, ndx );
   \   00016E                ; Setup parameters for call to function xferBuf
   \   00016E   78..         MOV     R0,#?V0 + 2
   \   000170   12....       LCALL   ?PUSH_XSTACK_I_TWO
   \   000173   8E..         MOV     ?V0 + 10,R6
   \   000175   8F..         MOV     ?V0 + 11,R7
   \   000177   78..         MOV     R0,#?V0 + 10
   \   000179   12....       LCALL   ?PUSH_XSTACK_I_TWO
   \   00017C   AC..         MOV     R4,?V0 + 0
   \   00017E   AA..         MOV     R2,?V0 + 14
   \   000180   AB..         MOV     R3,?V0 + 15
   \   000182   A9..         MOV     R1,?V0 + 4
   \   000184   12....       LCALL   ??xferBuf?relay
   \   000187   7404         MOV     A,#0x4
   \   000189   12....       LCALL   ?DEALLOC_XSTACK8
   1175                  srcOff += ndx;
   1176                  dstOff += ndx;
   \   00018C   12....       LCALL   ?Subroutine28 & 0xFFFF
   1177          
   1178                  writeBuf( dstPg, dstOff, len, buf );
   \                     ??CrossCallReturnLabel_47:
   \   00018F   12....       LCALL   ?XSTACK_DISP0_8
   \   000192   12....       LCALL   ?PUSH_XSTACK8_X_TWO
   \   000195   AC..         MOV     R4,?V0 + 8
   \   000197   AD..         MOV     R5,?V0 + 9
   \   000199   EE           MOV     A,R6
   \   00019A   FA           MOV     R2,A
   \   00019B   EF           MOV     A,R7
   \   00019C   FB           MOV     R3,A
   \   00019D   A9..         MOV     R1,?V0 + 0
   \   00019F   12....       LCALL   ??writeBuf?relay
   \   0001A2   7402         MOV     A,#0x2
   \   0001A4   12....       LCALL   ?DEALLOC_XSTACK8
   1179                  srcOff += len;
   1180                  dstOff += len;
   1181          
   1182                  xferBuf( srcPg, srcOff, dstPg, dstOff, (hdr.len-ndx-len) );
   \   0001A7                ; Setup parameters for call to function xferBuf
   \   0001A7   7405         MOV     A,#0x5
   \   0001A9   12....       LCALL   ?XSTACK_DISP0_8
   \   0001AC   E0           MOVX    A,@DPTR
   \   0001AD   C3           CLR     C
   \   0001AE   95..         SUBB    A,?V0 + 2
   \   0001B0   F8           MOV     R0,A
   \   0001B1   A3           INC     DPTR
   \   0001B2   E0           MOVX    A,@DPTR
   \   0001B3   95..         SUBB    A,?V0 + 3
   \   0001B5   F9           MOV     R1,A
   \   0001B6   E8           MOV     A,R0
   \   0001B7   C3           CLR     C
   \   0001B8   95..         SUBB    A,?V0 + 8
   \   0001BA   F5..         MOV     ?V0 + 10,A
   \   0001BC   E9           MOV     A,R1
   \   0001BD   95..         SUBB    A,?V0 + 9
   \   0001BF   F5..         MOV     ?V0 + 11,A
   \   0001C1   78..         MOV     R0,#?V0 + 10
   \   0001C3   12....       LCALL   ?PUSH_XSTACK_I_TWO
   \   0001C6   EE           MOV     A,R6
   \   0001C7   25..         ADD     A,?V0 + 8
   \   0001C9   F5..         MOV     ?V0 + 10,A
   \   0001CB   EF           MOV     A,R7
   \   0001CC   35..         ADDC    A,?V0 + 9
   \   0001CE   F5..         MOV     ?V0 + 11,A
   \   0001D0   78..         MOV     R0,#?V0 + 10
   \   0001D2   12....       LCALL   ?PUSH_XSTACK_I_TWO
   \   0001D5   AC..         MOV     R4,?V0 + 0
   \   0001D7   E5..         MOV     A,?V0 + 14
   \   0001D9   25..         ADD     A,?V0 + 2
   \   0001DB   F8           MOV     R0,A
   \   0001DC   E5..         MOV     A,?V0 + 15
   \   0001DE   35..         ADDC    A,?V0 + 3
   \   0001E0   F9           MOV     R1,A
   \   0001E1   E8           MOV     A,R0
   \   0001E2   25..         ADD     A,?V0 + 8
   \   0001E4   FA           MOV     R2,A
   \   0001E5   E9           MOV     A,R1
   \   0001E6   35..         ADDC    A,?V0 + 9
   \   0001E8   FB           MOV     R3,A
   \   0001E9   A9..         MOV     R1,?V0 + 4
   \   0001EB   12....       LCALL   ??xferBuf?relay
   \   0001EE   7404         MOV     A,#0x4
   \   0001F0   12....       LCALL   ?DEALLOC_XSTACK8
   1183          
   1184                  // Calculate and write the new checksum.
   1185                  dstOff = pgOff[dstPg-OSAL_NV_PAGE_BEG] - tmp;
   \   0001F3   85..82       MOV     DPL,?V0 + 6
   \   0001F6   85..83       MOV     DPH,?V0 + 7
   \   0001F9   C082         PUSH    DPL
   \   0001FB   C083         PUSH    DPH
   \   0001FD   7401         MOV     A,#0x1
   \   0001FF   12....       LCALL   ?XSTACK_DISP0_8
   \   000202   12....       LCALL   ??Subroutine41_0 & 0xFFFF
   \                     ??CrossCallReturnLabel_85:
   \   000205   D083         POP     DPH
   \   000207   D082         POP     DPL
   \   000209   12....       LCALL   ?Subroutine16 & 0xFFFF
   1186                  tmp = calcChkF( dstPg, dstOff, hdr.len );
   \                     ??CrossCallReturnLabel_25:
   \   00020C                ; Setup parameters for call to function calcChkF
   \   00020C   7405         MOV     A,#0x5
   \   00020E   12....       LCALL   ?XSTACK_DISP0_8
   \   000211   12....       LCALL   ?Subroutine14 & 0xFFFF
   \                     ??CrossCallReturnLabel_20:
   \   000214   EE           MOV     A,R6
   \   000215   FA           MOV     R2,A
   \   000216   EF           MOV     A,R7
   \   000217   FB           MOV     R3,A
   \   000218   A9..         MOV     R1,?V0 + 0
   \   00021A   12....       LCALL   ??calcChkF?relay
   \   00021D   7401         MOV     A,#0x1
   \   00021F   12....       LCALL   ?XSTACK_DISP0_8
   \   000222   EA           MOV     A,R2
   \   000223   F0           MOVX    @DPTR,A
   \   000224   A3           INC     DPTR
   \   000225   EB           MOV     A,R3
   \   000226   F0           MOVX    @DPTR,A
   1187                  dstOff -= OSAL_NV_HDR_SIZE;
   \   000227   EE           MOV     A,R6
   \   000228   24F8         ADD     A,#-0x8
   \   00022A   FE           MOV     R6,A
   \   00022B   EF           MOV     A,R7
   \   00022C   34FF         ADDC    A,#-0x1
   \   00022E   FF           MOV     R7,A
   1188                  writeWordH( dstPg, (dstOff+OSAL_NV_HDR_CHK), (uint8 *)&tmp );
   \   00022F                ; Setup parameters for call to function writeWordH
   \   00022F   7401         MOV     A,#0x1
   \   000231   12....       LCALL   ?XSTACK_DISP0_8
   \   000234   AC82         MOV     R4,DPL
   \   000236   AD83         MOV     R5,DPH
   \   000238   EE           MOV     A,R6
   \   000239   2404         ADD     A,#0x4
   \   00023B   FA           MOV     R2,A
   \   00023C   EF           MOV     A,R7
   \   00023D   3400         ADDC    A,#0x0
   \   00023F   12....       LCALL   ?Subroutine23 & 0xFFFF
   1189                  HalFlashRead(dstPg, dstOff, (uint8 *)(&hdr), OSAL_NV_HDR_SIZE);
   \                     ??CrossCallReturnLabel_39:
   \   000242   12....       LCALL   ?PUSH_XSTACK_I_TWO
   \   000245   7405         MOV     A,#0x5
   \   000247   12....       LCALL   ?XSTACK_DISP0_8
   \   00024A   AC82         MOV     R4,DPL
   \   00024C   AD83         MOV     R5,DPH
   \   00024E   EE           MOV     A,R6
   \   00024F   FA           MOV     R2,A
   \   000250   EF           MOV     A,R7
   \   000251   FB           MOV     R3,A
   \   000252   A9..         MOV     R1,?V0 + 0
   \   000254   12....       LCALL   ??Subroutine39_0 & 0xFFFF
   \                     ??CrossCallReturnLabel_81:
   \   000257   12....       LCALL   ?DEALLOC_XSTACK8
   1190          
   1191                  if ( tmp == hdr.chk )
   \   00025A   7401         MOV     A,#0x1
   \   00025C   12....       LCALL   ?XSTACK_DISP0_8
   \   00025F   12....       LCALL   ??Subroutine41_0 & 0xFFFF
   \                     ??CrossCallReturnLabel_86:
   \   000262   7407         MOV     A,#0x7
   \   000264   12....       LCALL   ?XSTACK_DISP0_8
   \   000267   E0           MOVX    A,@DPTR
   \   000268   68           XRL     A,R0
   \   000269   7003         JNZ     ??osal_nv_write_8
   \   00026B   A3           INC     DPTR
   \   00026C   E0           MOVX    A,@DPTR
   \   00026D   69           XRL     A,R1
   \                     ??osal_nv_write_8:
   \   00026E   700D         JNZ     ??osal_nv_write_9
   1192                  {
   1193                    setItem( srcPg, origOff, eNvZero );
   \   000270                ; Setup parameters for call to function setItem
   \   000270   7C01         MOV     R4,#0x1
   \   000272   AA..         MOV     R2,?V0 + 14
   \   000274   AB..         MOV     R3,?V0 + 15
   \   000276   A9..         MOV     R1,?V0 + 4
   \   000278   12....       LCALL   ??setItem?relay
   \   00027B   8003         SJMP    ??osal_nv_write_10
   1194                  }
   1195                  else
   1196                  {
   1197                    rtrn = NV_OPER_FAILED;
   \                     ??osal_nv_write_9:
   \   00027D   75..0A       MOV     ?V0 + 1,#0xa
   1198                  }
   1199          
   1200                  if ( dstPg == pgRes )
   \                     ??osal_nv_write_10:
   \   000280   90....       MOV     DPTR,#pgRes
   \   000283   E0           MOVX    A,@DPTR
   \   000284   65..         XRL     A,?V0 + 0
   \   000286   7010         JNZ     ??osal_nv_write_6
   1201                  {
   1202                    compactPage( comPg );
   \   000288                ; Setup parameters for call to function compactPage
   \   000288   85..82       MOV     DPL,?XSP + 0
   \   00028B   85..83       MOV     DPH,?XSP + 1
   \   00028E   E0           MOVX    A,@DPTR
   \   00028F   F9           MOV     R1,A
   \   000290   12....       LCALL   ??compactPage?relay
   \   000293   8003         SJMP    ??osal_nv_write_6
   1203                  }
   1204                }
   1205                else
   1206                {
   1207                  rtrn = NV_OPER_FAILED;
   \                     ??osal_nv_write_7:
   \   000295   75..0A       MOV     ?V0 + 1,#0xa
   1208                }
   1209              }
   1210            }
   1211          
   1212            if ( failF )
   \                     ??osal_nv_write_6:
   \   000298   90....       MOV     DPTR,#failF
   \   00029B   E0           MOVX    A,@DPTR
   \   00029C   6006         JZ      ??osal_nv_write_0
   1213            {
   1214              (void)initNV();  // See comment at the declaration of failF.
   \   00029E                ; Setup parameters for call to function initNV
   \   00029E   12....       LCALL   ??initNV?relay
   1215              rtrn = NV_OPER_FAILED;
   \   0002A1   75..0A       MOV     ?V0 + 1,#0xa
   1216            }
   1217          
   1218            return rtrn;
   \                     ??osal_nv_write_0:
   \   0002A4   A9..         MOV     R1,?V0 + 1
   \                     ??osal_nv_write_2:
   \   0002A6   740B         MOV     A,#0xb
   \   0002A8   12....       LCALL   ?DEALLOC_XSTACK8
   \   0002AB   7F10         MOV     R7,#0x10
   \   0002AD   02....       LJMP    ?BANKED_LEAVE_XDATA
   1219          }

   \                                 In  segment BANKED_CODE, align 1, keep-with-next
   \                     ?Subroutine28:
   \   000000   EE           MOV     A,R6
   \   000001   25..         ADD     A,?V0 + 2
   \   000003   FE           MOV     R6,A
   \   000004   EF           MOV     A,R7
   \   000005   35..         ADDC    A,?V0 + 3
   \   000007   FF           MOV     R7,A
   \   000008                ; Setup parameters for call to function writeBuf
   \   000008   7425         MOV     A,#0x25
   \   00000A   22           RET

   \                                 In  segment BANKED_CODE, align 1, keep-with-next
   \                     ?Subroutine16:
   \   000000   E0           MOVX    A,@DPTR
   \   000001   C3           CLR     C
   \   000002   98           SUBB    A,R0
   \   000003   FE           MOV     R6,A
   \   000004   A3           INC     DPTR
   \   000005   E0           MOVX    A,@DPTR
   \   000006   99           SUBB    A,R1
   \   000007   FF           MOV     R7,A
   \   000008   22           RET
   1220          
   1221          /*********************************************************************
   1222           * @fn      osal_nv_read
   1223           *
   1224           * @brief   Read data from NV. This function can be used to read an entire item from NV or
   1225           *          an element of an item by indexing into the item with an offset.
   1226           *          Read data is copied into *buf.
   1227           *
   1228           * @param   id  - Valid NV item Id.
   1229           * @param   ndx - Index offset into item
   1230           * @param   len - Length of data to read.
   1231           * @param  *buf - Data is read into this buffer.
   1232           *
   1233           * @return  ZSUCCESS if NV data was copied to the parameter 'buf'.
   1234           *          Otherwise, NV_OPER_FAILED for failure.
   1235           */

   \                                 In  segment BANKED_CODE, align 1, keep-with-next
   1236          uint8 osal_nv_read( uint16 id, uint16 ndx, uint16 len, void *buf )
   \                     osal_nv_read:
   1237          {
   \   000000   74F2         MOV     A,#-0xe
   \   000002   12....       LCALL   ?BANKED_ENTER_XDATA
   \   000005                ; Saved register size: 14
   \   000005                ; Auto size: 0
   \   000005   8C..         MOV     ?V0 + 0,R4
   \   000007   8D..         MOV     ?V0 + 1,R5
   \   000009   740E         MOV     A,#0xe
   \   00000B   12....       LCALL   ?XSTACK_DISP0_8
   \   00000E   12....       LCALL   ?Subroutine10 & 0xFFFF
   \                     ??CrossCallReturnLabel_9:
   \   000011   7410         MOV     A,#0x10
   \   000013   12....       LCALL   ?XSTACK_DISP0_8
   \   000016   E0           MOVX    A,@DPTR
   \   000017   FE           MOV     R6,A
   \   000018   A3           INC     DPTR
   \   000019   E0           MOVX    A,@DPTR
   \   00001A   FF           MOV     R7,A
   1238            uint16 offset;
   1239          
   1240            offset = findItem( id );
   \   00001B                ; Setup parameters for call to function findItem
   \   00001B   12....       LCALL   ??findItem?relay
   1241            if ( offset == OSAL_NV_ITEM_NULL )
   \   00001E   EA           MOV     A,R2
   \   00001F   4B           ORL     A,R3
   \   000020   7004         JNZ     ??osal_nv_read_0
   1242            {
   1243              return NV_OPER_FAILED;
   \   000022   790A         MOV     R1,#0xa
   \   000024   8018         SJMP    ??osal_nv_read_1
   1244            }
   1245          
   1246            HalFlashRead(findPg, offset+ndx, buf, len);
   \                     ??osal_nv_read_0:
   \   000026                ; Setup parameters for call to function HalFlashRead
   \   000026   78..         MOV     R0,#?V0 + 2
   \   000028   12....       LCALL   ?PUSH_XSTACK_I_TWO
   \   00002B   EE           MOV     A,R6
   \   00002C   FC           MOV     R4,A
   \   00002D   EF           MOV     A,R7
   \   00002E   FD           MOV     R5,A
   \   00002F   EA           MOV     A,R2
   \   000030   25..         ADD     A,?V0 + 0
   \   000032   FA           MOV     R2,A
   \   000033   EB           MOV     A,R3
   \   000034   35..         ADDC    A,?V0 + 1
   \   000036   12....       LCALL   ??Subroutine37_0 & 0xFFFF
   \                     ??CrossCallReturnLabel_66:
   \   000039   12....       LCALL   ?DEALLOC_XSTACK8
   1247          
   1248            return ZSUCCESS;
   \   00003C   7900         MOV     R1,#0x0
   \                     ??osal_nv_read_1:
   \   00003E   02....       LJMP    ??Subroutine40_0 & 0xFFFF
   1249          }

   \                                 In  segment BANK_RELAYS, align 1
   \                     ??initNV?relay:
   \   000000   12....       LCALL   ?BDISPATCH
   \   000003   ......       DC24    initNV

   \                                 In  segment BANK_RELAYS, align 1
   \                     ??setPageUse?relay:
   \   000000   12....       LCALL   ?BDISPATCH
   \   000003   ......       DC24    setPageUse

   \                                 In  segment BANK_RELAYS, align 1
   \                     ??initPage?relay:
   \   000000   12....       LCALL   ?BDISPATCH
   \   000003   ......       DC24    initPage

   \                                 In  segment BANK_RELAYS, align 1
   \                     ??erasePage?relay:
   \   000000   12....       LCALL   ?BDISPATCH
   \   000003   ......       DC24    erasePage

   \                                 In  segment BANK_RELAYS, align 1
   \                     ??compactPage?relay:
   \   000000   12....       LCALL   ?BDISPATCH
   \   000003   ......       DC24    compactPage

   \                                 In  segment BANK_RELAYS, align 1
   \                     ??findItem?relay:
   \   000000   12....       LCALL   ?BDISPATCH
   \   000003   ......       DC24    findItem

   \                                 In  segment BANK_RELAYS, align 1
   \                     ??initItem?relay:
   \   000000   12....       LCALL   ?BDISPATCH
   \   000003   ......       DC24    initItem

   \                                 In  segment BANK_RELAYS, align 1
   \                     ??setItem?relay:
   \   000000   12....       LCALL   ?BDISPATCH
   \   000003   ......       DC24    setItem

   \                                 In  segment BANK_RELAYS, align 1
   \                     ??calcChkF?relay:
   \   000000   12....       LCALL   ?BDISPATCH
   \   000003   ......       DC24    calcChkF

   \                                 In  segment BANK_RELAYS, align 1
   \                     ??writeWord?relay:
   \   000000   12....       LCALL   ?BDISPATCH
   \   000003   ......       DC24    writeWord

   \                                 In  segment BANK_RELAYS, align 1
   \                     ??writeWordH?relay:
   \   000000   12....       LCALL   ?BDISPATCH
   \   000003   ......       DC24    writeWordH

   \                                 In  segment BANK_RELAYS, align 1
   \                     ??writeBuf?relay:
   \   000000   12....       LCALL   ?BDISPATCH
   \   000003   ......       DC24    writeBuf

   \                                 In  segment BANK_RELAYS, align 1
   \                     ??xferBuf?relay:
   \   000000   12....       LCALL   ?BDISPATCH
   \   000003   ......       DC24    xferBuf

   \                                 In  segment BANK_RELAYS, align 1
   \                     ??writeItem?relay:
   \   000000   12....       LCALL   ?BDISPATCH
   \   000003   ......       DC24    writeItem

   \                                 In  segment BANK_RELAYS, align 1
   \                     ??osal_nv_init?relay:
   \   000000   12....       LCALL   ?BDISPATCH
   \   000003   ......       DC24    osal_nv_init

   \                                 In  segment BANK_RELAYS, align 1
   \                     ??osal_nv_item_init?relay:
   \   000000   12....       LCALL   ?BDISPATCH
   \   000003   ......       DC24    osal_nv_item_init

   \                                 In  segment BANK_RELAYS, align 1
   \                     ??osal_nv_item_len?relay:
   \   000000   12....       LCALL   ?BDISPATCH
   \   000003   ......       DC24    osal_nv_item_len

   \                                 In  segment BANK_RELAYS, align 1
   \                     ??osal_nv_write?relay:
   \   000000   12....       LCALL   ?BDISPATCH
   \   000003   ......       DC24    osal_nv_write

   \                                 In  segment BANK_RELAYS, align 1
   \                     ??osal_nv_read?relay:
   \   000000   12....       LCALL   ?BDISPATCH
   \   000003   ......       DC24    osal_nv_read
   1250          
   1251          /*********************************************************************
   1252          *********************************************************************/

   Maximum stack usage in bytes:

     Function            ISTACK PSTACK XSTACK
     --------            ------ ------ ------
     calcChkF                0      0     57
       -> HalFlashRead       0      0     44
     compactPage             0      0     63
       -> writeWordH         0      0     48
       -> calcChkF           0      0     48
       -> setItem            0      0     48
       -> writeBuf           0      0     52
       -> xferBuf            0      0     56
       -> setItem            0      0     48
       -> HalFlashRead       0      0     52
       -> erasePage          0      0     48
       -> setPageUse         0      0     48
     erasePage               0      0     33
       -> HalAdcCheckVdd     0      0     18
       -> HalFlashErase      0      0     18
     findItem                0      0     47
       -> initPage           0      0     24
     initItem                2      0     55
       -> writeItem          0      0     36
       -> compactPage        0      0     30
     initNV                  0      0     57
       -> HalFlashRead       0      0     44
       -> setPageUse         0      0     40
       -> initPage           0      0     40
       -> setPageUse         0      0     40
       -> compactPage        0      0     40
       -> erasePage          0      0     40
       -> initNV             0      0     40
     initPage                0      0     48
       -> HalFlashRead       0      0     56
       -> calcChkF           0      0     52
       -> findItem           0      0     52
       -> setItem            0      0     52
       -> setItem            0      0     52
     osal_nv_init            2      0      0
       -> initNV             4      0      0
     osal_nv_item_init       0      0     18
       -> findItem           0      0     28
       -> initItem           0      0     32
       -> initNV             0      0     28
     osal_nv_item_len        0      0     20
       -> findItem           0      0     36
       -> HalFlashRead       0      0     40
     osal_nv_read            0      0     20
       -> findItem           0      0     28
       -> HalFlashRead       0      0     32
     osal_nv_write           2      0     43
       -> findItem           0      0     70
       -> HalFlashRead       0      0     74
       -> HalFlashRead       0      0     74
       -> initItem           0      0     74
       -> setItem            0      0     70
       -> xferBuf            0      0     78
       -> writeBuf           0      0     74
       -> xferBuf            0      0     78
       -> calcChkF           0      0     70
       -> writeWordH         0      0     70
       -> HalFlashRead       0      0     74
       -> setItem            0      0     70
       -> compactPage        0      0     70
       -> initNV             0      0     70
     setItem                 0      0     59
       -> HalFlashRead       0      0     48
       -> writeWord          0      0     44
       -> writeWord          0      0     44
     setPageUse              0      0     47
       -> writeWord          0      0     34
     writeBuf                1      0     61
       -> HalFlashRead       0      0     48
       -> writeWord          0      0     44
       -> HalAdcCheckVdd     0      0     44
       -> HalFlashWrite      0      0     48
       -> HalFlashRead       0      0     48
       -> writeWord          0      0     44
     writeItem               0      0     50
       -> setPageUse         0      0     60
       -> writeWord          0      0     60
       -> HalFlashRead       0      0     64
       -> writeBuf           0      0     64
       -> calcChkF           0      0     60
       -> writeWordH         0      0     60
       -> HalFlashRead       0      0     64
     writeWord               0      0     45
       -> HalAdcCheckVdd     0      0     26
       -> HalFlashWrite      0      0     30
     writeWordH              1      0     48
       -> writeWord          0      0     26
     xferBuf                 0      0     63
       -> HalFlashRead       0      0     48
       -> HalFlashRead       0      0     48
       -> writeWord          0      0     44
       -> HalFlashRead       0      0     48
       -> writeWord          0      0     44
       -> HalFlashRead       0      0     48
       -> HalFlashRead       0      0     48
       -> writeWord          0      0     44


   Segment part sizes:

     Function/Label            Bytes
     --------------            -----
     _nvBuf                    12288
     _nvIEEE                       8
     pgOff                        12
     pgLost                       12
     pgRes                         1
     findPg                        1
     failF                         1
     initNV                      218
     ?Subroutine0                  5
     ??Subroutine38_0              1
     ??Subroutine39_0              6
     setPageUse                   52
     ?Subroutine1                  3
     ??Subroutine32_0              5
     ??Subroutine34_0              2
     ??Subroutine35_0             12
     initPage                    418
     ?Subroutine20                 4
     ?Subroutine7                  5
     ?Subroutine31                11
     ??Subroutine33_0              9
     ?Subroutine14                 6
     ?Subroutine12                 4
     ?Subroutine29                13
     ?Subroutine30                17
     ??Subroutine36_0              8
     ?Subroutine8                  6
     ??Subroutine41_0              6
     erasePage                    46
     compactPage                 348
     ?Subroutine15                 7
     ?Subroutine13                17
     ?Subroutine9                  8
     ?Subroutine5                  7
     ?Subroutine22                12
     ?Subroutine3                  3
     ??Subroutine40_0              5
     findItem                     68
     ?Subroutine24                 2
     initItem                    207
     ?Subroutine21                17
     ?Subroutine10                 8
     setItem                     141
     ?Subroutine11                 6
     calcChkF                    139
     ?Subroutine25                19
     ?Subroutine27                15
     writeWord                    86
     writeWordH                   64
     writeBuf                    374
     ?Subroutine2                  2
     ?Subroutine6                 15
     xferBuf                     320
     ?Subroutine26                13
     ?Subroutine18                17
     ?Subroutine17                32
     writeItem                   473
     ?Subroutine19                 5
     ?Subroutine23                15
     osal_nv_init                 14
     osal_nv_item_init            85
     ?Subroutine4                  2
     ??Subroutine37_0              5
     osal_nv_item_len             74
     osal_nv_write               688
     ?Subroutine28                11
     ?Subroutine16                 9
     osal_nv_read                 65
     ??initNV?relay                6
     ??setPageUse?relay            6
     ??initPage?relay              6
     ??erasePage?relay             6
     ??compactPage?relay           6
     ??findItem?relay              6
     ??initItem?relay              6
     ??setItem?relay               6
     ??calcChkF?relay              6
     ??writeWord?relay             6
     ??writeWordH?relay            6
     ??writeBuf?relay              6
     ??xferBuf?relay               6
     ??writeItem?relay             6
     ??osal_nv_init?relay          6
     ??osal_nv_item_init?relay     6
     ??osal_nv_item_len?relay      6
     ??osal_nv_write?relay         6
     ??osal_nv_read?relay          6

 
  4 255 bytes in segment BANKED_CODE
    114 bytes in segment BANK_RELAYS
      8 bytes in segment IEEE_ADDRESS_SPACE
     27 bytes in segment XDATA_Z
 12 288 bytes in segment ZIGNV_ADDRESS_SPACE
 
  4 369 bytes of CODE  memory
 12 323 bytes of XDATA memory

Errors: none
Warnings: none
