###############################################################################
#                                                                             #
# IAR C/C++ Compiler V8.10.3.10338/W32 for 8051         20/Aug/2017  22:11:39 #
# Copyright 2004-2011 IAR Systems AB.                                         #
#                                                                             #
#    Core               =  plain                                              #
#    Code model         =  banked                                             #
#    Data model         =  large                                              #
#    Calling convention =  xdata reentrant                                    #
#    Constant location  =  data_rom                                           #
#    Dptr setup         =  1,16                                               #
#    Source file        =  D:\ProgramData\Hardware\zigbee\Projects\zstack\Sam #
#                          ples\SensorSys\Source\SensorSys_Coordinator.c      #
#    Command line       =  -f D:\ProgramData\Hardware\zigbee\Projects\zstack\ #
#                          Samples\SensorSys\CC2530DB\..\..\..\Tools\CC2530DB #
#                          \f8wCoord.cfg (-DCPU32MHZ -DROOT=__near_func       #
#                          -DMAC_CFG_APP_PENDING_QUEUE=TRUE                   #
#                          -DMAC_CFG_TX_DATA_MAX=5 -DMAC_CFG_TX_MAX=8         #
#                          -DMAC_CFG_RX_MAX=5 -DZDO_COORDINATOR -DRTR_NWK)    #
#                          -f D:\ProgramData\Hardware\zigbee\Projects\zstack\ #
#                          Samples\SensorSys\CC2530DB\..\..\..\Tools\CC2530DB #
#                          \f8wConfig.cfg (-DZIGBEEPRO -DSECURE=0             #
#                          -DZG_SECURE_DYNAMIC=0 -DREFLECTOR                  #
#                          -DDEFAULT_CHANLIST=0x00000800                      #
#                          -DZDAPP_CONFIG_PAN_ID=0xFFF1                       #
#                          -DNWK_START_DELAY=100 -DEXTENDED_JOINING_RANDOM_MA #
#                          SK=0x007F -DBEACON_REQUEST_DELAY=100               #
#                          -DBEACON_REQ_DELAY_MASK=0x00FF                     #
#                          -DLINK_STATUS_JITTER_MASK=0x007F                   #
#                          -DROUTE_EXPIRY_TIME=30 -DAPSC_ACK_WAIT_DURATION_PO #
#                          LLED=3000 -DNWK_INDIRECT_MSG_TIMEOUT=7             #
#                          -DMAX_RREQ_ENTRIES=8 -DAPSC_MAX_FRAME_RETRIES=3    #
#                          -DNWK_MAX_DATA_RETRIES=2                           #
#                          -DMAX_POLL_FAILURE_RETRIES=2 -DMAX_BCAST=9         #
#                          -DAPS_MAX_GROUPS=16 -DMAX_RTG_ENTRIES=40           #
#                          -DNWK_MAX_BINDING_ENTRIES=4                        #
#                          -DMAX_BINDING_CLUSTER_IDS=4 "-DDEFAULT_KEY={0x01,  #
#                          0x03, 0x05, 0x07, 0x09, 0x0B, 0x0D, 0x0F, 0x00,    #
#                          0x02, 0x04, 0x06, 0x08, 0x0A, 0x0C, 0x0D}"         #
#                          -DMAC_MAX_FRAME_SIZE=116                           #
#                          -DZDNWKMGR_MIN_TRANSMISSIONS=20 "-DCONST=const     #
#                          __code" -DGENERIC=__generic                        #
#                          -DRFD_RCVC_ALWAYS_ON=FALSE -DPOLL_RATE=1000        #
#                          -DQUEUED_POLL_RATE=100 -DRESPONSE_POLL_RATE=100)   #
#                          -DREJOIN_POLL_RATE=440 D:\ProgramData\Hardware\zig #
#                          bee\Projects\zstack\Samples\SensorSys\Source\Senso #
#                          rSys_Coordinator.c -D HOLD_AUTO_START -D           #
#                          BUILD_ALL_DEVICES -D REFLECTOR -D NV_INIT -D       #
#                          xNV_RESTORE -D xZTOOL_P1 -D xMT_TASK -D            #
#                          xMT_SYS_FUNC -D xMT_SAPI_FUNC -D xMT_SAPI_CB_FUNC  #
#                          -lC D:\ProgramData\Hardware\zigbee\Projects\zstack #
#                          \Samples\SensorSys\CC2530DB\CoordinatorEB\List\    #
#                          -lA D:\ProgramData\Hardware\zigbee\Projects\zstack #
#                          \Samples\SensorSys\CC2530DB\CoordinatorEB\List\    #
#                          --diag_suppress Pe001,Pa010 -o                     #
#                          D:\ProgramData\Hardware\zigbee\Projects\zstack\Sam #
#                          ples\SensorSys\CC2530DB\CoordinatorEB\Obj\ -e      #
#                          --no_code_motion --debug --core=plain --dptr=16,1  #
#                          --data_model=large --code_model=banked             #
#                          --calling_convention=xdata_reentrant               #
#                          --place_constants=data_rom --nr_virtual_regs 16    #
#                          -I D:\ProgramData\Hardware\zigbee\Projects\zstack\ #
#                          Samples\SensorSys\CC2530DB\ -I                     #
#                          D:\ProgramData\Hardware\zigbee\Projects\zstack\Sam #
#                          ples\SensorSys\CC2530DB\..\Source\ -I              #
#                          D:\ProgramData\Hardware\zigbee\Projects\zstack\Sam #
#                          ples\SensorSys\CC2530DB\..\..\..\ZMain\TI2530DB\   #
#                          -I D:\ProgramData\Hardware\zigbee\Projects\zstack\ #
#                          Samples\SensorSys\CC2530DB\..\..\..\..\..\Componen #
#                          ts\hal\include\ -I D:\ProgramData\Hardware\zigbee\ #
#                          Projects\zstack\Samples\SensorSys\CC2530DB\..\..\. #
#                          .\..\..\Components\hal\target\CC2530EB\ -I         #
#                          D:\ProgramData\Hardware\zigbee\Projects\zstack\Sam #
#                          ples\SensorSys\CC2530DB\..\..\..\..\..\Components\ #
#                          mac\include\ -I D:\ProgramData\Hardware\zigbee\Pro #
#                          jects\zstack\Samples\SensorSys\CC2530DB\..\..\..\. #
#                          .\..\Components\mac\high_level\ -I                 #
#                          D:\ProgramData\Hardware\zigbee\Projects\zstack\Sam #
#                          ples\SensorSys\CC2530DB\..\..\..\..\..\Components\ #
#                          mac\low_level\srf04\ -I D:\ProgramData\Hardware\zi #
#                          gbee\Projects\zstack\Samples\SensorSys\CC2530DB\.. #
#                          \..\..\..\..\Components\mac\low_level\srf04\single #
#                          _chip\ -I D:\ProgramData\Hardware\zigbee\Projects\ #
#                          zstack\Samples\SensorSys\CC2530DB\..\..\..\..\..\C #
#                          omponents\mt\ -I D:\ProgramData\Hardware\zigbee\Pr #
#                          ojects\zstack\Samples\SensorSys\CC2530DB\..\..\..\ #
#                          ..\..\Components\osal\include\ -I                  #
#                          D:\ProgramData\Hardware\zigbee\Projects\zstack\Sam #
#                          ples\SensorSys\CC2530DB\..\..\..\..\..\Components\ #
#                          services\saddr\ -I D:\ProgramData\Hardware\zigbee\ #
#                          Projects\zstack\Samples\SensorSys\CC2530DB\..\..\. #
#                          .\..\..\Components\services\sdata\ -I              #
#                          D:\ProgramData\Hardware\zigbee\Projects\zstack\Sam #
#                          ples\SensorSys\CC2530DB\..\..\..\..\..\Components\ #
#                          stack\af\ -I D:\ProgramData\Hardware\zigbee\Projec #
#                          ts\zstack\Samples\SensorSys\CC2530DB\..\..\..\..\. #
#                          .\Components\stack\nwk\ -I                         #
#                          D:\ProgramData\Hardware\zigbee\Projects\zstack\Sam #
#                          ples\SensorSys\CC2530DB\..\..\..\..\..\Components\ #
#                          stack\sapi\ -I D:\ProgramData\Hardware\zigbee\Proj #
#                          ects\zstack\Samples\SensorSys\CC2530DB\..\..\..\.. #
#                          \..\Components\stack\sec\ -I                       #
#                          D:\ProgramData\Hardware\zigbee\Projects\zstack\Sam #
#                          ples\SensorSys\CC2530DB\..\..\..\..\..\Components\ #
#                          stack\sys\ -I D:\ProgramData\Hardware\zigbee\Proje #
#                          cts\zstack\Samples\SensorSys\CC2530DB\..\..\..\..\ #
#                          ..\Components\stack\zdo\ -I                        #
#                          D:\ProgramData\Hardware\zigbee\Projects\zstack\Sam #
#                          ples\SensorSys\CC2530DB\..\..\..\..\..\Components\ #
#                          zmac\ -I D:\ProgramData\Hardware\zigbee\Projects\z #
#                          stack\Samples\SensorSys\CC2530DB\..\..\..\..\..\Co #
#                          mponents\zmac\f8w\ -Ohz --require_prototypes       #
#    List file          =  D:\ProgramData\Hardware\zigbee\Projects\zstack\Sam #
#                          ples\SensorSys\CC2530DB\CoordinatorEB\List\SensorS #
#                          ys_Coordinator.lst                                 #
#    Object file        =  D:\ProgramData\Hardware\zigbee\Projects\zstack\Sam #
#                          ples\SensorSys\CC2530DB\CoordinatorEB\Obj\SensorSy #
#                          s_Coordinator.r51                                  #
#                                                                             #
#                                                                             #
###############################################################################

D:\ProgramData\Hardware\zigbee\Projects\zstack\Samples\SensorSys\Source\SensorSys_Coordinator.c
      1          /**************************************************************************************************
      2            Filename:       Sys.c
      3            Revised:        $Date: 2009-03-18 15:56:27 -0700 (Wed, 18 Mar 2009) $
      4            Revision:       $Revision: 19453 $
      5          
      6            Description:    Generic Application (no Profile).
      7          
      8          
      9            Copyright 2004-2009 Texas Instruments Incorporated. All rights reserved.
     10          
     11            IMPORTANT: Your use of this Software is limited to those specific rights
     12            granted under the terms of a software license agreement between the user
     13            who downloaded the software, his/her employer (which must be your employer)
     14            and Texas Instruments Incorporated (the "License").  You may not use this
     15            Software unless you agree to abide by the terms of the License. The License
     16            limits your use, and you acknowledge, that the Software may not be modified,
     17            copied or distributed unless embedded on a Texas Instruments microcontroller
     18            or used solely and exclusively in conjunction with a Texas Instruments radio
     19            frequency transceiver, which is integrated into your product.  Other than for
     20            the foregoing purpose, you may not use, reproduce, copy, prepare derivative
     21            works of, modify, distribute, perform, display or sell this Software and/or
     22            its documentation for any purpose.
     23          
     24            YOU FURTHER ACKNOWLEDGE AND AGREE THAT THE SOFTWARE AND DOCUMENTATION ARE
     25            PROVIDED AS IS?WITHOUT WARRANTY OF ANY KIND, EITHER EXPRESS OR IMPLIED, 
     26            INCLUDING WITHOUT LIMITATION, ANY WARRANTY OF MERCHANTABILITY, TITLE, 
     27            NON-INFRINGEMENT AND FITNESS FOR A PARTICULAR PURPOSE. IN NO EVENT SHALL
     28            TEXAS INSTRUMENTS OR ITS LICENSORS BE LIABLE OR OBLIGATED UNDER CONTRACT,
     29            NEGLIGENCE, STRICT LIABILITY, CONTRIBUTION, BREACH OF WARRANTY, OR OTHER
     30            LEGAL EQUITABLE THEORY ANY DIRECT OR INDIRECT DAMAGES OR EXPENSES
     31            INCLUDING BUT NOT LIMITED TO ANY INCIDENTAL, SPECIAL, INDIRECT, PUNITIVE
     32            OR CONSEQUENTIAL DAMAGES, LOST PROFITS OR LOST DATA, COST OF PROCUREMENT
     33            OF SUBSTITUTE GOODS, TECHNOLOGY, SERVICES, OR ANY CLAIMS BY THIRD PARTIES
     34            (INCLUDING BUT NOT LIMITED TO ANY DEFENSE THEREOF), OR OTHER SIMILAR COSTS.
     35          
     36            Should you have any questions regarding your right to use this Software,
     37            contact Texas Instruments Incorporated at www.TI.com. 
     38          **************************************************************************************************/
     39          
     40          /*********************************************************************
     41            This application isn't intended to do anything useful, it is
     42            intended to be a simple example of an application's structure.
     43          
     44            This application sends "Hello World" to another "Generic"
     45            application every 15 seconds.  The application will also
     46            receive "Hello World" packets.
     47          
     48            The "Hello World" messages are sent/received as MSG type message.
     49          
     50            This applications doesn't have a profile, so it handles everything
     51            directly - itself.
     52          
     53            Key control:
     54              SW1:
     55              SW2:  initiates end device binding
     56              SW3:
     57              SW4:  initiates a match description request
     58          *********************************************************************/
     59          
     60          /*********************************************************************
     61           * INCLUDES
     62           */
     63          #include "OSAL.h"
     64          #include "AF.h"
     65          #include "ZDApp.h"
     66          #include "ZDObject.h"
     67          #include "ZDProfile.h"
     68          #include "sapi.h"
     69          
     70          #include "SensorSys.h"
     71          #include "DebugTrace.h"
     72          
     73          #if !defined( WIN32 )
     74            #include "OnBoard.h"
     75          #endif
     76          
     77          /* HAL */
     78          #include "hal_led.h"
     79          #include "hal_key.h"
     80          #include "hal_uart.h"
     81          
     82          /*********************************************************************
     83           * MACROS
     84           */
     85          
     86          /*********************************************************************
     87           * CONSTANTS
     88           */
     89          
     90          /*********************************************************************
     91           * TYPEDEFS
     92           */
     93          
     94          /*********************************************************************
     95           * GLOBAL VARIABLES
     96           */

   \                                 In  segment XDATA_I, align 1, keep-with-next
     97          uint8 AppTitle[]="SensorAPP"; //应用程序名称
   \                     AppTitle:
   \   000000                DS 10
   \   00000A                REQUIRE `?<Initializer for AppTitle>`
   \   00000A                REQUIRE __INIT_XDATA_I
     98          
     99          // Sys 端点的簇ID
    100          // This list should be filled with Application specific Cluster IDs.

   \                                 In  segment XDATA_ROM_C, align 1
    101          const cId_t Sys_ClusterList[SYS_MAX_CLUSTERS] =
   \                     Sys_ClusterList:
   \   000000   0100         DW 1
    102          {
    103            SYS_CLUSTERID
    104          };
    105          
    106          // Button 端点的簇ID
    107          // This list should be filled with Application specific Cluster IDs.

   \                                 In  segment XDATA_ROM_C, align 1
    108          const cId_t Button_ClusterList[BUTTON_MAX_CLUSTERS] =
   \                     Button_ClusterList:
   \   000000   0300         DW 3
   \   000002   0000         DW 0
    109          {
    110            BUTTON_CLUSTERID
    111          };
    112          

   \                                 In  segment XDATA_ROM_C, align 1
    113          const cId_t Zb_ClusterList[ZB_MAX_CLUSTERS] =
   \                     Zb_ClusterList:
   \   000000   0200         DW 2
   \   000002   0000         DW 0
   \   000004   0000         DW 0
   \   000006   0000         DW 0
    114          {
    115            ZB_CLUSTERID
    116          };
    117          
    118          // Sys 端点简单描述符

   \                                 In  segment XDATA_ROM_C, align 1
    119          const SimpleDescriptionFormat_t Sys_SimpleDesc =
   \                     Sys_SimpleDesc:
   \   000000   02           DB 2
   \   000001   040F         DW 3844
   \   000003   0100         DW 1
   \   000005   00           DB 0
   \   000006   01           DB 1
   \   000007   ....         DW Sys_ClusterList
   \   000009   01           DB 1
   \   00000A   ....         DW Sys_ClusterList
    120          {
    121          	SYS_ENDPOINT,           //  int Endpoint;
    122          	SYS_PROFID,                //  uint16 AppProfId[2];
    123          	SYS_DEVICEID,              //  uint16 AppDeviceId[2];
    124          	SYS_DEVICE_VERSION,        //  int   AppDevVer:4;
    125          	SYS_FLAGS,                 //  int   AppFlags:4;
    126          	SYS_MAX_CLUSTERS,          //  byte  AppNumInClusters;
    127          	(cId_t *)Sys_ClusterList,  //  byte *pAppInClusterList;
    128          	SYS_MAX_CLUSTERS,          //  byte  AppNumInClusters;
    129          	(cId_t *)Sys_ClusterList   //  byte *pAppInClusterList;
    130          };
    131          
    132          // Button 端点简单描述符

   \                                 In  segment XDATA_ROM_C, align 1
    133          const SimpleDescriptionFormat_t Button_SimpleDesc =
   \                     Button_SimpleDesc:
   \   000000   0A           DB 10
   \   000001   040F         DW 3844
   \   000003   0100         DW 1
   \   000005   00           DB 0
   \   000006   02           DB 2
   \   000007   ....         DW Button_ClusterList
   \   000009   02           DB 2
   \   00000A   ....         DW Button_ClusterList
    134          {
    135          	BUTTON_ENDPOINT,           //  int Endpoint;
    136          	SYS_PROFID,                //  uint16 AppProfId[2];
    137          	SYS_DEVICEID,              //  uint16 AppDeviceId[2];
    138          	SYS_DEVICE_VERSION,        //  int   AppDevVer:4;
    139          	SYS_FLAGS,                 //  int   AppFlags:4;
    140          	BUTTON_MAX_CLUSTERS,          //  byte  AppNumInClusters;
    141          	(cId_t *)Button_ClusterList,  //  byte *pAppInClusterList;
    142          	BUTTON_MAX_CLUSTERS,          //  byte  AppNumInClusters;
    143          	(cId_t *)Button_ClusterList   //  byte *pAppInClusterList;
    144          };
    145          

   \                                 In  segment XDATA_ROM_C, align 1
    146          const SimpleDescriptionFormat_t zb_SimpleDesc =
   \                     zb_SimpleDesc:
   \   000000   03           DB 3
   \   000001   040F         DW 3844
   \   000003   0100         DW 1
   \   000005   00           DB 0
   \   000006   04           DB 4
   \   000007   ....         DW Zb_ClusterList
   \   000009   04           DB 4
   \   00000A   ....         DW Zb_ClusterList
    147          {
    148          	ZB_ENDPOINT,           //  int Endpoint;
    149          	SYS_PROFID,                //  uint16 AppProfId[2];
    150          	SYS_DEVICEID,              //  uint16 AppDeviceId[2];
    151          	SYS_DEVICE_VERSION,        //  int   AppDevVer:4;
    152          	SYS_FLAGS,                 //  int   AppFlags:4;
    153          	ZB_MAX_CLUSTERS,          //  byte  AppNumInClusters;
    154          	(cId_t *)Zb_ClusterList,  //  byte *pAppInClusterList;
    155          	ZB_MAX_CLUSTERS,          //  byte  AppNumInClusters;
    156          	(cId_t *)Zb_ClusterList   //  byte *pAppInClusterList;
    157          };
    158          
    159          // This is the Endpoint/Interface description.  It is defined here, but
    160          // filled-in in Button_Init().  Another way to go would be to fill
    161          // in the structure here and make it a "const" (in code space).  The
    162          // way it's defined in this sample app it is define in RAM.

   \                                 In  segment XDATA_Z, align 1, keep-with-next
    163          endPointDesc_t Sys_epDesc;
   \                     Sys_epDesc:
   \   000000                DS 6
   \   000006                REQUIRE __INIT_XDATA_Z

   \                                 In  segment XDATA_Z, align 1, keep-with-next
    164          endPointDesc_t Button_epDesc;
   \                     Button_epDesc:
   \   000000                DS 6
   \   000006                REQUIRE __INIT_XDATA_Z
    165          
    166          /*********************************************************************
    167           * EXTERNAL VARIABLES
    168           */
    169          
    170          /*********************************************************************
    171           * EXTERNAL FUNCTIONS
    172           */
    173          
    174          /*********************************************************************
    175           * LOCAL VARIABLES
    176           */
    177          static uint8 myAppState = APP_INIT;
    178          

   \                                 In  segment XDATA_Z, align 1, keep-with-next
    179          static byte type_join;
   \                     type_join:
   \   000000                DS 1
   \   000001                REQUIRE __INIT_XDATA_Z
    180          

   \                                 In  segment XDATA_Z, align 1, keep-with-next
    181          byte Sys_TaskID;
   \                     Sys_TaskID:
   \   000000                DS 1
   \   000001                REQUIRE __INIT_XDATA_Z

   \                                 In  segment XDATA_Z, align 1, keep-with-next
    182          byte Button_TaskID;   // Task ID for internal task/event processing
   \                     Button_TaskID:
   \   000000                DS 1
   \   000001                REQUIRE __INIT_XDATA_Z
    183                                  // This variable will be received when
    184                                  // Button_Init() is called.
    185          

   \                                 In  segment XDATA_Z, align 1, keep-with-next
    186          devStates_t Sys_NwkState;   // 节点现在的网络状态
   \                     Sys_NwkState:
   \   000000                DS 1
   \   000001                REQUIRE __INIT_XDATA_Z
    187          
    188          

   \                                 In  segment XDATA_Z, align 1, keep-with-next
    189          byte Sys_TransID;  // 数据包的发送ID，每发一个自增1
   \                     Sys_TransID:
   \   000000                DS 1
   \   000001                REQUIRE __INIT_XDATA_Z
    190          

   \                                 In  segment XDATA_Z, align 1, keep-with-next
    191          afAddrType_t Broadcast_DstAddr;
   \                     Broadcast_DstAddr:
   \   000000                DS 12
   \   00000C                REQUIRE __INIT_XDATA_Z

   \                                 In  segment XDATA_Z, align 1, keep-with-next
    192          afAddrType_t Button_DstAddr;
   \                     Button_DstAddr:
   \   000000                DS 12
   \   00000C                REQUIRE __INIT_XDATA_Z
    193          

   \                                 In  segment XDATA_Z, align 1, keep-with-next
    194          static uint8 sysSeqNumber = 0;    // 在端点间数据交流时被使用zb_SendDataRequest
   \                     sysSeqNumber:
   \   000000                DS 1
   \   000001                REQUIRE __INIT_XDATA_Z
    195          
    196          /*********************************************************************
    197           * LOCAL FUNCTIONS
    198           */
    199          void Sys_Init( byte task_id );
    200          void Button_Init( byte task_id );
    201          
    202          UINT16 Sys_ProcessEvent( byte task_id, UINT16 events );
    203          void Sys_ProcessZDOMsgs( zdoIncomingMsg_t *inMsg, byte task_id );
    204          void Button_HandleKeys( byte shift, byte keys );
    205          void Sys_MessageMSGCB( afIncomingMSGPacket_t *pckt, byte task_id );
    206          void Sys_SendPreBindMessage( byte type_id );
    207          
    208          /*********************************************************************
    209           * NETWORK LAYER CALLBACKS
    210           */
    211          
    212          /*********************************************************************
    213           * PUBLIC FUNCTIONS
    214           */
    215          
    216          /*********************************************************************
    217           * @fn      Sys_Init
    218           *
    219           * @brief   Initialization function for the Generic App Task.
    220           *          This is called during initialization and should contain
    221           *          any application specific initialization (ie. hardware
    222           *          initialization/setup, table initialization, power up
    223           *          notificaiton ... ).
    224           *
    225           * @param   task_id - the ID assigned by OSAL.  This ID should be
    226           *                    used to send messages and set timers.
    227           *
    228           * @return  none
    229           */

   \                                 In  segment BANKED_CODE, align 1, keep-with-next
    230          void Sys_Init( byte task_id )
   \                     Sys_Init:
    231          {
   \   000000   74F7         MOV     A,#-0x9
   \   000002   12....       LCALL   ?BANKED_ENTER_XDATA
   \   000005                ; Saved register size: 9
   \   000005                ; Auto size: 0
   \   000005   E9           MOV     A,R1
    232            Sys_TaskID = task_id;
   \   000006   90....       MOV     DPTR,#Sys_TaskID
   \   000009   F0           MOVX    @DPTR,A
    233          
    234            // Device hardware initialization can be added here or in main() (Zmain.c).
    235            // If the hardware is application specific - add it here.
    236            // If the hardware is other parts of the device add it in main().
    237          
    238            Broadcast_DstAddr.addrMode = (afAddrMode_t)AddrBroadcast;
   \   00000A   90....       MOV     DPTR,#Broadcast_DstAddr + 8
   \   00000D   740F         MOV     A,#0xf
   \   00000F   F0           MOVX    @DPTR,A
    239            Broadcast_DstAddr.endPoint = SYS_ENDPOINT;
   \   000010   A3           INC     DPTR
   \   000011   7402         MOV     A,#0x2
   \   000013   F0           MOVX    @DPTR,A
    240            Broadcast_DstAddr.addr.shortAddr = 0xFFFF;
   \   000014   90....       MOV     DPTR,#Broadcast_DstAddr
   \   000017   74FF         MOV     A,#-0x1
   \   000019   F0           MOVX    @DPTR,A
   \   00001A   A3           INC     DPTR
   \   00001B   F0           MOVX    @DPTR,A
    241          
    242            // Fill out the endpoint description.
    243            Sys_epDesc.endPoint = SYS_ENDPOINT;
   \   00001C   90....       MOV     DPTR,#Sys_epDesc
   \   00001F   7402         MOV     A,#0x2
   \   000021   F0           MOVX    @DPTR,A
    244            Sys_epDesc.task_id = &Sys_TaskID;
   \   000022   A3           INC     DPTR
   \   000023   74..         MOV     A,#Sys_TaskID & 0xff
   \   000025   F0           MOVX    @DPTR,A
   \   000026   A3           INC     DPTR
   \   000027   74..         MOV     A,#(Sys_TaskID >> 8) & 0xff
   \   000029   F0           MOVX    @DPTR,A
    245            Sys_epDesc.simpleDesc
    246                      = (SimpleDescriptionFormat_t *)&Sys_SimpleDesc;
   \   00002A   A3           INC     DPTR
   \   00002B   74..         MOV     A,#Sys_SimpleDesc & 0xff
   \   00002D   F0           MOVX    @DPTR,A
   \   00002E   A3           INC     DPTR
   \   00002F   74..         MOV     A,#(Sys_SimpleDesc >> 8) & 0xff
   \   000031   F0           MOVX    @DPTR,A
    247            Sys_epDesc.latencyReq = noLatencyReqs;
   \   000032   A3           INC     DPTR
   \   000033   E4           CLR     A
   \   000034   F0           MOVX    @DPTR,A
    248          
    249            // Register the endpoint description with the AF
    250            afRegister( &Sys_epDesc );
   \   000035                ; Setup parameters for call to function afRegister
   \   000035   7A..         MOV     R2,#Sys_epDesc & 0xff
   \   000037   7B..         MOV     R3,#(Sys_epDesc >> 8) & 0xff
   \   000039   12....       LCALL   ??afRegister?relay
    251          
    252            // To Update the display...
    253          }
   \   00003C                REQUIRE ?Subroutine0
   \   00003C                ; // Fall through to label ?Subroutine0

   \                                 In  segment BANKED_CODE, align 1, keep-with-next
   \                     ?Subroutine0:
   \   000000   7F01         MOV     R7,#0x1
   \   000002   02....       LJMP    ?BANKED_LEAVE_XDATA
    254          
    255          /*********************************************************************
    256           * @fn      Button_Init
    257           *
    258           * @brief   Initialization function for the Generic App Task.
    259           *          This is called during initialization and should contain
    260           *          any application specific initialization (ie. hardware
    261           *          initialization/setup, table initialization, power up
    262           *          notificaiton ... ).
    263           *
    264           * @param   task_id - the ID assigned by OSAL.  This ID should be
    265           *                    used to send messages and set timers.
    266           *
    267           * @return  none
    268           */

   \                                 In  segment BANKED_CODE, align 1, keep-with-next
    269          void Button_Init( byte task_id )
   \                     Button_Init:
    270          {
   \   000000   74F7         MOV     A,#-0x9
   \   000002   12....       LCALL   ?BANKED_ENTER_XDATA
   \   000005                ; Saved register size: 9
   \   000005                ; Auto size: 0
   \   000005   E9           MOV     A,R1
    271            Button_TaskID = task_id;
   \   000006   90....       MOV     DPTR,#Button_TaskID
   \   000009   F0           MOVX    @DPTR,A
    272          
    273            // Device hardware initialization can be added here or in main() (Zmain.c).
    274            // If the hardware is application specific - add it here.
    275            // If the hardware is other parts of the device add it in main().
    276          
    277            Button_DstAddr.addrMode = (afAddrMode_t)AddrNotPresent;
   \   00000A   90....       MOV     DPTR,#Button_DstAddr + 8
   \   00000D   E4           CLR     A
   \   00000E   F0           MOVX    @DPTR,A
    278            Button_DstAddr.endPoint = 0;
   \   00000F   A3           INC     DPTR
   \   000010   F0           MOVX    @DPTR,A
    279            Button_DstAddr.addr.shortAddr = 0;
   \   000011   90....       MOV     DPTR,#Button_DstAddr
   \   000014   F0           MOVX    @DPTR,A
   \   000015   A3           INC     DPTR
   \   000016   F0           MOVX    @DPTR,A
    280          
    281            // Fill out the endpoint description.
    282            Button_epDesc.endPoint = BUTTON_ENDPOINT;
   \   000017   90....       MOV     DPTR,#Button_epDesc
   \   00001A   740A         MOV     A,#0xa
   \   00001C   F0           MOVX    @DPTR,A
    283            Button_epDesc.task_id = &Button_TaskID;
   \   00001D   A3           INC     DPTR
   \   00001E   74..         MOV     A,#Button_TaskID & 0xff
   \   000020   F0           MOVX    @DPTR,A
   \   000021   A3           INC     DPTR
   \   000022   74..         MOV     A,#(Button_TaskID >> 8) & 0xff
   \   000024   F0           MOVX    @DPTR,A
    284            Button_epDesc.simpleDesc
    285                      = (SimpleDescriptionFormat_t *)&Button_SimpleDesc;
   \   000025   A3           INC     DPTR
   \   000026   74..         MOV     A,#Button_SimpleDesc & 0xff
   \   000028   F0           MOVX    @DPTR,A
   \   000029   A3           INC     DPTR
   \   00002A   74..         MOV     A,#(Button_SimpleDesc >> 8) & 0xff
   \   00002C   F0           MOVX    @DPTR,A
    286            Button_epDesc.latencyReq = noLatencyReqs;
   \   00002D   A3           INC     DPTR
   \   00002E   E4           CLR     A
   \   00002F   F0           MOVX    @DPTR,A
    287          
    288            // Register the endpoint description with the AF
    289            afRegister( &Button_epDesc );
   \   000030                ; Setup parameters for call to function afRegister
   \   000030   7A..         MOV     R2,#Button_epDesc & 0xff
   \   000032   7B..         MOV     R3,#(Button_epDesc >> 8) & 0xff
   \   000034   12....       LCALL   ??afRegister?relay
    290          
    291            // Register for all key events - This app will handle all key events
    292            RegisterForKeys( Button_TaskID );
   \   000037                ; Setup parameters for call to function RegisterForKeys
   \   000037   90....       MOV     DPTR,#Button_TaskID
   \   00003A   E0           MOVX    A,@DPTR
   \   00003B   F9           MOV     R1,A
   \   00003C   12....       LCALL   ??RegisterForKeys?relay
    293          
    294            // To Update the display...
    295           
    296            ZDO_RegisterForZDOMsg( Button_TaskID, Match_Desc_rsp );
   \   00003F                ; Setup parameters for call to function ZDO_RegisterForZDOMsg
   \   00003F   7A06         MOV     R2,#0x6
   \   000041   7B80         MOV     R3,#-0x80
   \   000043   90....       MOV     DPTR,#Button_TaskID
   \   000046   E0           MOVX    A,@DPTR
   \   000047   F9           MOV     R1,A
   \   000048   12....       LCALL   ??ZDO_RegisterForZDOMsg?relay
    297          }
   \   00004B   80..         SJMP    ?Subroutine0
    298          
    299          /*********************************************************************
    300           * @fn      Sys_ProcessEvent
    301           *
    302           * @brief   Generic Application Task event processor.  This function
    303           *          is called to process all events for the task.  Events
    304           *          include timers, messages and any other user defined events.
    305           *
    306           * @param   task_id  - The OSAL assigned task ID.
    307           * @param   events - events to process.  This is a bit map and can
    308           *                   contain more than one event.
    309           *
    310           * @return  none
    311           */

   \                                 In  segment BANKED_CODE, align 1, keep-with-next
    312          UINT16 Sys_ProcessEvent( byte task_id, UINT16 events )
   \                     Sys_ProcessEvent:
    313          {
   \   000000   74F2         MOV     A,#-0xe
   \   000002   12....       LCALL   ?BANKED_ENTER_XDATA
   \   000005                ; Saved register size: 14
   \   000005                ; Auto size: 0
   \   000005   89..         MOV     ?V0 + 2,R1
   \   000007   8A..         MOV     ?V0 + 0,R2
   \   000009   8B..         MOV     ?V0 + 1,R3
    314            afIncomingMSGPacket_t *MSGpkt = NULL;
    315            afDataConfirm_t *afDataConfirm;
    316          
    317            // Data Confirmation message fields
    318            byte sentEP;
    319            ZStatus_t sentStatus;
    320            byte sentTransID;       // This should match the value sent
    321            (void)task_id;  // Intentionally unreferenced parameter
    322          
    323            if ( events & SYS_EVENT_MSG )
   \   00000B   EB           MOV     A,R3
   \   00000C   5480         ANL     A,#0x80
   \   00000E   6078         JZ      ??Sys_ProcessEvent_0
    324            {
    325              if(task_id == Sys_TaskID)
   \   000010   90....       MOV     DPTR,#Sys_TaskID
   \   000013   E0           MOVX    A,@DPTR
   \   000014   65..         XRL     A,?V0 + 2
   \   000016   7031         JNZ     ??Sys_ProcessEvent_1
    326              {
    327                MSGpkt = (afIncomingMSGPacket_t *)osal_msg_receive( task_id );
   \   000018                ; Setup parameters for call to function osal_msg_receive
   \   000018   8012         SJMP    ??Sys_ProcessEvent_2
    328                while ( MSGpkt )
    329                {
    330                  switch ( MSGpkt->hdr.event )
    331                  {
    332                    case ZDO_CB_MSG:  // 收到被绑定节点的rsp
    333                      Sys_ProcessZDOMsgs( (zdoIncomingMsg_t *)MSGpkt, task_id );
    334                      break;
    335          
    336                    case AF_DATA_CONFIRM_CMD:
    337                      // This message is received as a confirmation of a data packet sent.
    338                      // The status is of ZStatus_t type [defined in ZComDef.h]
    339                      // The message fields are defined in AF.h
    340                      afDataConfirm = (afDataConfirm_t *)MSGpkt;
    341                      sentEP = afDataConfirm->endpoint;
    342                      sentStatus = afDataConfirm->hdr.status;
    343                      sentTransID = afDataConfirm->transID;
    344                      (void)sentEP;
    345                      (void)sentTransID;
    346          
    347                      // Action taken when confirmation is received.
    348                      if ( sentStatus != ZSuccess )
    349                      {
    350                        // The data wasn't delivered -- Do something
    351                      }
    352                      break;
    353          
    354                    case AF_INCOMING_MSG_CMD:
    355                      Sys_MessageMSGCB( MSGpkt, task_id );
    356                      break;
    357          
    358                    case ZDO_STATE_CHANGE:
    359                      Sys_NwkState = (devStates_t)(MSGpkt->hdr.status);
   \                     ??Sys_ProcessEvent_3:
   \   00001A   A3           INC     DPTR
   \   00001B   E0           MOVX    A,@DPTR
   \   00001C   90....       MOV     DPTR,#Sys_NwkState
   \   00001F   F0           MOVX    @DPTR,A
    360                      if ( (Sys_NwkState == DEV_ZB_COORD) )
    361                      {
    362                        ;
    363                      }
    364                      break;
    365          
    366                    default:
    367                      break;
    368                  }
    369          
    370                  // Release the memory
    371                  osal_msg_deallocate( (uint8 *)MSGpkt );
   \                     ??Sys_ProcessEvent_4:
   \   000020                ; Setup parameters for call to function osal_msg_deallocate
   \   000020   EE           MOV     A,R6
   \   000021   FA           MOV     R2,A
   \   000022   EF           MOV     A,R7
   \   000023   FB           MOV     R3,A
   \   000024   12....       LCALL   ??osal_msg_deallocate?relay
    372          
    373                  // Next
    374                  MSGpkt = (afIncomingMSGPacket_t *)osal_msg_receive( Sys_TaskID );
   \   000027                ; Setup parameters for call to function osal_msg_receive
   \   000027   90....       MOV     DPTR,#Sys_TaskID
   \   00002A   E0           MOVX    A,@DPTR
   \   00002B   F9           MOV     R1,A
   \                     ??Sys_ProcessEvent_2:
   \   00002C   12....       LCALL   ?Subroutine2 & 0xFFFF
   \                     ??CrossCallReturnLabel_0:
   \   00002F   6018         JZ      ??Sys_ProcessEvent_1
   \   000031   8E82         MOV     DPL,R6
   \   000033   8F83         MOV     DPH,R7
   \   000035   E0           MOVX    A,@DPTR
   \   000036   242F         ADD     A,#0x2f
   \   000038   60E0         JZ      ??Sys_ProcessEvent_3
   \   00003A   24FE         ADD     A,#-0x2
   \   00003C   70E2         JNZ     ??Sys_ProcessEvent_4
   \   00003E                ; Setup parameters for call to function Sys_ProcessZDOMsgs
   \   00003E   A9..         MOV     R1,?V0 + 2
   \   000040   EE           MOV     A,R6
   \   000041   FA           MOV     R2,A
   \   000042   EF           MOV     A,R7
   \   000043   FB           MOV     R3,A
   \   000044   12....       LCALL   ??Sys_ProcessZDOMsgs?relay
   \   000047   80D7         SJMP    ??Sys_ProcessEvent_4
    375                }
    376              }
    377          
    378              if(task_id == Button_TaskID)
   \                     ??Sys_ProcessEvent_1:
   \   000049   90....       MOV     DPTR,#Button_TaskID
   \   00004C   E0           MOVX    A,@DPTR
   \   00004D   65..         XRL     A,?V0 + 2
   \   00004F   702E         JNZ     ??Sys_ProcessEvent_5
    379              {
    380                MSGpkt = (afIncomingMSGPacket_t *)osal_msg_receive( task_id );
   \   000051                ; Setup parameters for call to function osal_msg_receive
   \   000051   A9..         MOV     R1,?V0 + 2
   \   000053   8025         SJMP    ??Sys_ProcessEvent_6
    381                while ( MSGpkt )
    382                {
    383                  switch ( MSGpkt->hdr.event )
   \                     ??Sys_ProcessEvent_7:
   \   000055   8E82         MOV     DPL,R6
   \   000057   8F83         MOV     DPH,R7
   \   000059   E0           MOVX    A,@DPTR
   \   00005A   64C0         XRL     A,#0xc0
   \   00005C   7010         JNZ     ??Sys_ProcessEvent_8
    384                  {
    385                      case KEY_CHANGE:
    386                         Button_HandleKeys( ((keyChange_t *)MSGpkt)->state, ((keyChange_t *)MSGpkt)->keys );
   \   00005E                ; Setup parameters for call to function Button_HandleKeys
   \   00005E   A3           INC     DPTR
   \   00005F   A3           INC     DPTR
   \   000060   A3           INC     DPTR
   \   000061   E0           MOVX    A,@DPTR
   \   000062   FA           MOV     R2,A
   \   000063   8E82         MOV     DPL,R6
   \   000065   8F83         MOV     DPH,R7
   \   000067   A3           INC     DPTR
   \   000068   A3           INC     DPTR
   \   000069   E0           MOVX    A,@DPTR
   \   00006A   F9           MOV     R1,A
   \   00006B   12....       LCALL   ??Button_HandleKeys?relay
    387                      break;
    388                  }
    389                  // Release the memory
    390                  osal_msg_deallocate( (uint8 *)MSGpkt );
   \                     ??Sys_ProcessEvent_8:
   \   00006E                ; Setup parameters for call to function osal_msg_deallocate
   \   00006E   EE           MOV     A,R6
   \   00006F   FA           MOV     R2,A
   \   000070   EF           MOV     A,R7
   \   000071   FB           MOV     R3,A
   \   000072   12....       LCALL   ??osal_msg_deallocate?relay
    391          
    392                  // Next
    393                  MSGpkt = (afIncomingMSGPacket_t *)osal_msg_receive( Button_TaskID );
   \   000075                ; Setup parameters for call to function osal_msg_receive
   \   000075   90....       MOV     DPTR,#Button_TaskID
   \   000078   E0           MOVX    A,@DPTR
   \   000079   F9           MOV     R1,A
    394                }
    395              }
   \                     ??Sys_ProcessEvent_6:
   \   00007A   12....       LCALL   ?Subroutine2 & 0xFFFF
   \                     ??CrossCallReturnLabel_1:
   \   00007D   70D6         JNZ     ??Sys_ProcessEvent_7
    396          
    397              // return unprocessed events
    398              return (events ^ SYS_EVENT_MSG);
   \                     ??Sys_ProcessEvent_5:
   \   00007F   AA..         MOV     R2,?V0 + 0
   \   000081   E5..         MOV     A,?V0 + 1
   \   000083   6480         XRL     A,#0x80
   \   000085   FB           MOV     R3,A
   \   000086   802E         SJMP    ??Sys_ProcessEvent_9
    399            }
    400          
    401             if( events & MATCH_BIND_EVT ) // 广播 match 绑定
   \                     ??Sys_ProcessEvent_0:
   \   000088   EA           MOV     A,R2
   \   000089   5402         ANL     A,#0x2
   \   00008B   6025         JZ      ??Sys_ProcessEvent_10
    402             {
    403                if(task_id == Button_TaskID)
   \   00008D   90....       MOV     DPTR,#Button_TaskID
   \   000090   E0           MOVX    A,@DPTR
   \   000091   65..         XRL     A,?V0 + 2
   \   000093   7014         JNZ     ??Sys_ProcessEvent_11
    404                {
    405                   zb_BindDevice(TRUE, BUTTON_CMD_ID, NULL);
   \   000095                ; Setup parameters for call to function zb_BindDevice
   \   000095   7C00         MOV     R4,#0x0
   \   000097   7D00         MOV     R5,#0x0
   \   000099   7A01         MOV     R2,#0x1
   \   00009B   7B00         MOV     R3,#0x0
   \   00009D   7901         MOV     R1,#0x1
   \   00009F   12....       LCALL   ??zb_BindDevice?relay
    406                   HalLedSet(HAL_LED_2, HAL_LED_MODE_ON); // 亮绿灯
   \   0000A2                ; Setup parameters for call to function HalLedSet
   \   0000A2   7A01         MOV     R2,#0x1
   \   0000A4   7902         MOV     R1,#0x2
   \   0000A6   12....       LCALL   ??HalLedSet?relay
    407                }
    408                return (events ^ MATCH_BIND_EVT);
   \                     ??Sys_ProcessEvent_11:
   \   0000A9   E5..         MOV     A,?V0 + 0
   \   0000AB   6402         XRL     A,#0x2
   \   0000AD   FA           MOV     R2,A
   \   0000AE   AB..         MOV     R3,?V0 + 1
   \   0000B0   8004         SJMP    ??Sys_ProcessEvent_9
    409             }
    410          
    411          
    412            // Discard unknown events
    413            return 0;
   \                     ??Sys_ProcessEvent_10:
   \   0000B2   7A00         MOV     R2,#0x0
   \   0000B4   7B00         MOV     R3,#0x0
   \                     ??Sys_ProcessEvent_9:
   \   0000B6   7F06         MOV     R7,#0x6
   \   0000B8   02....       LJMP    ?BANKED_LEAVE_XDATA
    414          }

   \                                 In  segment BANKED_CODE, align 1, keep-with-next
   \                     ?Subroutine2:
   \   000000   12....       LCALL   ??osal_msg_receive?relay
   \   000003   8A..         MOV     ?V0 + 4,R2
   \   000005   8B..         MOV     ?V0 + 5,R3
   \   000007   AE..         MOV     R6,?V0 + 4
   \   000009   AF..         MOV     R7,?V0 + 5
   \   00000B   EE           MOV     A,R6
   \   00000C   4F           ORL     A,R7
   \   00000D   22           RET
    415          
    416          /*********************************************************************
    417           * Event Generation Functions
    418           */
    419          
    420          /*********************************************************************
    421           * @fn      Sys_ProcessZDOMsgs()
    422           *
    423           * @brief   Process response messages
    424           *
    425           * @param   none
    426           *
    427           * @return  none
    428           */

   \                                 In  segment BANKED_CODE, align 1, keep-with-next
    429          void Sys_ProcessZDOMsgs( zdoIncomingMsg_t *inMsg , byte task_id )
   \                     Sys_ProcessZDOMsgs:
    430          {
   \   000000   74F6         MOV     A,#-0xa
   \   000002   12....       LCALL   ?BANKED_ENTER_XDATA
   \   000005                ; Saved register size: 10
   \   000005                ; Auto size: 0
    431            switch ( inMsg->clusterID )
   \   000005   EA           MOV     A,R2
   \   000006   240C         ADD     A,#0xc
   \   000008   F582         MOV     DPL,A
   \   00000A   EB           MOV     A,R3
   \   00000B   3400         ADDC    A,#0x0
   \   00000D   F583         MOV     DPH,A
   \   00000F   E0           MOVX    A,@DPTR
   \   000010   F5..         MOV     ?V0 + 0,A
   \   000012   A3           INC     DPTR
   \   000013   E0           MOVX    A,@DPTR
   \   000014   F5..         MOV     ?V0 + 1,A
   \   000016   78..         MOV     R0,#?V0 + 0
   \   000018   12....       LCALL   ?US_SWITCH_SPARSE
   \                     `?<Jumptable for Sys_ProcessZDOMsgs>_0`:
   \   00001B   0000         DW        0
   \   00001D   0200         DW        2
   \   00001F   0680         DW        32774
   \   000021   ....         DW        ??Sys_ProcessZDOMsgs_0
   \   000023   2080         DW        32800
   \   000025   ....         DW        ??Sys_ProcessZDOMsgs_1
   \   000027   ....         DW        ??Sys_ProcessZDOMsgs_2
    432            {
    433              case End_Device_Bind_rsp:
    434                if ( ZDO_ParseBindRsp( inMsg ) == ZSuccess )
   \                     ??Sys_ProcessZDOMsgs_1:
   \   000029   EA           MOV     A,R2
   \   00002A   2413         ADD     A,#0x13
   \   00002C   F582         MOV     DPL,A
   \   00002E   EB           MOV     A,R3
   \   00002F   3400         ADDC    A,#0x0
   \   000031   F583         MOV     DPH,A
   \   000033   E0           MOVX    A,@DPTR
   \   000034   F8           MOV     R0,A
   \   000035   A3           INC     DPTR
   \   000036   E0           MOVX    A,@DPTR
   \   000037   F583         MOV     DPH,A
   \   000039   8882         MOV     DPL,R0
   \   00003B   E0           MOVX    A,@DPTR
   \   00003C   7009         JNZ     ??Sys_ProcessZDOMsgs_3
    435                {
    436                  // Light LED
    437                  HalLedSet( HAL_LED_4, HAL_LED_MODE_ON );
   \   00003E                ; Setup parameters for call to function HalLedSet
   \   00003E   7A01         MOV     R2,#0x1
   \                     ??Sys_ProcessZDOMsgs_4:
   \   000040   7908         MOV     R1,#0x8
   \   000042   12....       LCALL   ??HalLedSet?relay
   \   000045   805B         SJMP    ??Sys_ProcessZDOMsgs_2
    438                }
    439          #if defined(BLINK_LEDS)
    440                else
    441                {
    442                  // Flash LED to show failure
    443                  HalLedSet ( HAL_LED_4, HAL_LED_MODE_FLASH );
   \                     ??Sys_ProcessZDOMsgs_3:
   \   000047                ; Setup parameters for call to function HalLedSet
   \   000047   7A04         MOV     R2,#0x4
   \   000049   80F5         SJMP    ??Sys_ProcessZDOMsgs_4
    444                }
    445          #endif
    446                break;
    447          
    448              case Match_Desc_rsp:
    449                {
    450                  ZDO_ActiveEndpointRsp_t *pRsp = ZDO_ParseEPListRsp( inMsg );
   \                     ??Sys_ProcessZDOMsgs_0:
   \   00004B                ; Setup parameters for call to function ZDO_ParseEPListRsp
   \   00004B   12....       LCALL   ??ZDO_ParseEPListRsp?relay
   \   00004E   8A..         MOV     ?V0 + 0,R2
   \   000050   8B..         MOV     ?V0 + 1,R3
   \   000052   AE..         MOV     R6,?V0 + 0
   \   000054   AF..         MOV     R7,?V0 + 1
    451                  if ( pRsp )
   \   000056   EE           MOV     A,R6
   \   000057   4F           ORL     A,R7
   \   000058   6048         JZ      ??Sys_ProcessZDOMsgs_2
    452                  {
    453                    if ( pRsp->status == ZSuccess && pRsp->cnt )
   \   00005A   8E82         MOV     DPL,R6
   \   00005C   8F83         MOV     DPH,R7
   \   00005E   E0           MOVX    A,@DPTR
   \   00005F   703A         JNZ     ??Sys_ProcessZDOMsgs_5
   \   000061   A3           INC     DPTR
   \   000062   A3           INC     DPTR
   \   000063   A3           INC     DPTR
   \   000064   E0           MOVX    A,@DPTR
   \   000065   6034         JZ      ??Sys_ProcessZDOMsgs_5
    454                    {
    455                      switch (type_join)
   \   000067   90....       MOV     DPTR,#type_join
   \   00006A   E0           MOVX    A,@DPTR
   \   00006B   6401         XRL     A,#0x1
   \   00006D   702C         JNZ     ??Sys_ProcessZDOMsgs_5
    456                      {
    457                        case BUTTON_TYPE_ID:
    458                        {
    459                          Button_DstAddr.addrMode = (afAddrMode_t)Addr16Bit;
   \   00006F   90....       MOV     DPTR,#Button_DstAddr + 8
   \   000072   7402         MOV     A,#0x2
   \   000074   F0           MOVX    @DPTR,A
    460                          Button_DstAddr.addr.shortAddr = pRsp->nwkAddr;
   \   000075   8E82         MOV     DPL,R6
   \   000077   8F83         MOV     DPH,R7
   \   000079   A3           INC     DPTR
   \   00007A   E0           MOVX    A,@DPTR
   \   00007B   F8           MOV     R0,A
   \   00007C   A3           INC     DPTR
   \   00007D   E0           MOVX    A,@DPTR
   \   00007E   F9           MOV     R1,A
   \   00007F   90....       MOV     DPTR,#Button_DstAddr
   \   000082   E8           MOV     A,R0
   \   000083   F0           MOVX    @DPTR,A
   \   000084   A3           INC     DPTR
   \   000085   E9           MOV     A,R1
   \   000086   F0           MOVX    @DPTR,A
    461                          // Take the first endpoint, Can be changed to search through endpoints
    462                          Button_DstAddr.endPoint = pRsp->epList[0];
   \   000087   8E82         MOV     DPL,R6
   \   000089   8F83         MOV     DPH,R7
   \   00008B   A3           INC     DPTR
   \   00008C   A3           INC     DPTR
   \   00008D   A3           INC     DPTR
   \   00008E   A3           INC     DPTR
   \   00008F   E0           MOVX    A,@DPTR
   \   000090   90....       MOV     DPTR,#Button_DstAddr + 9
   \   000093   F0           MOVX    @DPTR,A
    463          
    464                          HalLedSet( HAL_LED_4, HAL_LED_MODE_ON );
   \   000094                ; Setup parameters for call to function HalLedSet
   \   000094   7A01         MOV     R2,#0x1
   \   000096   7908         MOV     R1,#0x8
   \   000098   12....       LCALL   ??HalLedSet?relay
    465                        }
    466          
    467                        // case Led_TaskID:
    468                      }
    469                    }
    470                    osal_mem_free( pRsp );
   \                     ??Sys_ProcessZDOMsgs_5:
   \   00009B                ; Setup parameters for call to function osal_mem_free
   \   00009B   EE           MOV     A,R6
   \   00009C   FA           MOV     R2,A
   \   00009D   EF           MOV     A,R7
   \   00009E   FB           MOV     R3,A
   \   00009F   12....       LCALL   ??osal_mem_free?relay
    471                  }
    472                }
    473                break;
    474            }
    475          }
   \                     ??Sys_ProcessZDOMsgs_2:
   \   0000A2                REQUIRE ?Subroutine1
   \   0000A2                ; // Fall through to label ?Subroutine1

   \                                 In  segment BANKED_CODE, align 1, keep-with-next
   \                     ?Subroutine1:
   \   000000   7F02         MOV     R7,#0x2
   \   000002   02....       LJMP    ?BANKED_LEAVE_XDATA
    476          
    477          /*********************************************************************
    478           * @fn      Button_HandleKeys
    479           *
    480           * @brief   Handles all key events for this device.
    481           *
    482           * @param   shift - true if in shift/alt.
    483           * @param   keys - bit field for key events. Valid entries:
    484           *                 HAL_KEY_SW_4
    485           *                 HAL_KEY_SW_3
    486           *                 HAL_KEY_SW_2
    487           *                 HAL_KEY_SW_1
    488           *
    489           * @return  none
    490           */

   \                                 In  segment BANKED_CODE, align 1, keep-with-next
    491          void Button_HandleKeys( byte shift, byte keys )
   \                     Button_HandleKeys:
    492          {
   \   000000   74F6         MOV     A,#-0xa
   \   000002   12....       LCALL   ?BANKED_ENTER_XDATA
   \   000005                ; Saved register size: 10
   \   000005                ; Auto size: 0
   \   000005   E9           MOV     A,R1
   \   000006   FE           MOV     R6,A
   \   000007   EA           MOV     A,R2
   \   000008   FF           MOV     R7,A
    493            zAddrType_t dstAddr;
                               ^
Warning[Pe177]: variable "dstAddr" was declared but never referenced

  static uint8 myAppState = APP_INIT;
               ^
"D:\ProgramData\Hardware\zigbee\Projects\zstack\Samples\SensorSys\Source\SensorSys_Coordinator.c",177  Warning[Pe177]: 
          variable "myAppState" was declared but never referenced
    494            
    495            // Shift is used to make each button/switch dual purpose.
    496            if ( shift )
   \   000009   EE           MOV     A,R6
   \   00000A   7043         JNZ     ??Button_HandleKeys_0
    497            {
    498              if ( keys & HAL_KEY_SW_1 )
    499              {
    500              }
    501              if ( keys & HAL_KEY_SW_2 )
    502              {
    503              }
    504              if ( keys & HAL_KEY_SW_3 )
    505              {
    506              }
    507              if ( keys & HAL_KEY_SW_4 )
    508              {
    509              }
    510            }
    511            else
    512            {
    513              if ( keys & HAL_KEY_SW_1 )
   \   00000C   EF           MOV     A,R7
   \   00000D   A2E0         MOV     C,0xE0 /* A   */.0
   \   00000F   5005         JNC     ??Button_HandleKeys_1
    514              {
    515                Sys_SendPreBindMessage(BUTTON_TYPE_ID);
   \   000011                ; Setup parameters for call to function Sys_SendPreBindMessage
   \   000011   7901         MOV     R1,#0x1
   \   000013   12....       LCALL   ??Sys_SendPreBindMessage?relay
    516              }
    517          
    518              // 对远程端点发送命令
    519              if ( keys & HAL_KEY_SW_2 )
   \                     ??Button_HandleKeys_1:
   \   000016   EF           MOV     A,R7
   \   000017   A2E1         MOV     C,0xE0 /* A   */.1
   \   000019   5034         JNC     ??Button_HandleKeys_0
    520              {
    521                //( uint16 destination, uint16 commandId, uint8 len,
    522                //  uint8 *pData, uint8 handle, uint8 txOptions, uint8 radius )
    523                zb_SendDataRequest( 0xFFFE,  BUTTON_CMD_ID, 0,
    524                                  (uint8 *)NULL, sysSeqNumber, 0, 0 );
   \   00001B                ; Setup parameters for call to function zb_SendDataRequest
   \   00001B   75..00       MOV     ?V0 + 0,#0x0
   \   00001E   78..         MOV     R0,#?V0 + 0
   \   000020   12....       LCALL   ?PUSH_XSTACK_I_ONE
   \   000023   78..         MOV     R0,#?V0 + 0
   \   000025   12....       LCALL   ?PUSH_XSTACK_I_ONE
   \   000028   90....       MOV     DPTR,#sysSeqNumber
   \   00002B   E0           MOVX    A,@DPTR
   \   00002C   F5..         MOV     ?V0 + 0,A
   \   00002E   78..         MOV     R0,#?V0 + 0
   \   000030   12....       LCALL   ?PUSH_XSTACK_I_ONE
   \   000033   E4           CLR     A
   \   000034   F5..         MOV     ?V0 + 0,A
   \   000036   F5..         MOV     ?V0 + 1,A
   \   000038   78..         MOV     R0,#?V0 + 0
   \   00003A   12....       LCALL   ?PUSH_XSTACK_I_TWO
   \   00003D   7900         MOV     R1,#0x0
   \   00003F   7C01         MOV     R4,#0x1
   \   000041   7D00         MOV     R5,#0x0
   \   000043   7AFE         MOV     R2,#-0x2
   \   000045   7BFF         MOV     R3,#-0x1
   \   000047   12....       LCALL   ??zb_SendDataRequest?relay
   \   00004A   7405         MOV     A,#0x5
   \   00004C   12....       LCALL   ?DEALLOC_XSTACK8
    525                // 0xFFFE -- 没有目的地址的dstaddr(Match 的 addr)
    526              }
    527          
    528              if ( keys & HAL_KEY_SW_3 )
    529              {
    530              }
    531          
    532              // 是用来查找有没有东西可以匹配的
    533              if ( keys & HAL_KEY_SW_4 )
    534              {/*
    535                HalLedSet ( HAL_LED_4, HAL_LED_MODE_OFF );
    536                // Initiate a Match Description Request (Service Discovery)
    537                dstAddr.addrMode = AddrBroadcast;
    538                dstAddr.addr.shortAddr = NWK_BROADCAST_SHORTADDR;
    539                ZDP_MatchDescReq( &dstAddr, NWK_BROADCAST_SHORTADDR,
    540                                  SYS_PROFID,
    541                                  SYS_MAX_CLUSTERS, (cId_t *)Button_ClusterList,
    542                                  SYS_MAX_CLUSTERS, (cId_t *)Button_ClusterList,
    543                                  FALSE );
    544                                  */
    545              }
    546            }
    547          }
   \                     ??Button_HandleKeys_0:
   \   00004F   80..         SJMP    ?Subroutine1
    548          
    549          /*********************************************************************
    550           * LOCAL FUNCTIONS
    551           */
    552          
    553          /*********************************************************************
    554           * @fn      Sys_MessageMSGCB
    555           *
    556           * @brief   Data message processor callback.  This function processes
    557           *          any incoming data - probably from other devices.  So, based
    558           *          on cluster ID, perform the intended action.
    559           *
    560           * @param   none
    561           *
    562           * @return  none
    563           */

   \                                 In  segment BANKED_CODE, align 1, keep-with-next
    564          void Sys_MessageMSGCB( afIncomingMSGPacket_t *pkt, byte task_id )
   \                     Sys_MessageMSGCB:
    565          {
   \   000000                ; Saved register size: 0
   \   000000                ; Auto size: 0
    566            switch ( pkt->clusterId )
    567            {
    568              case BUTTON_CLUSTERID:
    569                // "the" message
    570          #if defined( WIN32 )
    571                WPRINTSTR( pkt->cmd.Data );
    572          #endif
    573                break;
    574            }
    575          }
   \   000000   02....       LJMP    ?BRET
    576          
    577          /*********************************************************************
    578           * @fn      Sys_SendPreBindMessage
    579           * * @brief   Broadcast prebind message.
    580           *
    581           *
    582           * @param   type_id : 想要绑定的终端类型
    583           *
    584           * @return  none
    585           */

   \                                 In  segment BANKED_CODE, align 1, keep-with-next
    586          void Sys_SendPreBindMessage( byte type_id )
   \                     Sys_SendPreBindMessage:
    587          {
   \   000000   74F6         MOV     A,#-0xa
   \   000002   12....       LCALL   ?BANKED_ENTER_XDATA
   \   000005                ; Saved register size: 10
   \   000005                ; Auto size: 5
   \   000005   74FB         MOV     A,#-0x5
   \   000007   12....       LCALL   ?ALLOC_XSTACK8
   \   00000A   E9           MOV     A,R1
   \   00000B   FE           MOV     R6,A
    588            char theMessageData[5] = "bind";
   \   00000C   85..82       MOV     DPL,?XSP + 0
   \   00000F   85..83       MOV     DPH,?XSP + 1
   \   000012   AC82         MOV     R4,DPL
   \   000014   AD83         MOV     R5,DPH
   \   000016   7583..       MOV     DPH,#(`?<Constant "bind">` >> 8) & 0xff
   \   000019   7582..       MOV     DPL,#`?<Constant "bind">` & 0xff
   \   00001C   7405         MOV     A,#0x5
   \   00001E   12....       LCALL   ?MOVE_LONG8_XDATA_XDATA
    589            theMessageData[4] = type_id;
   \   000021   7404         MOV     A,#0x4
   \   000023   12....       LCALL   ?XSTACK_DISP0_8
   \   000026   E9           MOV     A,R1
   \   000027   F0           MOVX    @DPTR,A
    590          
    591            if ( AF_DataRequest( &Broadcast_DstAddr, &Sys_epDesc,
    592                                 SYS_CLUSTERID,
    593                                 (byte)osal_strlen( theMessageData ) + 1,
    594                                 (byte *)&theMessageData,
    595                                 &Sys_TransID,
    596                                 AF_DISCV_ROUTE, AF_DEFAULT_RADIUS ) == afStatus_SUCCESS )
   \   000028                ; Setup parameters for call to function AF_DataRequest
   \   000028   75..1E       MOV     ?V0 + 0,#0x1e
   \   00002B   78..         MOV     R0,#?V0 + 0
   \   00002D   12....       LCALL   ?PUSH_XSTACK_I_ONE
   \   000030   75....       MOV     ?V0 + 0,#Sys_TransID & 0xff
   \   000033   75....       MOV     ?V0 + 1,#(Sys_TransID >> 8) & 0xff
   \   000036   78..         MOV     R0,#?V0 + 0
   \   000038   12....       LCALL   ?PUSH_XSTACK_I_TWO
   \   00003B   7403         MOV     A,#0x3
   \   00003D   12....       LCALL   ?XSTACK_DISP0_8
   \   000040   8582..       MOV     ?V0 + 0,DPL
   \   000043   8583..       MOV     ?V0 + 1,DPH
   \   000046   78..         MOV     R0,#?V0 + 0
   \   000048   12....       LCALL   ?PUSH_XSTACK_I_TWO
   \   00004B                ; Setup parameters for call to function osal_strlen
   \   00004B   7405         MOV     A,#0x5
   \   00004D   12....       LCALL   ?XSTACK_DISP0_8
   \   000050   AA82         MOV     R2,DPL
   \   000052   AB83         MOV     R3,DPH
   \   000054   12....       LCALL   ??osal_strlen?relay
   \   000057   EA           MOV     A,R2
   \   000058   2401         ADD     A,#0x1
   \   00005A   F5..         MOV     ?V0 + 0,A
   \   00005C   E4           CLR     A
   \   00005D   3400         ADDC    A,#0x0
   \   00005F   F5..         MOV     ?V0 + 1,A
   \   000061   78..         MOV     R0,#?V0 + 0
   \   000063   12....       LCALL   ?PUSH_XSTACK_I_TWO
   \   000066   75..01       MOV     ?V0 + 0,#0x1
   \   000069   75..00       MOV     ?V0 + 1,#0x0
   \   00006C   78..         MOV     R0,#?V0 + 0
   \   00006E   12....       LCALL   ?PUSH_XSTACK_I_TWO
   \   000071   7920         MOV     R1,#0x20
   \   000073   7C..         MOV     R4,#Sys_epDesc & 0xff
   \   000075   7D..         MOV     R5,#(Sys_epDesc >> 8) & 0xff
   \   000077   7A..         MOV     R2,#Broadcast_DstAddr & 0xff
   \   000079   7B..         MOV     R3,#(Broadcast_DstAddr >> 8) & 0xff
   \   00007B   12....       LCALL   ??AF_DataRequest?relay
   \   00007E   7409         MOV     A,#0x9
   \   000080   12....       LCALL   ?DEALLOC_XSTACK8
   \   000083   E9           MOV     A,R1
   \   000084   701A         JNZ     ??Sys_SendPreBindMessage_0
    597            {
    598              // Successfully requested to be sent.
    599             //if(想要绑定什么就对应的 TypeID)
    600          
    601              type_join = type_id;
   \   000086   EE           MOV     A,R6
   \   000087   90....       MOV     DPTR,#type_join
   \   00008A   F0           MOVX    @DPTR,A
    602              if(type_id == BUTTON_TYPE_ID)
   \   00008B   7401         MOV     A,#0x1
   \   00008D   6E           XRL     A,R6
   \   00008E   7010         JNZ     ??Sys_SendPreBindMessage_0
    603                osal_start_timerEx(Button_TaskID, MATCH_BIND_EVT, 5000);
   \   000090                ; Setup parameters for call to function osal_start_timerEx
   \   000090   7C88         MOV     R4,#-0x78
   \   000092   7D13         MOV     R5,#0x13
   \   000094   7A02         MOV     R2,#0x2
   \   000096   7B00         MOV     R3,#0x0
   \   000098   90....       MOV     DPTR,#Button_TaskID
   \   00009B   E0           MOVX    A,@DPTR
   \   00009C   F9           MOV     R1,A
   \   00009D   12....       LCALL   ??osal_start_timerEx?relay
    604          
    605            }
    606            else
    607            {
    608              // Error occurred in request to send.
    609            }
    610          }
   \                     ??Sys_SendPreBindMessage_0:
   \   0000A0   7405         MOV     A,#0x5
   \   0000A2   12....       LCALL   ?DEALLOC_XSTACK8
   \   0000A5   02....       LJMP    ?Subroutine1 & 0xFFFF
    611          
    612          /*********************************************************************
    613          *********************************************************************/
    614          
    615          
    616          /******************************************************************************
    617           * @fn          zb_StartConfirm
    618           *
    619           * @brief       The zb_StartConfirm callback is called by the ZigBee stack
    620           *              after a start request operation completes
    621           *
    622           * @param       status - The status of the start operation.  Status of
    623           *                       ZB_SUCCESS indicates the start operation completed
    624           *                       successfully.  Else the status is an error code.
    625           *
    626           * @return      none
    627           */

   \                                 In  segment BANKED_CODE, align 1, keep-with-next
    628          void zb_StartConfirm( uint8 status )
   \                     zb_StartConfirm:
    629          {
   \   000000                ; Saved register size: 0
   \   000000                ; Auto size: 0
    630          }
   \   000000   02....       LJMP    ?BRET
    631          /******************************************************************************
    632           * @fn          zb_SendDataConfirm
    633           *
    634           * @brief       The zb_SendDataConfirm callback function is called by the
    635           *              ZigBee after a send data operation completes
    636           *
    637           * @param       handle - The handle identifying the data transmission.
    638           *              status - The status of the operation.
    639           *
    640           * @return      none
    641           */

   \                                 In  segment BANKED_CODE, align 1, keep-with-next
    642          void zb_SendDataConfirm( uint8 handle, uint8 status )
   \                     zb_SendDataConfirm:
    643          {
   \   000000                ; Saved register size: 0
   \   000000                ; Auto size: 0
    644          }
   \   000000   02....       LJMP    ?BRET
    645          /******************************************************************************
    646           * @fn          zb_BindConfirm
    647           *
    648           * @brief       The zb_BindConfirm callback is called by the ZigBee stack
    649           *              after a bind operation completes.
    650           *
    651           * @param       commandId - The command ID of the binding being confirmed.
    652           *              status - The status of the bind operation.
    653           *
    654           * @return      none
    655           */

   \                                 In  segment BANKED_CODE, align 1, keep-with-next
    656          void zb_BindConfirm( uint16 commandId, uint8 status )
   \                     zb_BindConfirm:
    657          {
   \   000000                ; Saved register size: 0
   \   000000                ; Auto size: 0
    658          }
   \   000000   02....       LJMP    ?BRET
    659          /******************************************************************************
    660           * @fn          zb_AllowBindConfirm
    661           *
    662           * @brief       Indicates when another device attempted to bind to this device
    663           *
    664           * @param
    665           *
    666           * @return      none
    667           */

   \                                 In  segment BANKED_CODE, align 1, keep-with-next
    668          void zb_AllowBindConfirm( uint16 source )
   \                     zb_AllowBindConfirm:
    669          {
   \   000000                ; Saved register size: 0
   \   000000                ; Auto size: 0
    670          }
   \   000000   02....       LJMP    ?BRET
    671          /******************************************************************************
    672           * @fn          zb_FindDeviceConfirm
    673           *
    674           * @brief       The zb_FindDeviceConfirm callback function is called by the
    675           *              ZigBee stack when a find device operation completes.
    676           *
    677           * @param       searchType - The type of search that was performed.
    678           *              searchKey - Value that the search was executed on.
    679           *              result - The result of the search.
    680           *
    681           * @return      none
    682           */

   \                                 In  segment BANKED_CODE, align 1, keep-with-next
    683          void zb_FindDeviceConfirm( uint8 searchType, uint8 *searchKey, uint8 *result )
   \                     zb_FindDeviceConfirm:
    684          {
   \   000000                ; Saved register size: 0
   \   000000                ; Auto size: 0
    685          }
   \   000000   02....       LJMP    ?BRET
    686          /******************************************************************************
    687           * @fn          zb_ReceiveDataIndication
    688           *
    689           * @brief       The zb_ReceiveDataIndication callback function is called
    690           *              asynchronously by the ZigBee stack to notify the application
    691           *              when data is received from a peer device.
    692           *
    693           * @param       source - The short address of the peer device that sent the data
    694           *              command - The commandId associated with the data
    695           *              len - The number of bytes in the pData parameter
    696           *              pData - The data sent by the peer device
    697           *
    698           * @return      none
    699           */

   \                                 In  segment BANKED_CODE, align 1, keep-with-next
    700          void zb_ReceiveDataIndication( uint16 source, uint16 command, uint16 len, uint8 *pData  )
   \                     zb_ReceiveDataIndication:
    701          {
   \   000000                ; Saved register size: 0
   \   000000                ; Auto size: 0
    702          }
   \   000000   02....       LJMP    ?BRET
    703          

   \                                 In  segment BANKED_CODE, align 1, keep-with-next
    704          void zb_HandleOsalEvent( uint16 event )
   \                     zb_HandleOsalEvent:
    705          {
   \   000000                ; Saved register size: 0
   \   000000                ; Auto size: 0
    706          
    707          }
   \   000000   02....       LJMP    ?BRET

   \                                 In  segment XDATA_ID, align 1, keep-with-next
   \                     `?<Initializer for AppTitle>`:
   \   000000   53656E73     DB "SensorAPP"
   \            6F724150
   \            5000    

   \                                 In  segment BANK_RELAYS, align 1
   \                     ??Sys_Init?relay:
   \   000000   12....       LCALL   ?BDISPATCH
   \   000003   ......       DC24    Sys_Init

   \                                 In  segment BANK_RELAYS, align 1
   \                     ??Button_Init?relay:
   \   000000   12....       LCALL   ?BDISPATCH
   \   000003   ......       DC24    Button_Init

   \                                 In  segment BANK_RELAYS, align 1
   \                     ??Sys_ProcessEvent?relay:
   \   000000   12....       LCALL   ?BDISPATCH
   \   000003   ......       DC24    Sys_ProcessEvent

   \                                 In  segment BANK_RELAYS, align 1
   \                     ??Sys_ProcessZDOMsgs?relay:
   \   000000   12....       LCALL   ?BDISPATCH
   \   000003   ......       DC24    Sys_ProcessZDOMsgs

   \                                 In  segment BANK_RELAYS, align 1
   \                     ??Button_HandleKeys?relay:
   \   000000   12....       LCALL   ?BDISPATCH
   \   000003   ......       DC24    Button_HandleKeys

   \                                 In  segment BANK_RELAYS, align 1
   \                     ??Sys_MessageMSGCB?relay:
   \   000000   12....       LCALL   ?BDISPATCH
   \   000003   ......       DC24    Sys_MessageMSGCB

   \                                 In  segment BANK_RELAYS, align 1
   \                     ??Sys_SendPreBindMessage?relay:
   \   000000   12....       LCALL   ?BDISPATCH
   \   000003   ......       DC24    Sys_SendPreBindMessage

   \                                 In  segment BANK_RELAYS, align 1
   \                     ??zb_StartConfirm?relay:
   \   000000   12....       LCALL   ?BDISPATCH
   \   000003   ......       DC24    zb_StartConfirm

   \                                 In  segment BANK_RELAYS, align 1
   \                     ??zb_SendDataConfirm?relay:
   \   000000   12....       LCALL   ?BDISPATCH
   \   000003   ......       DC24    zb_SendDataConfirm

   \                                 In  segment BANK_RELAYS, align 1
   \                     ??zb_BindConfirm?relay:
   \   000000   12....       LCALL   ?BDISPATCH
   \   000003   ......       DC24    zb_BindConfirm

   \                                 In  segment BANK_RELAYS, align 1
   \                     ??zb_AllowBindConfirm?relay:
   \   000000   12....       LCALL   ?BDISPATCH
   \   000003   ......       DC24    zb_AllowBindConfirm

   \                                 In  segment BANK_RELAYS, align 1
   \                     ??zb_FindDeviceConfirm?relay:
   \   000000   12....       LCALL   ?BDISPATCH
   \   000003   ......       DC24    zb_FindDeviceConfirm

   \                                 In  segment BANK_RELAYS, align 1
   \                     ??zb_ReceiveDataIndication?relay:
   \   000000   12....       LCALL   ?BDISPATCH
   \   000003   ......       DC24    zb_ReceiveDataIndication

   \                                 In  segment BANK_RELAYS, align 1
   \                     ??zb_HandleOsalEvent?relay:
   \   000000   12....       LCALL   ?BDISPATCH
   \   000003   ......       DC24    zb_HandleOsalEvent

   \                                 In  segment XDATA_ROM_C, align 1
   \                     `?<Constant "bind">`:
   \   000000   62696E64     DB "bind"
   \            00      

   Maximum stack usage in bytes:

     Function                    ISTACK PSTACK XSTACK
     --------                    ------ ------ ------
     Button_HandleKeys               0      0     29
       -> Sys_SendPreBindMessage     0      0     20
       -> zb_SendDataRequest         0      0     30
     Button_Init                     0      0      9
       -> afRegister                 0      0     18
       -> RegisterForKeys            0      0     18
       -> ZDO_RegisterForZDOMsg      0      0     18
     Sys_Init                        0      0      9
       -> afRegister                 0      0     18
     Sys_MessageMSGCB                0      0      0
     Sys_ProcessEvent                0      0     14
       -> osal_msg_receive           0      0     28
       -> osal_msg_deallocate        0      0     28
       -> osal_msg_receive           0      0     28
       -> Sys_ProcessZDOMsgs         0      0     28
       -> osal_msg_receive           0      0     28
       -> Button_HandleKeys          0      0     28
       -> osal_msg_deallocate        0      0     28
       -> osal_msg_receive           0      0     28
       -> zb_BindDevice              0      0     28
       -> HalLedSet                  0      0     28
     Sys_ProcessZDOMsgs              0      0     24
       -> HalLedSet                  0      0     20
       -> HalLedSet                  0      0     20
       -> ZDO_ParseEPListRsp         0      0     20
       -> HalLedSet                  0      0     20
       -> osal_mem_free              0      0     20
     Sys_SendPreBindMessage          2      0     34
       -> osal_strlen                0      0     40
       -> AF_DataRequest             0      0     48
       -> osal_start_timerEx         0      0     30
     zb_AllowBindConfirm             0      0      0
     zb_BindConfirm                  0      0      0
     zb_FindDeviceConfirm            0      0      0
     zb_HandleOsalEvent              0      0      0
     zb_ReceiveDataIndication        0      0      4
     zb_SendDataConfirm              0      0      0
     zb_StartConfirm                 0      0      0


   Segment part sizes:

     Function/Label                   Bytes
     --------------                   -----
     AppTitle                           10
     Sys_ClusterList                     2
     Button_ClusterList                  4
     Zb_ClusterList                      8
     Sys_SimpleDesc                     12
     Button_SimpleDesc                  12
     zb_SimpleDesc                      12
     Sys_epDesc                          6
     Button_epDesc                       6
     type_join                           1
     Sys_TaskID                          1
     Button_TaskID                       1
     Sys_NwkState                        1
     Sys_TransID                         1
     Broadcast_DstAddr                  12
     Button_DstAddr                     12
     sysSeqNumber                        1
     Sys_Init                           60
     ?Subroutine0                        5
     Button_Init                        77
     Sys_ProcessEvent                  187
     ?Subroutine2                       14
     Sys_ProcessZDOMsgs                162
     ?Subroutine1                        5
     Button_HandleKeys                  81
     Sys_MessageMSGCB                    3
     Sys_SendPreBindMessage            168
     zb_StartConfirm                     3
     zb_SendDataConfirm                  3
     zb_BindConfirm                      3
     zb_AllowBindConfirm                 3
     zb_FindDeviceConfirm                3
     zb_ReceiveDataIndication            3
     zb_HandleOsalEvent                  3
     ?<Initializer for AppTitle>        10
     ??Sys_Init?relay                    6
     ??Button_Init?relay                 6
     ??Sys_ProcessEvent?relay            6
     ??Sys_ProcessZDOMsgs?relay          6
     ??Button_HandleKeys?relay           6
     ??Sys_MessageMSGCB?relay            6
     ??Sys_SendPreBindMessage?relay      6
     ??zb_StartConfirm?relay             6
     ??zb_SendDataConfirm?relay          6
     ??zb_BindConfirm?relay              6
     ??zb_AllowBindConfirm?relay         6
     ??zb_FindDeviceConfirm?relay        6
     ??zb_ReceiveDataIndication?relay    6
     ??zb_HandleOsalEvent?relay          6
     ?<Constant "bind">                  5

 
 783 bytes in segment BANKED_CODE
  84 bytes in segment BANK_RELAYS
  10 bytes in segment XDATA_I
  10 bytes in segment XDATA_ID
  55 bytes in segment XDATA_ROM_C
  42 bytes in segment XDATA_Z
 
 877 bytes of CODE  memory
  55 bytes of CONST memory
  52 bytes of XDATA memory

Errors: none
Warnings: 2
