///////////////////////////////////////////////////////////////////////////////
//                                                                            /
// IAR C/C++ Compiler V8.10.3.10338/W32 for 8051        06/Apr/2018  15:28:32 /
// Copyright 2004-2011 IAR Systems AB.                                        /
//                                                                            /
//    Core               =  plain                                             /
//    Code model         =  banked                                            /
//    Data model         =  large                                             /
//    Calling convention =  xdata reentrant                                   /
//    Constant location  =  data_rom                                          /
//    Dptr setup         =  1,16                                              /
//    Source file        =  D:\ProgramData\Hardware\zigbee\Projects\zstack\Sa /
//                          mples\SensorSys\Source\SensorSys_Coordinator.c    /
//    Command line       =  -f D:\ProgramData\Hardware\zigbee\Projects\zstack /
//                          \Samples\SensorSys\CC2530DB\..\..\..\Tools\CC2530 /
//                          DB\f8wCoord.cfg (-DCPU32MHZ -DROOT=__near_func    /
//                          -DMAC_CFG_APP_PENDING_QUEUE=TRUE                  /
//                          -DMAC_CFG_TX_DATA_MAX=5 -DMAC_CFG_TX_MAX=8        /
//                          -DMAC_CFG_RX_MAX=5 -DZDO_COORDINATOR -DRTR_NWK)   /
//                          -f D:\ProgramData\Hardware\zigbee\Projects\zstack /
//                          \Samples\SensorSys\CC2530DB\..\..\..\Tools\CC2530 /
//                          DB\f8wConfig.cfg (-DZIGBEEPRO -DSECURE=0          /
//                          -DZG_SECURE_DYNAMIC=0 -DREFLECTOR                 /
//                          -DDEFAULT_CHANLIST=0x00000800                     /
//                          -DZDAPP_CONFIG_PAN_ID=0xFFF1                      /
//                          -DNWK_START_DELAY=100 -DEXTENDED_JOINING_RANDOM_M /
//                          ASK=0x007F -DBEACON_REQUEST_DELAY=100             /
//                          -DBEACON_REQ_DELAY_MASK=0x00FF                    /
//                          -DLINK_STATUS_JITTER_MASK=0x007F                  /
//                          -DROUTE_EXPIRY_TIME=30 -DAPSC_ACK_WAIT_DURATION_P /
//                          OLLED=3000 -DNWK_INDIRECT_MSG_TIMEOUT=7           /
//                          -DMAX_RREQ_ENTRIES=8 -DAPSC_MAX_FRAME_RETRIES=3   /
//                          -DNWK_MAX_DATA_RETRIES=2                          /
//                          -DMAX_POLL_FAILURE_RETRIES=2 -DMAX_BCAST=9        /
//                          -DAPS_MAX_GROUPS=16 -DMAX_RTG_ENTRIES=40          /
//                          -DNWK_MAX_BINDING_ENTRIES=4                       /
//                          -DMAX_BINDING_CLUSTER_IDS=4                       /
//                          "-DDEFAULT_KEY={0x01, 0x03, 0x05, 0x07, 0x09,     /
//                          0x0B, 0x0D, 0x0F, 0x00, 0x02, 0x04, 0x06, 0x08,   /
//                          0x0A, 0x0C, 0x0D}" -DMAC_MAX_FRAME_SIZE=116       /
//                          -DZDNWKMGR_MIN_TRANSMISSIONS=20 "-DCONST=const    /
//                          __code" -DGENERIC=__generic                       /
//                          -DRFD_RCVC_ALWAYS_ON=TRUE -DPOLL_RATE=1000        /
//                          -DQUEUED_POLL_RATE=100 -DRESPONSE_POLL_RATE=100)  /
//                          -DREJOIN_POLL_RATE=440 D:\ProgramData\Hardware\zi /
//                          gbee\Projects\zstack\Samples\SensorSys\Source\Sen /
//                          sorSys_Coordinator.c -D HOLD_AUTO_START -D        /
//                          BUILD_ALL_DEVICES -D REFLECTOR -D NV_INIT -D      /
//                          xNV_RESTORE -D ZTOOL_P1 -D xMT_TASK -D            /
//                          xMT_SYS_FUNC -D xMT_SAPI_FUNC -D                  /
//                          xMT_SAPI_CB_FUNC -lC D:\ProgramData\Hardware\zigb /
//                          ee\Projects\zstack\Samples\SensorSys\CC2530DB\Coo /
//                          rdinatorEB\List\ -lA D:\ProgramData\Hardware\zigb /
//                          ee\Projects\zstack\Samples\SensorSys\CC2530DB\Coo /
//                          rdinatorEB\List\ --diag_suppress Pe001,Pa010 -o   /
//                          D:\ProgramData\Hardware\zigbee\Projects\zstack\Sa /
//                          mples\SensorSys\CC2530DB\CoordinatorEB\Obj\ -e    /
//                          --no_code_motion --debug --core=plain             /
//                          --dptr=16,1 --data_model=large                    /
//                          --code_model=banked --calling_convention=xdata_re /
//                          entrant --place_constants=data_rom                /
//                          --nr_virtual_regs 16 -I                           /
//                          D:\ProgramData\Hardware\zigbee\Projects\zstack\Sa /
//                          mples\SensorSys\CC2530DB\ -I                      /
//                          D:\ProgramData\Hardware\zigbee\Projects\zstack\Sa /
//                          mples\SensorSys\CC2530DB\..\Source\ -I            /
//                          D:\ProgramData\Hardware\zigbee\Projects\zstack\Sa /
//                          mples\SensorSys\CC2530DB\..\..\..\ZMain\TI2530DB\ /
//                           -I D:\ProgramData\Hardware\zigbee\Projects\zstac /
//                          k\Samples\SensorSys\CC2530DB\..\..\..\..\..\Compo /
//                          nents\hal\include\ -I D:\ProgramData\Hardware\zig /
//                          bee\Projects\zstack\Samples\SensorSys\CC2530DB\.. /
//                          \..\..\..\..\Components\hal\target\CC2530EB\ -I   /
//                          D:\ProgramData\Hardware\zigbee\Projects\zstack\Sa /
//                          mples\SensorSys\CC2530DB\..\..\..\..\..\Component /
//                          s\mac\include\ -I D:\ProgramData\Hardware\zigbee\ /
//                          Projects\zstack\Samples\SensorSys\CC2530DB\..\..\ /
//                          ..\..\..\Components\mac\high_level\ -I            /
//                          D:\ProgramData\Hardware\zigbee\Projects\zstack\Sa /
//                          mples\SensorSys\CC2530DB\..\..\..\..\..\Component /
//                          s\mac\low_level\srf04\ -I                         /
//                          D:\ProgramData\Hardware\zigbee\Projects\zstack\Sa /
//                          mples\SensorSys\CC2530DB\..\..\..\..\..\Component /
//                          s\mac\low_level\srf04\single_chip\ -I             /
//                          D:\ProgramData\Hardware\zigbee\Projects\zstack\Sa /
//                          mples\SensorSys\CC2530DB\..\..\..\..\..\Component /
//                          s\mt\ -I D:\ProgramData\Hardware\zigbee\Projects\ /
//                          zstack\Samples\SensorSys\CC2530DB\..\..\..\..\..\ /
//                          Components\osal\include\ -I                       /
//                          D:\ProgramData\Hardware\zigbee\Projects\zstack\Sa /
//                          mples\SensorSys\CC2530DB\..\..\..\..\..\Component /
//                          s\services\saddr\ -I D:\ProgramData\Hardware\zigb /
//                          ee\Projects\zstack\Samples\SensorSys\CC2530DB\..\ /
//                          ..\..\..\..\Components\services\sdata\ -I         /
//                          D:\ProgramData\Hardware\zigbee\Projects\zstack\Sa /
//                          mples\SensorSys\CC2530DB\..\..\..\..\..\Component /
//                          s\stack\af\ -I D:\ProgramData\Hardware\zigbee\Pro /
//                          jects\zstack\Samples\SensorSys\CC2530DB\..\..\..\ /
//                          ..\..\Components\stack\nwk\ -I                    /
//                          D:\ProgramData\Hardware\zigbee\Projects\zstack\Sa /
//                          mples\SensorSys\CC2530DB\..\..\..\..\..\Component /
//                          s\stack\sapi\ -I D:\ProgramData\Hardware\zigbee\P /
//                          rojects\zstack\Samples\SensorSys\CC2530DB\..\..\. /
//                          .\..\..\Components\stack\sec\ -I                  /
//                          D:\ProgramData\Hardware\zigbee\Projects\zstack\Sa /
//                          mples\SensorSys\CC2530DB\..\..\..\..\..\Component /
//                          s\stack\sys\ -I D:\ProgramData\Hardware\zigbee\Pr /
//                          ojects\zstack\Samples\SensorSys\CC2530DB\..\..\.. /
//                          \..\..\Components\stack\zdo\ -I                   /
//                          D:\ProgramData\Hardware\zigbee\Projects\zstack\Sa /
//                          mples\SensorSys\CC2530DB\..\..\..\..\..\Component /
//                          s\zmac\ -I D:\ProgramData\Hardware\zigbee\Project /
//                          s\zstack\Samples\SensorSys\CC2530DB\..\..\..\..\. /
//                          .\Components\zmac\f8w\ -Ohz --require_prototypes  /
//    List file          =  D:\ProgramData\Hardware\zigbee\Projects\zstack\Sa /
//                          mples\SensorSys\CC2530DB\CoordinatorEB\List\Senso /
//                          rSys_Coordinator.s51                              /
//                                                                            /
//                                                                            /
///////////////////////////////////////////////////////////////////////////////

        NAME SensorSys_Coordinator

        RTMODEL "__SystemLibrary", "CLib"
        RTMODEL "__calling_convention", "xdata_reentrant"
        RTMODEL "__code_model", "banked"
        RTMODEL "__core", "plain"
        RTMODEL "__data_model", "large"
        RTMODEL "__dptr_size", "16"
        RTMODEL "__extended_stack", "disabled"
        RTMODEL "__location_for_constants", "data"
        RTMODEL "__number_of_dptrs", "1"
        RTMODEL "__rt_version", "1"

        RSEG DOVERLAY:DATA:NOROOT(0)
        RSEG IOVERLAY:IDATA:NOROOT(0)
        RSEG ISTACK:IDATA:NOROOT(0)
        RSEG PSTACK:XDATA:NOROOT(0)
        RSEG XSTACK:XDATA:NOROOT(0)

        EXTERN ?ALLOC_XSTACK8
        EXTERN ?BANKED_ENTER_XDATA
        EXTERN ?BANKED_LEAVE_XDATA
        EXTERN ?BDISPATCH
        EXTERN ?BRET
        EXTERN ?DEALLOC_XSTACK8
        EXTERN ?MOVE_LONG8_XDATA_XDATA
        EXTERN ?PUSH_XSTACK_I_ONE
        EXTERN ?PUSH_XSTACK_I_TWO
        EXTERN ?V0
        EXTERN ?XSP
        EXTERN ?XSTACK_DISP0_8
        EXTERN __INIT_XDATA_I
        EXTERN __INIT_XDATA_Z

        PUBLIC ??Sys_BindConfirm?relay
        FUNCTION ??Sys_BindConfirm?relay,0203H
        PUBLIC ??Sys_Init?relay
        FUNCTION ??Sys_Init?relay,0203H
        PUBLIC ??Sys_MessageMSGCB?relay
        FUNCTION ??Sys_MessageMSGCB?relay,0203H
        PUBLIC ??Sys_ProcessEvent?relay
        FUNCTION ??Sys_ProcessEvent?relay,0203H
        PUBLIC ??Sys_ProcessZDOMsgs?relay
        FUNCTION ??Sys_ProcessZDOMsgs?relay,0203H
        PUBLIC ??Sys_SendCback?relay
        FUNCTION ??Sys_SendCback?relay,0203H
        PUBLIC ??Sys_SendDataConfirm?relay
        FUNCTION ??Sys_SendDataConfirm?relay,0203H
        PUBLIC ??Sys_SendDataRequest?relay
        FUNCTION ??Sys_SendDataRequest?relay,0203H
        PUBLIC ??Sys_SendPreBindMessage?relay
        FUNCTION ??Sys_SendPreBindMessage?relay,0203H
        PUBLIC ??osalInitTasks?relay
        FUNCTION ??osalInitTasks?relay,0203H
        PUBLIC ??zb_FindDeviceConfirm?relay
        FUNCTION ??zb_FindDeviceConfirm?relay,0203H
        PUBLIC ??zb_HandleOsalEvent?relay
        FUNCTION ??zb_HandleOsalEvent?relay,0203H
        PUBLIC ??zb_StartConfirm?relay
        FUNCTION ??zb_StartConfirm?relay,0203H
        PUBLIC AppTitle
        PUBLIC Sys_BindConfirm
        FUNCTION Sys_BindConfirm,021203H
        ARGFRAME XSTACK, 0, STACK
        LOCFRAME XSTACK, 9, STACK
        PUBLIC Sys_ClusterList
        PUBLIC Sys_Init
        FUNCTION Sys_Init,021203H
        ARGFRAME XSTACK, 0, STACK
        ARGFRAME IOVERLAY, 0, STATIC
        ARGFRAME DOVERLAY, 0, STATIC
        LOCFRAME XSTACK, 9, STACK
        PUBLIC Sys_MessageMSGCB
        FUNCTION Sys_MessageMSGCB,0203H
        ARGFRAME XSTACK, 0, STACK
        PUBLIC Sys_NwkState
        PUBLIC Sys_ProcessEvent
        FUNCTION Sys_ProcessEvent,021603H
        ARGFRAME XSTACK, 0, STACK
        LOCFRAME XSTACK, 16, STACK
        PUBLIC Sys_ProcessZDOMsgs
        FUNCTION Sys_ProcessZDOMsgs,021203H
        ARGFRAME XSTACK, 16, STACK
        ARGFRAME IOVERLAY, 0, STATIC
        ARGFRAME DOVERLAY, 0, STATIC
        LOCFRAME ISTACK, 2, STACK
        PUBLIC Sys_SendCback
        FUNCTION Sys_SendCback,021203H
        ARGFRAME XSTACK, 28, STACK
        ARGFRAME IOVERLAY, 0, STATIC
        ARGFRAME DOVERLAY, 0, STATIC
        LOCFRAME ISTACK, 1, STACK
        LOCFRAME XSTACK, 12, STACK
        PUBLIC Sys_SendDataConfirm
        FUNCTION Sys_SendDataConfirm,0203H
        ARGFRAME XSTACK, 0, STACK
        PUBLIC Sys_SendDataRequest
        FUNCTION Sys_SendDataRequest,021203H
        ARGFRAME XSTACK, 7, STACK
        LOCFRAME ISTACK, 1, STACK
        LOCFRAME XSTACK, 37, STACK
        PUBLIC Sys_SendPreBindMessage
        FUNCTION Sys_SendPreBindMessage,021203H
        ARGFRAME XSTACK, 0, STACK
        LOCFRAME ISTACK, 2, STACK
        LOCFRAME XSTACK, 37, STACK
        PUBLIC Sys_SimpleDesc
        PUBLIC Sys_TaskID
        PUBLIC Sys_TransID
        PUBLIC Sys_epDesc
        PUBLIC Zb_ClusterList
        PUBLIC myAppState
        PUBLIC osalInitTasks
        FUNCTION osalInitTasks,021203H
        ARGFRAME XSTACK, 0, STACK
        LOCFRAME ISTACK, 2, STACK
        PUBLIC sensor_bindInProgress
        PUBLIC sysSeqNumber
        PUBLIC tasksArr
        PUBLIC tasksCnt
        PUBLIC tasksEvents
        PUBLIC zb_FindDeviceConfirm
        FUNCTION zb_FindDeviceConfirm,0203H
        ARGFRAME XSTACK, 0, STACK
        PUBLIC zb_HandleOsalEvent
        FUNCTION zb_HandleOsalEvent,021203H
        ARGFRAME XSTACK, 0, STACK
        LOCFRAME ISTACK, 2, STACK
        PUBLIC zb_SimpleDesc
        PUBLIC zb_StartConfirm
        FUNCTION zb_StartConfirm,0203H
        ARGFRAME XSTACK, 0, STACK
        
        CFI Names cfiNames0
        CFI StackFrame CFA_SP SP IDATA
        CFI StackFrame CFA_PSP16 PSP16 XDATA
        CFI StackFrame CFA_XSP16 XSP16 XDATA
        CFI StaticOverlayFrame CFA_IOVERLAY IOVERLAY
        CFI StaticOverlayFrame CFA_DOVERLAY DOVERLAY
        CFI Resource `PSW.CY`:1, `B.BR0`:1, `B.BR1`:1, `B.BR2`:1, `B.BR3`:1
        CFI Resource `B.BR4`:1, `B.BR5`:1, `B.BR6`:1, `B.BR7`:1, `VB.BR8`:1
        CFI Resource `VB.BR9`:1, `VB.BR10`:1, `VB.BR11`:1, `VB.BR12`:1
        CFI Resource `VB.BR13`:1, `VB.BR14`:1, `VB.BR15`:1, VB:8, B:8, A:8
        CFI Resource PSW:8, DPL0:8, DPH0:8, R0:8, R1:8, R2:8, R3:8, R4:8, R5:8
        CFI Resource R6:8, R7:8, V0:8, V1:8, V2:8, V3:8, V4:8, V5:8, V6:8, V7:8
        CFI Resource V8:8, V9:8, V10:8, V11:8, V12:8, V13:8, V14:8, V15:8, SP:8
        CFI Resource PSPH:8, PSPL:8, PSP16:16, XSPH:8, XSPL:8, XSP16:16
        CFI VirtualResource ?RET:24
        CFI Resource ?BRET_EXT:8
        CFI VirtualResource ?RET_HIGH:8, ?RET_LOW:8
        CFI ResourceParts PSP16 PSPH, PSPL
        CFI ResourceParts XSP16 XSPH, XSPL
        CFI ResourceParts ?RET ?BRET_EXT, ?RET_HIGH, ?RET_LOW
        CFI EndNames cfiNames0
        
        CFI Common cfiCommon0 Using cfiNames0
        CFI CodeAlign 1
        CFI DataAlign -1
        CFI ReturnAddress ?RET CODE
        CFI CFA_DOVERLAY Used
        CFI CFA_IOVERLAY Used
        CFI CFA_SP SP+-3
        CFI CFA_PSP16 PSP16+0
        CFI CFA_XSP16 XSP16+0
        CFI `PSW.CY` SameValue
        CFI `B.BR0` SameValue
        CFI `B.BR1` SameValue
        CFI `B.BR2` SameValue
        CFI `B.BR3` SameValue
        CFI `B.BR4` SameValue
        CFI `B.BR5` SameValue
        CFI `B.BR6` SameValue
        CFI `B.BR7` SameValue
        CFI `VB.BR8` SameValue
        CFI `VB.BR9` SameValue
        CFI `VB.BR10` SameValue
        CFI `VB.BR11` SameValue
        CFI `VB.BR12` SameValue
        CFI `VB.BR13` SameValue
        CFI `VB.BR14` SameValue
        CFI `VB.BR15` SameValue
        CFI VB SameValue
        CFI B Undefined
        CFI A Undefined
        CFI PSW SameValue
        CFI DPL0 SameValue
        CFI DPH0 SameValue
        CFI R0 Undefined
        CFI R1 Undefined
        CFI R2 Undefined
        CFI R3 Undefined
        CFI R4 Undefined
        CFI R5 Undefined
        CFI R6 SameValue
        CFI R7 SameValue
        CFI V0 SameValue
        CFI V1 SameValue
        CFI V2 SameValue
        CFI V3 SameValue
        CFI V4 SameValue
        CFI V5 SameValue
        CFI V6 SameValue
        CFI V7 SameValue
        CFI V8 SameValue
        CFI V9 SameValue
        CFI V10 SameValue
        CFI V11 SameValue
        CFI V12 SameValue
        CFI V13 SameValue
        CFI V14 SameValue
        CFI V15 SameValue
        CFI PSPH Undefined
        CFI PSPL Undefined
        CFI XSPH Undefined
        CFI XSPL Undefined
        CFI ?RET Concat
        CFI ?BRET_EXT Frame(CFA_SP, 3)
        CFI ?RET_HIGH Frame(CFA_SP, 2)
        CFI ?RET_LOW Frame(CFA_SP, 1)
        CFI EndCommon cfiCommon0
        
        
        CFI Common cfiCommon1 Using cfiNames0
        CFI CodeAlign 1
        CFI DataAlign -1
        CFI ReturnAddress ?RET CODE
        CFI CFA_DOVERLAY Used
        CFI CFA_IOVERLAY Used
        CFI CFA_SP SP+-2
        CFI CFA_PSP16 PSP16+0
        CFI CFA_XSP16 XSP16+0
        CFI `PSW.CY` SameValue
        CFI `B.BR0` SameValue
        CFI `B.BR1` SameValue
        CFI `B.BR2` SameValue
        CFI `B.BR3` SameValue
        CFI `B.BR4` SameValue
        CFI `B.BR5` SameValue
        CFI `B.BR6` SameValue
        CFI `B.BR7` SameValue
        CFI `VB.BR8` SameValue
        CFI `VB.BR9` SameValue
        CFI `VB.BR10` SameValue
        CFI `VB.BR11` SameValue
        CFI `VB.BR12` SameValue
        CFI `VB.BR13` SameValue
        CFI `VB.BR14` SameValue
        CFI `VB.BR15` SameValue
        CFI VB SameValue
        CFI B SameValue
        CFI A SameValue
        CFI PSW SameValue
        CFI DPL0 SameValue
        CFI DPH0 SameValue
        CFI R0 SameValue
        CFI R1 SameValue
        CFI R2 SameValue
        CFI R3 SameValue
        CFI R4 SameValue
        CFI R5 SameValue
        CFI R6 SameValue
        CFI R7 SameValue
        CFI V0 SameValue
        CFI V1 SameValue
        CFI V2 SameValue
        CFI V3 SameValue
        CFI V4 SameValue
        CFI V5 SameValue
        CFI V6 SameValue
        CFI V7 SameValue
        CFI V8 SameValue
        CFI V9 SameValue
        CFI V10 SameValue
        CFI V11 SameValue
        CFI V12 SameValue
        CFI V13 SameValue
        CFI V14 SameValue
        CFI V15 SameValue
        CFI PSPH Undefined
        CFI PSPL Undefined
        CFI XSPH Undefined
        CFI XSPL Undefined
        CFI ?RET Concat
        CFI ?BRET_EXT SameValue
        CFI ?RET_HIGH Frame(CFA_SP, 2)
        CFI ?RET_LOW Frame(CFA_SP, 1)
        CFI EndCommon cfiCommon1
        
afRegister          SYMBOL "afRegister"
HalLedSet           SYMBOL "HalLedSet"
BluetoothInit       SYMBOL "BluetoothInit"
osal_msg_receive    SYMBOL "osal_msg_receive"
Bluetooth_Handle    SYMBOL "Bluetooth_Handle"
osal_msg_deallocate SYMBOL "osal_msg_deallocate"
zb_ReadConfiguration SYMBOL "zb_ReadConfiguration"
zb_WriteConfiguration SYMBOL "zb_WriteConfiguration"
zb_SystemReset      SYMBOL "zb_SystemReset"
osal_strlen         SYMBOL "osal_strlen"
AF_DataRequest      SYMBOL "AF_DataRequest"
osal_start_timerEx  SYMBOL "osal_start_timerEx"
NLME_IsAddressBroadcast SYMBOL "NLME_IsAddressBroadcast"
zb_StartRequest     SYMBOL "zb_StartRequest"
osal_msg_allocate   SYMBOL "osal_msg_allocate"
osal_msg_send       SYMBOL "osal_msg_send"
osal_mem_alloc      SYMBOL "osal_mem_alloc"
osal_memset         SYMBOL "osal_memset"
macTaskInit         SYMBOL "macTaskInit"
nwk_init            SYMBOL "nwk_init"
Hal_Init            SYMBOL "Hal_Init"
APS_Init            SYMBOL "APS_Init"
ZDApp_Init          SYMBOL "ZDApp_Init"
Button_Init         SYMBOL "Button_Init"
Motor_Init          SYMBOL "Motor_Init"
Switch_Init         SYMBOL "Switch_Init"
SAPI_Init           SYMBOL "SAPI_Init"
??AF_DataRequest?relay SYMBOL "?relay", AF_DataRequest
??APS_Init?relay    SYMBOL "?relay", APS_Init
`?<Name APS_event_loop 29>` SYMBOL "APS_event_loop"
??APS_event_loop?relay SYMBOL "?relay", `?<Name APS_event_loop 29>`
??BluetoothInit?relay SYMBOL "?relay", BluetoothInit
??Bluetooth_Handle?relay SYMBOL "?relay", Bluetooth_Handle
??Button_Init?relay SYMBOL "?relay", Button_Init
`?<Name Button_ProcessEvent 34>` SYMBOL "Button_ProcessEvent"
??Button_ProcessEvent?relay SYMBOL "?relay", `?<Name Button_ProcessEvent 34>`
??HalLedSet?relay   SYMBOL "?relay", HalLedSet
??Hal_Init?relay    SYMBOL "?relay", Hal_Init
`?<Name Hal_ProcessEvent 38>` SYMBOL "Hal_ProcessEvent"
??Hal_ProcessEvent?relay SYMBOL "?relay", `?<Name Hal_ProcessEvent 38>`
??Motor_Init?relay  SYMBOL "?relay", Motor_Init
`?<Name Motor_ProcessEvent 41>` SYMBOL "Motor_ProcessEvent"
??Motor_ProcessEvent?relay SYMBOL "?relay", `?<Name Motor_ProcessEvent 41>`
??NLME_IsAddressBroadcast?relay SYMBOL "?relay", NLME_IsAddressBroadcast
??SAPI_Init?relay   SYMBOL "?relay", SAPI_Init
`?<Name SAPI_ProcessEvent 45>` SYMBOL "SAPI_ProcessEvent"
??SAPI_ProcessEvent?relay SYMBOL "?relay", `?<Name SAPI_ProcessEvent 45>`
??Switch_Init?relay SYMBOL "?relay", Switch_Init
`?<Name Switch_ProcessEvent 48>` SYMBOL "Switch_ProcessEvent"
??Switch_ProcessEvent?relay SYMBOL "?relay", `?<Name Switch_ProcessEvent 48>`
??ZDApp_Init?relay  SYMBOL "?relay", ZDApp_Init
`?<Name ZDApp_event_loop 51>` SYMBOL "ZDApp_event_loop"
??ZDApp_event_loop?relay SYMBOL "?relay", `?<Name ZDApp_event_loop 51>`
??afRegister?relay  SYMBOL "?relay", afRegister
`?<Name macEventLoop 54>` SYMBOL "macEventLoop"
??macEventLoop?relay SYMBOL "?relay", `?<Name macEventLoop 54>`
??macTaskInit?relay SYMBOL "?relay", macTaskInit
`?<Name nwk_event_loop 57>` SYMBOL "nwk_event_loop"
??nwk_event_loop?relay SYMBOL "?relay", `?<Name nwk_event_loop 57>`
??nwk_init?relay    SYMBOL "?relay", nwk_init
??osal_mem_alloc?relay SYMBOL "?relay", osal_mem_alloc
??osal_memset?relay SYMBOL "?relay", osal_memset
??osal_msg_allocate?relay SYMBOL "?relay", osal_msg_allocate
??osal_msg_deallocate?relay SYMBOL "?relay", osal_msg_deallocate
??osal_msg_receive?relay SYMBOL "?relay", osal_msg_receive
??osal_msg_send?relay SYMBOL "?relay", osal_msg_send
??osal_start_timerEx?relay SYMBOL "?relay", osal_start_timerEx
??osal_strlen?relay SYMBOL "?relay", osal_strlen
??zb_ReadConfiguration?relay SYMBOL "?relay", zb_ReadConfiguration
??zb_StartRequest?relay SYMBOL "?relay", zb_StartRequest
??zb_SystemReset?relay SYMBOL "?relay", zb_SystemReset
??zb_WriteConfiguration?relay SYMBOL "?relay", zb_WriteConfiguration
Sys_BindConfirm     SYMBOL "Sys_BindConfirm"
??Sys_BindConfirm?relay SYMBOL "?relay", Sys_BindConfirm
Sys_Init            SYMBOL "Sys_Init"
??Sys_Init?relay    SYMBOL "?relay", Sys_Init
Sys_MessageMSGCB    SYMBOL "Sys_MessageMSGCB"
??Sys_MessageMSGCB?relay SYMBOL "?relay", Sys_MessageMSGCB
Sys_ProcessEvent    SYMBOL "Sys_ProcessEvent"
??Sys_ProcessEvent?relay SYMBOL "?relay", Sys_ProcessEvent
Sys_ProcessZDOMsgs  SYMBOL "Sys_ProcessZDOMsgs"
??Sys_ProcessZDOMsgs?relay SYMBOL "?relay", Sys_ProcessZDOMsgs
Sys_SendCback       SYMBOL "Sys_SendCback"
??Sys_SendCback?relay SYMBOL "?relay", Sys_SendCback
Sys_SendDataConfirm SYMBOL "Sys_SendDataConfirm"
??Sys_SendDataConfirm?relay SYMBOL "?relay", Sys_SendDataConfirm
Sys_SendDataRequest SYMBOL "Sys_SendDataRequest"
??Sys_SendDataRequest?relay SYMBOL "?relay", Sys_SendDataRequest
Sys_SendPreBindMessage SYMBOL "Sys_SendPreBindMessage"
??Sys_SendPreBindMessage?relay SYMBOL "?relay", Sys_SendPreBindMessage
osalInitTasks       SYMBOL "osalInitTasks"
??osalInitTasks?relay SYMBOL "?relay", osalInitTasks
zb_FindDeviceConfirm SYMBOL "zb_FindDeviceConfirm"
??zb_FindDeviceConfirm?relay SYMBOL "?relay", zb_FindDeviceConfirm
zb_HandleOsalEvent  SYMBOL "zb_HandleOsalEvent"
??zb_HandleOsalEvent?relay SYMBOL "?relay", zb_HandleOsalEvent
zb_StartConfirm     SYMBOL "zb_StartConfirm"
??zb_StartConfirm?relay SYMBOL "?relay", zb_StartConfirm

        EXTERN afRegister
        FUNCTION afRegister,0202H
        ARGFRAME ISTACK, 0, STACK
        ARGFRAME PSTACK, 0, STACK
        ARGFRAME XSTACK, 9, STACK
        ARGFRAME IOVERLAY, 0, STATIC
        ARGFRAME DOVERLAY, 0, STATIC
        EXTERN HalLedSet
        FUNCTION HalLedSet,0202H
        ARGFRAME ISTACK, 2, STACK
        ARGFRAME PSTACK, 0, STACK
        ARGFRAME XSTACK, 28, STACK
        ARGFRAME IOVERLAY, 0, STATIC
        ARGFRAME DOVERLAY, 0, STATIC
        EXTERN BluetoothInit
        FUNCTION BluetoothInit,0202H
        ARGFRAME ISTACK, 0, STACK
        ARGFRAME PSTACK, 0, STACK
        ARGFRAME XSTACK, 9, STACK
        ARGFRAME IOVERLAY, 0, STATIC
        ARGFRAME DOVERLAY, 0, STATIC
        EXTERN osal_msg_receive
        FUNCTION osal_msg_receive,0202H
        ARGFRAME ISTACK, 0, STACK
        ARGFRAME PSTACK, 0, STACK
        ARGFRAME XSTACK, 16, STACK
        ARGFRAME IOVERLAY, 0, STATIC
        ARGFRAME DOVERLAY, 0, STATIC
        EXTERN Bluetooth_Handle
        FUNCTION Bluetooth_Handle,0202H
        ARGFRAME ISTACK, 0, STACK
        ARGFRAME PSTACK, 0, STACK
        ARGFRAME XSTACK, 16, STACK
        ARGFRAME IOVERLAY, 0, STATIC
        ARGFRAME DOVERLAY, 0, STATIC
        EXTERN osal_msg_deallocate
        FUNCTION osal_msg_deallocate,0202H
        ARGFRAME ISTACK, 0, STACK
        ARGFRAME PSTACK, 0, STACK
        ARGFRAME XSTACK, 16, STACK
        ARGFRAME IOVERLAY, 0, STATIC
        ARGFRAME DOVERLAY, 0, STATIC
        EXTERN zb_ReadConfiguration
        FUNCTION zb_ReadConfiguration,0202H
        ARGFRAME ISTACK, 0, STACK
        ARGFRAME PSTACK, 0, STACK
        ARGFRAME XSTACK, 16, STACK
        ARGFRAME IOVERLAY, 0, STATIC
        ARGFRAME DOVERLAY, 0, STATIC
        EXTERN zb_WriteConfiguration
        FUNCTION zb_WriteConfiguration,0202H
        ARGFRAME ISTACK, 0, STACK
        ARGFRAME PSTACK, 0, STACK
        ARGFRAME XSTACK, 16, STACK
        ARGFRAME IOVERLAY, 0, STATIC
        ARGFRAME DOVERLAY, 0, STATIC
        EXTERN zb_SystemReset
        FUNCTION zb_SystemReset,0202H
        ARGFRAME ISTACK, 0, STACK
        ARGFRAME PSTACK, 0, STACK
        ARGFRAME XSTACK, 16, STACK
        ARGFRAME IOVERLAY, 0, STATIC
        ARGFRAME DOVERLAY, 0, STATIC
        EXTERN osal_strlen
        FUNCTION osal_strlen,0202H
        ARGFRAME ISTACK, 0, STACK
        ARGFRAME PSTACK, 0, STACK
        ARGFRAME XSTACK, 33, STACK
        ARGFRAME IOVERLAY, 0, STATIC
        ARGFRAME DOVERLAY, 0, STATIC
        EXTERN AF_DataRequest
        FUNCTION AF_DataRequest,0202H
        ARGFRAME ISTACK, 0, STACK
        ARGFRAME PSTACK, 0, STACK
        ARGFRAME XSTACK, 37, STACK
        ARGFRAME IOVERLAY, 0, STATIC
        ARGFRAME DOVERLAY, 0, STATIC
        EXTERN osal_start_timerEx
        FUNCTION osal_start_timerEx,0202H
        ARGFRAME ISTACK, 0, STACK
        ARGFRAME PSTACK, 0, STACK
        ARGFRAME XSTACK, 28, STACK
        ARGFRAME IOVERLAY, 0, STATIC
        ARGFRAME DOVERLAY, 0, STATIC
        EXTERN NLME_IsAddressBroadcast
        FUNCTION NLME_IsAddressBroadcast,0202H
        ARGFRAME ISTACK, 0, STACK
        ARGFRAME PSTACK, 0, STACK
        ARGFRAME XSTACK, 28, STACK
        ARGFRAME IOVERLAY, 0, STATIC
        ARGFRAME DOVERLAY, 0, STATIC
        EXTERN zb_StartRequest
        FUNCTION zb_StartRequest,0202H
        ARGFRAME ISTACK, 2, STACK
        ARGFRAME PSTACK, 0, STACK
        ARGFRAME XSTACK, 0, STACK
        ARGFRAME IOVERLAY, 0, STATIC
        ARGFRAME DOVERLAY, 0, STATIC
        EXTERN osal_msg_allocate
        FUNCTION osal_msg_allocate,0202H
        ARGFRAME ISTACK, 0, STACK
        ARGFRAME PSTACK, 0, STACK
        ARGFRAME XSTACK, 12, STACK
        ARGFRAME IOVERLAY, 0, STATIC
        ARGFRAME DOVERLAY, 0, STATIC
        EXTERN osal_msg_send
        FUNCTION osal_msg_send,0202H
        ARGFRAME ISTACK, 0, STACK
        ARGFRAME PSTACK, 0, STACK
        ARGFRAME XSTACK, 12, STACK
        ARGFRAME IOVERLAY, 0, STATIC
        ARGFRAME DOVERLAY, 0, STATIC
        EXTERN osal_mem_alloc
        FUNCTION osal_mem_alloc,0202H
        ARGFRAME ISTACK, 2, STACK
        ARGFRAME PSTACK, 0, STACK
        ARGFRAME XSTACK, 0, STACK
        ARGFRAME IOVERLAY, 0, STATIC
        ARGFRAME DOVERLAY, 0, STATIC
        EXTERN osal_memset
        FUNCTION osal_memset,0202H
        ARGFRAME ISTACK, 2, STACK
        ARGFRAME PSTACK, 0, STACK
        ARGFRAME XSTACK, 0, STACK
        ARGFRAME IOVERLAY, 0, STATIC
        ARGFRAME DOVERLAY, 0, STATIC
        EXTERN macTaskInit
        FUNCTION macTaskInit,0202H
        ARGFRAME ISTACK, 2, STACK
        ARGFRAME PSTACK, 0, STACK
        ARGFRAME XSTACK, 0, STACK
        ARGFRAME IOVERLAY, 0, STATIC
        ARGFRAME DOVERLAY, 0, STATIC
        EXTERN nwk_init
        FUNCTION nwk_init,0202H
        ARGFRAME ISTACK, 2, STACK
        ARGFRAME PSTACK, 0, STACK
        ARGFRAME XSTACK, 0, STACK
        ARGFRAME IOVERLAY, 0, STATIC
        ARGFRAME DOVERLAY, 0, STATIC
        EXTERN Hal_Init
        FUNCTION Hal_Init,0202H
        ARGFRAME ISTACK, 2, STACK
        ARGFRAME PSTACK, 0, STACK
        ARGFRAME XSTACK, 0, STACK
        ARGFRAME IOVERLAY, 0, STATIC
        ARGFRAME DOVERLAY, 0, STATIC
        EXTERN APS_Init
        FUNCTION APS_Init,0202H
        ARGFRAME ISTACK, 2, STACK
        ARGFRAME PSTACK, 0, STACK
        ARGFRAME XSTACK, 0, STACK
        ARGFRAME IOVERLAY, 0, STATIC
        ARGFRAME DOVERLAY, 0, STATIC
        EXTERN ZDApp_Init
        FUNCTION ZDApp_Init,0202H
        ARGFRAME ISTACK, 2, STACK
        ARGFRAME PSTACK, 0, STACK
        ARGFRAME XSTACK, 0, STACK
        ARGFRAME IOVERLAY, 0, STATIC
        ARGFRAME DOVERLAY, 0, STATIC
        EXTERN Button_Init
        FUNCTION Button_Init,0202H
        ARGFRAME ISTACK, 2, STACK
        ARGFRAME PSTACK, 0, STACK
        ARGFRAME XSTACK, 0, STACK
        ARGFRAME IOVERLAY, 0, STATIC
        ARGFRAME DOVERLAY, 0, STATIC
        EXTERN Motor_Init
        FUNCTION Motor_Init,0202H
        ARGFRAME ISTACK, 2, STACK
        ARGFRAME PSTACK, 0, STACK
        ARGFRAME XSTACK, 0, STACK
        ARGFRAME IOVERLAY, 0, STATIC
        ARGFRAME DOVERLAY, 0, STATIC
        EXTERN Switch_Init
        FUNCTION Switch_Init,0202H
        ARGFRAME ISTACK, 2, STACK
        ARGFRAME PSTACK, 0, STACK
        ARGFRAME XSTACK, 0, STACK
        ARGFRAME IOVERLAY, 0, STATIC
        ARGFRAME DOVERLAY, 0, STATIC
        EXTERN SAPI_Init
        FUNCTION SAPI_Init,0202H
        ARGFRAME ISTACK, 2, STACK
        ARGFRAME PSTACK, 0, STACK
        ARGFRAME XSTACK, 0, STACK
        ARGFRAME IOVERLAY, 0, STATIC
        ARGFRAME DOVERLAY, 0, STATIC
        EXTERN ??AF_DataRequest?relay
        FUNCTION ??AF_DataRequest?relay,00H
        EXTERN ??APS_Init?relay
        FUNCTION ??APS_Init?relay,00H
        EXTERN ??APS_event_loop?relay
        FUNCTION ??APS_event_loop?relay,00H
        EXTERN ??BluetoothInit?relay
        FUNCTION ??BluetoothInit?relay,00H
        EXTERN ??Bluetooth_Handle?relay
        FUNCTION ??Bluetooth_Handle?relay,00H
        EXTERN ??Button_Init?relay
        FUNCTION ??Button_Init?relay,00H
        EXTERN ??Button_ProcessEvent?relay
        FUNCTION ??Button_ProcessEvent?relay,00H
        EXTERN ??HalLedSet?relay
        FUNCTION ??HalLedSet?relay,00H
        EXTERN ??Hal_Init?relay
        FUNCTION ??Hal_Init?relay,00H
        EXTERN ??Hal_ProcessEvent?relay
        FUNCTION ??Hal_ProcessEvent?relay,00H
        EXTERN ??Motor_Init?relay
        FUNCTION ??Motor_Init?relay,00H
        EXTERN ??Motor_ProcessEvent?relay
        FUNCTION ??Motor_ProcessEvent?relay,00H
        EXTERN ??NLME_IsAddressBroadcast?relay
        FUNCTION ??NLME_IsAddressBroadcast?relay,00H
        EXTERN ??SAPI_Init?relay
        FUNCTION ??SAPI_Init?relay,00H
        EXTERN ??SAPI_ProcessEvent?relay
        FUNCTION ??SAPI_ProcessEvent?relay,00H
        EXTERN ??Switch_Init?relay
        FUNCTION ??Switch_Init?relay,00H
        EXTERN ??Switch_ProcessEvent?relay
        FUNCTION ??Switch_ProcessEvent?relay,00H
        EXTERN ??ZDApp_Init?relay
        FUNCTION ??ZDApp_Init?relay,00H
        EXTERN ??ZDApp_event_loop?relay
        FUNCTION ??ZDApp_event_loop?relay,00H
        EXTERN ??afRegister?relay
        FUNCTION ??afRegister?relay,00H
        EXTERN ??macEventLoop?relay
        FUNCTION ??macEventLoop?relay,00H
        EXTERN ??macTaskInit?relay
        FUNCTION ??macTaskInit?relay,00H
        EXTERN ??nwk_event_loop?relay
        FUNCTION ??nwk_event_loop?relay,00H
        EXTERN ??nwk_init?relay
        FUNCTION ??nwk_init?relay,00H
        EXTERN ??osal_mem_alloc?relay
        FUNCTION ??osal_mem_alloc?relay,00H
        EXTERN ??osal_memset?relay
        FUNCTION ??osal_memset?relay,00H
        EXTERN ??osal_msg_allocate?relay
        FUNCTION ??osal_msg_allocate?relay,00H
        EXTERN ??osal_msg_deallocate?relay
        FUNCTION ??osal_msg_deallocate?relay,00H
        EXTERN ??osal_msg_receive?relay
        FUNCTION ??osal_msg_receive?relay,00H
        EXTERN ??osal_msg_send?relay
        FUNCTION ??osal_msg_send?relay,00H
        EXTERN ??osal_start_timerEx?relay
        FUNCTION ??osal_start_timerEx?relay,00H
        EXTERN ??osal_strlen?relay
        FUNCTION ??osal_strlen?relay,00H
        EXTERN ??zb_ReadConfiguration?relay
        FUNCTION ??zb_ReadConfiguration?relay,00H
        EXTERN ??zb_StartRequest?relay
        FUNCTION ??zb_StartRequest?relay,00H
        EXTERN ??zb_SystemReset?relay
        FUNCTION ??zb_SystemReset?relay,00H
        EXTERN ??zb_WriteConfiguration?relay
        FUNCTION ??zb_WriteConfiguration?relay,00H
        EXTERN Button_TaskID
        EXTERN Motor_TaskID
        EXTERN Switch_TaskID
        EXTERN zgDeviceLogicalType

// D:\ProgramData\Hardware\zigbee\Projects\zstack\Samples\SensorSys\Source\SensorSys_Coordinator.c
//    1 /**************************************************************************************************
//    2   Filename:       Sys.c
//    3   Revised:        $Date: 2009-03-18 15:56:27 -0700 (Wed, 18 Mar 2009) $
//    4   Revision:       $Revision: 19453 $
//    5 
//    6   Description:    Generic Application (no Profile).
//    7 
//    8 
//    9   Copyright 2004-2009 Texas Instruments Incorporated. All rights reserved.
//   10 
//   11   IMPORTANT: Your use of this Software is limited to those specific rights
//   12   granted under the terms of a software license agreement between the user
//   13   who downloaded the software, his/her employer (which must be your employer)
//   14   and Texas Instruments Incorporated (the "License").  You may not use this
//   15   Software unless you agree to abide by the terms of the License. The License
//   16   limits your use, and you acknowledge, that the Software may not be modified,
//   17   copied or distributed unless embedded on a Texas Instruments microcontroller
//   18   or used solely and exclusively in conjunction with a Texas Instruments radio
//   19   frequency transceiver, which is integrated into your product.  Other than for
//   20   the foregoing purpose, you may not use, reproduce, copy, prepare derivative
//   21   works of, modify, distribute, perform, display or sell this Software and/or
//   22   its documentation for any purpose.
//   23 
//   24   YOU FURTHER ACKNOWLEDGE AND AGREE THAT THE SOFTWARE AND DOCUMENTATION ARE
//   25   PROVIDED AS IS?WITHOUT WARRANTY OF ANY KIND, EITHER EXPRESS OR IMPLIED, 
//   26   INCLUDING WITHOUT LIMITATION, ANY WARRANTY OF MERCHANTABILITY, TITLE, 
//   27   NON-INFRINGEMENT AND FITNESS FOR A PARTICULAR PURPOSE. IN NO EVENT SHALL
//   28   TEXAS INSTRUMENTS OR ITS LICENSORS BE LIABLE OR OBLIGATED UNDER CONTRACT,
//   29   NEGLIGENCE, STRICT LIABILITY, CONTRIBUTION, BREACH OF WARRANTY, OR OTHER
//   30   LEGAL EQUITABLE THEORY ANY DIRECT OR INDIRECT DAMAGES OR EXPENSES
//   31   INCLUDING BUT NOT LIMITED TO ANY INCIDENTAL, SPECIAL, INDIRECT, PUNITIVE
//   32   OR CONSEQUENTIAL DAMAGES, LOST PROFITS OR LOST DATA, COST OF PROCUREMENT
//   33   OF SUBSTITUTE GOODS, TECHNOLOGY, SERVICES, OR ANY CLAIMS BY THIRD PARTIES
//   34   (INCLUDING BUT NOT LIMITED TO ANY DEFENSE THEREOF), OR OTHER SIMILAR COSTS.
//   35 
//   36   Should you have any questions regarding your right to use this Software,
//   37   contact Texas Instruments Incorporated at www.TI.com. 
//   38 **************************************************************************************************/
//   39 
//   40 /*********************************************************************
//   41   This application isn't intended to do anything useful, it is
//   42   intended to be a simple example of an application's structure.
//   43 
//   44   This application sends "Hello World" to another "Generic"
//   45   application every 15 seconds.  The application will also
//   46   receive "Hello World" packets.
//   47 
//   48   The "Hello World" messages are sent/received as MSG type message.
//   49 
//   50   This applications doesn't have a profile, so it handles everything
//   51   directly - itself.
//   52 
//   53   Key control:
//   54     SW1:
//   55     SW2:  initiates end device binding
//   56     SW3:
//   57     SW4:  initiates a match description request
//   58 *********************************************************************/
//   59 
//   60 /*********************************************************************
//   61  * INCLUDES
//   62  */
//   63 #include "AF.h"
//   64 #include "ZDObject.h"
//   65 #include "ZDProfile.h"
//   66 #include "sapi.h"
//   67 
//   68 #include "SensorSys_Coor.h"
//   69 #include "Bluetooth.h"
//   70 #include "MT_UART.h"
//   71 #include "MT.h"
//   72 #include "device.h"
//   73 #include "DebugTrace.h"
//   74 
//   75 #if !defined( WIN32 )
//   76   #include "OnBoard.h"
//   77 #endif
//   78 
//   79 /* HAL */
//   80 #include "hal_led.h"
//   81 #include "hal_key.h"
//   82 #include "hal_uart.h"
//   83 
//   84 #include "nwk.h"
//   85 // for SendDataRequest func
//   86 #include "NLMEDE.h"
//   87 #include "nwk_util.h"
//   88 
//   89 #include "APS.h"
//   90 #include "ZDApp.h"
//   91 #include "OSAL.h"
//   92 #include "OSAL_Tasks.h"
//   93 #include "ZComDef.h"
//   94 #include "hal_drivers.h"
//   95 /*********************************************************************
//   96  * MACROS
//   97  */
//   98 
//   99 /*********************************************************************
//  100  * CONSTANTS
//  101  */
//  102 
//  103 /*********************************************************************
//  104  * TYPEDEFS
//  105  */
//  106 // Message ID's for application user messages must be in 0xE0-0xEF range
//  107 //#define ZB_USER_MSG                       0xE0
//  108 #define SYSCB_DATA_CNF   0xE0
//  109 //#define SAPICB_BIND_CNF   0xE1
//  110 //#define SAPICB_START_CNF  0xE2
//  111 
//  112 /*********************************************************************
//  113  * GLOBAL VARIABLES
//  114  */

        RSEG XDATA_I:XDATA:NOROOT(0)
//  115 uint8 AppTitle[]="SensorAPP"; //应用程序名称
AppTitle:
        DATA8
        DS 10
        REQUIRE `?<Initializer for AppTitle>`
        REQUIRE __INIT_XDATA_I
//  116 
//  117 // Sys 端点的簇ID
//  118 // This list should be filled with Application specific Cluster IDs.

        RSEG XDATA_ROM_C:CONST:REORDER:NOROOT(0)
        DATA16
//  119 const cId_t Sys_ClusterList[SYS_MAX_CLUSTERS] =
Sys_ClusterList:
        DW 1
//  120 {
//  121   SYS_CLUSTERID
//  122 };
//  123 

        RSEG XDATA_ROM_C:CONST:REORDER:NOROOT(0)
        DATA16
//  124 const cId_t Zb_ClusterList[ZB_MAX_CLUSTERS] =
Zb_ClusterList:
        DW 2
//  125 {
//  126   ZB_CLUSTERID
//  127 };
//  128 
//  129 // Sys 端点简单描述符

        RSEG XDATA_ROM_C:CONST:REORDER:NOROOT(0)
        DATA8
//  130 const SimpleDescriptionFormat_t Sys_SimpleDesc =
Sys_SimpleDesc:
        DB 2
        DATA16
        DW 3844
        DW 1
        DATA8
        DB 0
        DB 1
        DATA16
        DW Sys_ClusterList
        DATA8
        DB 0
        DATA16
        DW 0H
//  131 {
//  132 	SYS_ENDPOINT,           //  int Endpoint;
//  133 	SYS_PROFID,                //  uint16 AppProfId[2];
//  134 	SYS_DEVICEID,              //  uint16 AppDeviceId[2];
//  135 	SYS_DEVICE_VERSION,        //  int   AppDevVer:4;
//  136 	SYS_FLAGS,                 //  int   AppFlags:4;
//  137 	SYS_MAX_CLUSTERS,          //  byte  AppNumInClusters;
//  138 	(cId_t *)Sys_ClusterList,  //  byte *pAppInClusterList;
//  139 	0,                         //  byte  AppNumInClusters;
//  140 	NULL   //  byte *pAppInClusterList;
//  141 };
//  142 

        RSEG XDATA_ROM_C:CONST:REORDER:NOROOT(0)
        DATA8
//  143 const SimpleDescriptionFormat_t zb_SimpleDesc =
zb_SimpleDesc:
        DB 3
        DATA16
        DW 3844
        DW 1
        DATA8
        DB 0
        DB 1
        DATA16
        DW Zb_ClusterList
        DATA8
        DB 1
        DATA16
        DW Zb_ClusterList
//  144 {
//  145 	ZB_ENDPOINT,           //  int Endpoint;
//  146 	SYS_PROFID,                //  uint16 AppProfId[2];
//  147 	SYS_DEVICEID,              //  uint16 AppDeviceId[2];
//  148 	SYS_DEVICE_VERSION,        //  int   AppDevVer:4;
//  149 	SYS_FLAGS,                 //  int   AppFlags:4;
//  150 	ZB_MAX_CLUSTERS,          //  byte  AppNumInClusters;
//  151 	(cId_t *)Zb_ClusterList,  //  byte *pAppInClusterList;
//  152 	ZB_MAX_CLUSTERS,          //  byte  AppNumInClusters;
//  153 	(cId_t *)Zb_ClusterList   //  byte *pAppInClusterList;
//  154 };
//  155 
//  156 // This is the Endpoint/Interface description.  It is defined here, but
//  157 // filled-in in Button_Init().  Another way to go would be to fill
//  158 // in the structure here and make it a "const" (in code space).  The
//  159 // way it's defined in this sample app it is define in RAM.

        RSEG XDATA_Z:XDATA:NOROOT(0)
        DATA8
//  160 endPointDesc_t Sys_epDesc;
Sys_epDesc:
        DS 6
        REQUIRE __INIT_XDATA_Z
//  161 
//  162 /*********************************************************************
//  163  * LOCAL VARIABLES
//  164  */

        RSEG XDATA_Z:XDATA:NOROOT(0)
        DATA8
//  165 uint8 myAppState = APP_INIT;
myAppState:
        DS 1
        REQUIRE __INIT_XDATA_Z
//  166 

        RSEG XDATA_Z:XDATA:NOROOT(0)
        DATA8
//  167 byte Sys_TaskID;
Sys_TaskID:
        DS 1
        REQUIRE __INIT_XDATA_Z
//  168 

        RSEG XDATA_Z:XDATA:NOROOT(0)
        DATA8
//  169 devStates_t Sys_NwkState;   // 节点现在的网络状态
Sys_NwkState:
        DS 1
        REQUIRE __INIT_XDATA_Z
//  170 
//  171 

        RSEG XDATA_Z:XDATA:NOROOT(0)
        DATA8
//  172 byte Sys_TransID;  // 数据包的发送ID，每发一个自增1
Sys_TransID:
        DS 1
        REQUIRE __INIT_XDATA_Z
//  173 

        RSEG XDATA_Z:XDATA:NOROOT(0)
        DATA8
//  174 uint8 sysSeqNumber = 0;    // 在端点间数据交流时被使用zb_SendDataRequest
sysSeqNumber:
        DS 1
        REQUIRE __INIT_XDATA_Z
//  175 

        RSEG XDATA_Z:XDATA:NOROOT(0)
        DATA16
//  176 uint16 sensor_bindInProgress;
sensor_bindInProgress:
        DS 2
        REQUIRE __INIT_XDATA_Z
//  177 /*********************************************************************
//  178  * LOCAL FUNCTIONS
//  179  */
//  180 void Sys_Init( byte task_id );
//  181 
//  182 UINT16 Sys_ProcessEvent( byte task_id, UINT16 events );
//  183 
//  184 void Sys_ProcessZDOMsgs( zdoIncomingMsg_t *inMsg );
//  185 
//  186 void Sys_MessageMSGCB( afIncomingMSGPacket_t *pckt, byte task_id );
//  187 void Sys_SendPreBindMessage( byte type_id );
//  188 void Sys_SendDataRequest ( uint16 destination, endPointDesc_t *epDesc, uint16 commandId, uint8 len,
//  189                           uint8 *pData, uint8 handle, uint8 ack, uint8 radius );
//  190 void Sys_SendCback( uint8 event, uint8 status, uint16 data );
//  191 
//  192 void Sys_SendDataConfirm( uint8 handle, uint8 status );
//  193 /*********************************************************************
//  194  * NETWORK LAYER CALLBACKS
//  195  */
//  196 
//  197 /*********************************************************************
//  198  * PUBLIC FUNCTIONS
//  199  */
//  200 
//  201 /*********************************************************************
//  202  * @fn      Sys_Init
//  203  *
//  204  * @brief   Initialization function for the Generic App Task.
//  205  *          This is called during initialization and should contain
//  206  *          any application specific initialization (ie. hardware
//  207  *          initialization/setup, table initialization, power up
//  208  *          notificaiton ... ).
//  209  *
//  210  * @param   task_id - the ID assigned by OSAL.  This ID should be
//  211  *                    used to send messages and set timers.
//  212  *
//  213  * @return  none
//  214  */

        RSEG BANKED_CODE:CODE:NOROOT(0)
//  215 void Sys_Init( byte task_id )
Sys_Init:
        CFI Block cfiBlock0 Using cfiCommon0
        CFI Function Sys_Init
        CODE
//  216 {
        FUNCALL Sys_Init, afRegister
        LOCFRAME ISTACK, 0, STACK
        LOCFRAME PSTACK, 0, STACK
        LOCFRAME XSTACK, 9, STACK
        LOCFRAME IOVERLAY, 0, STATIC
        LOCFRAME DOVERLAY, 0, STATIC
        ARGFRAME ISTACK, 0, STACK
        ARGFRAME PSTACK, 0, STACK
        ARGFRAME XSTACK, 9, STACK
        ARGFRAME IOVERLAY, 0, STATIC
        ARGFRAME DOVERLAY, 0, STATIC
        FUNCALL Sys_Init, HalLedSet
        LOCFRAME ISTACK, 0, STACK
        LOCFRAME PSTACK, 0, STACK
        LOCFRAME XSTACK, 9, STACK
        LOCFRAME IOVERLAY, 0, STATIC
        LOCFRAME DOVERLAY, 0, STATIC
        ARGFRAME ISTACK, 0, STACK
        ARGFRAME PSTACK, 0, STACK
        ARGFRAME XSTACK, 9, STACK
        ARGFRAME IOVERLAY, 0, STATIC
        ARGFRAME DOVERLAY, 0, STATIC
        FUNCALL Sys_Init, HalLedSet
        LOCFRAME ISTACK, 0, STACK
        LOCFRAME PSTACK, 0, STACK
        LOCFRAME XSTACK, 9, STACK
        LOCFRAME IOVERLAY, 0, STATIC
        LOCFRAME DOVERLAY, 0, STATIC
        ARGFRAME ISTACK, 0, STACK
        ARGFRAME PSTACK, 0, STACK
        ARGFRAME XSTACK, 9, STACK
        ARGFRAME IOVERLAY, 0, STATIC
        ARGFRAME DOVERLAY, 0, STATIC
        FUNCALL Sys_Init, HalLedSet
        LOCFRAME ISTACK, 0, STACK
        LOCFRAME PSTACK, 0, STACK
        LOCFRAME XSTACK, 9, STACK
        LOCFRAME IOVERLAY, 0, STATIC
        LOCFRAME DOVERLAY, 0, STATIC
        ARGFRAME ISTACK, 0, STACK
        ARGFRAME PSTACK, 0, STACK
        ARGFRAME XSTACK, 9, STACK
        ARGFRAME IOVERLAY, 0, STATIC
        ARGFRAME DOVERLAY, 0, STATIC
        FUNCALL Sys_Init, HalLedSet
        LOCFRAME ISTACK, 0, STACK
        LOCFRAME PSTACK, 0, STACK
        LOCFRAME XSTACK, 9, STACK
        LOCFRAME IOVERLAY, 0, STATIC
        LOCFRAME DOVERLAY, 0, STATIC
        ARGFRAME ISTACK, 0, STACK
        ARGFRAME PSTACK, 0, STACK
        ARGFRAME XSTACK, 9, STACK
        ARGFRAME IOVERLAY, 0, STATIC
        ARGFRAME DOVERLAY, 0, STATIC
        FUNCALL Sys_Init, BluetoothInit
        LOCFRAME ISTACK, 0, STACK
        LOCFRAME PSTACK, 0, STACK
        LOCFRAME XSTACK, 9, STACK
        LOCFRAME IOVERLAY, 0, STATIC
        LOCFRAME DOVERLAY, 0, STATIC
        ARGFRAME ISTACK, 0, STACK
        ARGFRAME PSTACK, 0, STACK
        ARGFRAME XSTACK, 9, STACK
        ARGFRAME IOVERLAY, 0, STATIC
        ARGFRAME DOVERLAY, 0, STATIC
        MOV     A,#-0x9
        LCALL   ?BANKED_ENTER_XDATA
        CFI DPH0 load(1, XDATA, add(CFA_XSP16, literal(-1)))
        CFI DPL0 load(1, XDATA, add(CFA_XSP16, literal(-2)))
        CFI ?BRET_EXT load(1, XDATA, add(CFA_XSP16, literal(-3)))
        CFI ?RET_HIGH load(1, XDATA, add(CFA_XSP16, literal(-4)))
        CFI ?RET_LOW load(1, XDATA, add(CFA_XSP16, literal(-5)))
        CFI R7 load(1, XDATA, add(CFA_XSP16, literal(-6)))
        CFI V0 load(1, XDATA, add(CFA_XSP16, literal(-7)))
        CFI VB load(1, XDATA, add(CFA_XSP16, literal(-8)))
        CFI R6 load(1, XDATA, add(CFA_XSP16, literal(-9)))
        CFI CFA_SP SP+0
        CFI CFA_XSP16 add(XSP16, 9)
        ; Saved register size: 9
        ; Auto size: 0
        MOV     A,R1
        MOV     R6,A
//  217   Sys_TaskID = task_id;
        MOV     DPTR,#Sys_TaskID
        MOVX    @DPTR,A
//  218 
//  219   // Fill out the endpoint description.
//  220   Sys_epDesc.endPoint = SYS_ENDPOINT;
        MOV     DPTR,#Sys_epDesc
        MOV     A,#0x2
        MOVX    @DPTR,A
//  221   Sys_epDesc.task_id = &Sys_TaskID;
        INC     DPTR
        MOV     A,#Sys_TaskID & 0xff
        MOVX    @DPTR,A
        INC     DPTR
        MOV     A,#(Sys_TaskID >> 8) & 0xff
        MOVX    @DPTR,A
//  222   Sys_epDesc.simpleDesc
//  223             = (SimpleDescriptionFormat_t *)&Sys_SimpleDesc;
        INC     DPTR
        MOV     A,#Sys_SimpleDesc & 0xff
        MOVX    @DPTR,A
        INC     DPTR
        MOV     A,#(Sys_SimpleDesc >> 8) & 0xff
        MOVX    @DPTR,A
//  224   Sys_epDesc.latencyReq = noLatencyReqs;
        INC     DPTR
        CLR     A
        MOVX    @DPTR,A
//  225 
//  226   // Register the endpoint description with the AF
//  227   afRegister( &Sys_epDesc );
        ; Setup parameters for call to function afRegister
        MOV     R2,#Sys_epDesc & 0xff
        MOV     R3,#(Sys_epDesc >> 8) & 0xff
        LCALL   ??afRegister?relay
//  228 
//  229   // Set device as Coordinator
//  230   zgDeviceLogicalType = ZG_DEVICETYPE_COORDINATOR;
        MOV     DPTR,#zgDeviceLogicalType
        CLR     A
        MOVX    @DPTR,A
//  231 
//  232   HalLedSet ( HAL_LED_1, HAL_LED_MODE_ON );
        ; Setup parameters for call to function HalLedSet
        LCALL   ?Subroutine2 & 0xFFFF
//  233   HalLedSet ( HAL_LED_2, HAL_LED_MODE_ON );
//  234   HalLedSet ( HAL_LED_3, HAL_LED_MODE_ON );
//  235   HalLedSet ( HAL_LED_4, HAL_LED_MODE_ON );
??CrossCallReturnLabel_0:
        ; Setup parameters for call to function HalLedSet
        MOV     R2,#0x1
        MOV     R1,#0x8
        LCALL   ??HalLedSet?relay
//  236   // To Initiallize
//  237   // osal_start_timerEx(task_id, CONFIG_OPTION_EVT, 5000);
//  238   
//  239   // USE Bluetooth
//  240   BluetoothInit(task_id);
        ; Setup parameters for call to function BluetoothInit
        MOV     A,R6
        MOV     R1,A
        LCALL   ??BluetoothInit?relay
        CFI EndBlock cfiBlock0
//  241 }
        REQUIRE ?Subroutine0
        ; // Fall through to label ?Subroutine0

        RSEG BANKED_CODE:CODE:NOROOT(0)
?Subroutine0:
        CFI Block cfiBlock1 Using cfiCommon0
        CFI NoFunction
        CFI CFA_SP SP+0
        CFI CFA_XSP16 add(XSP16, 9)
        CFI VB load(1, XDATA, add(CFA_XSP16, literal(-8)))
        CFI DPL0 load(1, XDATA, add(CFA_XSP16, literal(-2)))
        CFI DPH0 load(1, XDATA, add(CFA_XSP16, literal(-1)))
        CFI R6 load(1, XDATA, add(CFA_XSP16, literal(-9)))
        CFI R7 load(1, XDATA, add(CFA_XSP16, literal(-6)))
        CFI V0 load(1, XDATA, add(CFA_XSP16, literal(-7)))
        CFI ?BRET_EXT load(1, XDATA, add(CFA_XSP16, literal(-3)))
        CFI ?RET_HIGH load(1, XDATA, add(CFA_XSP16, literal(-4)))
        CFI ?RET_LOW load(1, XDATA, add(CFA_XSP16, literal(-5)))
        MOV     R7,#0x1
        LJMP    ?BANKED_LEAVE_XDATA
        CFI EndBlock cfiBlock1
//  242 
//  243 /*********************************************************************
//  244  * @fn      Sys_ProcessEvent
//  245  *
//  246  * @brief   Generic Application Task event processor.  This function
//  247  *          is called to process all events for the task.  Events
//  248  *          include timers, messages and any other user defined events.
//  249  *
//  250  * @param   task_id  - The OSAL assigned task ID.
//  251  * @param   events - events to process.  This is a bit map and can
//  252  *                   contain more than one event.
//  253  *
//  254  * @return  none
//  255  */

        RSEG BANKED_CODE:CODE:NOROOT(0)
//  256 UINT16 Sys_ProcessEvent( byte task_id, UINT16 events )
Sys_ProcessEvent:
        CFI Block cfiBlock2 Using cfiCommon0
        CFI Function Sys_ProcessEvent
        CODE
//  257 {
        FUNCALL Sys_ProcessEvent, osal_msg_receive
        LOCFRAME ISTACK, 0, STACK
        LOCFRAME PSTACK, 0, STACK
        LOCFRAME XSTACK, 16, STACK
        LOCFRAME IOVERLAY, 0, STATIC
        LOCFRAME DOVERLAY, 0, STATIC
        ARGFRAME ISTACK, 0, STACK
        ARGFRAME PSTACK, 0, STACK
        ARGFRAME XSTACK, 16, STACK
        ARGFRAME IOVERLAY, 0, STATIC
        ARGFRAME DOVERLAY, 0, STATIC
        FUNCALL Sys_ProcessEvent, Bluetooth_Handle
        LOCFRAME ISTACK, 0, STACK
        LOCFRAME PSTACK, 0, STACK
        LOCFRAME XSTACK, 16, STACK
        LOCFRAME IOVERLAY, 0, STATIC
        LOCFRAME DOVERLAY, 0, STATIC
        ARGFRAME ISTACK, 0, STACK
        ARGFRAME PSTACK, 0, STACK
        ARGFRAME XSTACK, 16, STACK
        ARGFRAME IOVERLAY, 0, STATIC
        ARGFRAME DOVERLAY, 0, STATIC
        FUNCALL Sys_ProcessEvent, osal_msg_deallocate
        LOCFRAME ISTACK, 0, STACK
        LOCFRAME PSTACK, 0, STACK
        LOCFRAME XSTACK, 16, STACK
        LOCFRAME IOVERLAY, 0, STATIC
        LOCFRAME DOVERLAY, 0, STATIC
        ARGFRAME ISTACK, 0, STACK
        ARGFRAME PSTACK, 0, STACK
        ARGFRAME XSTACK, 16, STACK
        ARGFRAME IOVERLAY, 0, STATIC
        ARGFRAME DOVERLAY, 0, STATIC
        FUNCALL Sys_ProcessEvent, osal_msg_receive
        LOCFRAME ISTACK, 0, STACK
        LOCFRAME PSTACK, 0, STACK
        LOCFRAME XSTACK, 16, STACK
        LOCFRAME IOVERLAY, 0, STATIC
        LOCFRAME DOVERLAY, 0, STATIC
        ARGFRAME ISTACK, 0, STACK
        ARGFRAME PSTACK, 0, STACK
        ARGFRAME XSTACK, 16, STACK
        ARGFRAME IOVERLAY, 0, STATIC
        ARGFRAME DOVERLAY, 0, STATIC
        FUNCALL Sys_ProcessEvent, Sys_ProcessZDOMsgs
        LOCFRAME ISTACK, 0, STACK
        LOCFRAME PSTACK, 0, STACK
        LOCFRAME XSTACK, 16, STACK
        LOCFRAME IOVERLAY, 0, STATIC
        LOCFRAME DOVERLAY, 0, STATIC
        ARGFRAME ISTACK, 0, STACK
        ARGFRAME PSTACK, 0, STACK
        ARGFRAME XSTACK, 16, STACK
        ARGFRAME IOVERLAY, 0, STATIC
        ARGFRAME DOVERLAY, 0, STATIC
        FUNCALL Sys_ProcessEvent, zb_ReadConfiguration
        LOCFRAME ISTACK, 0, STACK
        LOCFRAME PSTACK, 0, STACK
        LOCFRAME XSTACK, 16, STACK
        LOCFRAME IOVERLAY, 0, STATIC
        LOCFRAME DOVERLAY, 0, STATIC
        ARGFRAME ISTACK, 0, STACK
        ARGFRAME PSTACK, 0, STACK
        ARGFRAME XSTACK, 16, STACK
        ARGFRAME IOVERLAY, 0, STATIC
        ARGFRAME DOVERLAY, 0, STATIC
        FUNCALL Sys_ProcessEvent, zb_WriteConfiguration
        LOCFRAME ISTACK, 0, STACK
        LOCFRAME PSTACK, 0, STACK
        LOCFRAME XSTACK, 16, STACK
        LOCFRAME IOVERLAY, 0, STATIC
        LOCFRAME DOVERLAY, 0, STATIC
        ARGFRAME ISTACK, 0, STACK
        ARGFRAME PSTACK, 0, STACK
        ARGFRAME XSTACK, 16, STACK
        ARGFRAME IOVERLAY, 0, STATIC
        ARGFRAME DOVERLAY, 0, STATIC
        FUNCALL Sys_ProcessEvent, zb_ReadConfiguration
        LOCFRAME ISTACK, 0, STACK
        LOCFRAME PSTACK, 0, STACK
        LOCFRAME XSTACK, 16, STACK
        LOCFRAME IOVERLAY, 0, STATIC
        LOCFRAME DOVERLAY, 0, STATIC
        ARGFRAME ISTACK, 0, STACK
        ARGFRAME PSTACK, 0, STACK
        ARGFRAME XSTACK, 16, STACK
        ARGFRAME IOVERLAY, 0, STATIC
        ARGFRAME DOVERLAY, 0, STATIC
        FUNCALL Sys_ProcessEvent, zb_WriteConfiguration
        LOCFRAME ISTACK, 0, STACK
        LOCFRAME PSTACK, 0, STACK
        LOCFRAME XSTACK, 16, STACK
        LOCFRAME IOVERLAY, 0, STATIC
        LOCFRAME DOVERLAY, 0, STATIC
        ARGFRAME ISTACK, 0, STACK
        ARGFRAME PSTACK, 0, STACK
        ARGFRAME XSTACK, 16, STACK
        ARGFRAME IOVERLAY, 0, STATIC
        ARGFRAME DOVERLAY, 0, STATIC
        FUNCALL Sys_ProcessEvent, zb_SystemReset
        LOCFRAME ISTACK, 0, STACK
        LOCFRAME PSTACK, 0, STACK
        LOCFRAME XSTACK, 16, STACK
        LOCFRAME IOVERLAY, 0, STATIC
        LOCFRAME DOVERLAY, 0, STATIC
        ARGFRAME ISTACK, 0, STACK
        ARGFRAME PSTACK, 0, STACK
        ARGFRAME XSTACK, 16, STACK
        ARGFRAME IOVERLAY, 0, STATIC
        ARGFRAME DOVERLAY, 0, STATIC
        FUNCALL Sys_ProcessEvent, HalLedSet
        LOCFRAME ISTACK, 0, STACK
        LOCFRAME PSTACK, 0, STACK
        LOCFRAME XSTACK, 16, STACK
        LOCFRAME IOVERLAY, 0, STATIC
        LOCFRAME DOVERLAY, 0, STATIC
        ARGFRAME ISTACK, 0, STACK
        ARGFRAME PSTACK, 0, STACK
        ARGFRAME XSTACK, 16, STACK
        ARGFRAME IOVERLAY, 0, STATIC
        ARGFRAME DOVERLAY, 0, STATIC
        FUNCALL Sys_ProcessEvent, HalLedSet
        LOCFRAME ISTACK, 0, STACK
        LOCFRAME PSTACK, 0, STACK
        LOCFRAME XSTACK, 16, STACK
        LOCFRAME IOVERLAY, 0, STATIC
        LOCFRAME DOVERLAY, 0, STATIC
        ARGFRAME ISTACK, 0, STACK
        ARGFRAME PSTACK, 0, STACK
        ARGFRAME XSTACK, 16, STACK
        ARGFRAME IOVERLAY, 0, STATIC
        ARGFRAME DOVERLAY, 0, STATIC
        FUNCALL Sys_ProcessEvent, HalLedSet
        LOCFRAME ISTACK, 0, STACK
        LOCFRAME PSTACK, 0, STACK
        LOCFRAME XSTACK, 16, STACK
        LOCFRAME IOVERLAY, 0, STATIC
        LOCFRAME DOVERLAY, 0, STATIC
        ARGFRAME ISTACK, 0, STACK
        ARGFRAME PSTACK, 0, STACK
        ARGFRAME XSTACK, 16, STACK
        ARGFRAME IOVERLAY, 0, STATIC
        ARGFRAME DOVERLAY, 0, STATIC
        MOV     A,#-0xe
        LCALL   ?BANKED_ENTER_XDATA
        CFI DPH0 load(1, XDATA, add(CFA_XSP16, literal(-1)))
        CFI DPL0 load(1, XDATA, add(CFA_XSP16, literal(-2)))
        CFI ?BRET_EXT load(1, XDATA, add(CFA_XSP16, literal(-3)))
        CFI ?RET_HIGH load(1, XDATA, add(CFA_XSP16, literal(-4)))
        CFI ?RET_LOW load(1, XDATA, add(CFA_XSP16, literal(-5)))
        CFI R7 load(1, XDATA, add(CFA_XSP16, literal(-6)))
        CFI V5 load(1, XDATA, add(CFA_XSP16, literal(-7)))
        CFI V4 load(1, XDATA, add(CFA_XSP16, literal(-8)))
        CFI V3 load(1, XDATA, add(CFA_XSP16, literal(-9)))
        CFI V2 load(1, XDATA, add(CFA_XSP16, literal(-10)))
        CFI V1 load(1, XDATA, add(CFA_XSP16, literal(-11)))
        CFI V0 load(1, XDATA, add(CFA_XSP16, literal(-12)))
        CFI VB load(1, XDATA, add(CFA_XSP16, literal(-13)))
        CFI R6 load(1, XDATA, add(CFA_XSP16, literal(-14)))
        CFI CFA_SP SP+0
        CFI CFA_XSP16 add(XSP16, 14)
        ; Saved register size: 14
        ; Auto size: 2
        MOV     A,#-0x2
        LCALL   ?ALLOC_XSTACK8
        CFI CFA_XSP16 add(XSP16, 16)
        MOV     A,R2
        MOV     R6,A
        MOV     A,R3
        MOV     R7,A
//  258   afIncomingMSGPacket_t *MSGpkt = NULL;
//  259   afDataConfirm_t *afDataConfirm;
//  260   
//  261   // Data Confirmation message fields
//  262   byte sentEP;
//  263   ZStatus_t sentStatus;
//  264   byte sentTransID;       // This should match the value sent
//  265   (void)task_id;  // Intentionally unreferenced parameter
//  266 
//  267   if ( events & SYS_EVENT_MSG )
        ANL     A,#0x80
        JZ      ??Sys_ProcessEvent_0
//  268   {
//  269     MSGpkt = (afIncomingMSGPacket_t *)osal_msg_receive( task_id );
        ; Setup parameters for call to function osal_msg_receive
        SJMP    ??Sys_ProcessEvent_1
//  270     while ( MSGpkt )
//  271     {
//  272       switch ( MSGpkt->hdr.event )
//  273       {
//  274         case ZDO_CB_MSG:  // 收到被绑定节点的rsp
//  275           Sys_ProcessZDOMsgs( (zdoIncomingMsg_t *)MSGpkt/*, task_id */);
//  276           break;
//  277 
//  278         case AF_DATA_CONFIRM_CMD:
//  279           // This message is received as a confirmation of a data packet sent.
//  280           // The status is of ZStatus_t type [defined in ZComDef.h]
//  281           // The message fields are defined in AF.h
//  282           afDataConfirm = (afDataConfirm_t *)MSGpkt;
//  283           sentEP = afDataConfirm->endpoint;
//  284           sentStatus = afDataConfirm->hdr.status;
//  285           sentTransID = afDataConfirm->transID;
//  286           (void)sentEP;
//  287           (void)sentTransID;
//  288 
//  289           // Action taken when confirmation is received.
//  290           if ( sentStatus != ZSuccess )
//  291           {
//  292             // The data wasn't delivered -- Do something
//  293           }
//  294           break;
//  295 
//  296         case AF_INCOMING_MSG_CMD:
//  297           Sys_MessageMSGCB( MSGpkt, task_id );
//  298           break;
//  299 
//  300         case ZDO_STATE_CHANGE:
//  301           Sys_NwkState = (devStates_t)(MSGpkt->hdr.status);
//  302           if ( (Sys_NwkState == DEV_ZB_COORD) )
//  303           {
//  304           //	if(myAppState == APP_INIT)
//  305           //    osal_start_timerEx( task_id, CLOSE_LIGHT_EVT, 1000);  // 1s 后关了所有的灯
//  306             ;
//  307           }
//  308           
//  309           break;
//  310           
//  311         case SYSCB_DATA_CNF:        // Data sent CoNFirm CallBack function
//  312           Sys_SendDataConfirm( (uint8)((sys_CbackEvent_t *)MSGpkt)->data,
//  313                                     ((sys_CbackEvent_t *)MSGpkt)->hdr.status );
//  314           break;
//  315           
//  316         // Bluetooth cmd recived
//  317         case CMD_SERIAL_MSG:
//  318           Bluetooth_Handle(((mtOSALSerialData_t *)MSGpkt)->msg);
??Sys_ProcessEvent_2:
        ; Setup parameters for call to function Bluetooth_Handle
        INC     DPTR
        INC     DPTR
        MOVX    A,@DPTR
        MOV     R2,A
        INC     DPTR
        MOVX    A,@DPTR
        MOV     R3,A
        LCALL   ??Bluetooth_Handle?relay
//  319           
//  320           break;
//  321 
//  322         default:
//  323           break;
//  324       }
//  325 
//  326       // Release the memory
//  327       osal_msg_deallocate( (uint8 *)MSGpkt );
??Sys_ProcessEvent_3:
        ; Setup parameters for call to function osal_msg_deallocate
        MOV     R2,?V0 + 0
        MOV     R3,?V0 + 1
        LCALL   ??osal_msg_deallocate?relay
//  328 
//  329       // Next
//  330       MSGpkt = (afIncomingMSGPacket_t *)osal_msg_receive( Sys_TaskID );
        ; Setup parameters for call to function osal_msg_receive
        MOV     DPTR,#Sys_TaskID
        MOVX    A,@DPTR
        MOV     R1,A
??Sys_ProcessEvent_1:
        LCALL   ??osal_msg_receive?relay
        MOV     ?V0 + 0,R2
        MOV     ?V0 + 1,R3
        MOV     A,?V0 + 0
        ORL     A,?V0 + 1
        JZ      ??Sys_ProcessEvent_4
        MOV     DPL,?V0 + 0
        MOV     DPH,?V0 + 1
        MOVX    A,@DPTR
        DEC     A
        JZ      ??Sys_ProcessEvent_2
        ADD     A,#0x30
        JZ      ??Sys_ProcessEvent_5
        ADD     A,#-0x2
        JNZ     ??Sys_ProcessEvent_3
        ; Setup parameters for call to function Sys_ProcessZDOMsgs
        MOV     R2,?V0 + 0
        MOV     R3,?V0 + 1
        LCALL   ??Sys_ProcessZDOMsgs?relay
        SJMP    ??Sys_ProcessEvent_3
??Sys_ProcessEvent_5:
        INC     DPTR
        MOVX    A,@DPTR
        MOV     DPTR,#Sys_NwkState
        MOVX    @DPTR,A
        SJMP    ??Sys_ProcessEvent_3
//  331     }
//  332     // return unprocessed events
//  333     return (events ^ SYS_EVENT_MSG);
??Sys_ProcessEvent_4:
        MOV     A,R6
        MOV     R2,A
        MOV     A,R7
        XRL     A,#0x80
??Sys_ProcessEvent_6:
        MOV     R3,A
        SJMP    ??Sys_ProcessEvent_7
//  334   }
//  335 
//  336   if( events & CONFIG_OPTION_EVT )
??Sys_ProcessEvent_0:
        MOV     A,R6
        ANL     A,#0x10
        JZ      ??Sys_ProcessEvent_8
//  337   {
//  338     uint8 logicalType;
//  339     uint8 startOptions;
//  340     if ( myAppState == APP_INIT  )
        MOV     DPTR,#myAppState
        MOVX    A,@DPTR
        JNZ     ??Sys_ProcessEvent_9
//  341     {
//  342       zb_ReadConfiguration( ZCD_NV_LOGICAL_TYPE, sizeof(uint8), &logicalType );
        ; Setup parameters for call to function zb_ReadConfiguration
        MOV     DPL,?XSP + 0
        MOV     DPH,?XSP + 1
        MOV     R4,DPL
        MOV     R5,DPH
        MOV     R2,#0x1
        MOV     R1,#-0x79
        LCALL   ??zb_ReadConfiguration?relay
//  343       if ( logicalType != ZG_DEVICETYPE_ENDDEVICE )
        MOV     DPL,?XSP + 0
        MOV     DPH,?XSP + 1
        MOVX    A,@DPTR
        XRL     A,#0x2
        JZ      ??Sys_ProcessEvent_10
//  344       {
//  345         logicalType = ZG_DEVICETYPE_COORDINATOR;
        CLR     A
        MOVX    @DPTR,A
//  346         zb_WriteConfiguration(ZCD_NV_LOGICAL_TYPE, sizeof(uint8), &logicalType);
        ; Setup parameters for call to function zb_WriteConfiguration
        MOV     R4,DPL
        MOV     R5,DPH
        MOV     R2,#0x1
        MOV     R1,#-0x79
        LCALL   ??zb_WriteConfiguration?relay
//  347       }
//  348       // Do more configuration if necessary and then restart device with auto-start bit set
//  349       // write endpoint to simple desc...dont pass it in start req..then reset
//  350 
//  351       zb_ReadConfiguration( ZCD_NV_STARTUP_OPTION, sizeof(uint8), &startOptions );
??Sys_ProcessEvent_10:
        ; Setup parameters for call to function zb_ReadConfiguration
        MOV     A,#0x1
        LCALL   ?XSTACK_DISP0_8
        MOV     R4,DPL
        MOV     R5,DPH
        MOV     R2,#0x1
        MOV     R1,#0x3
        LCALL   ??zb_ReadConfiguration?relay
//  352       startOptions = ZCD_STARTOPT_AUTO_START;
        MOV     A,#0x1
        LCALL   ?XSTACK_DISP0_8
        MOV     A,#0x4
        MOVX    @DPTR,A
//  353       zb_WriteConfiguration( ZCD_NV_STARTUP_OPTION, sizeof(uint8), &startOptions );
        ; Setup parameters for call to function zb_WriteConfiguration
        MOV     R4,DPL
        MOV     R5,DPH
        MOV     R2,#0x1
        MOV     R1,#0x3
        LCALL   ??zb_WriteConfiguration?relay
//  354       zb_SystemReset();
        ; Setup parameters for call to function zb_SystemReset
        LCALL   ??zb_SystemReset?relay
//  355     }
//  356     return (events ^ CONFIG_OPTION_EVT);
??Sys_ProcessEvent_9:
        MOV     A,R6
        XRL     A,#0x10
??Sys_ProcessEvent_11:
        MOV     R2,A
        MOV     A,R7
        SJMP    ??Sys_ProcessEvent_6
//  357   }
//  358 
//  359   if(events & CLOSE_LIGHT_EVT)
??Sys_ProcessEvent_8:
        MOV     A,R6
        ANL     A,#0x8
        JZ      ??Sys_ProcessEvent_12
//  360   {
//  361     HalLedSet ( HAL_LED_1, HAL_LED_MODE_ON );
        ; Setup parameters for call to function HalLedSet
        LCALL   ?Subroutine2 & 0xFFFF
//  362     HalLedSet ( HAL_LED_2, HAL_LED_MODE_ON );
//  363     HalLedSet ( HAL_LED_3, HAL_LED_MODE_ON );
//  364     return (events ^ CLOSE_LIGHT_EVT);
??CrossCallReturnLabel_1:
        MOV     A,R6
        XRL     A,#0x8
        SJMP    ??Sys_ProcessEvent_11
//  365   }
//  366 
//  367   // Discard unknown events
//  368   return 0;
??Sys_ProcessEvent_12:
        MOV     R2,#0x0
        MOV     R3,#0x0
??Sys_ProcessEvent_7:
        MOV     A,#0x2
        LCALL   ?DEALLOC_XSTACK8
        CFI CFA_XSP16 add(XSP16, 14)
        MOV     R7,#0x6
        LJMP    ?BANKED_LEAVE_XDATA
        CFI EndBlock cfiBlock2
//  369 }

        RSEG BANKED_CODE:CODE:NOROOT(0)
?Subroutine2:
        CFI Block cfiCond3 Using cfiCommon0
        CFI NoFunction
        CFI Conditional ??CrossCallReturnLabel_0
        CFI R6 load(1, XDATA, add(CFA_XSP16, literal(-9)))
        CFI VB load(1, XDATA, add(CFA_XSP16, literal(-8)))
        CFI V0 load(1, XDATA, add(CFA_XSP16, literal(-7)))
        CFI R7 load(1, XDATA, add(CFA_XSP16, literal(-6)))
        CFI ?RET_LOW load(1, XDATA, add(CFA_XSP16, literal(-5)))
        CFI ?RET_HIGH load(1, XDATA, add(CFA_XSP16, literal(-4)))
        CFI ?BRET_EXT load(1, XDATA, add(CFA_XSP16, literal(-3)))
        CFI DPL0 load(1, XDATA, add(CFA_XSP16, literal(-2)))
        CFI DPH0 load(1, XDATA, add(CFA_XSP16, literal(-1)))
        CFI CFA_SP SP+0
        CFI CFA_XSP16 add(XSP16, 9)
        CFI Block cfiCond4 Using cfiCommon0
        CFI (cfiCond4) NoFunction
        CFI (cfiCond4) Conditional ??CrossCallReturnLabel_1
        CFI (cfiCond4) R6 load(1, XDATA, add(CFA_XSP16, literal(-14)))
        CFI (cfiCond4) VB load(1, XDATA, add(CFA_XSP16, literal(-13)))
        CFI (cfiCond4) V0 load(1, XDATA, add(CFA_XSP16, literal(-12)))
        CFI (cfiCond4) V1 load(1, XDATA, add(CFA_XSP16, literal(-11)))
        CFI (cfiCond4) V2 load(1, XDATA, add(CFA_XSP16, literal(-10)))
        CFI (cfiCond4) V3 load(1, XDATA, add(CFA_XSP16, literal(-9)))
        CFI (cfiCond4) V4 load(1, XDATA, add(CFA_XSP16, literal(-8)))
        CFI (cfiCond4) V5 load(1, XDATA, add(CFA_XSP16, literal(-7)))
        CFI (cfiCond4) R7 load(1, XDATA, add(CFA_XSP16, literal(-6)))
        CFI (cfiCond4) ?RET_LOW load(1, XDATA, add(CFA_XSP16, literal(-5)))
        CFI (cfiCond4) ?RET_HIGH load(1, XDATA, add(CFA_XSP16, literal(-4)))
        CFI (cfiCond4) ?BRET_EXT load(1, XDATA, add(CFA_XSP16, literal(-3)))
        CFI (cfiCond4) DPL0 load(1, XDATA, add(CFA_XSP16, literal(-2)))
        CFI (cfiCond4) DPH0 load(1, XDATA, add(CFA_XSP16, literal(-1)))
        CFI (cfiCond4) CFA_SP SP+0
        CFI (cfiCond4) CFA_XSP16 add(XSP16, 16)
        CFI Block cfiPicker5 Using cfiCommon1
        CFI (cfiPicker5) NoFunction
        CFI (cfiPicker5) Picker
        MOV     R2,#0x1
        MOV     R1,#0x1
        LCALL   ??HalLedSet?relay
        ; Setup parameters for call to function HalLedSet
        ; Setup parameters for call to function HalLedSet
        MOV     R2,#0x1
        MOV     R1,#0x2
        LCALL   ??HalLedSet?relay
        ; Setup parameters for call to function HalLedSet
        ; Setup parameters for call to function HalLedSet
        MOV     R2,#0x1
        MOV     R1,#0x4
        LCALL   ??HalLedSet?relay
        RET
        CFI EndBlock cfiCond3
        CFI EndBlock cfiCond4
        CFI EndBlock cfiPicker5
//  370 
//  371 /*********************************************************************
//  372  * Event Generation Functions
//  373  */
//  374 
//  375 /*********************************************************************
//  376  * @fn      Sys_ProcessZDOMsgs()
//  377  *
//  378  * @brief   Process response messages
//  379  *
//  380  * @param   none
//  381  *
//  382  * @return  none
//  383  */

        RSEG BANKED_CODE:CODE:NOROOT(0)
//  384 void Sys_ProcessZDOMsgs( zdoIncomingMsg_t *inMsg /*, byte task_id */)
Sys_ProcessZDOMsgs:
        CFI Block cfiBlock6 Using cfiCommon0
        CFI Function Sys_ProcessZDOMsgs
        CODE
//  385 {
        FUNCALL Sys_ProcessZDOMsgs, HalLedSet
        LOCFRAME ISTACK, 2, STACK
        LOCFRAME PSTACK, 0, STACK
        LOCFRAME XSTACK, 0, STACK
        LOCFRAME IOVERLAY, 0, STATIC
        LOCFRAME DOVERLAY, 0, STATIC
        ARGFRAME ISTACK, 2, STACK
        ARGFRAME PSTACK, 0, STACK
        ARGFRAME XSTACK, 0, STACK
        ARGFRAME IOVERLAY, 0, STATIC
        ARGFRAME DOVERLAY, 0, STATIC
        FUNCALL Sys_ProcessZDOMsgs, HalLedSet
        LOCFRAME ISTACK, 2, STACK
        LOCFRAME PSTACK, 0, STACK
        LOCFRAME XSTACK, 0, STACK
        LOCFRAME IOVERLAY, 0, STATIC
        LOCFRAME DOVERLAY, 0, STATIC
        ARGFRAME ISTACK, 2, STACK
        ARGFRAME PSTACK, 0, STACK
        ARGFRAME XSTACK, 0, STACK
        ARGFRAME IOVERLAY, 0, STATIC
        ARGFRAME DOVERLAY, 0, STATIC
        PUSH    DPL
        CFI DPL0 Frame(CFA_SP, 4)
        CFI CFA_SP SP+-4
        PUSH    DPH
        CFI DPH0 Frame(CFA_SP, 5)
        CFI CFA_SP SP+-5
        ; Saved register size: 2
        ; Auto size: 0
//  386 
//  387   switch ( inMsg->clusterID )
        MOV     A,R2
        ADD     A,#0xc
        MOV     DPL,A
        MOV     A,R3
        ADDC    A,#0x0
        MOV     DPH,A
        MOVX    A,@DPTR
        XRL     A,#0x20
        JNZ     ??Sys_ProcessZDOMsgs_0
        INC     DPTR
        MOVX    A,@DPTR
        XRL     A,#0x80
??Sys_ProcessZDOMsgs_0:
        JNZ     ??Sys_ProcessZDOMsgs_1
//  388   {
//  389     case End_Device_Bind_rsp:
//  390       if ( ZDO_ParseBindRsp( inMsg ) == ZSuccess )
        MOV     A,R2
        ADD     A,#0x13
        MOV     DPL,A
        MOV     A,R3
        ADDC    A,#0x0
        MOV     DPH,A
        LCALL   ?Subroutine3 & 0xFFFF
??CrossCallReturnLabel_2:
        JNZ     ??Sys_ProcessZDOMsgs_2
//  391       {
//  392         // Light LED
//  393         HalLedSet( HAL_LED_4, HAL_LED_MODE_ON );
        ; Setup parameters for call to function HalLedSet
        MOV     R2,#0x1
        SJMP    ??Sys_ProcessZDOMsgs_3
//  394       }
//  395 #if defined(BLINK_LEDS)
//  396       else
//  397       {
//  398         // Flash LED to show failure
//  399         HalLedSet ( HAL_LED_4, HAL_LED_MODE_FLASH );
??Sys_ProcessZDOMsgs_2:
        ; Setup parameters for call to function HalLedSet
        MOV     R2,#0x4
??Sys_ProcessZDOMsgs_3:
        MOV     R1,#0x8
        LCALL   ??HalLedSet?relay
        CFI EndBlock cfiBlock6
//  400       }
//  401 #endif
//  402       break;
//  403   }
//  404 }
??Sys_ProcessZDOMsgs_1:
        REQUIRE ?Subroutine1
        ; // Fall through to label ?Subroutine1

        RSEG BANKED_CODE:CODE:NOROOT(0)
?Subroutine1:
        CFI Block cfiBlock7 Using cfiCommon0
        CFI NoFunction
        CFI CFA_SP SP+-5
        CFI DPL0 Frame(CFA_SP, 4)
        CFI DPH0 Frame(CFA_SP, 5)
        POP     DPH
        CFI CFA_SP SP+-4
        CFI DPH0 SameValue
        POP     DPL
        CFI CFA_SP SP+-3
        CFI DPL0 SameValue
        LJMP    ?BRET
        CFI EndBlock cfiBlock7
//  405 
//  406 /*********************************************************************
//  407  * LOCAL FUNCTIONS
//  408  */
//  409 
//  410 /*********************************************************************
//  411  * @fn      Sys_MessageMSGCB
//  412  *
//  413  * @brief   Data message processor callback.  This function processes
//  414  *          any incoming data - probably from other devices.  So, based
//  415  *          on cluster ID, perform the intended action.
//  416  *
//  417  * @param   none
//  418  *
//  419  * @return  none
//  420  */

        RSEG BANKED_CODE:CODE:NOROOT(0)
//  421 void Sys_MessageMSGCB( afIncomingMSGPacket_t *pkt, byte task_id )
Sys_MessageMSGCB:
        CFI Block cfiBlock8 Using cfiCommon0
        CFI Function Sys_MessageMSGCB
        CODE
//  422 {
        ; Saved register size: 0
        ; Auto size: 0
//  423   switch ( pkt->clusterId )
//  424   {
//  425     
//  426   }
//  427 }
        LJMP    ?BRET
        CFI EndBlock cfiBlock8
//  428 
//  429 /*********************************************************************
//  430  * @fn      Sys_SendPreBindMessage
//  431  * * @brief   Broadcast prebind message.
//  432  *
//  433  *
//  434  * @param   type_id : 想要绑定的终端类型
//  435  *
//  436  * @return  none
//  437  */

        RSEG BANKED_CODE:CODE:NOROOT(0)
//  438 void Sys_SendPreBindMessage( byte type_id )
Sys_SendPreBindMessage:
        CFI Block cfiBlock9 Using cfiCommon0
        CFI Function Sys_SendPreBindMessage
        CODE
//  439 {
        FUNCALL Sys_SendPreBindMessage, osal_strlen
        LOCFRAME ISTACK, 0, STACK
        LOCFRAME PSTACK, 0, STACK
        LOCFRAME XSTACK, 33, STACK
        LOCFRAME IOVERLAY, 0, STATIC
        LOCFRAME DOVERLAY, 0, STATIC
        ARGFRAME ISTACK, 0, STACK
        ARGFRAME PSTACK, 0, STACK
        ARGFRAME XSTACK, 33, STACK
        ARGFRAME IOVERLAY, 0, STATIC
        ARGFRAME DOVERLAY, 0, STATIC
        FUNCALL Sys_SendPreBindMessage, AF_DataRequest
        LOCFRAME ISTACK, 0, STACK
        LOCFRAME PSTACK, 0, STACK
        LOCFRAME XSTACK, 37, STACK
        LOCFRAME IOVERLAY, 0, STATIC
        LOCFRAME DOVERLAY, 0, STATIC
        ARGFRAME ISTACK, 0, STACK
        ARGFRAME PSTACK, 0, STACK
        ARGFRAME XSTACK, 37, STACK
        ARGFRAME IOVERLAY, 0, STATIC
        ARGFRAME DOVERLAY, 0, STATIC
        FUNCALL Sys_SendPreBindMessage, osal_start_timerEx
        LOCFRAME ISTACK, 0, STACK
        LOCFRAME PSTACK, 0, STACK
        LOCFRAME XSTACK, 28, STACK
        LOCFRAME IOVERLAY, 0, STATIC
        LOCFRAME DOVERLAY, 0, STATIC
        ARGFRAME ISTACK, 0, STACK
        ARGFRAME PSTACK, 0, STACK
        ARGFRAME XSTACK, 28, STACK
        ARGFRAME IOVERLAY, 0, STATIC
        ARGFRAME DOVERLAY, 0, STATIC
        FUNCALL Sys_SendPreBindMessage, osal_start_timerEx
        LOCFRAME ISTACK, 0, STACK
        LOCFRAME PSTACK, 0, STACK
        LOCFRAME XSTACK, 28, STACK
        LOCFRAME IOVERLAY, 0, STATIC
        LOCFRAME DOVERLAY, 0, STATIC
        ARGFRAME ISTACK, 0, STACK
        ARGFRAME PSTACK, 0, STACK
        ARGFRAME XSTACK, 28, STACK
        ARGFRAME IOVERLAY, 0, STATIC
        ARGFRAME DOVERLAY, 0, STATIC
        FUNCALL Sys_SendPreBindMessage, osal_start_timerEx
        LOCFRAME ISTACK, 0, STACK
        LOCFRAME PSTACK, 0, STACK
        LOCFRAME XSTACK, 28, STACK
        LOCFRAME IOVERLAY, 0, STATIC
        LOCFRAME DOVERLAY, 0, STATIC
        ARGFRAME ISTACK, 0, STACK
        ARGFRAME PSTACK, 0, STACK
        ARGFRAME XSTACK, 28, STACK
        ARGFRAME IOVERLAY, 0, STATIC
        ARGFRAME DOVERLAY, 0, STATIC
        FUNCALL Sys_SendPreBindMessage, HalLedSet
        LOCFRAME ISTACK, 0, STACK
        LOCFRAME PSTACK, 0, STACK
        LOCFRAME XSTACK, 28, STACK
        LOCFRAME IOVERLAY, 0, STATIC
        LOCFRAME DOVERLAY, 0, STATIC
        ARGFRAME ISTACK, 0, STACK
        ARGFRAME PSTACK, 0, STACK
        ARGFRAME XSTACK, 28, STACK
        ARGFRAME IOVERLAY, 0, STATIC
        ARGFRAME DOVERLAY, 0, STATIC
        MOV     A,#-0xa
        LCALL   ?BANKED_ENTER_XDATA
        CFI DPH0 load(1, XDATA, add(CFA_XSP16, literal(-1)))
        CFI DPL0 load(1, XDATA, add(CFA_XSP16, literal(-2)))
        CFI ?BRET_EXT load(1, XDATA, add(CFA_XSP16, literal(-3)))
        CFI ?RET_HIGH load(1, XDATA, add(CFA_XSP16, literal(-4)))
        CFI ?RET_LOW load(1, XDATA, add(CFA_XSP16, literal(-5)))
        CFI R7 load(1, XDATA, add(CFA_XSP16, literal(-6)))
        CFI V1 load(1, XDATA, add(CFA_XSP16, literal(-7)))
        CFI V0 load(1, XDATA, add(CFA_XSP16, literal(-8)))
        CFI VB load(1, XDATA, add(CFA_XSP16, literal(-9)))
        CFI R6 load(1, XDATA, add(CFA_XSP16, literal(-10)))
        CFI CFA_SP SP+0
        CFI CFA_XSP16 add(XSP16, 10)
        ; Saved register size: 10
        ; Auto size: 18
        MOV     A,#-0x12
        LCALL   ?ALLOC_XSTACK8
        CFI CFA_XSP16 add(XSP16, 28)
        MOV     A,R1
        MOV     R6,A
//  440   afAddrType_t dstAddr;
//  441 
//  442   dstAddr.addr.shortAddr = 0xFFFF;
        MOV     A,#0x6
        LCALL   ?XSTACK_DISP0_8
        MOV     A,#-0x1
        MOVX    @DPTR,A
        INC     DPTR
        MOVX    @DPTR,A
//  443   dstAddr.addrMode = (afAddrMode_t)AddrBroadcast;
        MOV     A,#0xe
        LCALL   ?XSTACK_DISP0_8
        MOV     A,#0xf
        MOVX    @DPTR,A
//  444   dstAddr.endPoint = Sys_epDesc.simpleDesc->EndPoint;
        MOV     DPTR,#Sys_epDesc + 3
        LCALL   ?Subroutine3 & 0xFFFF
??CrossCallReturnLabel_3:
        PUSH    A
        CFI CFA_SP SP+-1
        MOV     A,#0xf
        LCALL   ?XSTACK_DISP0_8
        POP     A
        CFI CFA_SP SP+0
        MOVX    @DPTR,A
//  445 
//  446   char theMessageData[6] = "bind";
        MOV     DPL,?XSP + 0
        MOV     DPH,?XSP + 1
        MOV     R4,DPL
        MOV     R5,DPH
        MOV     DPH,#(`?<Constant "bind">` >> 8) & 0xff
        MOV     DPL,#`?<Constant "bind">` & 0xff
        MOV     A,#0x6
        LCALL   ?MOVE_LONG8_XDATA_XDATA
//  447   theMessageData[4] = type_id;
        MOV     A,#0x4
        LCALL   ?XSTACK_DISP0_8
        MOV     A,R1
        MOVX    @DPTR,A
//  448 //  theMessageData[5] = ep_id;
//  449   
//  450   if ( AF_DataRequest( &dstAddr, &Sys_epDesc,
//  451                        SYS_CLUSTERID,
//  452                        (byte)osal_strlen( theMessageData ) + 1,
//  453                        (byte *)&theMessageData,
//  454                        &Sys_TransID,
//  455                        AF_DISCV_ROUTE, AF_DEFAULT_RADIUS ) == afStatus_SUCCESS )
        ; Setup parameters for call to function AF_DataRequest
        MOV     ?V0 + 0,#0x1e
        MOV     R0,#?V0 + 0
        LCALL   ?PUSH_XSTACK_I_ONE
        CFI CFA_XSP16 add(XSP16, 29)
        MOV     ?V0 + 0,#Sys_TransID & 0xff
        MOV     ?V0 + 1,#(Sys_TransID >> 8) & 0xff
        MOV     R0,#?V0 + 0
        LCALL   ?PUSH_XSTACK_I_TWO
        CFI CFA_XSP16 add(XSP16, 31)
        MOV     A,#0x3
        LCALL   ?XSTACK_DISP0_8
        MOV     ?V0 + 0,DPL
        MOV     ?V0 + 1,DPH
        MOV     R0,#?V0 + 0
        LCALL   ?PUSH_XSTACK_I_TWO
        CFI CFA_XSP16 add(XSP16, 33)
        ; Setup parameters for call to function osal_strlen
        MOV     A,#0x5
        LCALL   ?XSTACK_DISP0_8
        MOV     R2,DPL
        MOV     R3,DPH
        LCALL   ??osal_strlen?relay
        MOV     A,R2
        ADD     A,#0x1
        MOV     ?V0 + 0,A
        CLR     A
        ADDC    A,#0x0
        MOV     ?V0 + 1,A
        MOV     R0,#?V0 + 0
        LCALL   ?PUSH_XSTACK_I_TWO
        CFI CFA_XSP16 add(XSP16, 35)
        MOV     ?V0 + 0,#0x1
        MOV     ?V0 + 1,#0x0
        MOV     R0,#?V0 + 0
        LCALL   ?PUSH_XSTACK_I_TWO
        CFI CFA_XSP16 add(XSP16, 37)
        MOV     R1,#0x20
        MOV     R4,#Sys_epDesc & 0xff
        MOV     R5,#(Sys_epDesc >> 8) & 0xff
        MOV     A,#0xf
        LCALL   ?XSTACK_DISP0_8
        MOV     R2,DPL
        MOV     R3,DPH
        LCALL   ??AF_DataRequest?relay
        MOV     A,#0x9
        LCALL   ?DEALLOC_XSTACK8
        CFI CFA_XSP16 add(XSP16, 28)
        MOV     A,R1
        JNZ     ??Sys_SendPreBindMessage_0
//  456   {
//  457     // Successfully requested to be sent.
//  458     
//  459     //(想要绑定什么就对应的 TypeID)
//  460     switch(type_id)
        MOV     A,R6
        DEC     A
        JZ      ??Sys_SendPreBindMessage_1
        DEC     A
        JZ      ??Sys_SendPreBindMessage_2
        ADD     A,#-0x2
        JZ      ??Sys_SendPreBindMessage_3
        SJMP    ??Sys_SendPreBindMessage_4
//  461     {
//  462         case BUTTON_TYPE_ID:
//  463           osal_start_timerEx(Button_TaskID, MATCH_BIND_EVT, 5000);
??Sys_SendPreBindMessage_1:
        ; Setup parameters for call to function osal_start_timerEx
        MOV     R4,#-0x78
        MOV     R5,#0x13
        MOV     R2,#0x2
        MOV     R3,#0x0
        MOV     DPTR,#Button_TaskID
??Sys_SendPreBindMessage_5:
        LCALL   ?Subroutine4 & 0xFFFF
//  464           break;
??CrossCallReturnLabel_5:
        SJMP    ??Sys_SendPreBindMessage_4
//  465         
//  466         case MOTOR_TYPE_ID:
//  467           osal_start_timerEx(Motor_TaskID, MATCH_BIND_EVT, 5000);
??Sys_SendPreBindMessage_2:
        ; Setup parameters for call to function osal_start_timerEx
        MOV     R4,#-0x78
        MOV     R5,#0x13
        MOV     R2,#0x2
        MOV     R3,#0x0
        MOV     DPTR,#Motor_TaskID
        SJMP    ??Sys_SendPreBindMessage_5
//  468           break;
//  469           
//  470         case SWITCH_TYPE_ID:
//  471           osal_start_timerEx(Switch_TaskID, MATCH_BIND_EVT, 5000);
??Sys_SendPreBindMessage_3:
        ; Setup parameters for call to function osal_start_timerEx
        MOV     R4,#-0x78
        MOV     R5,#0x13
        MOV     R2,#0x2
        MOV     R3,#0x0
        MOV     DPTR,#Switch_TaskID
        LCALL   ?Subroutine4 & 0xFFFF
//  472           break;
??CrossCallReturnLabel_6:
        SJMP    ??Sys_SendPreBindMessage_4
//  473     }
//  474   }
//  475   else
//  476   {
//  477     // Error occurred in request to send.
//  478     HalLedSet(HAL_LED_1, HAL_LED_MODE_OFF);
??Sys_SendPreBindMessage_0:
        ; Setup parameters for call to function HalLedSet
        MOV     R2,#0x0
        MOV     R1,#0x1
        LCALL   ??HalLedSet?relay
//  479   }
//  480 }
??Sys_SendPreBindMessage_4:
        MOV     A,#0x12
        LCALL   ?DEALLOC_XSTACK8
        CFI CFA_XSP16 add(XSP16, 10)
        MOV     R7,#0x2
        LJMP    ?BANKED_LEAVE_XDATA
        CFI EndBlock cfiBlock9

        RSEG BANKED_CODE:CODE:NOROOT(0)
?Subroutine3:
        CFI Block cfiCond10 Using cfiCommon0
        CFI NoFunction
        CFI Conditional ??CrossCallReturnLabel_2
        CFI DPL0 Frame(CFA_SP, 4)
        CFI DPH0 Frame(CFA_SP, 5)
        CFI CFA_SP SP+-5
        CFI Block cfiCond11 Using cfiCommon0
        CFI (cfiCond11) NoFunction
        CFI (cfiCond11) Conditional ??CrossCallReturnLabel_3
        CFI (cfiCond11) R6 load(1, XDATA, add(CFA_XSP16, literal(-10)))
        CFI (cfiCond11) VB load(1, XDATA, add(CFA_XSP16, literal(-9)))
        CFI (cfiCond11) V0 load(1, XDATA, add(CFA_XSP16, literal(-8)))
        CFI (cfiCond11) V1 load(1, XDATA, add(CFA_XSP16, literal(-7)))
        CFI (cfiCond11) R7 load(1, XDATA, add(CFA_XSP16, literal(-6)))
        CFI (cfiCond11) ?RET_LOW load(1, XDATA, add(CFA_XSP16, literal(-5)))
        CFI (cfiCond11) ?RET_HIGH load(1, XDATA, add(CFA_XSP16, literal(-4)))
        CFI (cfiCond11) ?BRET_EXT load(1, XDATA, add(CFA_XSP16, literal(-3)))
        CFI (cfiCond11) DPL0 load(1, XDATA, add(CFA_XSP16, literal(-2)))
        CFI (cfiCond11) DPH0 load(1, XDATA, add(CFA_XSP16, literal(-1)))
        CFI (cfiCond11) CFA_SP SP+0
        CFI (cfiCond11) CFA_XSP16 add(XSP16, 28)
        CFI Block cfiCond12 Using cfiCommon0
        CFI (cfiCond12) NoFunction
        CFI (cfiCond12) Conditional ??CrossCallReturnLabel_4
        CFI (cfiCond12) R6 load(1, XDATA, add(CFA_XSP16, literal(-16)))
        CFI (cfiCond12) VB load(1, XDATA, add(CFA_XSP16, literal(-15)))
        CFI (cfiCond12) V0 load(1, XDATA, add(CFA_XSP16, literal(-14)))
        CFI (cfiCond12) V1 load(1, XDATA, add(CFA_XSP16, literal(-13)))
        CFI (cfiCond12) V2 load(1, XDATA, add(CFA_XSP16, literal(-12)))
        CFI (cfiCond12) V3 load(1, XDATA, add(CFA_XSP16, literal(-11)))
        CFI (cfiCond12) V4 load(1, XDATA, add(CFA_XSP16, literal(-10)))
        CFI (cfiCond12) V5 load(1, XDATA, add(CFA_XSP16, literal(-9)))
        CFI (cfiCond12) V6 load(1, XDATA, add(CFA_XSP16, literal(-8)))
        CFI (cfiCond12) V7 load(1, XDATA, add(CFA_XSP16, literal(-7)))
        CFI (cfiCond12) R7 load(1, XDATA, add(CFA_XSP16, literal(-6)))
        CFI (cfiCond12) ?RET_LOW load(1, XDATA, add(CFA_XSP16, literal(-5)))
        CFI (cfiCond12) ?RET_HIGH load(1, XDATA, add(CFA_XSP16, literal(-4)))
        CFI (cfiCond12) ?BRET_EXT load(1, XDATA, add(CFA_XSP16, literal(-3)))
        CFI (cfiCond12) DPL0 load(1, XDATA, add(CFA_XSP16, literal(-2)))
        CFI (cfiCond12) DPH0 load(1, XDATA, add(CFA_XSP16, literal(-1)))
        CFI (cfiCond12) CFA_SP SP+0
        CFI (cfiCond12) CFA_XSP16 add(XSP16, 28)
        CFI Block cfiPicker13 Using cfiCommon1
        CFI (cfiPicker13) NoFunction
        CFI (cfiPicker13) Picker
        MOVX    A,@DPTR
        MOV     R0,A
        INC     DPTR
        MOVX    A,@DPTR
        MOV     DPH,A
        MOV     DPL,R0
        MOVX    A,@DPTR
        RET
        CFI EndBlock cfiCond10
        CFI EndBlock cfiCond11
        CFI EndBlock cfiCond12
        CFI EndBlock cfiPicker13
//  481 
//  482 /******************************************************************************
//  483  * @fn          zb_SendDataRequest
//  484  *
//  485  * @brief       The zb_SendDataRequest function initiates transmission of data
//  486  *              to a peer device
//  487  *
//  488  * @param       destination - The destination of the data.  The destination can
//  489  *                            be one of the following:
//  490  *                            - 16-Bit short address of device [0-0xfffD]
//  491  *                            - ZB_BROADCAST_ADDR sends the data to all devices
//  492  *                              in the network.
//  493  *                            - ZB_BINDING_ADDR sends the data to a previously
//  494  *                              bound device.
//  495  *
//  496  *              commandId - The command ID to send with the message.  If the
//  497  *                          SYS_BINDING_ADDR destination is used, this parameter
//  498  *                          also indicates the binding to use.
//  499  *
//  500  *              len - The size of the pData buffer in bytes
//  501  *              handle - A handle used to identify the send data request.
//  502  *              txOptions - TRUE if requesting acknowledgement from the destination.
//  503  *              radius - The max number of hops the packet can travel through
//  504  *                       before it is dropped.
//  505  *
//  506  * @return      none
//  507  */

        RSEG BANKED_CODE:CODE:NOROOT(0)
//  508 void Sys_SendDataRequest ( uint16 destination, endPointDesc_t *epDesc, uint16 commandId, uint8 len,
Sys_SendDataRequest:
        CFI Block cfiBlock14 Using cfiCommon0
        CFI Function Sys_SendDataRequest
        CODE
//  509                           uint8 *pData, uint8 handle, uint8 txOptions, uint8 radius )
//  510 {
        FUNCALL Sys_SendDataRequest, NLME_IsAddressBroadcast
        LOCFRAME ISTACK, 0, STACK
        LOCFRAME PSTACK, 0, STACK
        LOCFRAME XSTACK, 28, STACK
        LOCFRAME IOVERLAY, 0, STATIC
        LOCFRAME DOVERLAY, 0, STATIC
        ARGFRAME ISTACK, 0, STACK
        ARGFRAME PSTACK, 0, STACK
        ARGFRAME XSTACK, 28, STACK
        ARGFRAME IOVERLAY, 0, STATIC
        ARGFRAME DOVERLAY, 0, STATIC
        FUNCALL Sys_SendDataRequest, AF_DataRequest
        LOCFRAME ISTACK, 0, STACK
        LOCFRAME PSTACK, 0, STACK
        LOCFRAME XSTACK, 37, STACK
        LOCFRAME IOVERLAY, 0, STATIC
        LOCFRAME DOVERLAY, 0, STATIC
        ARGFRAME ISTACK, 0, STACK
        ARGFRAME PSTACK, 0, STACK
        ARGFRAME XSTACK, 37, STACK
        ARGFRAME IOVERLAY, 0, STATIC
        ARGFRAME DOVERLAY, 0, STATIC
        FUNCALL Sys_SendDataRequest, Sys_SendCback
        LOCFRAME ISTACK, 0, STACK
        LOCFRAME PSTACK, 0, STACK
        LOCFRAME XSTACK, 28, STACK
        LOCFRAME IOVERLAY, 0, STATIC
        LOCFRAME DOVERLAY, 0, STATIC
        ARGFRAME ISTACK, 0, STACK
        ARGFRAME PSTACK, 0, STACK
        ARGFRAME XSTACK, 28, STACK
        ARGFRAME IOVERLAY, 0, STATIC
        ARGFRAME DOVERLAY, 0, STATIC
        MOV     A,#-0x10
        LCALL   ?BANKED_ENTER_XDATA
        CFI DPH0 load(1, XDATA, add(CFA_XSP16, literal(-1)))
        CFI DPL0 load(1, XDATA, add(CFA_XSP16, literal(-2)))
        CFI ?BRET_EXT load(1, XDATA, add(CFA_XSP16, literal(-3)))
        CFI ?RET_HIGH load(1, XDATA, add(CFA_XSP16, literal(-4)))
        CFI ?RET_LOW load(1, XDATA, add(CFA_XSP16, literal(-5)))
        CFI R7 load(1, XDATA, add(CFA_XSP16, literal(-6)))
        CFI V7 load(1, XDATA, add(CFA_XSP16, literal(-7)))
        CFI V6 load(1, XDATA, add(CFA_XSP16, literal(-8)))
        CFI V5 load(1, XDATA, add(CFA_XSP16, literal(-9)))
        CFI V4 load(1, XDATA, add(CFA_XSP16, literal(-10)))
        CFI V3 load(1, XDATA, add(CFA_XSP16, literal(-11)))
        CFI V2 load(1, XDATA, add(CFA_XSP16, literal(-12)))
        CFI V1 load(1, XDATA, add(CFA_XSP16, literal(-13)))
        CFI V0 load(1, XDATA, add(CFA_XSP16, literal(-14)))
        CFI VB load(1, XDATA, add(CFA_XSP16, literal(-15)))
        CFI R6 load(1, XDATA, add(CFA_XSP16, literal(-16)))
        CFI CFA_SP SP+0
        CFI CFA_XSP16 add(XSP16, 16)
        ; Saved register size: 16
        ; Auto size: 12
        MOV     A,#-0xc
        LCALL   ?ALLOC_XSTACK8
        CFI CFA_XSP16 add(XSP16, 28)
        MOV     A,R4
        MOV     R6,A
        MOV     A,R5
        MOV     R7,A
        MOV     ?V0 + 7,R1
        MOV     A,#0x1c
        LCALL   ?XSTACK_DISP0_8
        MOVX    A,@DPTR
        MOV     ?V0 + 2,A
        INC     DPTR
        MOVX    A,@DPTR
        MOV     ?V0 + 3,A
        MOV     A,#0x1e
        LCALL   ?XSTACK_DISP0_8
        MOVX    A,@DPTR
        MOV     ?V0 + 4,A
        INC     DPTR
        MOVX    A,@DPTR
        MOV     ?V0 + 5,A
        MOV     A,#0x21
        LCALL   ?XSTACK_DISP0_8
        MOVX    A,@DPTR
        MOV     ?V0 + 6,A
        MOV     A,#0x22
        LCALL   ?XSTACK_DISP0_8
        MOVX    A,@DPTR
        MOV     ?V0 + 0,A
//  511   afStatus_t status;
//  512   afAddrType_t dstAddr;
//  513 
//  514   txOptions |= AF_DISCV_ROUTE;
        MOV     A,?V0 + 6
        SETB    0xE0 /* A   */.5
        MOV     ?V0 + 6,A
//  515 
//  516   // Set the destination address
//  517   if (destination == SYS_BINDING_ADDR)
        MOV     A,#-0x2
        XRL     A,R2
        JNZ     ??Sys_SendDataRequest_0
        MOV     A,#-0x1
        XRL     A,R3
??Sys_SendDataRequest_0:
        JNZ     ??Sys_SendDataRequest_1
//  518   {
//  519     // Binding
//  520     dstAddr.addrMode = afAddrNotPresent;
        MOV     A,#0x8
        LCALL   ?XSTACK_DISP0_8
        CLR     A
        MOVX    @DPTR,A
        SJMP    ??Sys_SendDataRequest_2
//  521   } 
//  522   else
//  523   {
//  524     // Use short address
//  525     dstAddr.addr.shortAddr = destination;
??Sys_SendDataRequest_1:
        MOV     DPL,?XSP + 0
        MOV     DPH,?XSP + 1
        MOV     A,R2
        MOVX    @DPTR,A
        INC     DPTR
        MOV     A,R3
        MOVX    @DPTR,A
//  526     dstAddr.addrMode = afAddr16Bit;
        MOV     A,#0x8
        LCALL   ?XSTACK_DISP0_8
        MOV     A,#0x2
        MOVX    @DPTR,A
//  527 
//  528     if ( ADDR_NOT_BCAST != NLME_IsAddressBroadcast( destination ) )
        ; Setup parameters for call to function NLME_IsAddressBroadcast
        LCALL   ??NLME_IsAddressBroadcast?relay
        MOV     A,R1
        JZ      ??Sys_SendDataRequest_2
//  529     {
//  530       txOptions &= ~AF_ACK_REQUEST;
        MOV     A,?V0 + 6
        CLR     0xE0 /* A   */.4
        MOV     ?V0 + 6,A
//  531     }
//  532   }
//  533 
//  534   dstAddr.panId = 0;                                    // Not an inter-pan message.
??Sys_SendDataRequest_2:
        MOV     A,#0xa
        LCALL   ?XSTACK_DISP0_8
        CLR     A
        MOVX    @DPTR,A
        INC     DPTR
        MOVX    @DPTR,A
//  535   dstAddr.endPoint = epDesc->simpleDesc->EndPoint;  // Set the endpoint.
        MOV     DPL,R6
        MOV     DPH,R7
        INC     DPTR
        INC     DPTR
        INC     DPTR
        LCALL   ?Subroutine3 & 0xFFFF
??CrossCallReturnLabel_4:
        PUSH    A
        CFI CFA_SP SP+-1
        MOV     A,#0x9
        LCALL   ?XSTACK_DISP0_8
        POP     A
        CFI CFA_SP SP+0
        MOVX    @DPTR,A
//  536 
//  537   
//  538   // Send the message
//  539   status = AF_DataRequest(&dstAddr, epDesc, commandId, len,
//  540                           pData, &handle, txOptions, radius);
        ; Setup parameters for call to function AF_DataRequest
        MOV     R0,#?V0 + 0
        LCALL   ?PUSH_XSTACK_I_ONE
        CFI CFA_XSP16 add(XSP16, 29)
        MOV     A,#0x21
        LCALL   ?XSTACK_DISP0_8
        MOV     ?V0 + 0,DPL
        MOV     ?V0 + 1,DPH
        MOV     R0,#?V0 + 0
        LCALL   ?PUSH_XSTACK_I_TWO
        CFI CFA_XSP16 add(XSP16, 31)
        MOV     R0,#?V0 + 4
        LCALL   ?PUSH_XSTACK_I_TWO
        CFI CFA_XSP16 add(XSP16, 33)
        MOV     ?V0 + 0,?V0 + 7
        MOV     ?V0 + 1,#0x0
        MOV     R0,#?V0 + 0
        LCALL   ?PUSH_XSTACK_I_TWO
        CFI CFA_XSP16 add(XSP16, 35)
        MOV     R0,#?V0 + 2
        LCALL   ?PUSH_XSTACK_I_TWO
        CFI CFA_XSP16 add(XSP16, 37)
        MOV     R1,?V0 + 6
        MOV     A,R6
        MOV     R4,A
        MOV     A,R7
        MOV     R5,A
        MOV     A,#0x9
        LCALL   ?XSTACK_DISP0_8
        MOV     R2,DPL
        MOV     R3,DPH
        LCALL   ??AF_DataRequest?relay
        MOV     A,#0x9
        LCALL   ?DEALLOC_XSTACK8
        CFI CFA_XSP16 add(XSP16, 28)
        MOV     A,R1
        MOV     R2,A
//  541 
//  542   if (status != afStatus_SUCCESS)
        JZ      ??Sys_SendDataRequest_3
//  543   {
//  544     Sys_SendCback( SYSCB_DATA_CNF, status, handle );
        ; Setup parameters for call to function Sys_SendCback
        MOV     A,#0x20
        LCALL   ?XSTACK_DISP0_8
        MOVX    A,@DPTR
        MOV     R4,A
        MOV     R5,#0x0
        MOV     R1,#-0x20
        LCALL   ??Sys_SendCback?relay
//  545   }
//  546 }
??Sys_SendDataRequest_3:
        MOV     A,#0xc
        LCALL   ?DEALLOC_XSTACK8
        CFI CFA_XSP16 add(XSP16, 16)
        MOV     R7,#0x8
        LJMP    ?BANKED_LEAVE_XDATA
        CFI EndBlock cfiBlock14
//  547 
//  548 /*********************************************************************
//  549 *********************************************************************/
//  550 
//  551 
//  552 /******************************************************************************
//  553  * @fn          zb_StartConfirm
//  554  *
//  555  * @brief       The zb_StartConfirm callback is called by the ZigBee stack
//  556  *              after a start request operation completes
//  557  *
//  558  * @param       status - The status of the start operation.  Status of
//  559  *                       ZB_SUCCESS indicates the start operation completed
//  560  *                       successfully.  Else the status is an error code.
//  561  *
//  562  * @return      none
//  563  */

        RSEG BANKED_CODE:CODE:NOROOT(0)
//  564 void zb_StartConfirm( uint8 status )
zb_StartConfirm:
        CFI Block cfiBlock15 Using cfiCommon0
        CFI Function zb_StartConfirm
        CODE
//  565 {
        ; Saved register size: 0
        ; Auto size: 0
//  566   if ( status == ZB_SUCCESS )
//  567   {
//  568 //    myAppState = APP_START;
//  569   }
//  570   else
//  571   {
//  572     // Try again later with a delay
//  573   }
//  574 }
        LJMP    ?BRET
        CFI EndBlock cfiBlock15
//  575 
//  576 /******************************************************************************
//  577  * @fn          zb_FindDeviceConfirm
//  578  *
//  579  * @brief       The zb_FindDeviceConfirm callback function is called by the
//  580  *              ZigBee stack when a find device operation completes.
//  581  *
//  582  * @param       searchType - The type of search that was performed.
//  583  *              searchKey - Value that the search was executed on.
//  584  *              result - The result of the search.
//  585  *
//  586  * @return      none
//  587  */

        RSEG BANKED_CODE:CODE:NOROOT(0)
//  588 void zb_FindDeviceConfirm( uint8 searchType, uint8 *searchKey, uint8 *result )
zb_FindDeviceConfirm:
        CFI Block cfiBlock16 Using cfiCommon0
        CFI Function zb_FindDeviceConfirm
        CODE
//  589 {
        ; Saved register size: 0
        ; Auto size: 0
//  590 }
        LJMP    ?BRET
        CFI EndBlock cfiBlock16
//  591 

        RSEG BANKED_CODE:CODE:NOROOT(0)
//  592 void zb_HandleOsalEvent( uint16 event )
zb_HandleOsalEvent:
        CFI Block cfiBlock17 Using cfiCommon0
        CFI Function zb_HandleOsalEvent
        CODE
//  593 {
        FUNCALL zb_HandleOsalEvent, zb_StartRequest
        LOCFRAME ISTACK, 2, STACK
        LOCFRAME PSTACK, 0, STACK
        LOCFRAME XSTACK, 0, STACK
        LOCFRAME IOVERLAY, 0, STATIC
        LOCFRAME DOVERLAY, 0, STATIC
        ARGFRAME ISTACK, 2, STACK
        ARGFRAME PSTACK, 0, STACK
        ARGFRAME XSTACK, 0, STACK
        ARGFRAME IOVERLAY, 0, STATIC
        ARGFRAME DOVERLAY, 0, STATIC
        PUSH    DPL
        CFI DPL0 Frame(CFA_SP, 4)
        CFI CFA_SP SP+-4
        PUSH    DPH
        CFI DPH0 Frame(CFA_SP, 5)
        CFI CFA_SP SP+-5
        ; Saved register size: 2
        ; Auto size: 0
//  594   if ( event & MY_START_EVT )
        MOV     A,R2
        ANL     A,#0x11
        JZ      ??zb_HandleOsalEvent_0
//  595   {
//  596     zb_StartRequest();
        ; Setup parameters for call to function zb_StartRequest
        LCALL   ??zb_StartRequest?relay
//  597   }
//  598 }
??zb_HandleOsalEvent_0:
        LJMP    ?Subroutine1 & 0xFFFF
        CFI EndBlock cfiBlock17
//  599 /*********************************************************************
//  600  * CBack FUNCTIONS
//  601  */
//  602 
//  603 /*********************************************************************
//  604  * @fn      SAPI_SendCback
//  605  *
//  606  * @brief   Sends a message to the sapi task ( itself ) so that a
//  607  *           callback can be generated later.
//  608  *
//  609  * @return  none
//  610  */

        RSEG BANKED_CODE:CODE:NOROOT(0)
//  611 void Sys_SendCback( uint8 event, uint8 status, uint16 data )
Sys_SendCback:
        CFI Block cfiBlock18 Using cfiCommon0
        CFI Function Sys_SendCback
        CODE
//  612 {
        FUNCALL Sys_SendCback, osal_msg_allocate
        LOCFRAME ISTACK, 0, STACK
        LOCFRAME PSTACK, 0, STACK
        LOCFRAME XSTACK, 12, STACK
        LOCFRAME IOVERLAY, 0, STATIC
        LOCFRAME DOVERLAY, 0, STATIC
        ARGFRAME ISTACK, 0, STACK
        ARGFRAME PSTACK, 0, STACK
        ARGFRAME XSTACK, 12, STACK
        ARGFRAME IOVERLAY, 0, STATIC
        ARGFRAME DOVERLAY, 0, STATIC
        FUNCALL Sys_SendCback, osal_msg_send
        LOCFRAME ISTACK, 0, STACK
        LOCFRAME PSTACK, 0, STACK
        LOCFRAME XSTACK, 12, STACK
        LOCFRAME IOVERLAY, 0, STATIC
        LOCFRAME DOVERLAY, 0, STATIC
        ARGFRAME ISTACK, 0, STACK
        ARGFRAME PSTACK, 0, STACK
        ARGFRAME XSTACK, 12, STACK
        ARGFRAME IOVERLAY, 0, STATIC
        ARGFRAME DOVERLAY, 0, STATIC
        MOV     A,#-0xc
        LCALL   ?BANKED_ENTER_XDATA
        CFI DPH0 load(1, XDATA, add(CFA_XSP16, literal(-1)))
        CFI DPL0 load(1, XDATA, add(CFA_XSP16, literal(-2)))
        CFI ?BRET_EXT load(1, XDATA, add(CFA_XSP16, literal(-3)))
        CFI ?RET_HIGH load(1, XDATA, add(CFA_XSP16, literal(-4)))
        CFI ?RET_LOW load(1, XDATA, add(CFA_XSP16, literal(-5)))
        CFI R7 load(1, XDATA, add(CFA_XSP16, literal(-6)))
        CFI V3 load(1, XDATA, add(CFA_XSP16, literal(-7)))
        CFI V2 load(1, XDATA, add(CFA_XSP16, literal(-8)))
        CFI V1 load(1, XDATA, add(CFA_XSP16, literal(-9)))
        CFI V0 load(1, XDATA, add(CFA_XSP16, literal(-10)))
        CFI VB load(1, XDATA, add(CFA_XSP16, literal(-11)))
        CFI R6 load(1, XDATA, add(CFA_XSP16, literal(-12)))
        CFI CFA_SP SP+0
        CFI CFA_XSP16 add(XSP16, 12)
        ; Saved register size: 12
        ; Auto size: 0
        MOV     ?V0 + 0,R1
        MOV     ?V0 + 1,R2
        MOV     A,R4
        MOV     R6,A
        MOV     A,R5
        MOV     R7,A
//  613   sapi_CbackEvent_t *pMsg;
//  614 
//  615   pMsg = (sapi_CbackEvent_t *)osal_msg_allocate( sizeof(sapi_CbackEvent_t) );
        ; Setup parameters for call to function osal_msg_allocate
        MOV     R2,#0x4
        MOV     R3,#0x0
        LCALL   ??osal_msg_allocate?relay
//  616   if( pMsg )
        MOV     A,R2
        ORL     A,R3
        JZ      ??Sys_SendCback_0
//  617   {
//  618     pMsg->hdr.event = event;
        MOV     DPL,R2
        MOV     DPH,R3
        MOV     A,?V0 + 0
        MOVX    @DPTR,A
//  619     pMsg->hdr.status = status;
        INC     DPTR
        MOV     A,?V0 + 1
        MOVX    @DPTR,A
//  620     pMsg->data = data;
        MOV     DPL,R2
        MOV     DPH,R3
        INC     DPTR
        INC     DPTR
        MOV     A,R6
        MOVX    @DPTR,A
        INC     DPTR
        MOV     A,R7
        MOVX    @DPTR,A
//  621 
//  622     osal_msg_send( Sys_TaskID, (uint8 *)pMsg );
        ; Setup parameters for call to function osal_msg_send
        MOV     DPTR,#Sys_TaskID
        MOVX    A,@DPTR
        MOV     R1,A
        LCALL   ??osal_msg_send?relay
//  623   }
//  624 
//  625 }
??Sys_SendCback_0:
        MOV     R7,#0x4
        LJMP    ?BANKED_LEAVE_XDATA
        CFI EndBlock cfiBlock18
//  626 
//  627 
//  628 
//  629 /******************************************************************************
//  630  * CONFIRM FUNCTIONS 
//  631  */
//  632 
//  633 /******************************************************************************
//  634  * @fn          Sys_BindConfirm
//  635  *
//  636  * @brief       The Sys_BindConfirm callback is called by the ZigBee stack
//  637  *              after a bind operation completes.
//  638  *
//  639  * @param       commandId - The command ID of the binding being confirmed.
//  640  *              status - The status of the bind operation.
//  641  *
//  642  * @return      none
//  643  */

        RSEG BANKED_CODE:CODE:NOROOT(0)
//  644 void Sys_BindConfirm( uint16 commandId, uint8 status )
Sys_BindConfirm:
        CFI Block cfiBlock19 Using cfiCommon0
        CFI Function Sys_BindConfirm
        CODE
//  645 {
        FUNCALL Sys_BindConfirm, HalLedSet
        LOCFRAME ISTACK, 0, STACK
        LOCFRAME PSTACK, 0, STACK
        LOCFRAME XSTACK, 9, STACK
        LOCFRAME IOVERLAY, 0, STATIC
        LOCFRAME DOVERLAY, 0, STATIC
        ARGFRAME ISTACK, 0, STACK
        ARGFRAME PSTACK, 0, STACK
        ARGFRAME XSTACK, 9, STACK
        ARGFRAME IOVERLAY, 0, STATIC
        ARGFRAME DOVERLAY, 0, STATIC
        FUNCALL Sys_BindConfirm, HalLedSet
        LOCFRAME ISTACK, 0, STACK
        LOCFRAME PSTACK, 0, STACK
        LOCFRAME XSTACK, 9, STACK
        LOCFRAME IOVERLAY, 0, STATIC
        LOCFRAME DOVERLAY, 0, STATIC
        ARGFRAME ISTACK, 0, STACK
        ARGFRAME PSTACK, 0, STACK
        ARGFRAME XSTACK, 9, STACK
        ARGFRAME IOVERLAY, 0, STATIC
        ARGFRAME DOVERLAY, 0, STATIC
        FUNCALL Sys_BindConfirm, osal_start_timerEx
        LOCFRAME ISTACK, 0, STACK
        LOCFRAME PSTACK, 0, STACK
        LOCFRAME XSTACK, 9, STACK
        LOCFRAME IOVERLAY, 0, STATIC
        LOCFRAME DOVERLAY, 0, STATIC
        ARGFRAME ISTACK, 0, STACK
        ARGFRAME PSTACK, 0, STACK
        ARGFRAME XSTACK, 9, STACK
        ARGFRAME IOVERLAY, 0, STATIC
        ARGFRAME DOVERLAY, 0, STATIC
        FUNCALL Sys_BindConfirm, HalLedSet
        LOCFRAME ISTACK, 0, STACK
        LOCFRAME PSTACK, 0, STACK
        LOCFRAME XSTACK, 9, STACK
        LOCFRAME IOVERLAY, 0, STATIC
        LOCFRAME DOVERLAY, 0, STATIC
        ARGFRAME ISTACK, 0, STACK
        ARGFRAME PSTACK, 0, STACK
        ARGFRAME XSTACK, 9, STACK
        ARGFRAME IOVERLAY, 0, STATIC
        ARGFRAME DOVERLAY, 0, STATIC
        FUNCALL Sys_BindConfirm, HalLedSet
        LOCFRAME ISTACK, 0, STACK
        LOCFRAME PSTACK, 0, STACK
        LOCFRAME XSTACK, 9, STACK
        LOCFRAME IOVERLAY, 0, STATIC
        LOCFRAME DOVERLAY, 0, STATIC
        ARGFRAME ISTACK, 0, STACK
        ARGFRAME PSTACK, 0, STACK
        ARGFRAME XSTACK, 9, STACK
        ARGFRAME IOVERLAY, 0, STATIC
        ARGFRAME DOVERLAY, 0, STATIC
        MOV     A,#-0x9
        LCALL   ?BANKED_ENTER_XDATA
        CFI DPH0 load(1, XDATA, add(CFA_XSP16, literal(-1)))
        CFI DPL0 load(1, XDATA, add(CFA_XSP16, literal(-2)))
        CFI ?BRET_EXT load(1, XDATA, add(CFA_XSP16, literal(-3)))
        CFI ?RET_HIGH load(1, XDATA, add(CFA_XSP16, literal(-4)))
        CFI ?RET_LOW load(1, XDATA, add(CFA_XSP16, literal(-5)))
        CFI R7 load(1, XDATA, add(CFA_XSP16, literal(-6)))
        CFI V0 load(1, XDATA, add(CFA_XSP16, literal(-7)))
        CFI VB load(1, XDATA, add(CFA_XSP16, literal(-8)))
        CFI R6 load(1, XDATA, add(CFA_XSP16, literal(-9)))
        CFI CFA_SP SP+0
        CFI CFA_XSP16 add(XSP16, 9)
        ; Saved register size: 9
        ; Auto size: 0
        MOV     A,R1
//  646   if( status == ZB_SUCCESS)
        MOV     R2,#0x1
        JNZ     ??Sys_BindConfirm_0
//  647   {
//  648     // Light D2
//  649     HalLedSet(HAL_LED_3, HAL_LED_MODE_ON);
        ; Setup parameters for call to function HalLedSet
        MOV     R1,#0x4
        LCALL   ??HalLedSet?relay
//  650     HalLedSet(HAL_LED_2, HAL_LED_MODE_OFF);
        ; Setup parameters for call to function HalLedSet
        MOV     R2,#0x0
        MOV     R1,#0x2
        LCALL   ??HalLedSet?relay
//  651     osal_start_timerEx(Sys_TaskID, CLOSE_LIGHT_EVT, 5000);
        ; Setup parameters for call to function osal_start_timerEx
        MOV     R4,#-0x78
        MOV     R5,#0x13
        MOV     R2,#0x8
        MOV     R3,#0x0
        MOV     DPTR,#Sys_TaskID
        LCALL   ?Subroutine4 & 0xFFFF
//  652   }
??CrossCallReturnLabel_7:
        SJMP    ??Sys_BindConfirm_1
//  653   else
//  654   {
//  655     // Light D3
//  656     HalLedSet(HAL_LED_2, HAL_LED_MODE_ON);
??Sys_BindConfirm_0:
        ; Setup parameters for call to function HalLedSet
        MOV     R1,#0x2
        LCALL   ??HalLedSet?relay
//  657     HalLedSet(HAL_LED_3, HAL_LED_MODE_OFF);
        ; Setup parameters for call to function HalLedSet
        MOV     R2,#0x0
        MOV     R1,#0x4
        LCALL   ??HalLedSet?relay
//  658   }
//  659 }
??Sys_BindConfirm_1:
        LJMP    ?Subroutine0 & 0xFFFF
        CFI EndBlock cfiBlock19

        RSEG BANKED_CODE:CODE:NOROOT(0)
?Subroutine4:
        CFI Block cfiCond20 Using cfiCommon0
        CFI NoFunction
        CFI Conditional ??CrossCallReturnLabel_5
        CFI R6 load(1, XDATA, add(CFA_XSP16, literal(-10)))
        CFI VB load(1, XDATA, add(CFA_XSP16, literal(-9)))
        CFI V0 load(1, XDATA, add(CFA_XSP16, literal(-8)))
        CFI V1 load(1, XDATA, add(CFA_XSP16, literal(-7)))
        CFI R7 load(1, XDATA, add(CFA_XSP16, literal(-6)))
        CFI ?RET_LOW load(1, XDATA, add(CFA_XSP16, literal(-5)))
        CFI ?RET_HIGH load(1, XDATA, add(CFA_XSP16, literal(-4)))
        CFI ?BRET_EXT load(1, XDATA, add(CFA_XSP16, literal(-3)))
        CFI DPL0 load(1, XDATA, add(CFA_XSP16, literal(-2)))
        CFI DPH0 load(1, XDATA, add(CFA_XSP16, literal(-1)))
        CFI CFA_SP SP+0
        CFI CFA_XSP16 add(XSP16, 28)
        CFI Block cfiCond21 Using cfiCommon0
        CFI (cfiCond21) NoFunction
        CFI (cfiCond21) Conditional ??CrossCallReturnLabel_6
        CFI (cfiCond21) R6 load(1, XDATA, add(CFA_XSP16, literal(-10)))
        CFI (cfiCond21) VB load(1, XDATA, add(CFA_XSP16, literal(-9)))
        CFI (cfiCond21) V0 load(1, XDATA, add(CFA_XSP16, literal(-8)))
        CFI (cfiCond21) V1 load(1, XDATA, add(CFA_XSP16, literal(-7)))
        CFI (cfiCond21) R7 load(1, XDATA, add(CFA_XSP16, literal(-6)))
        CFI (cfiCond21) ?RET_LOW load(1, XDATA, add(CFA_XSP16, literal(-5)))
        CFI (cfiCond21) ?RET_HIGH load(1, XDATA, add(CFA_XSP16, literal(-4)))
        CFI (cfiCond21) ?BRET_EXT load(1, XDATA, add(CFA_XSP16, literal(-3)))
        CFI (cfiCond21) DPL0 load(1, XDATA, add(CFA_XSP16, literal(-2)))
        CFI (cfiCond21) DPH0 load(1, XDATA, add(CFA_XSP16, literal(-1)))
        CFI (cfiCond21) CFA_SP SP+0
        CFI (cfiCond21) CFA_XSP16 add(XSP16, 28)
        CFI Block cfiCond22 Using cfiCommon0
        CFI (cfiCond22) NoFunction
        CFI (cfiCond22) Conditional ??CrossCallReturnLabel_7
        CFI (cfiCond22) R6 load(1, XDATA, add(CFA_XSP16, literal(-9)))
        CFI (cfiCond22) VB load(1, XDATA, add(CFA_XSP16, literal(-8)))
        CFI (cfiCond22) V0 load(1, XDATA, add(CFA_XSP16, literal(-7)))
        CFI (cfiCond22) R7 load(1, XDATA, add(CFA_XSP16, literal(-6)))
        CFI (cfiCond22) ?RET_LOW load(1, XDATA, add(CFA_XSP16, literal(-5)))
        CFI (cfiCond22) ?RET_HIGH load(1, XDATA, add(CFA_XSP16, literal(-4)))
        CFI (cfiCond22) ?BRET_EXT load(1, XDATA, add(CFA_XSP16, literal(-3)))
        CFI (cfiCond22) DPL0 load(1, XDATA, add(CFA_XSP16, literal(-2)))
        CFI (cfiCond22) DPH0 load(1, XDATA, add(CFA_XSP16, literal(-1)))
        CFI (cfiCond22) CFA_SP SP+0
        CFI (cfiCond22) CFA_XSP16 add(XSP16, 9)
        CFI Block cfiPicker23 Using cfiCommon1
        CFI (cfiPicker23) NoFunction
        CFI (cfiPicker23) Picker
        MOVX    A,@DPTR
        MOV     R1,A
        LCALL   ??osal_start_timerEx?relay
        RET
        CFI EndBlock cfiCond20
        CFI EndBlock cfiCond21
        CFI EndBlock cfiCond22
        CFI EndBlock cfiPicker23
//  660 
//  661 /******************************************************************************
//  662  * @fn          Sys_SendDataConfirm
//  663  *
//  664  * @brief       The zb_SendDataConfirm callback function is called by the
//  665  *              ZigBee after a send data operation completes
//  666  *
//  667  * @param       handle - The handle identifying the data transmission.
//  668  *              status - The status of the operation.
//  669  *
//  670  * @return      none
//  671  */

        RSEG BANKED_CODE:CODE:NOROOT(0)
//  672 void Sys_SendDataConfirm( uint8 handle, uint8 status )
Sys_SendDataConfirm:
        CFI Block cfiBlock24 Using cfiCommon0
        CFI Function Sys_SendDataConfirm
        CODE
//  673 {
        ; Saved register size: 0
        ; Auto size: 0
//  674 }
        LJMP    ?BRET
        CFI EndBlock cfiBlock24
//  675 
//  676 /*******************************************************************************
//  677  *******************************************************************************
//  678  * CONFIGURATIONS
//  679  ******************************************************************************/
//  680 
//  681 // The order in this table must be identical to the task initialization calls below in osalInitTask.
//  682 

        RSEG XDATA_ROM_C:CONST:REORDER:NOROOT(0)
        DATA8
//  683 const pTaskEventHandlerFn tasksArr[] = {
tasksArr:
        DATA16
        DW ??macEventLoop?relay
        DW ??nwk_event_loop?relay
        DW ??Hal_ProcessEvent?relay
        DW ??APS_event_loop?relay
        DW ??ZDApp_event_loop?relay
        DW ??Sys_ProcessEvent?relay
        DW ??Button_ProcessEvent?relay
        DW ??Motor_ProcessEvent?relay
        DW ??Switch_ProcessEvent?relay
        DW ??SAPI_ProcessEvent?relay
//  684   macEventLoop,
//  685   nwk_event_loop,
//  686   Hal_ProcessEvent,
//  687 #if defined( MT_TASK )
//  688   MT_ProcessEvent,
//  689 #endif
//  690   APS_event_loop,
//  691   ZDApp_event_loop,
//  692 
//  693   Sys_ProcessEvent,
//  694   Button_ProcessEvent,
//  695   Motor_ProcessEvent,
//  696   Switch_ProcessEvent,
//  697   SAPI_ProcessEvent
//  698 };
//  699 

        RSEG XDATA_ROM_C:CONST:REORDER:NOROOT(0)
        DATA8
//  700 const uint8 tasksCnt = sizeof( tasksArr ) / sizeof( tasksArr[0] );
tasksCnt:
        DB 10

        RSEG XDATA_Z:XDATA:NOROOT(0)
        DATA16
//  701 uint16 *tasksEvents;
tasksEvents:
        DS 2
        REQUIRE __INIT_XDATA_Z
//  702 
//  703 
//  704 
//  705 /*********************************************************************
//  706  * @fn      osalInitTasks
//  707  *
//  708  * @brief   This function invokes the initialization function for each task.
//  709  *
//  710  * @param   void
//  711  *
//  712  * @return  none
//  713  */

        RSEG BANKED_CODE:CODE:NOROOT(0)
//  714 void osalInitTasks( void )
osalInitTasks:
        CFI Block cfiBlock25 Using cfiCommon0
        CFI Function osalInitTasks
        CODE
//  715 {
        FUNCALL osalInitTasks, osal_mem_alloc
        LOCFRAME ISTACK, 2, STACK
        LOCFRAME PSTACK, 0, STACK
        LOCFRAME XSTACK, 0, STACK
        LOCFRAME IOVERLAY, 0, STATIC
        LOCFRAME DOVERLAY, 0, STATIC
        ARGFRAME ISTACK, 2, STACK
        ARGFRAME PSTACK, 0, STACK
        ARGFRAME XSTACK, 0, STACK
        ARGFRAME IOVERLAY, 0, STATIC
        ARGFRAME DOVERLAY, 0, STATIC
        FUNCALL osalInitTasks, osal_memset
        LOCFRAME ISTACK, 2, STACK
        LOCFRAME PSTACK, 0, STACK
        LOCFRAME XSTACK, 0, STACK
        LOCFRAME IOVERLAY, 0, STATIC
        LOCFRAME DOVERLAY, 0, STATIC
        ARGFRAME ISTACK, 2, STACK
        ARGFRAME PSTACK, 0, STACK
        ARGFRAME XSTACK, 0, STACK
        ARGFRAME IOVERLAY, 0, STATIC
        ARGFRAME DOVERLAY, 0, STATIC
        FUNCALL osalInitTasks, macTaskInit
        LOCFRAME ISTACK, 2, STACK
        LOCFRAME PSTACK, 0, STACK
        LOCFRAME XSTACK, 0, STACK
        LOCFRAME IOVERLAY, 0, STATIC
        LOCFRAME DOVERLAY, 0, STATIC
        ARGFRAME ISTACK, 2, STACK
        ARGFRAME PSTACK, 0, STACK
        ARGFRAME XSTACK, 0, STACK
        ARGFRAME IOVERLAY, 0, STATIC
        ARGFRAME DOVERLAY, 0, STATIC
        FUNCALL osalInitTasks, nwk_init
        LOCFRAME ISTACK, 2, STACK
        LOCFRAME PSTACK, 0, STACK
        LOCFRAME XSTACK, 0, STACK
        LOCFRAME IOVERLAY, 0, STATIC
        LOCFRAME DOVERLAY, 0, STATIC
        ARGFRAME ISTACK, 2, STACK
        ARGFRAME PSTACK, 0, STACK
        ARGFRAME XSTACK, 0, STACK
        ARGFRAME IOVERLAY, 0, STATIC
        ARGFRAME DOVERLAY, 0, STATIC
        FUNCALL osalInitTasks, Hal_Init
        LOCFRAME ISTACK, 2, STACK
        LOCFRAME PSTACK, 0, STACK
        LOCFRAME XSTACK, 0, STACK
        LOCFRAME IOVERLAY, 0, STATIC
        LOCFRAME DOVERLAY, 0, STATIC
        ARGFRAME ISTACK, 2, STACK
        ARGFRAME PSTACK, 0, STACK
        ARGFRAME XSTACK, 0, STACK
        ARGFRAME IOVERLAY, 0, STATIC
        ARGFRAME DOVERLAY, 0, STATIC
        FUNCALL osalInitTasks, APS_Init
        LOCFRAME ISTACK, 2, STACK
        LOCFRAME PSTACK, 0, STACK
        LOCFRAME XSTACK, 0, STACK
        LOCFRAME IOVERLAY, 0, STATIC
        LOCFRAME DOVERLAY, 0, STATIC
        ARGFRAME ISTACK, 2, STACK
        ARGFRAME PSTACK, 0, STACK
        ARGFRAME XSTACK, 0, STACK
        ARGFRAME IOVERLAY, 0, STATIC
        ARGFRAME DOVERLAY, 0, STATIC
        FUNCALL osalInitTasks, ZDApp_Init
        LOCFRAME ISTACK, 2, STACK
        LOCFRAME PSTACK, 0, STACK
        LOCFRAME XSTACK, 0, STACK
        LOCFRAME IOVERLAY, 0, STATIC
        LOCFRAME DOVERLAY, 0, STATIC
        ARGFRAME ISTACK, 2, STACK
        ARGFRAME PSTACK, 0, STACK
        ARGFRAME XSTACK, 0, STACK
        ARGFRAME IOVERLAY, 0, STATIC
        ARGFRAME DOVERLAY, 0, STATIC
        FUNCALL osalInitTasks, Sys_Init
        LOCFRAME ISTACK, 2, STACK
        LOCFRAME PSTACK, 0, STACK
        LOCFRAME XSTACK, 0, STACK
        LOCFRAME IOVERLAY, 0, STATIC
        LOCFRAME DOVERLAY, 0, STATIC
        ARGFRAME ISTACK, 2, STACK
        ARGFRAME PSTACK, 0, STACK
        ARGFRAME XSTACK, 0, STACK
        ARGFRAME IOVERLAY, 0, STATIC
        ARGFRAME DOVERLAY, 0, STATIC
        FUNCALL osalInitTasks, Button_Init
        LOCFRAME ISTACK, 2, STACK
        LOCFRAME PSTACK, 0, STACK
        LOCFRAME XSTACK, 0, STACK
        LOCFRAME IOVERLAY, 0, STATIC
        LOCFRAME DOVERLAY, 0, STATIC
        ARGFRAME ISTACK, 2, STACK
        ARGFRAME PSTACK, 0, STACK
        ARGFRAME XSTACK, 0, STACK
        ARGFRAME IOVERLAY, 0, STATIC
        ARGFRAME DOVERLAY, 0, STATIC
        FUNCALL osalInitTasks, Motor_Init
        LOCFRAME ISTACK, 2, STACK
        LOCFRAME PSTACK, 0, STACK
        LOCFRAME XSTACK, 0, STACK
        LOCFRAME IOVERLAY, 0, STATIC
        LOCFRAME DOVERLAY, 0, STATIC
        ARGFRAME ISTACK, 2, STACK
        ARGFRAME PSTACK, 0, STACK
        ARGFRAME XSTACK, 0, STACK
        ARGFRAME IOVERLAY, 0, STATIC
        ARGFRAME DOVERLAY, 0, STATIC
        FUNCALL osalInitTasks, Switch_Init
        LOCFRAME ISTACK, 2, STACK
        LOCFRAME PSTACK, 0, STACK
        LOCFRAME XSTACK, 0, STACK
        LOCFRAME IOVERLAY, 0, STATIC
        LOCFRAME DOVERLAY, 0, STATIC
        ARGFRAME ISTACK, 2, STACK
        ARGFRAME PSTACK, 0, STACK
        ARGFRAME XSTACK, 0, STACK
        ARGFRAME IOVERLAY, 0, STATIC
        ARGFRAME DOVERLAY, 0, STATIC
        FUNCALL osalInitTasks, SAPI_Init
        LOCFRAME ISTACK, 2, STACK
        LOCFRAME PSTACK, 0, STACK
        LOCFRAME XSTACK, 0, STACK
        LOCFRAME IOVERLAY, 0, STATIC
        LOCFRAME DOVERLAY, 0, STATIC
        ARGFRAME ISTACK, 2, STACK
        ARGFRAME PSTACK, 0, STACK
        ARGFRAME XSTACK, 0, STACK
        ARGFRAME IOVERLAY, 0, STATIC
        ARGFRAME DOVERLAY, 0, STATIC
        PUSH    DPL
        CFI DPL0 Frame(CFA_SP, 4)
        CFI CFA_SP SP+-4
        PUSH    DPH
        CFI DPH0 Frame(CFA_SP, 5)
        CFI CFA_SP SP+-5
        ; Saved register size: 2
        ; Auto size: 0
//  716   uint8 taskID = 0;
//  717 
//  718   tasksEvents = (uint16 *)osal_mem_alloc( sizeof( uint16 ) * tasksCnt);
        ; Setup parameters for call to function osal_mem_alloc
        MOV     R2,#0x14
        MOV     R3,#0x0
        LCALL   ??osal_mem_alloc?relay
        MOV     DPTR,#tasksEvents
        MOV     A,R2
        MOVX    @DPTR,A
        INC     DPTR
        MOV     A,R3
        MOVX    @DPTR,A
//  719   osal_memset( tasksEvents, 0, (sizeof( uint16 ) * tasksCnt));
        ; Setup parameters for call to function osal_memset
        MOV     R4,#0x14
        MOV     R5,#0x0
        MOV     R1,#0x0
        LCALL   ??osal_memset?relay
//  720 
//  721   macTaskInit( taskID++ );
        ; Setup parameters for call to function macTaskInit
        MOV     R1,#0x0
        LCALL   ??macTaskInit?relay
//  722   nwk_init( taskID++ );
        ; Setup parameters for call to function nwk_init
        MOV     R1,#0x1
        LCALL   ??nwk_init?relay
//  723   Hal_Init( taskID++ );
        ; Setup parameters for call to function Hal_Init
        MOV     R1,#0x2
        LCALL   ??Hal_Init?relay
//  724 #if defined( MT_TASK )
//  725   MT_TaskInit( taskID++ );
//  726 #endif
//  727   APS_Init( taskID++ );
        ; Setup parameters for call to function APS_Init
        MOV     R1,#0x3
        LCALL   ??APS_Init?relay
//  728   ZDApp_Init( taskID++ );
        ; Setup parameters for call to function ZDApp_Init
        MOV     R1,#0x4
        LCALL   ??ZDApp_Init?relay
//  729   Sys_Init( taskID++ );
        ; Setup parameters for call to function Sys_Init
        MOV     R1,#0x5
        LCALL   ??Sys_Init?relay
//  730   Button_Init( taskID++ );
        ; Setup parameters for call to function Button_Init
        MOV     R1,#0x6
        LCALL   ??Button_Init?relay
//  731   Motor_Init( taskID++ );
        ; Setup parameters for call to function Motor_Init
        MOV     R1,#0x7
        LCALL   ??Motor_Init?relay
//  732   Switch_Init( taskID++ );
        ; Setup parameters for call to function Switch_Init
        MOV     R1,#0x8
        LCALL   ??Switch_Init?relay
//  733   SAPI_Init( taskID );
        ; Setup parameters for call to function SAPI_Init
        MOV     R1,#0x9
        LCALL   ??SAPI_Init?relay
//  734 }
        LJMP    ?Subroutine1 & 0xFFFF
        CFI EndBlock cfiBlock25

        RSEG XDATA_ID:CODE:NOROOT(0)
`?<Initializer for AppTitle>`:
        DB "SensorAPP"

        RSEG BANK_RELAYS:CODE:REORDER:NOROOT(0)
??Sys_Init?relay:
        LCALL   ?BDISPATCH
        DATA
        DC24    Sys_Init

        RSEG BANK_RELAYS:CODE:REORDER:NOROOT(0)
??Sys_ProcessEvent?relay:
        LCALL   ?BDISPATCH
        DATA
        DC24    Sys_ProcessEvent

        RSEG BANK_RELAYS:CODE:REORDER:NOROOT(0)
??Sys_ProcessZDOMsgs?relay:
        LCALL   ?BDISPATCH
        DATA
        DC24    Sys_ProcessZDOMsgs

        RSEG BANK_RELAYS:CODE:REORDER:NOROOT(0)
??Sys_MessageMSGCB?relay:
        LCALL   ?BDISPATCH
        DATA
        DC24    Sys_MessageMSGCB

        RSEG BANK_RELAYS:CODE:REORDER:NOROOT(0)
??Sys_SendPreBindMessage?relay:
        LCALL   ?BDISPATCH
        DATA
        DC24    Sys_SendPreBindMessage

        RSEG BANK_RELAYS:CODE:REORDER:NOROOT(0)
??Sys_SendDataRequest?relay:
        LCALL   ?BDISPATCH
        DATA
        DC24    Sys_SendDataRequest

        RSEG BANK_RELAYS:CODE:REORDER:NOROOT(0)
??zb_StartConfirm?relay:
        LCALL   ?BDISPATCH
        DATA
        DC24    zb_StartConfirm

        RSEG BANK_RELAYS:CODE:REORDER:NOROOT(0)
??zb_FindDeviceConfirm?relay:
        LCALL   ?BDISPATCH
        DATA
        DC24    zb_FindDeviceConfirm

        RSEG BANK_RELAYS:CODE:REORDER:NOROOT(0)
??zb_HandleOsalEvent?relay:
        LCALL   ?BDISPATCH
        DATA
        DC24    zb_HandleOsalEvent

        RSEG BANK_RELAYS:CODE:REORDER:NOROOT(0)
??Sys_SendCback?relay:
        LCALL   ?BDISPATCH
        DATA
        DC24    Sys_SendCback

        RSEG BANK_RELAYS:CODE:REORDER:NOROOT(0)
??Sys_BindConfirm?relay:
        LCALL   ?BDISPATCH
        DATA
        DC24    Sys_BindConfirm

        RSEG BANK_RELAYS:CODE:REORDER:NOROOT(0)
??Sys_SendDataConfirm?relay:
        LCALL   ?BDISPATCH
        DATA
        DC24    Sys_SendDataConfirm

        RSEG BANK_RELAYS:CODE:REORDER:NOROOT(0)
??osalInitTasks?relay:
        LCALL   ?BDISPATCH
        DATA
        DC24    osalInitTasks

        RSEG XDATA_ROM_C:CONST:REORDER:NOROOT(0)
        DATA8
`?<Constant "bind">`:
        DB "bind"
        DB 0

        END
// 
// 1 088 bytes in segment BANKED_CODE
//    78 bytes in segment BANK_RELAYS
//    10 bytes in segment XDATA_I
//    10 bytes in segment XDATA_ID
//    55 bytes in segment XDATA_ROM_C
//    15 bytes in segment XDATA_Z
// 
// 1 176 bytes of CODE  memory
//    55 bytes of CONST memory
//    25 bytes of XDATA memory
//
//Errors: none
//Warnings: none
