###############################################################################
#                                                                             #
# IAR C/C++ Compiler V8.10.3.10338/W32 for 8051         01/Sep/2017  20:20:44 #
# Copyright 2004-2011 IAR Systems AB.                                         #
#                                                                             #
#    Core               =  plain                                              #
#    Code model         =  banked                                             #
#    Data model         =  large                                              #
#    Calling convention =  xdata reentrant                                    #
#    Constant location  =  data_rom                                           #
#    Dptr setup         =  1,16                                               #
#    Source file        =  D:\ProgramData\Hardware\zigbee\Projects\zstack\Sam #
#                          ples\SensorSys\Source\SensorSys_Coordinator.c      #
#    Command line       =  -f D:\ProgramData\Hardware\zigbee\Projects\zstack\ #
#                          Samples\SensorSys\CC2530DB\..\..\..\Tools\CC2530DB #
#                          \f8wCoord.cfg (-DCPU32MHZ -DROOT=__near_func       #
#                          -DMAC_CFG_APP_PENDING_QUEUE=TRUE                   #
#                          -DMAC_CFG_TX_DATA_MAX=5 -DMAC_CFG_TX_MAX=8         #
#                          -DMAC_CFG_RX_MAX=5 -DZDO_COORDINATOR -DRTR_NWK)    #
#                          -f D:\ProgramData\Hardware\zigbee\Projects\zstack\ #
#                          Samples\SensorSys\CC2530DB\..\..\..\Tools\CC2530DB #
#                          \f8wConfig.cfg (-DZIGBEEPRO -DSECURE=0             #
#                          -DZG_SECURE_DYNAMIC=0 -DREFLECTOR                  #
#                          -DDEFAULT_CHANLIST=0x00000800                      #
#                          -DZDAPP_CONFIG_PAN_ID=0xFFF1                       #
#                          -DNWK_START_DELAY=100 -DEXTENDED_JOINING_RANDOM_MA #
#                          SK=0x007F -DBEACON_REQUEST_DELAY=100               #
#                          -DBEACON_REQ_DELAY_MASK=0x00FF                     #
#                          -DLINK_STATUS_JITTER_MASK=0x007F                   #
#                          -DROUTE_EXPIRY_TIME=30 -DAPSC_ACK_WAIT_DURATION_PO #
#                          LLED=3000 -DNWK_INDIRECT_MSG_TIMEOUT=7             #
#                          -DMAX_RREQ_ENTRIES=8 -DAPSC_MAX_FRAME_RETRIES=3    #
#                          -DNWK_MAX_DATA_RETRIES=2                           #
#                          -DMAX_POLL_FAILURE_RETRIES=2 -DMAX_BCAST=9         #
#                          -DAPS_MAX_GROUPS=16 -DMAX_RTG_ENTRIES=40           #
#                          -DNWK_MAX_BINDING_ENTRIES=4                        #
#                          -DMAX_BINDING_CLUSTER_IDS=4 "-DDEFAULT_KEY={0x01,  #
#                          0x03, 0x05, 0x07, 0x09, 0x0B, 0x0D, 0x0F, 0x00,    #
#                          0x02, 0x04, 0x06, 0x08, 0x0A, 0x0C, 0x0D}"         #
#                          -DMAC_MAX_FRAME_SIZE=116                           #
#                          -DZDNWKMGR_MIN_TRANSMISSIONS=20 "-DCONST=const     #
#                          __code" -DGENERIC=__generic                        #
#                          -DRFD_RCVC_ALWAYS_ON=FALSE -DPOLL_RATE=1000        #
#                          -DQUEUED_POLL_RATE=100 -DRESPONSE_POLL_RATE=100)   #
#                          -DREJOIN_POLL_RATE=440 D:\ProgramData\Hardware\zig #
#                          bee\Projects\zstack\Samples\SensorSys\Source\Senso #
#                          rSys_Coordinator.c -D HOLD_AUTO_START -D           #
#                          BUILD_ALL_DEVICES -D REFLECTOR -D NV_INIT -D       #
#                          xNV_RESTORE -D xZTOOL_P1 -D xMT_TASK -D            #
#                          xMT_SYS_FUNC -D xMT_SAPI_FUNC -D xMT_SAPI_CB_FUNC  #
#                          -lC D:\ProgramData\Hardware\zigbee\Projects\zstack #
#                          \Samples\SensorSys\CC2530DB\CoordinatorEB\List\    #
#                          -lA D:\ProgramData\Hardware\zigbee\Projects\zstack #
#                          \Samples\SensorSys\CC2530DB\CoordinatorEB\List\    #
#                          --diag_suppress Pe001,Pa010 -o                     #
#                          D:\ProgramData\Hardware\zigbee\Projects\zstack\Sam #
#                          ples\SensorSys\CC2530DB\CoordinatorEB\Obj\ -e      #
#                          --no_code_motion --debug --core=plain --dptr=16,1  #
#                          --data_model=large --code_model=banked             #
#                          --calling_convention=xdata_reentrant               #
#                          --place_constants=data_rom --nr_virtual_regs 16    #
#                          -I D:\ProgramData\Hardware\zigbee\Projects\zstack\ #
#                          Samples\SensorSys\CC2530DB\ -I                     #
#                          D:\ProgramData\Hardware\zigbee\Projects\zstack\Sam #
#                          ples\SensorSys\CC2530DB\..\Source\ -I              #
#                          D:\ProgramData\Hardware\zigbee\Projects\zstack\Sam #
#                          ples\SensorSys\CC2530DB\..\..\..\ZMain\TI2530DB\   #
#                          -I D:\ProgramData\Hardware\zigbee\Projects\zstack\ #
#                          Samples\SensorSys\CC2530DB\..\..\..\..\..\Componen #
#                          ts\hal\include\ -I D:\ProgramData\Hardware\zigbee\ #
#                          Projects\zstack\Samples\SensorSys\CC2530DB\..\..\. #
#                          .\..\..\Components\hal\target\CC2530EB\ -I         #
#                          D:\ProgramData\Hardware\zigbee\Projects\zstack\Sam #
#                          ples\SensorSys\CC2530DB\..\..\..\..\..\Components\ #
#                          mac\include\ -I D:\ProgramData\Hardware\zigbee\Pro #
#                          jects\zstack\Samples\SensorSys\CC2530DB\..\..\..\. #
#                          .\..\Components\mac\high_level\ -I                 #
#                          D:\ProgramData\Hardware\zigbee\Projects\zstack\Sam #
#                          ples\SensorSys\CC2530DB\..\..\..\..\..\Components\ #
#                          mac\low_level\srf04\ -I D:\ProgramData\Hardware\zi #
#                          gbee\Projects\zstack\Samples\SensorSys\CC2530DB\.. #
#                          \..\..\..\..\Components\mac\low_level\srf04\single #
#                          _chip\ -I D:\ProgramData\Hardware\zigbee\Projects\ #
#                          zstack\Samples\SensorSys\CC2530DB\..\..\..\..\..\C #
#                          omponents\mt\ -I D:\ProgramData\Hardware\zigbee\Pr #
#                          ojects\zstack\Samples\SensorSys\CC2530DB\..\..\..\ #
#                          ..\..\Components\osal\include\ -I                  #
#                          D:\ProgramData\Hardware\zigbee\Projects\zstack\Sam #
#                          ples\SensorSys\CC2530DB\..\..\..\..\..\Components\ #
#                          services\saddr\ -I D:\ProgramData\Hardware\zigbee\ #
#                          Projects\zstack\Samples\SensorSys\CC2530DB\..\..\. #
#                          .\..\..\Components\services\sdata\ -I              #
#                          D:\ProgramData\Hardware\zigbee\Projects\zstack\Sam #
#                          ples\SensorSys\CC2530DB\..\..\..\..\..\Components\ #
#                          stack\af\ -I D:\ProgramData\Hardware\zigbee\Projec #
#                          ts\zstack\Samples\SensorSys\CC2530DB\..\..\..\..\. #
#                          .\Components\stack\nwk\ -I                         #
#                          D:\ProgramData\Hardware\zigbee\Projects\zstack\Sam #
#                          ples\SensorSys\CC2530DB\..\..\..\..\..\Components\ #
#                          stack\sapi\ -I D:\ProgramData\Hardware\zigbee\Proj #
#                          ects\zstack\Samples\SensorSys\CC2530DB\..\..\..\.. #
#                          \..\Components\stack\sec\ -I                       #
#                          D:\ProgramData\Hardware\zigbee\Projects\zstack\Sam #
#                          ples\SensorSys\CC2530DB\..\..\..\..\..\Components\ #
#                          stack\sys\ -I D:\ProgramData\Hardware\zigbee\Proje #
#                          cts\zstack\Samples\SensorSys\CC2530DB\..\..\..\..\ #
#                          ..\Components\stack\zdo\ -I                        #
#                          D:\ProgramData\Hardware\zigbee\Projects\zstack\Sam #
#                          ples\SensorSys\CC2530DB\..\..\..\..\..\Components\ #
#                          zmac\ -I D:\ProgramData\Hardware\zigbee\Projects\z #
#                          stack\Samples\SensorSys\CC2530DB\..\..\..\..\..\Co #
#                          mponents\zmac\f8w\ -Ohz --require_prototypes       #
#    List file          =  D:\ProgramData\Hardware\zigbee\Projects\zstack\Sam #
#                          ples\SensorSys\CC2530DB\CoordinatorEB\List\SensorS #
#                          ys_Coordinator.lst                                 #
#    Object file        =  D:\ProgramData\Hardware\zigbee\Projects\zstack\Sam #
#                          ples\SensorSys\CC2530DB\CoordinatorEB\Obj\SensorSy #
#                          s_Coordinator.r51                                  #
#                                                                             #
#                                                                             #
###############################################################################

D:\ProgramData\Hardware\zigbee\Projects\zstack\Samples\SensorSys\Source\SensorSys_Coordinator.c
      1          /**************************************************************************************************
      2            Filename:       Sys.c
      3            Revised:        $Date: 2009-03-18 15:56:27 -0700 (Wed, 18 Mar 2009) $
      4            Revision:       $Revision: 19453 $
      5          
      6            Description:    Generic Application (no Profile).
      7          
      8          
      9            Copyright 2004-2009 Texas Instruments Incorporated. All rights reserved.
     10          
     11            IMPORTANT: Your use of this Software is limited to those specific rights
     12            granted under the terms of a software license agreement between the user
     13            who downloaded the software, his/her employer (which must be your employer)
     14            and Texas Instruments Incorporated (the "License").  You may not use this
     15            Software unless you agree to abide by the terms of the License. The License
     16            limits your use, and you acknowledge, that the Software may not be modified,
     17            copied or distributed unless embedded on a Texas Instruments microcontroller
     18            or used solely and exclusively in conjunction with a Texas Instruments radio
     19            frequency transceiver, which is integrated into your product.  Other than for
     20            the foregoing purpose, you may not use, reproduce, copy, prepare derivative
     21            works of, modify, distribute, perform, display or sell this Software and/or
     22            its documentation for any purpose.
     23          
     24            YOU FURTHER ACKNOWLEDGE AND AGREE THAT THE SOFTWARE AND DOCUMENTATION ARE
     25            PROVIDED AS IS?WITHOUT WARRANTY OF ANY KIND, EITHER EXPRESS OR IMPLIED, 
     26            INCLUDING WITHOUT LIMITATION, ANY WARRANTY OF MERCHANTABILITY, TITLE, 
     27            NON-INFRINGEMENT AND FITNESS FOR A PARTICULAR PURPOSE. IN NO EVENT SHALL
     28            TEXAS INSTRUMENTS OR ITS LICENSORS BE LIABLE OR OBLIGATED UNDER CONTRACT,
     29            NEGLIGENCE, STRICT LIABILITY, CONTRIBUTION, BREACH OF WARRANTY, OR OTHER
     30            LEGAL EQUITABLE THEORY ANY DIRECT OR INDIRECT DAMAGES OR EXPENSES
     31            INCLUDING BUT NOT LIMITED TO ANY INCIDENTAL, SPECIAL, INDIRECT, PUNITIVE
     32            OR CONSEQUENTIAL DAMAGES, LOST PROFITS OR LOST DATA, COST OF PROCUREMENT
     33            OF SUBSTITUTE GOODS, TECHNOLOGY, SERVICES, OR ANY CLAIMS BY THIRD PARTIES
     34            (INCLUDING BUT NOT LIMITED TO ANY DEFENSE THEREOF), OR OTHER SIMILAR COSTS.
     35          
     36            Should you have any questions regarding your right to use this Software,
     37            contact Texas Instruments Incorporated at www.TI.com. 
     38          **************************************************************************************************/
     39          
     40          /*********************************************************************
     41            This application isn't intended to do anything useful, it is
     42            intended to be a simple example of an application's structure.
     43          
     44            This application sends "Hello World" to another "Generic"
     45            application every 15 seconds.  The application will also
     46            receive "Hello World" packets.
     47          
     48            The "Hello World" messages are sent/received as MSG type message.
     49          
     50            This applications doesn't have a profile, so it handles everything
     51            directly - itself.
     52          
     53            Key control:
     54              SW1:
     55              SW2:  initiates end device binding
     56              SW3:
     57              SW4:  initiates a match description request
     58          *********************************************************************/
     59          
     60          /*********************************************************************
     61           * INCLUDES
     62           */
     63          #include "OSAL.h"
     64          #include "AF.h"
     65          #include "ZDApp.h"
     66          #include "ZDObject.h"
     67          #include "ZDProfile.h"
     68          #include "sapi.h"
     69          
     70          #include "SensorSys.h"
     71          #include "DebugTrace.h"
     72          
     73          #if !defined( WIN32 )
     74            #include "OnBoard.h"
     75          #endif
     76          
     77          /* HAL */
     78          #include "hal_led.h"
     79          #include "hal_key.h"
     80          #include "hal_uart.h"
     81          
     82          /*********************************************************************
     83           * MACROS
     84           */
     85          
     86          /*********************************************************************
     87           * CONSTANTS
     88           */
     89          
     90          /*********************************************************************
     91           * TYPEDEFS
     92           */
     93          
     94          /*********************************************************************
     95           * GLOBAL VARIABLES
     96           */

   \                                 In  segment XDATA_I, align 1, keep-with-next
     97          uint8 AppTitle[]="SensorAPP"; //应用程序名称
   \                     AppTitle:
   \   000000                DS 10
   \   00000A                REQUIRE `?<Initializer for AppTitle>`
   \   00000A                REQUIRE __INIT_XDATA_I
     98          
     99          // Sys 端点的簇ID
    100          // This list should be filled with Application specific Cluster IDs.

   \                                 In  segment XDATA_ROM_C, align 1
    101          const cId_t Sys_ClusterList[SYS_MAX_CLUSTERS] =
   \                     Sys_ClusterList:
   \   000000   0100         DW 1
    102          {
    103            SYS_CLUSTERID
    104          };
    105          
    106          // Button 端点的簇ID
    107          // This list should be filled with Application specific Cluster IDs.

   \                                 In  segment XDATA_ROM_C, align 1
    108          const cId_t Button_ClusterList[BUTTON_MAX_CLUSTERS] =
   \                     Button_ClusterList:
   \   000000   0300         DW 3
   \   000002   0000         DW 0
    109          {
    110            BUTTON_CLUSTERID
    111          };
    112          

   \                                 In  segment XDATA_ROM_C, align 1
    113          const cId_t Zb_ClusterList[ZB_MAX_CLUSTERS] =
   \                     Zb_ClusterList:
   \   000000   0200         DW 2
   \   000002   0000         DW 0
   \   000004   0000         DW 0
   \   000006   0000         DW 0
    114          {
    115            ZB_CLUSTERID
    116          };
    117          
    118          // Sys 端点简单描述符

   \                                 In  segment XDATA_ROM_C, align 1
    119          const SimpleDescriptionFormat_t Sys_SimpleDesc =
   \                     Sys_SimpleDesc:
   \   000000   02           DB 2
   \   000001   040F         DW 3844
   \   000003   0100         DW 1
   \   000005   00           DB 0
   \   000006   01           DB 1
   \   000007   ....         DW Sys_ClusterList
   \   000009   00           DB 0
   \   00000A   0000         DW 0H
    120          {
    121          	SYS_ENDPOINT,           //  int Endpoint;
    122          	SYS_PROFID,                //  uint16 AppProfId[2];
    123          	SYS_DEVICEID,              //  uint16 AppDeviceId[2];
    124          	SYS_DEVICE_VERSION,        //  int   AppDevVer:4;
    125          	SYS_FLAGS,                 //  int   AppFlags:4;
    126          	SYS_MAX_CLUSTERS,          //  byte  AppNumInClusters;
    127          	(cId_t *)Sys_ClusterList,  //  byte *pAppInClusterList;
    128          	0,                         //  byte  AppNumInClusters;
    129          	NULL   //  byte *pAppInClusterList;
    130          };
    131          
    132          // Button 端点简单描述符

   \                                 In  segment XDATA_ROM_C, align 1
    133          const SimpleDescriptionFormat_t Button_SimpleDesc =
   \                     Button_SimpleDesc:
   \   000000   0A           DB 10
   \   000001   040F         DW 3844
   \   000003   0100         DW 1
   \   000005   00           DB 0
   \   000006   02           DB 2
   \   000007   ....         DW Button_ClusterList
   \   000009   02           DB 2
   \   00000A   ....         DW Button_ClusterList
    134          {
    135          	BUTTON_ENDPOINT,           //  int Endpoint;
    136          	SYS_PROFID,                //  uint16 AppProfId[2];
    137          	SYS_DEVICEID,              //  uint16 AppDeviceId[2];
    138          	SYS_DEVICE_VERSION,        //  int   AppDevVer:4;
    139          	SYS_FLAGS,                 //  int   AppFlags:4;
    140          	BUTTON_MAX_CLUSTERS,          //  byte  AppNumInClusters;
    141          	(cId_t *)Button_ClusterList,  //  byte *pAppInClusterList;
    142          	BUTTON_MAX_CLUSTERS,          //  byte  AppNumInClusters;
    143          	(cId_t *)Button_ClusterList   //  byte *pAppInClusterList;
    144          };
    145          

   \                                 In  segment XDATA_ROM_C, align 1
    146          const SimpleDescriptionFormat_t zb_SimpleDesc =
   \                     zb_SimpleDesc:
   \   000000   03           DB 3
   \   000001   040F         DW 3844
   \   000003   0100         DW 1
   \   000005   00           DB 0
   \   000006   04           DB 4
   \   000007   ....         DW Zb_ClusterList
   \   000009   04           DB 4
   \   00000A   ....         DW Zb_ClusterList
    147          {
    148          	ZB_ENDPOINT,           //  int Endpoint;
    149          	SYS_PROFID,                //  uint16 AppProfId[2];
    150          	SYS_DEVICEID,              //  uint16 AppDeviceId[2];
    151          	SYS_DEVICE_VERSION,        //  int   AppDevVer:4;
    152          	SYS_FLAGS,                 //  int   AppFlags:4;
    153          	ZB_MAX_CLUSTERS,          //  byte  AppNumInClusters;
    154          	(cId_t *)Zb_ClusterList,  //  byte *pAppInClusterList;
    155          	ZB_MAX_CLUSTERS,          //  byte  AppNumInClusters;
    156          	(cId_t *)Zb_ClusterList   //  byte *pAppInClusterList;
    157          };
    158          
    159          // This is the Endpoint/Interface description.  It is defined here, but
    160          // filled-in in Button_Init().  Another way to go would be to fill
    161          // in the structure here and make it a "const" (in code space).  The
    162          // way it's defined in this sample app it is define in RAM.

   \                                 In  segment XDATA_Z, align 1, keep-with-next
    163          endPointDesc_t Sys_epDesc;
   \                     Sys_epDesc:
   \   000000                DS 6
   \   000006                REQUIRE __INIT_XDATA_Z

   \                                 In  segment XDATA_Z, align 1, keep-with-next
    164          endPointDesc_t Button_epDesc;
   \                     Button_epDesc:
   \   000000                DS 6
   \   000006                REQUIRE __INIT_XDATA_Z
    165          
    166          /*********************************************************************
    167           * EXTERNAL VARIABLES
    168           */
    169          
    170          /*********************************************************************
    171           * EXTERNAL FUNCTIONS
    172           */
    173          
    174          /*********************************************************************
    175           * LOCAL VARIABLES
    176           */

   \                                 In  segment XDATA_Z, align 1, keep-with-next
    177          static uint8 myAppState = APP_INIT;
   \                     myAppState:
   \   000000                DS 1
   \   000001                REQUIRE __INIT_XDATA_Z
    178          

   \                                 In  segment XDATA_Z, align 1, keep-with-next
    179          static byte type_join;
   \                     type_join:
   \   000000                DS 1
   \   000001                REQUIRE __INIT_XDATA_Z
    180          

   \                                 In  segment XDATA_Z, align 1, keep-with-next
    181          byte Sys_TaskID;
   \                     Sys_TaskID:
   \   000000                DS 1
   \   000001                REQUIRE __INIT_XDATA_Z

   \                                 In  segment XDATA_Z, align 1, keep-with-next
    182          byte Button_TaskID;   // Task ID for internal task/event processing
   \                     Button_TaskID:
   \   000000                DS 1
   \   000001                REQUIRE __INIT_XDATA_Z
    183                                  // This variable will be received when
    184                                  // Button_Init() is called.
    185          

   \                                 In  segment XDATA_Z, align 1, keep-with-next
    186          devStates_t Sys_NwkState;   // 节点现在的网络状态
   \                     Sys_NwkState:
   \   000000                DS 1
   \   000001                REQUIRE __INIT_XDATA_Z
    187          
    188          

   \                                 In  segment XDATA_Z, align 1, keep-with-next
    189          byte Sys_TransID;  // 数据包的发送ID，每发一个自增1
   \                     Sys_TransID:
   \   000000                DS 1
   \   000001                REQUIRE __INIT_XDATA_Z
    190          

   \                                 In  segment XDATA_Z, align 1, keep-with-next
    191          afAddrType_t Button_DstAddr;
   \                     Button_DstAddr:
   \   000000                DS 12
   \   00000C                REQUIRE __INIT_XDATA_Z
    192          

   \                                 In  segment XDATA_Z, align 1, keep-with-next
    193          static uint8 sysSeqNumber = 0;    // 在端点间数据交流时被使用zb_SendDataRequest
   \                     sysSeqNumber:
   \   000000                DS 1
   \   000001                REQUIRE __INIT_XDATA_Z
    194          
    195          /*********************************************************************
    196           * LOCAL FUNCTIONS
    197           */
    198          void Sys_Init( byte task_id );
    199          void Button_Init( byte task_id );
    200          
    201          UINT16 Sys_ProcessEvent( byte task_id, UINT16 events );
    202          void Sys_ProcessZDOMsgs( zdoIncomingMsg_t *inMsg, byte task_id );
    203          void Button_HandleKeys( byte shift, byte keys );
    204          void Sys_MessageMSGCB( afIncomingMSGPacket_t *pckt, byte task_id );
    205          void Sys_SendPreBindMessage( byte type_id );
    206          
    207          /*********************************************************************
    208           * NETWORK LAYER CALLBACKS
    209           */
    210          
    211          /*********************************************************************
    212           * PUBLIC FUNCTIONS
    213           */
    214          
    215          /*********************************************************************
    216           * @fn      Sys_Init
    217           *
    218           * @brief   Initialization function for the Generic App Task.
    219           *          This is called during initialization and should contain
    220           *          any application specific initialization (ie. hardware
    221           *          initialization/setup, table initialization, power up
    222           *          notificaiton ... ).
    223           *
    224           * @param   task_id - the ID assigned by OSAL.  This ID should be
    225           *                    used to send messages and set timers.
    226           *
    227           * @return  none
    228           */

   \                                 In  segment BANKED_CODE, align 1, keep-with-next
    229          void Sys_Init( byte task_id )
   \                     Sys_Init:
    230          {
   \   000000   74F7         MOV     A,#-0x9
   \   000002   12....       LCALL   ?BANKED_ENTER_XDATA
   \   000005                ; Saved register size: 9
   \   000005                ; Auto size: 0
   \   000005   E9           MOV     A,R1
    231            Sys_TaskID = task_id;
   \   000006   90....       MOV     DPTR,#Sys_TaskID
   \   000009   F0           MOVX    @DPTR,A
    232          
    233            // Fill out the endpoint description.
    234            Sys_epDesc.endPoint = SYS_ENDPOINT;
   \   00000A   90....       MOV     DPTR,#Sys_epDesc
   \   00000D   7402         MOV     A,#0x2
   \   00000F   F0           MOVX    @DPTR,A
    235            Sys_epDesc.task_id = &Sys_TaskID;
   \   000010   A3           INC     DPTR
   \   000011   74..         MOV     A,#Sys_TaskID & 0xff
   \   000013   F0           MOVX    @DPTR,A
   \   000014   A3           INC     DPTR
   \   000015   74..         MOV     A,#(Sys_TaskID >> 8) & 0xff
   \   000017   F0           MOVX    @DPTR,A
    236            Sys_epDesc.simpleDesc
    237                      = (SimpleDescriptionFormat_t *)&Sys_SimpleDesc;
   \   000018   A3           INC     DPTR
   \   000019   74..         MOV     A,#Sys_SimpleDesc & 0xff
   \   00001B   F0           MOVX    @DPTR,A
   \   00001C   A3           INC     DPTR
   \   00001D   74..         MOV     A,#(Sys_SimpleDesc >> 8) & 0xff
   \   00001F   F0           MOVX    @DPTR,A
    238            Sys_epDesc.latencyReq = noLatencyReqs;
   \   000020   A3           INC     DPTR
   \   000021   E4           CLR     A
   \   000022   F0           MOVX    @DPTR,A
    239          
    240            // Register the endpoint description with the AF
    241            afRegister( &Sys_epDesc );
   \   000023                ; Setup parameters for call to function afRegister
   \   000023   7A..         MOV     R2,#Sys_epDesc & 0xff
   \   000025   7B..         MOV     R3,#(Sys_epDesc >> 8) & 0xff
   \   000027   12....       LCALL   ??afRegister?relay
    242          
    243          
    244            HalLedSet ( HAL_LED_1, HAL_LED_MODE_ON );
   \   00002A                ; Setup parameters for call to function HalLedSet
   \   00002A   7A01         MOV     R2,#0x1
   \   00002C   7901         MOV     R1,#0x1
   \   00002E   12....       LCALL   ??HalLedSet?relay
    245            HalLedSet ( HAL_LED_2, HAL_LED_MODE_ON );
   \   000031                ; Setup parameters for call to function HalLedSet
   \   000031   7A01         MOV     R2,#0x1
   \   000033   7902         MOV     R1,#0x2
   \   000035   12....       LCALL   ??HalLedSet?relay
    246            HalLedSet ( HAL_LED_3, HAL_LED_MODE_ON );
   \   000038                ; Setup parameters for call to function HalLedSet
   \   000038   7A01         MOV     R2,#0x1
   \   00003A   7904         MOV     R1,#0x4
   \   00003C   12....       LCALL   ??HalLedSet?relay
    247          
    248            // Set device as Coordinator
    249            zgDeviceLogicalType = ZG_DEVICETYPE_COORDINATOR;
   \   00003F   90....       MOV     DPTR,#zgDeviceLogicalType
   \   000042   E4           CLR     A
   \   000043   F0           MOVX    @DPTR,A
    250          
    251            // To Initiallize
    252            // osal_start_timerEx(task_id, CONFIG_OPTION_EVT, 5000);
    253          }
   \   000044   02....       LJMP    ?Subroutine0 & 0xFFFF

   \                                 In  segment BANKED_CODE, align 1, keep-with-next
   \                     ?Subroutine0:
   \   000000   7F01         MOV     R7,#0x1
   \   000002   02....       LJMP    ?BANKED_LEAVE_XDATA
    254          
    255          /*********************************************************************
    256           * @fn      Button_Init
    257           *
    258           * @brief   Initialization function for the Generic App Task.
    259           *          This is called during initialization and should contain
    260           *          any application specific initialization (ie. hardware
    261           *          initialization/setup, table initialization, power up
    262           *          notificaiton ... ).
    263           *
    264           * @param   task_id - the ID assigned by OSAL.  This ID should be
    265           *                    used to send messages and set timers.
    266           *
    267           * @return  none
    268           */

   \                                 In  segment BANKED_CODE, align 1, keep-with-next
    269          void Button_Init( byte task_id )
   \                     Button_Init:
    270          {
   \   000000   74F7         MOV     A,#-0x9
   \   000002   12....       LCALL   ?BANKED_ENTER_XDATA
   \   000005                ; Saved register size: 9
   \   000005                ; Auto size: 0
   \   000005   E9           MOV     A,R1
    271            Button_TaskID = task_id;
   \   000006   90....       MOV     DPTR,#Button_TaskID
   \   000009   F0           MOVX    @DPTR,A
    272          
    273            // Device hardware initialization can be added here or in main() (Zmain.c).
    274            // If the hardware is application specific - add it here.
    275            // If the hardware is other parts of the device add it in main().
    276          
    277            Button_DstAddr.addrMode = (afAddrMode_t)AddrNotPresent;
   \   00000A   90....       MOV     DPTR,#Button_DstAddr + 8
   \   00000D   E4           CLR     A
   \   00000E   F0           MOVX    @DPTR,A
    278            Button_DstAddr.endPoint = 0;
   \   00000F   A3           INC     DPTR
   \   000010   F0           MOVX    @DPTR,A
    279            Button_DstAddr.addr.shortAddr = 0;
   \   000011   90....       MOV     DPTR,#Button_DstAddr
   \   000014   F0           MOVX    @DPTR,A
   \   000015   A3           INC     DPTR
   \   000016   F0           MOVX    @DPTR,A
    280          
    281            // Fill out the endpoint description.
    282            Button_epDesc.endPoint = BUTTON_ENDPOINT;
   \   000017   90....       MOV     DPTR,#Button_epDesc
   \   00001A   740A         MOV     A,#0xa
   \   00001C   F0           MOVX    @DPTR,A
    283            Button_epDesc.task_id = &Button_TaskID;
   \   00001D   A3           INC     DPTR
   \   00001E   74..         MOV     A,#Button_TaskID & 0xff
   \   000020   F0           MOVX    @DPTR,A
   \   000021   A3           INC     DPTR
   \   000022   74..         MOV     A,#(Button_TaskID >> 8) & 0xff
   \   000024   F0           MOVX    @DPTR,A
    284            Button_epDesc.simpleDesc
    285                      = (SimpleDescriptionFormat_t *)&Button_SimpleDesc;
   \   000025   A3           INC     DPTR
   \   000026   74..         MOV     A,#Button_SimpleDesc & 0xff
   \   000028   F0           MOVX    @DPTR,A
   \   000029   A3           INC     DPTR
   \   00002A   74..         MOV     A,#(Button_SimpleDesc >> 8) & 0xff
   \   00002C   F0           MOVX    @DPTR,A
    286            Button_epDesc.latencyReq = noLatencyReqs;
   \   00002D   A3           INC     DPTR
   \   00002E   E4           CLR     A
   \   00002F   F0           MOVX    @DPTR,A
    287          
    288            // Register the endpoint description with the AF
    289            afRegister( &Button_epDesc );
   \   000030                ; Setup parameters for call to function afRegister
   \   000030   7A..         MOV     R2,#Button_epDesc & 0xff
   \   000032   7B..         MOV     R3,#(Button_epDesc >> 8) & 0xff
   \   000034   12....       LCALL   ??afRegister?relay
    290          
    291            // Register for all key events - This app will handle all key events
    292            RegisterForKeys( Button_TaskID );
   \   000037                ; Setup parameters for call to function RegisterForKeys
   \   000037   90....       MOV     DPTR,#Button_TaskID
   \   00003A   E0           MOVX    A,@DPTR
   \   00003B   F9           MOV     R1,A
   \   00003C   12....       LCALL   ??RegisterForKeys?relay
    293          
    294            // To Update the display...
    295           
    296            ZDO_RegisterForZDOMsg( Button_TaskID, Match_Desc_rsp );
   \   00003F                ; Setup parameters for call to function ZDO_RegisterForZDOMsg
   \   00003F   7A06         MOV     R2,#0x6
   \   000041   7B80         MOV     R3,#-0x80
   \   000043   90....       MOV     DPTR,#Button_TaskID
   \   000046   E0           MOVX    A,@DPTR
   \   000047   F9           MOV     R1,A
   \   000048   12....       LCALL   ??ZDO_RegisterForZDOMsg?relay
    297          }
   \   00004B   02....       LJMP    ?Subroutine0 & 0xFFFF
    298          
    299          /*********************************************************************
    300           * @fn      Sys_ProcessEvent
    301           *
    302           * @brief   Generic Application Task event processor.  This function
    303           *          is called to process all events for the task.  Events
    304           *          include timers, messages and any other user defined events.
    305           *
    306           * @param   task_id  - The OSAL assigned task ID.
    307           * @param   events - events to process.  This is a bit map and can
    308           *                   contain more than one event.
    309           *
    310           * @return  none
    311           */

   \                                 In  segment BANKED_CODE, align 1, keep-with-next
    312          UINT16 Sys_ProcessEvent( byte task_id, UINT16 events )
   \                     Sys_ProcessEvent:
    313          {
   \   000000   74F2         MOV     A,#-0xe
   \   000002   12....       LCALL   ?BANKED_ENTER_XDATA
   \   000005                ; Saved register size: 14
   \   000005                ; Auto size: 2
   \   000005   74FE         MOV     A,#-0x2
   \   000007   12....       LCALL   ?ALLOC_XSTACK8
   \   00000A   89..         MOV     ?V0 + 2,R1
   \   00000C   EA           MOV     A,R2
   \   00000D   FE           MOV     R6,A
   \   00000E   EB           MOV     A,R3
   \   00000F   FF           MOV     R7,A
    314            afIncomingMSGPacket_t *MSGpkt = NULL;
    315            afDataConfirm_t *afDataConfirm;
    316          
    317            // Data Confirmation message fields
    318            byte sentEP;
    319            ZStatus_t sentStatus;
    320            byte sentTransID;       // This should match the value sent
    321            (void)task_id;  // Intentionally unreferenced parameter
    322          
    323            if ( events & SYS_EVENT_MSG )
   \   000010   5480         ANL     A,#0x80
   \   000012   6043         JZ      ??Sys_ProcessEvent_0
    324            {
    325              MSGpkt = (afIncomingMSGPacket_t *)osal_msg_receive( task_id );
   \   000014                ; Setup parameters for call to function osal_msg_receive
   \   000014   8012         SJMP    ??Sys_ProcessEvent_1
    326              while ( MSGpkt )
    327              {
    328                switch ( MSGpkt->hdr.event )
    329                {
    330                  case ZDO_CB_MSG:  // 收到被绑定节点的rsp
    331                    Sys_ProcessZDOMsgs( (zdoIncomingMsg_t *)MSGpkt, task_id );
    332                    break;
    333          
    334                  case AF_DATA_CONFIRM_CMD:
    335                    // This message is received as a confirmation of a data packet sent.
    336                    // The status is of ZStatus_t type [defined in ZComDef.h]
    337                    // The message fields are defined in AF.h
    338                    afDataConfirm = (afDataConfirm_t *)MSGpkt;
    339                    sentEP = afDataConfirm->endpoint;
    340                    sentStatus = afDataConfirm->hdr.status;
    341                    sentTransID = afDataConfirm->transID;
    342                    (void)sentEP;
    343                    (void)sentTransID;
    344          
    345                    // Action taken when confirmation is received.
    346                    if ( sentStatus != ZSuccess )
    347                    {
    348                      // The data wasn't delivered -- Do something
    349                    }
    350                    break;
    351          
    352                  case AF_INCOMING_MSG_CMD:
    353                    Sys_MessageMSGCB( MSGpkt, task_id );
    354                    break;
    355          
    356                  case ZDO_STATE_CHANGE:
    357                    Sys_NwkState = (devStates_t)(MSGpkt->hdr.status);
   \                     ??Sys_ProcessEvent_2:
   \   000016   A3           INC     DPTR
   \   000017   E0           MOVX    A,@DPTR
   \   000018   90....       MOV     DPTR,#Sys_NwkState
   \   00001B   F0           MOVX    @DPTR,A
    358                    if ( (Sys_NwkState == DEV_ZB_COORD) )
    359                    {
    360                    	;
    361                    }
    362                    
    363                    break;
    364          
    365                  default:
    366                    break;
    367                }
    368          
    369                // Release the memory
    370                osal_msg_deallocate( (uint8 *)MSGpkt );
   \                     ??Sys_ProcessEvent_3:
   \   00001C                ; Setup parameters for call to function osal_msg_deallocate
   \   00001C   AA..         MOV     R2,?V0 + 0
   \   00001E   AB..         MOV     R3,?V0 + 1
   \   000020   12....       LCALL   ??osal_msg_deallocate?relay
    371          
    372                // Next
    373                MSGpkt = (afIncomingMSGPacket_t *)osal_msg_receive( Sys_TaskID );
   \   000023                ; Setup parameters for call to function osal_msg_receive
   \   000023   90....       MOV     DPTR,#Sys_TaskID
   \   000026   E0           MOVX    A,@DPTR
   \   000027   F9           MOV     R1,A
   \                     ??Sys_ProcessEvent_1:
   \   000028   12....       LCALL   ??osal_msg_receive?relay
   \   00002B   8A..         MOV     ?V0 + 0,R2
   \   00002D   8B..         MOV     ?V0 + 1,R3
   \   00002F   E5..         MOV     A,?V0 + 0
   \   000031   45..         ORL     A,?V0 + 1
   \   000033   601A         JZ      ??Sys_ProcessEvent_4
   \   000035   85..82       MOV     DPL,?V0 + 0
   \   000038   85..83       MOV     DPH,?V0 + 1
   \   00003B   E0           MOVX    A,@DPTR
   \   00003C   242F         ADD     A,#0x2f
   \   00003E   60D6         JZ      ??Sys_ProcessEvent_2
   \   000040   24FE         ADD     A,#-0x2
   \   000042   70D8         JNZ     ??Sys_ProcessEvent_3
   \   000044                ; Setup parameters for call to function Sys_ProcessZDOMsgs
   \   000044   A9..         MOV     R1,?V0 + 2
   \   000046   AA..         MOV     R2,?V0 + 0
   \   000048   AB..         MOV     R3,?V0 + 1
   \   00004A   12....       LCALL   ??Sys_ProcessZDOMsgs?relay
   \   00004D   80CD         SJMP    ??Sys_ProcessEvent_3
    374              }
    375              // return unprocessed events
    376              return (events ^ SYS_EVENT_MSG);
   \                     ??Sys_ProcessEvent_4:
   \   00004F   EE           MOV     A,R6
   \   000050   FA           MOV     R2,A
   \   000051   EF           MOV     A,R7
   \   000052   6480         XRL     A,#0x80
   \                     ??Sys_ProcessEvent_5:
   \   000054   FB           MOV     R3,A
   \   000055   807F         SJMP    ??Sys_ProcessEvent_6
    377            }
    378          
    379            if( events & MATCH_BIND_EVT ) // 广播 match 绑定
   \                     ??Sys_ProcessEvent_0:
   \   000057   EE           MOV     A,R6
   \   000058   5402         ANL     A,#0x2
   \   00005A   601C         JZ      ??Sys_ProcessEvent_7
    380            {
    381                if(task_id == Button_TaskID)
   \   00005C   90....       MOV     DPTR,#Button_TaskID
   \   00005F   E0           MOVX    A,@DPTR
   \   000060   65..         XRL     A,?V0 + 2
   \   000062   700D         JNZ     ??Sys_ProcessEvent_8
    382                {
    383                   zb_BindDevice(TRUE, BUTTON_CMD_ID, NULL);
   \   000064                ; Setup parameters for call to function zb_BindDevice
   \   000064   7C00         MOV     R4,#0x0
   \   000066   7D00         MOV     R5,#0x0
   \   000068   7A01         MOV     R2,#0x1
   \   00006A   7B00         MOV     R3,#0x0
   \   00006C   7901         MOV     R1,#0x1
   \   00006E   12....       LCALL   ??zb_BindDevice?relay
    384                   // HalLedSet(HAL_LED_2, HAL_LED_MODE_OFF); // 亮D2
    385                }
    386                return (events ^ MATCH_BIND_EVT);
   \                     ??Sys_ProcessEvent_8:
   \   000071   EE           MOV     A,R6
   \   000072   6402         XRL     A,#0x2
   \   000074   FA           MOV     R2,A
   \   000075   EF           MOV     A,R7
   \   000076   80DC         SJMP    ??Sys_ProcessEvent_5
    387            }
    388          
    389            if( events & CONFIG_OPTION_EVT )
   \                     ??Sys_ProcessEvent_7:
   \   000078   EE           MOV     A,R6
   \   000079   5404         ANL     A,#0x4
   \   00007B   6055         JZ      ??Sys_ProcessEvent_9
    390            {
    391              uint8 logicalType;
    392              uint8 startOptions;
    393              if ( myAppState == APP_INIT  )
   \   00007D   90....       MOV     DPTR,#myAppState
   \   000080   E0           MOVX    A,@DPTR
   \   000081   704F         JNZ     ??Sys_ProcessEvent_9
    394              {
    395                zb_ReadConfiguration( ZCD_NV_LOGICAL_TYPE, sizeof(uint8), &logicalType );
   \   000083                ; Setup parameters for call to function zb_ReadConfiguration
   \   000083   85..82       MOV     DPL,?XSP + 0
   \   000086   85..83       MOV     DPH,?XSP + 1
   \   000089   AC82         MOV     R4,DPL
   \   00008B   AD83         MOV     R5,DPH
   \   00008D   7A01         MOV     R2,#0x1
   \   00008F   7987         MOV     R1,#-0x79
   \   000091   12....       LCALL   ??zb_ReadConfiguration?relay
    396                if ( logicalType != ZG_DEVICETYPE_ENDDEVICE )
   \   000094   85..82       MOV     DPL,?XSP + 0
   \   000097   85..83       MOV     DPH,?XSP + 1
   \   00009A   E0           MOVX    A,@DPTR
   \   00009B   6402         XRL     A,#0x2
   \   00009D   600D         JZ      ??Sys_ProcessEvent_10
    397                {
    398                  logicalType = ZG_DEVICETYPE_COORDINATOR;
   \   00009F   E4           CLR     A
   \   0000A0   F0           MOVX    @DPTR,A
    399                  zb_WriteConfiguration(ZCD_NV_LOGICAL_TYPE, sizeof(uint8), &logicalType);
   \   0000A1                ; Setup parameters for call to function zb_WriteConfiguration
   \   0000A1   AC82         MOV     R4,DPL
   \   0000A3   AD83         MOV     R5,DPH
   \   0000A5   7A01         MOV     R2,#0x1
   \   0000A7   7987         MOV     R1,#-0x79
   \   0000A9   12....       LCALL   ??zb_WriteConfiguration?relay
    400                }
    401                // Do more configuration if necessary and then restart device with auto-start bit set
    402                // write endpoint to simple desc...dont pass it in start req..then reset
    403          
    404                zb_ReadConfiguration( ZCD_NV_STARTUP_OPTION, sizeof(uint8), &startOptions );
   \                     ??Sys_ProcessEvent_10:
   \   0000AC                ; Setup parameters for call to function zb_ReadConfiguration
   \   0000AC   7401         MOV     A,#0x1
   \   0000AE   12....       LCALL   ?XSTACK_DISP0_8
   \   0000B1   AC82         MOV     R4,DPL
   \   0000B3   AD83         MOV     R5,DPH
   \   0000B5   7A01         MOV     R2,#0x1
   \   0000B7   7903         MOV     R1,#0x3
   \   0000B9   12....       LCALL   ??zb_ReadConfiguration?relay
    405                startOptions = ZCD_STARTOPT_AUTO_START;
   \   0000BC   7401         MOV     A,#0x1
   \   0000BE   12....       LCALL   ?XSTACK_DISP0_8
   \   0000C1   7404         MOV     A,#0x4
   \   0000C3   F0           MOVX    @DPTR,A
    406                zb_WriteConfiguration( ZCD_NV_STARTUP_OPTION, sizeof(uint8), &startOptions );
   \   0000C4                ; Setup parameters for call to function zb_WriteConfiguration
   \   0000C4   AC82         MOV     R4,DPL
   \   0000C6   AD83         MOV     R5,DPH
   \   0000C8   7A01         MOV     R2,#0x1
   \   0000CA   7903         MOV     R1,#0x3
   \   0000CC   12....       LCALL   ??zb_WriteConfiguration?relay
    407                zb_SystemReset();
   \   0000CF                ; Setup parameters for call to function zb_SystemReset
   \   0000CF   12....       LCALL   ??zb_SystemReset?relay
    408              }
    409            }
    410          
    411            // Discard unknown events
    412            return 0;
   \                     ??Sys_ProcessEvent_9:
   \   0000D2   7A00         MOV     R2,#0x0
   \   0000D4   7B00         MOV     R3,#0x0
   \                     ??Sys_ProcessEvent_6:
   \   0000D6   7402         MOV     A,#0x2
   \   0000D8   12....       LCALL   ?DEALLOC_XSTACK8
   \   0000DB                REQUIRE ?Subroutine1
   \   0000DB                ; // Fall through to label ?Subroutine1
    413          }

   \                                 In  segment BANKED_CODE, align 1, keep-with-next
   \                     ?Subroutine1:
   \   000000   7F06         MOV     R7,#0x6
   \   000002   02....       LJMP    ?BANKED_LEAVE_XDATA
    414          

   \                                 In  segment BANKED_CODE, align 1, keep-with-next
    415          UINT16 Button_ProcessEvent( byte task_id, UINT16 events )
   \                     Button_ProcessEvent:
    416          {
   \   000000   74F2         MOV     A,#-0xe
   \   000002   12....       LCALL   ?BANKED_ENTER_XDATA
   \   000005                ; Saved register size: 14
   \   000005                ; Auto size: 0
   \   000005   8A..         MOV     ?V0 + 0,R2
   \   000007   8B..         MOV     ?V0 + 1,R3
    417            afIncomingMSGPacket_t *MSGpkt = NULL;
    418          
    419            (void)task_id;  // Intentionally unreferenced parameter
    420          
    421            if ( events & SYS_EVENT_MSG )
   \   000009   EB           MOV     A,R3
   \   00000A   5480         ANL     A,#0x80
   \   00000C   603F         JZ      ??Button_ProcessEvent_0
    422            {
    423              MSGpkt = (afIncomingMSGPacket_t *)osal_msg_receive( task_id );
   \   00000E                ; Setup parameters for call to function osal_msg_receive
   \   00000E   8025         SJMP    ??Button_ProcessEvent_1
    424              while ( MSGpkt )
    425              {
    426                switch ( MSGpkt->hdr.event )
   \                     ??Button_ProcessEvent_2:
   \   000010   8E82         MOV     DPL,R6
   \   000012   8F83         MOV     DPH,R7
   \   000014   E0           MOVX    A,@DPTR
   \   000015   64C0         XRL     A,#0xc0
   \   000017   7010         JNZ     ??Button_ProcessEvent_3
    427                {
    428                  case KEY_CHANGE:
    429                    Button_HandleKeys( ((keyChange_t *)MSGpkt)->state, ((keyChange_t *)MSGpkt)->keys );
   \   000019                ; Setup parameters for call to function Button_HandleKeys
   \   000019   A3           INC     DPTR
   \   00001A   A3           INC     DPTR
   \   00001B   A3           INC     DPTR
   \   00001C   E0           MOVX    A,@DPTR
   \   00001D   FA           MOV     R2,A
   \   00001E   8E82         MOV     DPL,R6
   \   000020   8F83         MOV     DPH,R7
   \   000022   A3           INC     DPTR
   \   000023   A3           INC     DPTR
   \   000024   E0           MOVX    A,@DPTR
   \   000025   F9           MOV     R1,A
   \   000026   12....       LCALL   ??Button_HandleKeys?relay
    430                  break;
    431                }
    432                // Release the memory
    433                osal_msg_deallocate( (uint8 *)MSGpkt );
   \                     ??Button_ProcessEvent_3:
   \   000029                ; Setup parameters for call to function osal_msg_deallocate
   \   000029   EE           MOV     A,R6
   \   00002A   FA           MOV     R2,A
   \   00002B   EF           MOV     A,R7
   \   00002C   FB           MOV     R3,A
   \   00002D   12....       LCALL   ??osal_msg_deallocate?relay
    434          
    435                // Next
    436                MSGpkt = (afIncomingMSGPacket_t *)osal_msg_receive( Button_TaskID );
   \   000030                ; Setup parameters for call to function osal_msg_receive
   \   000030   90....       MOV     DPTR,#Button_TaskID
   \   000033   E0           MOVX    A,@DPTR
   \   000034   F9           MOV     R1,A
   \                     ??Button_ProcessEvent_1:
   \   000035   12....       LCALL   ??osal_msg_receive?relay
   \   000038   8A..         MOV     ?V0 + 4,R2
   \   00003A   8B..         MOV     ?V0 + 5,R3
   \   00003C   AE..         MOV     R6,?V0 + 4
   \   00003E   AF..         MOV     R7,?V0 + 5
    437              }
   \   000040   EE           MOV     A,R6
   \   000041   4F           ORL     A,R7
   \   000042   70CC         JNZ     ??Button_ProcessEvent_2
    438             return (events ^ SYS_EVENT_MSG);
   \   000044   AA..         MOV     R2,?V0 + 0
   \   000046   E5..         MOV     A,?V0 + 1
   \   000048   6480         XRL     A,#0x80
   \   00004A   FB           MOV     R3,A
   \   00004B   8004         SJMP    ??Button_ProcessEvent_4
    439            }
    440            return 0;
   \                     ??Button_ProcessEvent_0:
   \   00004D   7A00         MOV     R2,#0x0
   \   00004F   7B00         MOV     R3,#0x0
   \                     ??Button_ProcessEvent_4:
   \   000051   80..         SJMP    ?Subroutine1
    441          }
    442          
    443          /*********************************************************************
    444           * Event Generation Functions
    445           */
    446          
    447          /*********************************************************************
    448           * @fn      Sys_ProcessZDOMsgs()
    449           *
    450           * @brief   Process response messages
    451           *
    452           * @param   none
    453           *
    454           * @return  none
    455           */

   \                                 In  segment BANKED_CODE, align 1, keep-with-next
    456          void Sys_ProcessZDOMsgs( zdoIncomingMsg_t *inMsg , byte task_id )
   \                     Sys_ProcessZDOMsgs:
    457          {
   \   000000   74F5         MOV     A,#-0xb
   \   000002   12....       LCALL   ?BANKED_ENTER_XDATA
   \   000005                ; Saved register size: 11
   \   000005                ; Auto size: 9
   \   000005   74F7         MOV     A,#-0x9
   \   000007   12....       LCALL   ?ALLOC_XSTACK8
    458          
    459            switch ( inMsg->clusterID )
   \   00000A   EA           MOV     A,R2
   \   00000B   240C         ADD     A,#0xc
   \   00000D   F582         MOV     DPL,A
   \   00000F   EB           MOV     A,R3
   \   000010   3400         ADDC    A,#0x0
   \   000012   F583         MOV     DPH,A
   \   000014   E0           MOVX    A,@DPTR
   \   000015   F5..         MOV     ?V0 + 0,A
   \   000017   A3           INC     DPTR
   \   000018   E0           MOVX    A,@DPTR
   \   000019   F5..         MOV     ?V0 + 1,A
   \   00001B   78..         MOV     R0,#?V0 + 0
   \   00001D   12....       LCALL   ?US_SWITCH_SPARSE
   \                     `?<Jumptable for Sys_ProcessZDOMsgs>_0`:
   \   000020   0000         DW        0
   \   000022   0200         DW        2
   \   000024   0680         DW        32774
   \   000026   ....         DW        ??Sys_ProcessZDOMsgs_0
   \   000028   2080         DW        32800
   \   00002A   ....         DW        ??Sys_ProcessZDOMsgs_1
   \   00002C   ....         DW        ??Sys_ProcessZDOMsgs_2
    460            {
    461              case End_Device_Bind_rsp:
    462                if ( ZDO_ParseBindRsp( inMsg ) == ZSuccess )
   \                     ??Sys_ProcessZDOMsgs_1:
   \   00002E   EA           MOV     A,R2
   \   00002F   2413         ADD     A,#0x13
   \   000031   F582         MOV     DPL,A
   \   000033   EB           MOV     A,R3
   \   000034   3400         ADDC    A,#0x0
   \   000036   F583         MOV     DPH,A
   \   000038   12....       LCALL   ?Subroutine3 & 0xFFFF
   \                     ??CrossCallReturnLabel_0:
   \   00003B   700A         JNZ     ??Sys_ProcessZDOMsgs_3
    463                {
    464                  // Light LED
    465                  HalLedSet( HAL_LED_4, HAL_LED_MODE_ON );
   \   00003D                ; Setup parameters for call to function HalLedSet
   \   00003D   7A01         MOV     R2,#0x1
   \                     ??Sys_ProcessZDOMsgs_4:
   \   00003F   7908         MOV     R1,#0x8
   \   000041   12....       LCALL   ??HalLedSet?relay
   \   000044   02....       LJMP    ??Sys_ProcessZDOMsgs_2 & 0xFFFF
    466                }
    467          #if defined(BLINK_LEDS)
    468                else
    469                {
    470                  // Flash LED to show failure
    471                  HalLedSet ( HAL_LED_4, HAL_LED_MODE_FLASH );
   \                     ??Sys_ProcessZDOMsgs_3:
   \   000047                ; Setup parameters for call to function HalLedSet
   \   000047   7A04         MOV     R2,#0x4
   \   000049   80F4         SJMP    ??Sys_ProcessZDOMsgs_4
    472                }
    473          #endif
    474                break;
    475          
    476              case Match_Desc_rsp:
    477                {
    478                  zAddrType_t dstAddr;
    479                  ZDO_ActiveEndpointRsp_t *pRsp = ZDO_ParseEPListRsp( inMsg );
   \                     ??Sys_ProcessZDOMsgs_0:
   \   00004B                ; Setup parameters for call to function ZDO_ParseEPListRsp
   \   00004B   12....       LCALL   ??ZDO_ParseEPListRsp?relay
   \   00004E   8A..         MOV     ?V0 + 0,R2
   \   000050   8B..         MOV     ?V0 + 1,R3
   \   000052   AE..         MOV     R6,?V0 + 0
   \   000054   AF..         MOV     R7,?V0 + 1
    480                  if ( pRsp )
   \   000056   EE           MOV     A,R6
   \   000057   4F           ORL     A,R7
   \   000058   7003         JNZ     $+5
   \   00005A   02....       LJMP    ??Sys_ProcessZDOMsgs_2 & 0xFFFF
    481                  {
    482                    if ( pRsp->status == ZSuccess && pRsp->cnt )
   \   00005D   8E82         MOV     DPL,R6
   \   00005F   8F83         MOV     DPH,R7
   \   000061   E0           MOVX    A,@DPTR
   \   000062   6003         JZ      $+5
   \   000064   02....       LJMP    ??Sys_ProcessZDOMsgs_5 & 0xFFFF
   \   000067   A3           INC     DPTR
   \   000068   A3           INC     DPTR
   \   000069   A3           INC     DPTR
   \   00006A   E0           MOVX    A,@DPTR
   \   00006B   7003         JNZ     $+5
   \   00006D   02....       LJMP    ??Sys_ProcessZDOMsgs_5 & 0xFFFF
    483                    {
    484                      switch (type_join)
   \   000070   90....       MOV     DPTR,#type_join
   \   000073   E0           MOVX    A,@DPTR
   \   000074   6401         XRL     A,#0x1
   \   000076   6003         JZ      $+5
   \   000078   02....       LJMP    ??Sys_ProcessZDOMsgs_5 & 0xFFFF
    485                      {
    486                        case BUTTON_TYPE_ID:
    487                        {
    488                          for(int i=0; pRsp->cnt<i; i++)
   \   00007B   75..00       MOV     ?V0 + 0,#0x0
   \   00007E   75..00       MOV     ?V0 + 1,#0x0
   \   000081   02....       LJMP    ??Sys_ProcessZDOMsgs_6 & 0xFFFF
    489                          {
    490                            dstAddr.addrMode = (afAddrMode_t)Addr16Bit;
   \                     ??Sys_ProcessZDOMsgs_7:
   \   000084   7408         MOV     A,#0x8
   \   000086   12....       LCALL   ?XSTACK_DISP0_8
   \   000089   7402         MOV     A,#0x2
   \   00008B   F0           MOVX    @DPTR,A
    491                            dstAddr.addr.shortAddr = pRsp->nwkAddr;
   \   00008C   8E82         MOV     DPL,R6
   \   00008E   8F83         MOV     DPH,R7
   \   000090   A3           INC     DPTR
   \   000091   E0           MOVX    A,@DPTR
   \   000092   F8           MOV     R0,A
   \   000093   A3           INC     DPTR
   \   000094   E0           MOVX    A,@DPTR
   \   000095   F9           MOV     R1,A
   \   000096   85..82       MOV     DPL,?XSP + 0
   \   000099   85..83       MOV     DPH,?XSP + 1
   \   00009C   E8           MOV     A,R0
   \   00009D   F0           MOVX    @DPTR,A
   \   00009E   A3           INC     DPTR
   \   00009F   E9           MOV     A,R1
   \   0000A0   F0           MOVX    @DPTR,A
    492          
    493                            if ( APSME_BindRequest( Button_epDesc.simpleDesc->EndPoint,
    494                                  BUTTON_CLUSTERID, &dstAddr, pRsp->epList[i] ) == ZSuccess )
   \   0000A1                ; Setup parameters for call to function APSME_BindRequest
   \   0000A1   12....       LCALL   ?Subroutine4 & 0xFFFF
   \                     ??CrossCallReturnLabel_3:
   \   0000A4   F5..         MOV     ?V0 + 2,A
   \   0000A6   78..         MOV     R0,#?V0 + 2
   \   0000A8   12....       LCALL   ?PUSH_XSTACK_I_ONE
   \   0000AB   7401         MOV     A,#0x1
   \   0000AD   12....       LCALL   ?XSTACK_DISP0_8
   \   0000B0   AC82         MOV     R4,DPL
   \   0000B2   AD83         MOV     R5,DPH
   \   0000B4   7A03         MOV     R2,#0x3
   \   0000B6   7B00         MOV     R3,#0x0
   \   0000B8   90....       MOV     DPTR,#Button_epDesc + 3
   \   0000BB   12....       LCALL   ?Subroutine3 & 0xFFFF
   \                     ??CrossCallReturnLabel_1:
   \   0000BE   F9           MOV     R1,A
   \   0000BF   12....       LCALL   ??APSME_BindRequest?relay
   \   0000C2   7401         MOV     A,#0x1
   \   0000C4   12....       LCALL   ?DEALLOC_XSTACK8
   \   0000C7   E9           MOV     A,R1
   \   0000C8   702C         JNZ     ??Sys_ProcessZDOMsgs_8
    495                            {
    496                              //Bind Success
    497                              osal_start_timerEx( ZDAppTaskID, ZDO_NWK_UPDATE_NV,250);
   \   0000CA                ; Setup parameters for call to function osal_start_timerEx
   \   0000CA   7CFA         MOV     R4,#-0x6
   \   0000CC   7D00         MOV     R5,#0x0
   \   0000CE   7A00         MOV     R2,#0x0
   \   0000D0   7B02         MOV     R3,#0x2
   \   0000D2   90....       MOV     DPTR,#ZDAppTaskID
   \   0000D5   E0           MOVX    A,@DPTR
   \   0000D6   F9           MOV     R1,A
   \   0000D7   12....       LCALL   ??osal_start_timerEx?relay
    498                              // 获取目的设备的短地址---干什么的？
    499                              ZDP_IEEEAddrReq(pRsp->nwkAddr, ZDP_ADDR_REQTYPE_SINGLE, 0, 0);
   \   0000DA                ; Setup parameters for call to function ZDP_IEEEAddrReq
   \   0000DA   7D00         MOV     R5,#0x0
   \   0000DC   7C00         MOV     R4,#0x0
   \   0000DE   7900         MOV     R1,#0x0
   \   0000E0   8E82         MOV     DPL,R6
   \   0000E2   8F83         MOV     DPH,R7
   \   0000E4   A3           INC     DPTR
   \   0000E5   E0           MOVX    A,@DPTR
   \   0000E6   FA           MOV     R2,A
   \   0000E7   A3           INC     DPTR
   \   0000E8   E0           MOVX    A,@DPTR
   \   0000E9   FB           MOV     R3,A
   \   0000EA   12....       LCALL   ??ZDP_IEEEAddrReq?relay
    500          
    501                              zb_BindConfirm(BUTTON_CLUSTERID, ZB_SUCCESS);
   \   0000ED                ; Setup parameters for call to function zb_BindConfirm
   \   0000ED   7900         MOV     R1,#0x0
   \   0000EF   7A03         MOV     R2,#0x3
   \   0000F1   7B00         MOV     R3,#0x0
   \   0000F3   12....       LCALL   ??zb_BindConfirm?relay
    502                            }
    503          
    504                            // Take the first endpoint, Can be changed to search through endpoints
    505                            Button_DstAddr.endPoint = pRsp->epList[i];
   \                     ??Sys_ProcessZDOMsgs_8:
   \   0000F6   12....       LCALL   ?Subroutine4 & 0xFFFF
    506                          }
   \                     ??CrossCallReturnLabel_4:
   \   0000F9   90....       MOV     DPTR,#Button_DstAddr + 9
   \   0000FC   F0           MOVX    @DPTR,A
   \   0000FD   E5..         MOV     A,?V0 + 0
   \   0000FF   2401         ADD     A,#0x1
   \   000101   F5..         MOV     ?V0 + 0,A
   \   000103   E5..         MOV     A,?V0 + 1
   \   000105   3400         ADDC    A,#0x0
   \   000107   F5..         MOV     ?V0 + 1,A
   \                     ??Sys_ProcessZDOMsgs_6:
   \   000109   8E82         MOV     DPL,R6
   \   00010B   8F83         MOV     DPH,R7
   \   00010D   A3           INC     DPTR
   \   00010E   A3           INC     DPTR
   \   00010F   A3           INC     DPTR
   \   000110   E0           MOVX    A,@DPTR
   \   000111   C3           CLR     C
   \   000112   95..         SUBB    A,?V0 + 0
   \   000114   E4           CLR     A
   \   000115   95..         SUBB    A,?V0 + 1
   \   000117   A2D2         MOV     C,0xD0 /* PSW */.2
   \   000119   65D0         XRL     A,PSW
   \   00011B   33           RLC     A
   \   00011C   5003         JNC     $+5
   \   00011E   02....       LJMP    ??Sys_ProcessZDOMsgs_7 & 0xFFFF
    507                          HalLedSet( HAL_LED_4, HAL_LED_MODE_ON );
   \   000121                ; Setup parameters for call to function HalLedSet
   \   000121   7A01         MOV     R2,#0x1
   \   000123   7908         MOV     R1,#0x8
   \   000125   12....       LCALL   ??HalLedSet?relay
    508                        }
    509          
    510                        // case Led_TaskID:
    511                      }
    512                    }
    513                    osal_mem_free( pRsp );
   \                     ??Sys_ProcessZDOMsgs_5:
   \   000128                ; Setup parameters for call to function osal_mem_free
   \   000128   EE           MOV     A,R6
   \   000129   FA           MOV     R2,A
   \   00012A   EF           MOV     A,R7
   \   00012B   FB           MOV     R3,A
   \   00012C   12....       LCALL   ??osal_mem_free?relay
    514                  }
    515                }
    516                break;
    517            }
    518          }
   \                     ??Sys_ProcessZDOMsgs_2:
   \   00012F   7409         MOV     A,#0x9
   \   000131   12....       LCALL   ?DEALLOC_XSTACK8
   \   000134   7F03         MOV     R7,#0x3
   \   000136   02....       LJMP    ?BANKED_LEAVE_XDATA

   \                                 In  segment BANKED_CODE, align 1, keep-with-next
   \                     ?Subroutine4:
   \   000000   EE           MOV     A,R6
   \   000001   25..         ADD     A,?V0 + 0
   \   000003   F582         MOV     DPL,A
   \   000005   EF           MOV     A,R7
   \   000006   35..         ADDC    A,?V0 + 1
   \   000008   F583         MOV     DPH,A
   \   00000A   A3           INC     DPTR
   \   00000B   A3           INC     DPTR
   \   00000C   A3           INC     DPTR
   \   00000D   A3           INC     DPTR
   \   00000E   E0           MOVX    A,@DPTR
   \   00000F   22           RET

   \                                 In  segment BANKED_CODE, align 1, keep-with-next
   \                     ?Subroutine3:
   \   000000   E0           MOVX    A,@DPTR
   \   000001   F8           MOV     R0,A
   \   000002   A3           INC     DPTR
   \   000003   E0           MOVX    A,@DPTR
   \   000004   F583         MOV     DPH,A
   \   000006   8882         MOV     DPL,R0
   \   000008   E0           MOVX    A,@DPTR
   \   000009   22           RET
    519          
    520          /*********************************************************************
    521           * @fn      Button_HandleKeys
    522           *
    523           * @brief   Handles all key events for this device.
    524           *
    525           * @param   shift - true if in shift/alt.
    526           * @param   keys - bit field for key events. Valid entries:
    527           *                 HAL_KEY_SW_4
    528           *                 HAL_KEY_SW_3
    529           *                 HAL_KEY_SW_2
    530           *                 HAL_KEY_SW_1
    531           *
    532           * @return  none
    533           */

   \                                 In  segment BANKED_CODE, align 1, keep-with-next
    534          void Button_HandleKeys( byte shift, byte keys )
   \                     Button_HandleKeys:
    535          {
   \   000000   74F6         MOV     A,#-0xa
   \   000002   12....       LCALL   ?BANKED_ENTER_XDATA
   \   000005                ; Saved register size: 10
   \   000005                ; Auto size: 0
   \   000005   E9           MOV     A,R1
   \   000006   FE           MOV     R6,A
   \   000007   EA           MOV     A,R2
   \   000008   FF           MOV     R7,A
    536            // Shift is used to make each button/switch dual purpose.
    537            if ( shift )
   \   000009   EE           MOV     A,R6
   \   00000A   7043         JNZ     ??Button_HandleKeys_0
    538            {
    539              if ( keys & HAL_KEY_SW_1 )
    540              {
    541              }
    542              if ( keys & HAL_KEY_SW_2 )
    543              {
    544              }
    545              if ( keys & HAL_KEY_SW_3 )
    546              {
    547              }
    548              if ( keys & HAL_KEY_SW_4 )
    549              {
    550              }
    551            }
    552            else
    553            {
    554              if ( keys & HAL_KEY_SW_1 )
   \   00000C   EF           MOV     A,R7
   \   00000D   A2E0         MOV     C,0xE0 /* A   */.0
   \   00000F   5005         JNC     ??Button_HandleKeys_1
    555              {
    556                Sys_SendPreBindMessage(BUTTON_TYPE_ID);
   \   000011                ; Setup parameters for call to function Sys_SendPreBindMessage
   \   000011   7901         MOV     R1,#0x1
   \   000013   12....       LCALL   ??Sys_SendPreBindMessage?relay
    557              }
    558          
    559              // 对远程端点发送命令
    560              if ( keys & HAL_KEY_SW_2 )
   \                     ??Button_HandleKeys_1:
   \   000016   EF           MOV     A,R7
   \   000017   A2E1         MOV     C,0xE0 /* A   */.1
   \   000019   5034         JNC     ??Button_HandleKeys_0
    561              {
    562                //( uint16 destination, uint16 commandId, uint8 len,
    563                //  uint8 *pData, uint8 handle, uint8 txOptions, uint8 radius )
    564                zb_SendDataRequest( 0xFFFE,  BUTTON_CMD_ID, 0,
    565                                  (uint8 *)NULL, sysSeqNumber, 0, 0 );
   \   00001B                ; Setup parameters for call to function zb_SendDataRequest
   \   00001B   75..00       MOV     ?V0 + 0,#0x0
   \   00001E   78..         MOV     R0,#?V0 + 0
   \   000020   12....       LCALL   ?PUSH_XSTACK_I_ONE
   \   000023   78..         MOV     R0,#?V0 + 0
   \   000025   12....       LCALL   ?PUSH_XSTACK_I_ONE
   \   000028   90....       MOV     DPTR,#sysSeqNumber
   \   00002B   E0           MOVX    A,@DPTR
   \   00002C   F5..         MOV     ?V0 + 0,A
   \   00002E   78..         MOV     R0,#?V0 + 0
   \   000030   12....       LCALL   ?PUSH_XSTACK_I_ONE
   \   000033   E4           CLR     A
   \   000034   F5..         MOV     ?V0 + 0,A
   \   000036   F5..         MOV     ?V0 + 1,A
   \   000038   78..         MOV     R0,#?V0 + 0
   \   00003A   12....       LCALL   ?PUSH_XSTACK_I_TWO
   \   00003D   7900         MOV     R1,#0x0
   \   00003F   7C01         MOV     R4,#0x1
   \   000041   7D00         MOV     R5,#0x0
   \   000043   7AFE         MOV     R2,#-0x2
   \   000045   7BFF         MOV     R3,#-0x1
   \   000047   12....       LCALL   ??zb_SendDataRequest?relay
   \   00004A   7405         MOV     A,#0x5
   \   00004C   12....       LCALL   ?DEALLOC_XSTACK8
    566                // 0xFFFE -- 没有目的地址的dstaddr(Match 的 addr)
    567              }
    568          
    569              if ( keys & HAL_KEY_SW_3 )
    570              {
    571              }
    572          
    573              // 是用来查找有没有东西可以匹配的
    574              if ( keys & HAL_KEY_SW_4 )
    575              {/*
    576                HalLedSet ( HAL_LED_4, HAL_LED_MODE_OFF );
    577                // Initiate a Match Description Request (Service Discovery)
    578                dstAddr.addrMode = AddrBroadcast;
    579                dstAddr.addr.shortAddr = NWK_BROADCAST_SHORTADDR;
    580                ZDP_MatchDescReq( &dstAddr, NWK_BROADCAST_SHORTADDR,
    581                                  SYS_PROFID,
    582                                  SYS_MAX_CLUSTERS, (cId_t *)Button_ClusterList,
    583                                  SYS_MAX_CLUSTERS, (cId_t *)Button_ClusterList,
    584                                  FALSE );
    585                                  */
    586              }
    587            }
    588          }
   \                     ??Button_HandleKeys_0:
   \   00004F                REQUIRE ?Subroutine2
   \   00004F                ; // Fall through to label ?Subroutine2

   \                                 In  segment BANKED_CODE, align 1, keep-with-next
   \                     ?Subroutine2:
   \   000000   7F02         MOV     R7,#0x2
   \   000002   02....       LJMP    ?BANKED_LEAVE_XDATA
    589          
    590          /*********************************************************************
    591           * LOCAL FUNCTIONS
    592           */
    593          
    594          /*********************************************************************
    595           * @fn      Sys_MessageMSGCB
    596           *
    597           * @brief   Data message processor callback.  This function processes
    598           *          any incoming data - probably from other devices.  So, based
    599           *          on cluster ID, perform the intended action.
    600           *
    601           * @param   none
    602           *
    603           * @return  none
    604           */

   \                                 In  segment BANKED_CODE, align 1, keep-with-next
    605          void Sys_MessageMSGCB( afIncomingMSGPacket_t *pkt, byte task_id )
   \                     Sys_MessageMSGCB:
    606          {
   \   000000                ; Saved register size: 0
   \   000000                ; Auto size: 0
    607            switch ( pkt->clusterId )
    608            {
    609              case BUTTON_CLUSTERID:
    610                // "the" message
    611          #if defined( WIN32 )
    612                WPRINTSTR( pkt->cmd.Data );
    613          #endif
    614                break;
    615            }
    616          }
   \   000000   02....       LJMP    ?BRET
    617          
    618          /*********************************************************************
    619           * @fn      Sys_SendPreBindMessage
    620           * * @brief   Broadcast prebind message.
    621           *
    622           *
    623           * @param   type_id : 想要绑定的终端类型
    624           *
    625           * @return  none
    626           */

   \                                 In  segment BANKED_CODE, align 1, keep-with-next
    627          void Sys_SendPreBindMessage( byte type_id )
   \                     Sys_SendPreBindMessage:
    628          {
   \   000000   74F6         MOV     A,#-0xa
   \   000002   12....       LCALL   ?BANKED_ENTER_XDATA
   \   000005                ; Saved register size: 10
   \   000005                ; Auto size: 17
   \   000005   74EF         MOV     A,#-0x11
   \   000007   12....       LCALL   ?ALLOC_XSTACK8
   \   00000A   E9           MOV     A,R1
   \   00000B   FE           MOV     R6,A
    629            afAddrType_t dstAddr;
    630          
    631            dstAddr.addr.shortAddr = 0xFFFF;
   \   00000C   7405         MOV     A,#0x5
   \   00000E   12....       LCALL   ?XSTACK_DISP0_8
   \   000011   74FF         MOV     A,#-0x1
   \   000013   F0           MOVX    @DPTR,A
   \   000014   A3           INC     DPTR
   \   000015   F0           MOVX    @DPTR,A
    632            dstAddr.addrMode = (afAddrMode_t)AddrBroadcast;
   \   000016   740D         MOV     A,#0xd
   \   000018   12....       LCALL   ?XSTACK_DISP0_8
   \   00001B   740F         MOV     A,#0xf
   \   00001D   F0           MOVX    @DPTR,A
    633            dstAddr.endPoint = Sys_epDesc.simpleDesc->EndPoint;
   \   00001E   90....       MOV     DPTR,#Sys_epDesc + 3
   \   000021   12....       LCALL   ?Subroutine3 & 0xFFFF
   \                     ??CrossCallReturnLabel_2:
   \   000024   C0E0         PUSH    A
   \   000026   740E         MOV     A,#0xe
   \   000028   12....       LCALL   ?XSTACK_DISP0_8
   \   00002B   D0E0         POP     A
   \   00002D   F0           MOVX    @DPTR,A
    634          
    635            char theMessageData[5] = "bind";
   \   00002E   85..82       MOV     DPL,?XSP + 0
   \   000031   85..83       MOV     DPH,?XSP + 1
   \   000034   AC82         MOV     R4,DPL
   \   000036   AD83         MOV     R5,DPH
   \   000038   7583..       MOV     DPH,#(`?<Constant "bind">` >> 8) & 0xff
   \   00003B   7582..       MOV     DPL,#`?<Constant "bind">` & 0xff
   \   00003E   7405         MOV     A,#0x5
   \   000040   12....       LCALL   ?MOVE_LONG8_XDATA_XDATA
    636            theMessageData[4] = type_id;
   \   000043   7404         MOV     A,#0x4
   \   000045   12....       LCALL   ?XSTACK_DISP0_8
   \   000048   E9           MOV     A,R1
   \   000049   F0           MOVX    @DPTR,A
    637          
    638            if ( AF_DataRequest( &dstAddr, &Sys_epDesc,
    639                                 SYS_CLUSTERID,
    640                                 (byte)osal_strlen( theMessageData ) + 1,
    641                                 (byte *)&theMessageData,
    642                                 &Sys_TransID,
    643                                 AF_DISCV_ROUTE, AF_DEFAULT_RADIUS ) == afStatus_SUCCESS )
   \   00004A                ; Setup parameters for call to function AF_DataRequest
   \   00004A   75..1E       MOV     ?V0 + 0,#0x1e
   \   00004D   78..         MOV     R0,#?V0 + 0
   \   00004F   12....       LCALL   ?PUSH_XSTACK_I_ONE
   \   000052   75....       MOV     ?V0 + 0,#Sys_TransID & 0xff
   \   000055   75....       MOV     ?V0 + 1,#(Sys_TransID >> 8) & 0xff
   \   000058   78..         MOV     R0,#?V0 + 0
   \   00005A   12....       LCALL   ?PUSH_XSTACK_I_TWO
   \   00005D   7403         MOV     A,#0x3
   \   00005F   12....       LCALL   ?XSTACK_DISP0_8
   \   000062   8582..       MOV     ?V0 + 0,DPL
   \   000065   8583..       MOV     ?V0 + 1,DPH
   \   000068   78..         MOV     R0,#?V0 + 0
   \   00006A   12....       LCALL   ?PUSH_XSTACK_I_TWO
   \   00006D                ; Setup parameters for call to function osal_strlen
   \   00006D   7405         MOV     A,#0x5
   \   00006F   12....       LCALL   ?XSTACK_DISP0_8
   \   000072   AA82         MOV     R2,DPL
   \   000074   AB83         MOV     R3,DPH
   \   000076   12....       LCALL   ??osal_strlen?relay
   \   000079   EA           MOV     A,R2
   \   00007A   2401         ADD     A,#0x1
   \   00007C   F5..         MOV     ?V0 + 0,A
   \   00007E   E4           CLR     A
   \   00007F   3400         ADDC    A,#0x0
   \   000081   F5..         MOV     ?V0 + 1,A
   \   000083   78..         MOV     R0,#?V0 + 0
   \   000085   12....       LCALL   ?PUSH_XSTACK_I_TWO
   \   000088   75..01       MOV     ?V0 + 0,#0x1
   \   00008B   75..00       MOV     ?V0 + 1,#0x0
   \   00008E   78..         MOV     R0,#?V0 + 0
   \   000090   12....       LCALL   ?PUSH_XSTACK_I_TWO
   \   000093   7920         MOV     R1,#0x20
   \   000095   7C..         MOV     R4,#Sys_epDesc & 0xff
   \   000097   7D..         MOV     R5,#(Sys_epDesc >> 8) & 0xff
   \   000099   740E         MOV     A,#0xe
   \   00009B   12....       LCALL   ?XSTACK_DISP0_8
   \   00009E   AA82         MOV     R2,DPL
   \   0000A0   AB83         MOV     R3,DPH
   \   0000A2   12....       LCALL   ??AF_DataRequest?relay
   \   0000A5   7409         MOV     A,#0x9
   \   0000A7   12....       LCALL   ?DEALLOC_XSTACK8
   \   0000AA   E9           MOV     A,R1
   \   0000AB   7029         JNZ     ??Sys_SendPreBindMessage_0
    644            {
    645              // Successfully requested to be sent.
    646              // 闪5s灯
    647              HalLedBlink (HAL_LED_1, 1, 50, 5000);
   \   0000AD                ; Setup parameters for call to function HalLedBlink
   \   0000AD   7C88         MOV     R4,#-0x78
   \   0000AF   7D13         MOV     R5,#0x13
   \   0000B1   7B32         MOV     R3,#0x32
   \   0000B3   7A01         MOV     R2,#0x1
   \   0000B5   7901         MOV     R1,#0x1
   \   0000B7   12....       LCALL   ??HalLedBlink?relay
    648              //if(想要绑定什么就对应的 TypeID)
    649          
    650              type_join = type_id;
   \   0000BA   EE           MOV     A,R6
   \   0000BB   90....       MOV     DPTR,#type_join
   \   0000BE   F0           MOVX    @DPTR,A
    651              if(type_id == BUTTON_TYPE_ID)
   \   0000BF   7401         MOV     A,#0x1
   \   0000C1   6E           XRL     A,R6
   \   0000C2   7019         JNZ     ??Sys_SendPreBindMessage_1
    652                osal_start_timerEx(Button_TaskID, MATCH_BIND_EVT, 5000);
   \   0000C4                ; Setup parameters for call to function osal_start_timerEx
   \   0000C4   7C88         MOV     R4,#-0x78
   \   0000C6   7D13         MOV     R5,#0x13
   \   0000C8   7A02         MOV     R2,#0x2
   \   0000CA   7B00         MOV     R3,#0x0
   \   0000CC   90....       MOV     DPTR,#Button_TaskID
   \   0000CF   E0           MOVX    A,@DPTR
   \   0000D0   F9           MOV     R1,A
   \   0000D1   12....       LCALL   ??osal_start_timerEx?relay
   \   0000D4   8007         SJMP    ??Sys_SendPreBindMessage_1
    653          
    654            }
    655            else
    656            {
    657              // Error occurred in request to send.
    658              HalLedSet(HAL_LED_1, HAL_LED_MODE_OFF);
   \                     ??Sys_SendPreBindMessage_0:
   \   0000D6                ; Setup parameters for call to function HalLedSet
   \   0000D6   7A00         MOV     R2,#0x0
   \   0000D8   7901         MOV     R1,#0x1
   \   0000DA   12....       LCALL   ??HalLedSet?relay
    659            }
    660          }
   \                     ??Sys_SendPreBindMessage_1:
   \   0000DD   7411         MOV     A,#0x11
   \   0000DF   12....       LCALL   ?DEALLOC_XSTACK8
   \   0000E2   02....       LJMP    ?Subroutine2 & 0xFFFF
    661          
    662          /*********************************************************************
    663          *********************************************************************/
    664          
    665          
    666          /******************************************************************************
    667           * @fn          zb_StartConfirm
    668           *
    669           * @brief       The zb_StartConfirm callback is called by the ZigBee stack
    670           *              after a start request operation completes
    671           *
    672           * @param       status - The status of the start operation.  Status of
    673           *                       ZB_SUCCESS indicates the start operation completed
    674           *                       successfully.  Else the status is an error code.
    675           *
    676           * @return      none
    677           */

   \                                 In  segment BANKED_CODE, align 1, keep-with-next
    678          void zb_StartConfirm( uint8 status )
   \                     zb_StartConfirm:
    679          {
   \   000000   74F7         MOV     A,#-0x9
   \   000002   12....       LCALL   ?BANKED_ENTER_XDATA
   \   000005                ; Saved register size: 9
   \   000005                ; Auto size: 0
   \   000005   E9           MOV     A,R1
    680              if ( status == ZB_SUCCESS )
   \   000006   7008         JNZ     ??zb_StartConfirm_0
    681            {
    682              myAppState = APP_START;
   \   000008   90....       MOV     DPTR,#myAppState
   \   00000B   7401         MOV     A,#0x1
   \   00000D   F0           MOVX    @DPTR,A
   \   00000E   8007         SJMP    ??zb_StartConfirm_1
    683            }
    684            else
    685            {
    686              // Try again later with a delay
    687          
    688              HalLedSet(HAL_LED_2, HAL_LED_MODE_BLINK);
   \                     ??zb_StartConfirm_0:
   \   000010                ; Setup parameters for call to function HalLedSet
   \   000010   7A02         MOV     R2,#0x2
   \   000012   7902         MOV     R1,#0x2
   \   000014   12....       LCALL   ??HalLedSet?relay
    689            }
    690          }
   \                     ??zb_StartConfirm_1:
   \   000017                REQUIRE ?Subroutine0
   \   000017                ; // Fall through to label ?Subroutine0
    691          /******************************************************************************
    692           * @fn          zb_SendDataConfirm
    693           *
    694           * @brief       The zb_SendDataConfirm callback function is called by the
    695           *              ZigBee after a send data operation completes
    696           *
    697           * @param       handle - The handle identifying the data transmission.
    698           *              status - The status of the operation.
    699           *
    700           * @return      none
    701           */

   \                                 In  segment BANKED_CODE, align 1, keep-with-next
    702          void zb_SendDataConfirm( uint8 handle, uint8 status )
   \                     zb_SendDataConfirm:
    703          {
   \   000000                ; Saved register size: 0
   \   000000                ; Auto size: 0
    704          }
   \   000000   02....       LJMP    ?BRET
    705          /******************************************************************************
    706           * @fn          zb_BindConfirm
    707           *
    708           * @brief       The zb_BindConfirm callback is called by the ZigBee stack
    709           *              after a bind operation completes.
    710           *
    711           * @param       commandId - The command ID of the binding being confirmed.
    712           *              status - The status of the bind operation.
    713           *
    714           * @return      none
    715           */

   \                                 In  segment BANKED_CODE, align 1, keep-with-next
    716          void zb_BindConfirm( uint16 commandId, uint8 status )
   \                     zb_BindConfirm:
    717          {
   \   000000   74F7         MOV     A,#-0x9
   \   000002   12....       LCALL   ?BANKED_ENTER_XDATA
   \   000005                ; Saved register size: 9
   \   000005                ; Auto size: 0
   \   000005   E9           MOV     A,R1
    718            if( status == ZB_SUCCESS)
   \   000006   7CD0         MOV     R4,#-0x30
   \   000008   7D07         MOV     R5,#0x7
   \   00000A   7B32         MOV     R3,#0x32
   \   00000C   7A01         MOV     R2,#0x1
   \   00000E   7004         JNZ     ??zb_BindConfirm_0
    719            {
    720              // Light D2 for 3s
    721              HalLedBlink(HAL_LED_2, 1, 50, 2000);  // 闪烁2s
   \   000010                ; Setup parameters for call to function HalLedBlink
   \   000010   7902         MOV     R1,#0x2
   \   000012   8002         SJMP    ??zb_BindConfirm_1
    722          
    723            }
    724            else
    725            {
    726              // Light D3 for 3s
    727              HalLedBlink(HAL_LED_3, 1, 50, 2000);  // 闪烁2s
   \                     ??zb_BindConfirm_0:
   \   000014                ; Setup parameters for call to function HalLedBlink
   \   000014   7904         MOV     R1,#0x4
   \                     ??zb_BindConfirm_1:
   \   000016   12....       LCALL   ??HalLedBlink?relay
    728          
    729            }
    730          }
   \   000019   80..         SJMP    ?Subroutine0
    731          /******************************************************************************
    732           * @fn          zb_AllowBindConfirm
    733           *
    734           * @brief       Indicates when another device attempted to bind to this device
    735           *
    736           * @param
    737           *
    738           * @return      none
    739           */

   \                                 In  segment BANKED_CODE, align 1, keep-with-next
    740          void zb_AllowBindConfirm( uint16 source )
   \                     zb_AllowBindConfirm:
    741          {
   \   000000                ; Saved register size: 0
   \   000000                ; Auto size: 0
    742          }
   \   000000   02....       LJMP    ?BRET
    743          /******************************************************************************
    744           * @fn          zb_FindDeviceConfirm
    745           *
    746           * @brief       The zb_FindDeviceConfirm callback function is called by the
    747           *              ZigBee stack when a find device operation completes.
    748           *
    749           * @param       searchType - The type of search that was performed.
    750           *              searchKey - Value that the search was executed on.
    751           *              result - The result of the search.
    752           *
    753           * @return      none
    754           */

   \                                 In  segment BANKED_CODE, align 1, keep-with-next
    755          void zb_FindDeviceConfirm( uint8 searchType, uint8 *searchKey, uint8 *result )
   \                     zb_FindDeviceConfirm:
    756          {
   \   000000                ; Saved register size: 0
   \   000000                ; Auto size: 0
    757          }
   \   000000   02....       LJMP    ?BRET
    758          /******************************************************************************
    759           * @fn          zb_ReceiveDataIndication
    760           *
    761           * @brief       The zb_ReceiveDataIndication callback function is called
    762           *              asynchronously by the ZigBee stack to notify the application
    763           *              when data is received from a peer device.
    764           *
    765           * @param       source - The short address of the peer device that sent the data
    766           *              command - The commandId associated with the data
    767           *              len - The number of bytes in the pData parameter
    768           *              pData - The data sent by the peer device
    769           *
    770           * @return      none
    771           */

   \                                 In  segment BANKED_CODE, align 1, keep-with-next
    772          void zb_ReceiveDataIndication( uint16 source, uint16 command, uint16 len, uint8 *pData  )
   \                     zb_ReceiveDataIndication:
    773          {
   \   000000                ; Saved register size: 0
   \   000000                ; Auto size: 0
    774          }
   \   000000   02....       LJMP    ?BRET
    775          

   \                                 In  segment BANKED_CODE, align 1, keep-with-next
    776          void zb_HandleOsalEvent( uint16 event )
   \                     zb_HandleOsalEvent:
    777          {
   \   000000                ; Saved register size: 0
   \   000000                ; Auto size: 0
    778          
    779          }
   \   000000   02....       LJMP    ?BRET

   \                                 In  segment XDATA_ID, align 1, keep-with-next
   \                     `?<Initializer for AppTitle>`:
   \   000000   53656E73     DB "SensorAPP"
   \            6F724150
   \            5000    

   \                                 In  segment BANK_RELAYS, align 1
   \                     ??Sys_Init?relay:
   \   000000   12....       LCALL   ?BDISPATCH
   \   000003   ......       DC24    Sys_Init

   \                                 In  segment BANK_RELAYS, align 1
   \                     ??Button_Init?relay:
   \   000000   12....       LCALL   ?BDISPATCH
   \   000003   ......       DC24    Button_Init

   \                                 In  segment BANK_RELAYS, align 1
   \                     ??Sys_ProcessEvent?relay:
   \   000000   12....       LCALL   ?BDISPATCH
   \   000003   ......       DC24    Sys_ProcessEvent

   \                                 In  segment BANK_RELAYS, align 1
   \                     ??Button_ProcessEvent?relay:
   \   000000   12....       LCALL   ?BDISPATCH
   \   000003   ......       DC24    Button_ProcessEvent

   \                                 In  segment BANK_RELAYS, align 1
   \                     ??Sys_ProcessZDOMsgs?relay:
   \   000000   12....       LCALL   ?BDISPATCH
   \   000003   ......       DC24    Sys_ProcessZDOMsgs

   \                                 In  segment BANK_RELAYS, align 1
   \                     ??Button_HandleKeys?relay:
   \   000000   12....       LCALL   ?BDISPATCH
   \   000003   ......       DC24    Button_HandleKeys

   \                                 In  segment BANK_RELAYS, align 1
   \                     ??Sys_MessageMSGCB?relay:
   \   000000   12....       LCALL   ?BDISPATCH
   \   000003   ......       DC24    Sys_MessageMSGCB

   \                                 In  segment BANK_RELAYS, align 1
   \                     ??Sys_SendPreBindMessage?relay:
   \   000000   12....       LCALL   ?BDISPATCH
   \   000003   ......       DC24    Sys_SendPreBindMessage

   \                                 In  segment BANK_RELAYS, align 1
   \                     ??zb_StartConfirm?relay:
   \   000000   12....       LCALL   ?BDISPATCH
   \   000003   ......       DC24    zb_StartConfirm

   \                                 In  segment BANK_RELAYS, align 1
   \                     ??zb_SendDataConfirm?relay:
   \   000000   12....       LCALL   ?BDISPATCH
   \   000003   ......       DC24    zb_SendDataConfirm

   \                                 In  segment BANK_RELAYS, align 1
   \                     ??zb_BindConfirm?relay:
   \   000000   12....       LCALL   ?BDISPATCH
   \   000003   ......       DC24    zb_BindConfirm

   \                                 In  segment BANK_RELAYS, align 1
   \                     ??zb_AllowBindConfirm?relay:
   \   000000   12....       LCALL   ?BDISPATCH
   \   000003   ......       DC24    zb_AllowBindConfirm

   \                                 In  segment BANK_RELAYS, align 1
   \                     ??zb_FindDeviceConfirm?relay:
   \   000000   12....       LCALL   ?BDISPATCH
   \   000003   ......       DC24    zb_FindDeviceConfirm

   \                                 In  segment BANK_RELAYS, align 1
   \                     ??zb_ReceiveDataIndication?relay:
   \   000000   12....       LCALL   ?BDISPATCH
   \   000003   ......       DC24    zb_ReceiveDataIndication

   \                                 In  segment BANK_RELAYS, align 1
   \                     ??zb_HandleOsalEvent?relay:
   \   000000   12....       LCALL   ?BDISPATCH
   \   000003   ......       DC24    zb_HandleOsalEvent

   \                                 In  segment XDATA_ROM_C, align 1
   \                     `?<Constant "bind">`:
   \   000000   62696E64     DB "bind"
   \            00      

   Maximum stack usage in bytes:

     Function                    ISTACK PSTACK XSTACK
     --------                    ------ ------ ------
     Button_HandleKeys               0      0     29
       -> Sys_SendPreBindMessage     0      0     20
       -> zb_SendDataRequest         0      0     30
     Button_Init                     0      0      9
       -> afRegister                 0      0     18
       -> RegisterForKeys            0      0     18
       -> ZDO_RegisterForZDOMsg      0      0     18
     Button_ProcessEvent             0      0     14
       -> osal_msg_receive           0      0     28
       -> Button_HandleKeys          0      0     28
       -> osal_msg_deallocate        0      0     28
       -> osal_msg_receive           0      0     28
     Sys_Init                        0      0      9
       -> afRegister                 0      0     18
       -> HalLedSet                  0      0     18
       -> HalLedSet                  0      0     18
       -> HalLedSet                  0      0     18
     Sys_MessageMSGCB                0      0      0
     Sys_ProcessEvent                0      0     16
       -> osal_msg_receive           0      0     32
       -> osal_msg_deallocate        0      0     32
       -> osal_msg_receive           0      0     32
       -> Sys_ProcessZDOMsgs         0      0     32
       -> zb_BindDevice              0      0     32
       -> zb_ReadConfiguration       0      0     32
       -> zb_WriteConfiguration      0      0     32
       -> zb_ReadConfiguration       0      0     32
       -> zb_WriteConfiguration      0      0     32
       -> zb_SystemReset             0      0     32
     Sys_ProcessZDOMsgs              0      0     37
       -> HalLedSet                  0      0     40
       -> HalLedSet                  0      0     40
       -> ZDO_ParseEPListRsp         0      0     40
       -> APSME_BindRequest          0      0     42
       -> osal_start_timerEx         0      0     40
       -> ZDP_IEEEAddrReq            0      0     40
       -> zb_BindConfirm             0      0     40
       -> HalLedSet                  0      0     40
       -> osal_mem_free              0      0     40
     Sys_SendPreBindMessage          2      0     46
       -> osal_strlen                0      0     64
       -> AF_DataRequest             0      0     72
       -> HalLedBlink                0      0     54
       -> osal_start_timerEx         0      0     54
       -> HalLedSet                  0      0     54
     zb_AllowBindConfirm             0      0      0
     zb_BindConfirm                  0      0     29
       -> HalLedBlink                0      0     18
       -> HalLedBlink                0      0     18
     zb_FindDeviceConfirm            0      0      0
     zb_HandleOsalEvent              0      0      0
     zb_ReceiveDataIndication        0      0      4
     zb_SendDataConfirm              0      0      0
     zb_StartConfirm                 0      0      9
       -> HalLedSet                  0      0     18


   Segment part sizes:

     Function/Label                   Bytes
     --------------                   -----
     AppTitle                           10
     Sys_ClusterList                     2
     Button_ClusterList                  4
     Zb_ClusterList                      8
     Sys_SimpleDesc                     12
     Button_SimpleDesc                  12
     zb_SimpleDesc                      12
     Sys_epDesc                          6
     Button_epDesc                       6
     myAppState                          1
     type_join                           1
     Sys_TaskID                          1
     Button_TaskID                       1
     Sys_NwkState                        1
     Sys_TransID                         1
     Button_DstAddr                     12
     sysSeqNumber                        1
     Sys_Init                           71
     ?Subroutine0                        5
     Button_Init                        78
     Sys_ProcessEvent                  219
     ?Subroutine1                        5
     Button_ProcessEvent                83
     Sys_ProcessZDOMsgs                313
     ?Subroutine4                       16
     ?Subroutine3                       10
     Button_HandleKeys                  79
     ?Subroutine2                        5
     Sys_MessageMSGCB                    3
     Sys_SendPreBindMessage            229
     zb_StartConfirm                    23
     zb_SendDataConfirm                  3
     zb_BindConfirm                     27
     zb_AllowBindConfirm                 3
     zb_FindDeviceConfirm                3
     zb_ReceiveDataIndication            3
     zb_HandleOsalEvent                  3
     ?<Initializer for AppTitle>        10
     ??Sys_Init?relay                    6
     ??Button_Init?relay                 6
     ??Sys_ProcessEvent?relay            6
     ??Button_ProcessEvent?relay         6
     ??Sys_ProcessZDOMsgs?relay          6
     ??Button_HandleKeys?relay           6
     ??Sys_MessageMSGCB?relay            6
     ??Sys_SendPreBindMessage?relay      6
     ??zb_StartConfirm?relay             6
     ??zb_SendDataConfirm?relay          6
     ??zb_BindConfirm?relay              6
     ??zb_AllowBindConfirm?relay         6
     ??zb_FindDeviceConfirm?relay        6
     ??zb_ReceiveDataIndication?relay    6
     ??zb_HandleOsalEvent?relay          6
     ?<Constant "bind">                  5

 
 1 181 bytes in segment BANKED_CODE
    90 bytes in segment BANK_RELAYS
    10 bytes in segment XDATA_I
    10 bytes in segment XDATA_ID
    55 bytes in segment XDATA_ROM_C
    31 bytes in segment XDATA_Z
 
 1 281 bytes of CODE  memory
    55 bytes of CONST memory
    41 bytes of XDATA memory

Errors: none
Warnings: none
