///////////////////////////////////////////////////////////////////////////////
//                                                                            /
// IAR C/C++ Compiler V8.10.3.10338/W32 for 8051        17/Apr/2018  12:32:56 /
// Copyright 2004-2011 IAR Systems AB.                                        /
//                                                                            /
//    Core               =  plain                                             /
//    Code model         =  banked                                            /
//    Data model         =  large                                             /
//    Calling convention =  xdata reentrant                                   /
//    Constant location  =  data_rom                                          /
//    Dptr setup         =  1,16                                              /
//    Source file        =  D:\ProgramData\Hardware\zigbee\Projects\zstack\Sa /
//                          mples\SensorSys\Source\Switch_Coor.c              /
//    Command line       =  -f D:\ProgramData\Hardware\zigbee\Projects\zstack /
//                          \Samples\SensorSys\CC2530DB\..\..\..\Tools\CC2530 /
//                          DB\f8wCoord.cfg (-DCPU32MHZ -DROOT=__near_func    /
//                          -DMAC_CFG_APP_PENDING_QUEUE=TRUE                  /
//                          -DMAC_CFG_TX_DATA_MAX=5 -DMAC_CFG_TX_MAX=8        /
//                          -DMAC_CFG_RX_MAX=5 -DZDO_COORDINATOR -DRTR_NWK)   /
//                          -f D:\ProgramData\Hardware\zigbee\Projects\zstack /
//                          \Samples\SensorSys\CC2530DB\..\..\..\Tools\CC2530 /
//                          DB\f8wConfig.cfg (-DZIGBEEPRO -DSECURE=0          /
//                          -DZG_SECURE_DYNAMIC=0 -DREFLECTOR                 /
//                          -DDEFAULT_CHANLIST=0x00000800                     /
//                          -DZDAPP_CONFIG_PAN_ID=0xFFF1                      /
//                          -DNWK_START_DELAY=100 -DEXTENDED_JOINING_RANDOM_M /
//                          ASK=0x007F -DBEACON_REQUEST_DELAY=100             /
//                          -DBEACON_REQ_DELAY_MASK=0x00FF                    /
//                          -DLINK_STATUS_JITTER_MASK=0x007F                  /
//                          -DROUTE_EXPIRY_TIME=30 -DAPSC_ACK_WAIT_DURATION_P /
//                          OLLED=3000 -DNWK_INDIRECT_MSG_TIMEOUT=7           /
//                          -DMAX_RREQ_ENTRIES=8 -DAPSC_MAX_FRAME_RETRIES=3   /
//                          -DNWK_MAX_DATA_RETRIES=2                          /
//                          -DMAX_POLL_FAILURE_RETRIES=2 -DMAX_BCAST=9        /
//                          -DAPS_MAX_GROUPS=16 -DMAX_RTG_ENTRIES=40          /
//                          -DNWK_MAX_BINDING_ENTRIES=4                       /
//                          -DMAX_BINDING_CLUSTER_IDS=4                       /
//                          "-DDEFAULT_KEY={0x01, 0x03, 0x05, 0x07, 0x09,     /
//                          0x0B, 0x0D, 0x0F, 0x00, 0x02, 0x04, 0x06, 0x08,   /
//                          0x0A, 0x0C, 0x0D}" -DMAC_MAX_FRAME_SIZE=116       /
//                          -DZDNWKMGR_MIN_TRANSMISSIONS=20 "-DCONST=const    /
//                          __code" -DGENERIC=__generic                       /
//                          -DRFD_RCVC_ALWAYS_ON=TRUE -DPOLL_RATE=1000        /
//                          -DQUEUED_POLL_RATE=100 -DRESPONSE_POLL_RATE=100)  /
//                          -DREJOIN_POLL_RATE=440 D:\ProgramData\Hardware\zi /
//                          gbee\Projects\zstack\Samples\SensorSys\Source\Swi /
//                          tch_Coor.c -D HOLD_AUTO_START -D                  /
//                          BUILD_ALL_DEVICES -D REFLECTOR -D NV_INIT -D      /
//                          COOR -D xNV_RESTORE -D ZTOOL_P1 -D xMT_TASK -D    /
//                          xMT_SYS_FUNC -D xMT_SAPI_FUNC -D                  /
//                          xMT_SAPI_CB_FUNC -lC D:\ProgramData\Hardware\zigb /
//                          ee\Projects\zstack\Samples\SensorSys\CC2530DB\Coo /
//                          rdinatorEB\List\ -lA D:\ProgramData\Hardware\zigb /
//                          ee\Projects\zstack\Samples\SensorSys\CC2530DB\Coo /
//                          rdinatorEB\List\ --diag_suppress Pe001,Pa010 -o   /
//                          D:\ProgramData\Hardware\zigbee\Projects\zstack\Sa /
//                          mples\SensorSys\CC2530DB\CoordinatorEB\Obj\ -e    /
//                          --no_code_motion --debug --core=plain             /
//                          --dptr=16,1 --data_model=large                    /
//                          --code_model=banked --calling_convention=xdata_re /
//                          entrant --place_constants=data_rom                /
//                          --nr_virtual_regs 16 -I                           /
//                          D:\ProgramData\Hardware\zigbee\Projects\zstack\Sa /
//                          mples\SensorSys\CC2530DB\ -I                      /
//                          D:\ProgramData\Hardware\zigbee\Projects\zstack\Sa /
//                          mples\SensorSys\CC2530DB\..\Source\ -I            /
//                          D:\ProgramData\Hardware\zigbee\Projects\zstack\Sa /
//                          mples\SensorSys\CC2530DB\..\..\..\ZMain\TI2530DB\ /
//                           -I D:\ProgramData\Hardware\zigbee\Projects\zstac /
//                          k\Samples\SensorSys\CC2530DB\..\..\..\..\..\Compo /
//                          nents\hal\include\ -I D:\ProgramData\Hardware\zig /
//                          bee\Projects\zstack\Samples\SensorSys\CC2530DB\.. /
//                          \..\..\..\..\Components\hal\target\CC2530EB\ -I   /
//                          D:\ProgramData\Hardware\zigbee\Projects\zstack\Sa /
//                          mples\SensorSys\CC2530DB\..\..\..\..\..\Component /
//                          s\mac\include\ -I D:\ProgramData\Hardware\zigbee\ /
//                          Projects\zstack\Samples\SensorSys\CC2530DB\..\..\ /
//                          ..\..\..\Components\mac\high_level\ -I            /
//                          D:\ProgramData\Hardware\zigbee\Projects\zstack\Sa /
//                          mples\SensorSys\CC2530DB\..\..\..\..\..\Component /
//                          s\mac\low_level\srf04\ -I                         /
//                          D:\ProgramData\Hardware\zigbee\Projects\zstack\Sa /
//                          mples\SensorSys\CC2530DB\..\..\..\..\..\Component /
//                          s\mac\low_level\srf04\single_chip\ -I             /
//                          D:\ProgramData\Hardware\zigbee\Projects\zstack\Sa /
//                          mples\SensorSys\CC2530DB\..\..\..\..\..\Component /
//                          s\mt\ -I D:\ProgramData\Hardware\zigbee\Projects\ /
//                          zstack\Samples\SensorSys\CC2530DB\..\..\..\..\..\ /
//                          Components\osal\include\ -I                       /
//                          D:\ProgramData\Hardware\zigbee\Projects\zstack\Sa /
//                          mples\SensorSys\CC2530DB\..\..\..\..\..\Component /
//                          s\services\saddr\ -I D:\ProgramData\Hardware\zigb /
//                          ee\Projects\zstack\Samples\SensorSys\CC2530DB\..\ /
//                          ..\..\..\..\Components\services\sdata\ -I         /
//                          D:\ProgramData\Hardware\zigbee\Projects\zstack\Sa /
//                          mples\SensorSys\CC2530DB\..\..\..\..\..\Component /
//                          s\stack\af\ -I D:\ProgramData\Hardware\zigbee\Pro /
//                          jects\zstack\Samples\SensorSys\CC2530DB\..\..\..\ /
//                          ..\..\Components\stack\nwk\ -I                    /
//                          D:\ProgramData\Hardware\zigbee\Projects\zstack\Sa /
//                          mples\SensorSys\CC2530DB\..\..\..\..\..\Component /
//                          s\stack\sapi\ -I D:\ProgramData\Hardware\zigbee\P /
//                          rojects\zstack\Samples\SensorSys\CC2530DB\..\..\. /
//                          .\..\..\Components\stack\sec\ -I                  /
//                          D:\ProgramData\Hardware\zigbee\Projects\zstack\Sa /
//                          mples\SensorSys\CC2530DB\..\..\..\..\..\Component /
//                          s\stack\sys\ -I D:\ProgramData\Hardware\zigbee\Pr /
//                          ojects\zstack\Samples\SensorSys\CC2530DB\..\..\.. /
//                          \..\..\Components\stack\zdo\ -I                   /
//                          D:\ProgramData\Hardware\zigbee\Projects\zstack\Sa /
//                          mples\SensorSys\CC2530DB\..\..\..\..\..\Component /
//                          s\zmac\ -I D:\ProgramData\Hardware\zigbee\Project /
//                          s\zstack\Samples\SensorSys\CC2530DB\..\..\..\..\. /
//                          .\Components\zmac\f8w\ -Ohz --require_prototypes  /
//    List file          =  D:\ProgramData\Hardware\zigbee\Projects\zstack\Sa /
//                          mples\SensorSys\CC2530DB\CoordinatorEB\List\Switc /
//                          h_Coor.s51                                        /
//                                                                            /
//                                                                            /
///////////////////////////////////////////////////////////////////////////////

        NAME Switch_Coor

        RTMODEL "__SystemLibrary", "CLib"
        RTMODEL "__calling_convention", "xdata_reentrant"
        RTMODEL "__code_model", "banked"
        RTMODEL "__core", "plain"
        RTMODEL "__data_model", "large"
        RTMODEL "__dptr_size", "16"
        RTMODEL "__extended_stack", "disabled"
        RTMODEL "__location_for_constants", "data"
        RTMODEL "__number_of_dptrs", "1"
        RTMODEL "__rt_version", "1"

        RSEG DOVERLAY:DATA:NOROOT(0)
        RSEG IOVERLAY:IDATA:NOROOT(0)
        RSEG ISTACK:IDATA:NOROOT(0)
        RSEG PSTACK:XDATA:NOROOT(0)
        RSEG XSTACK:XDATA:NOROOT(0)

        EXTERN ?ALLOC_XSTACK8
        EXTERN ?BANKED_ENTER_XDATA
        EXTERN ?BANKED_LEAVE_XDATA
        EXTERN ?BDISPATCH
        EXTERN ?DEALLOC_XSTACK8
        EXTERN ?MOVE_LONG8_XDATA_XDATA
        EXTERN ?PUSH_XSTACK8_X_TWO
        EXTERN ?PUSH_XSTACK_I_ONE
        EXTERN ?PUSH_XSTACK_I_THREE
        EXTERN ?PUSH_XSTACK_I_TWO
        EXTERN ?V0
        EXTERN ?XSP
        EXTERN ?XSTACK_DISP0_8
        EXTERN __INIT_XDATA_I
        EXTERN __INIT_XDATA_Z

        PUBLIC ??Switch_BindDevice?relay
        FUNCTION ??Switch_BindDevice?relay,0203H
        PUBLIC ??Switch_Init?relay
        FUNCTION ??Switch_Init?relay,0203H
        PUBLIC ??Switch_ProcessEvent?relay
        FUNCTION ??Switch_ProcessEvent?relay,0203H
        PUBLIC ??Switch_ProcessZDOMsgs?relay
        FUNCTION ??Switch_ProcessZDOMsgs?relay,0203H
        PUBLIC Switch_BindDevice
        FUNCTION Switch_BindDevice,021203H
        ARGFRAME XSTACK, 16, STACK
        ARGFRAME IOVERLAY, 0, STATIC
        ARGFRAME DOVERLAY, 0, STATIC
        LOCFRAME ISTACK, 2, STACK
        LOCFRAME XSTACK, 47, STACK
        PUBLIC Switch_ClusterList
        PUBLIC Switch_DstAddr
        PUBLIC Switch_Init
        FUNCTION Switch_Init,021203H
        ARGFRAME XSTACK, 0, STACK
        LOCFRAME XSTACK, 9, STACK
        PUBLIC Switch_ProcessEvent
        FUNCTION Switch_ProcessEvent,021203H
        ARGFRAME XSTACK, 0, STACK
        LOCFRAME XSTACK, 16, STACK
        PUBLIC Switch_ProcessZDOMsgs
        FUNCTION Switch_ProcessZDOMsgs,021203H
        ARGFRAME XSTACK, 14, STACK
        ARGFRAME IOVERLAY, 0, STATIC
        ARGFRAME DOVERLAY, 0, STATIC
        LOCFRAME XSTACK, 21, STACK
        PUBLIC Switch_SimpleDesc
        PUBLIC Switch_TaskID
        PUBLIC Switch_epDesc
        PUBLIC swCnt
        PUBLIC switch_bindInProgress
        
        CFI Names cfiNames0
        CFI StackFrame CFA_SP SP IDATA
        CFI StackFrame CFA_PSP16 PSP16 XDATA
        CFI StackFrame CFA_XSP16 XSP16 XDATA
        CFI StaticOverlayFrame CFA_IOVERLAY IOVERLAY
        CFI StaticOverlayFrame CFA_DOVERLAY DOVERLAY
        CFI Resource `PSW.CY`:1, `B.BR0`:1, `B.BR1`:1, `B.BR2`:1, `B.BR3`:1
        CFI Resource `B.BR4`:1, `B.BR5`:1, `B.BR6`:1, `B.BR7`:1, `VB.BR8`:1
        CFI Resource `VB.BR9`:1, `VB.BR10`:1, `VB.BR11`:1, `VB.BR12`:1
        CFI Resource `VB.BR13`:1, `VB.BR14`:1, `VB.BR15`:1, VB:8, B:8, A:8
        CFI Resource PSW:8, DPL0:8, DPH0:8, R0:8, R1:8, R2:8, R3:8, R4:8, R5:8
        CFI Resource R6:8, R7:8, V0:8, V1:8, V2:8, V3:8, V4:8, V5:8, V6:8, V7:8
        CFI Resource V8:8, V9:8, V10:8, V11:8, V12:8, V13:8, V14:8, V15:8, SP:8
        CFI Resource PSPH:8, PSPL:8, PSP16:16, XSPH:8, XSPL:8, XSP16:16
        CFI VirtualResource ?RET:24
        CFI Resource ?BRET_EXT:8
        CFI VirtualResource ?RET_HIGH:8, ?RET_LOW:8
        CFI ResourceParts PSP16 PSPH, PSPL
        CFI ResourceParts XSP16 XSPH, XSPL
        CFI ResourceParts ?RET ?BRET_EXT, ?RET_HIGH, ?RET_LOW
        CFI EndNames cfiNames0
        
        CFI Common cfiCommon0 Using cfiNames0
        CFI CodeAlign 1
        CFI DataAlign -1
        CFI ReturnAddress ?RET CODE
        CFI CFA_DOVERLAY Used
        CFI CFA_IOVERLAY Used
        CFI CFA_SP SP+-3
        CFI CFA_PSP16 PSP16+0
        CFI CFA_XSP16 XSP16+0
        CFI `PSW.CY` SameValue
        CFI `B.BR0` SameValue
        CFI `B.BR1` SameValue
        CFI `B.BR2` SameValue
        CFI `B.BR3` SameValue
        CFI `B.BR4` SameValue
        CFI `B.BR5` SameValue
        CFI `B.BR6` SameValue
        CFI `B.BR7` SameValue
        CFI `VB.BR8` SameValue
        CFI `VB.BR9` SameValue
        CFI `VB.BR10` SameValue
        CFI `VB.BR11` SameValue
        CFI `VB.BR12` SameValue
        CFI `VB.BR13` SameValue
        CFI `VB.BR14` SameValue
        CFI `VB.BR15` SameValue
        CFI VB SameValue
        CFI B Undefined
        CFI A Undefined
        CFI PSW SameValue
        CFI DPL0 SameValue
        CFI DPH0 SameValue
        CFI R0 Undefined
        CFI R1 Undefined
        CFI R2 Undefined
        CFI R3 Undefined
        CFI R4 Undefined
        CFI R5 Undefined
        CFI R6 SameValue
        CFI R7 SameValue
        CFI V0 SameValue
        CFI V1 SameValue
        CFI V2 SameValue
        CFI V3 SameValue
        CFI V4 SameValue
        CFI V5 SameValue
        CFI V6 SameValue
        CFI V7 SameValue
        CFI V8 SameValue
        CFI V9 SameValue
        CFI V10 SameValue
        CFI V11 SameValue
        CFI V12 SameValue
        CFI V13 SameValue
        CFI V14 SameValue
        CFI V15 SameValue
        CFI PSPH Undefined
        CFI PSPL Undefined
        CFI XSPH Undefined
        CFI XSPL Undefined
        CFI ?RET Concat
        CFI ?BRET_EXT Frame(CFA_SP, 3)
        CFI ?RET_HIGH Frame(CFA_SP, 2)
        CFI ?RET_LOW Frame(CFA_SP, 1)
        CFI EndCommon cfiCommon0
        
        
        CFI Common cfiCommon1 Using cfiNames0
        CFI CodeAlign 1
        CFI DataAlign -1
        CFI ReturnAddress ?RET CODE
        CFI CFA_DOVERLAY Used
        CFI CFA_IOVERLAY Used
        CFI CFA_SP SP+-2
        CFI CFA_PSP16 PSP16+0
        CFI CFA_XSP16 XSP16+0
        CFI `PSW.CY` SameValue
        CFI `B.BR0` SameValue
        CFI `B.BR1` SameValue
        CFI `B.BR2` SameValue
        CFI `B.BR3` SameValue
        CFI `B.BR4` SameValue
        CFI `B.BR5` SameValue
        CFI `B.BR6` SameValue
        CFI `B.BR7` SameValue
        CFI `VB.BR8` SameValue
        CFI `VB.BR9` SameValue
        CFI `VB.BR10` SameValue
        CFI `VB.BR11` SameValue
        CFI `VB.BR12` SameValue
        CFI `VB.BR13` SameValue
        CFI `VB.BR14` SameValue
        CFI `VB.BR15` SameValue
        CFI VB SameValue
        CFI B SameValue
        CFI A SameValue
        CFI PSW SameValue
        CFI DPL0 SameValue
        CFI DPH0 SameValue
        CFI R0 SameValue
        CFI R1 SameValue
        CFI R2 SameValue
        CFI R3 SameValue
        CFI R4 SameValue
        CFI R5 SameValue
        CFI R6 SameValue
        CFI R7 SameValue
        CFI V0 SameValue
        CFI V1 SameValue
        CFI V2 SameValue
        CFI V3 SameValue
        CFI V4 SameValue
        CFI V5 SameValue
        CFI V6 SameValue
        CFI V7 SameValue
        CFI V8 SameValue
        CFI V9 SameValue
        CFI V10 SameValue
        CFI V11 SameValue
        CFI V12 SameValue
        CFI V13 SameValue
        CFI V14 SameValue
        CFI V15 SameValue
        CFI PSPH Undefined
        CFI PSPL Undefined
        CFI XSPH Undefined
        CFI XSPL Undefined
        CFI ?RET Concat
        CFI ?BRET_EXT SameValue
        CFI ?RET_HIGH Frame(CFA_SP, 2)
        CFI ?RET_LOW Frame(CFA_SP, 1)
        CFI EndCommon cfiCommon1
        
ZDO_RegisterForZDOMsg SYMBOL "ZDO_RegisterForZDOMsg"
osal_msg_receive    SYMBOL "osal_msg_receive"
osal_msg_deallocate SYMBOL "osal_msg_deallocate"
Sys_BindConfirm     SYMBOL "Sys_BindConfirm"
ZDO_ParseEPListRsp  SYMBOL "ZDO_ParseEPListRsp"
APSME_BindRequest   SYMBOL "APSME_BindRequest"
osal_stop_timerEx   SYMBOL "osal_stop_timerEx"
osal_start_timerEx  SYMBOL "osal_start_timerEx"
ZDP_IEEEAddrReq     SYMBOL "ZDP_IEEEAddrReq"
osal_mem_alloc      SYMBOL "osal_mem_alloc"
osal_memcpy         SYMBOL "osal_memcpy"
afRegister          SYMBOL "afRegister"
sAddrExtCpy         SYMBOL "sAddrExtCpy"
ZDP_NwkAddrReq      SYMBOL "ZDP_NwkAddrReq"
ZDO_AnyClusterMatches SYMBOL "ZDO_AnyClusterMatches"
ZDP_MatchDescReq    SYMBOL "ZDP_MatchDescReq"
bindRemoveEntry     SYMBOL "bindRemoveEntry"
bindFind            SYMBOL "bindFind"
??APSME_BindRequest?relay SYMBOL "?relay", APSME_BindRequest
??Sys_BindConfirm?relay SYMBOL "?relay", Sys_BindConfirm
??ZDO_AnyClusterMatches?relay SYMBOL "?relay", ZDO_AnyClusterMatches
??ZDO_ParseEPListRsp?relay SYMBOL "?relay", ZDO_ParseEPListRsp
??ZDO_RegisterForZDOMsg?relay SYMBOL "?relay", ZDO_RegisterForZDOMsg
??ZDP_IEEEAddrReq?relay SYMBOL "?relay", ZDP_IEEEAddrReq
??ZDP_MatchDescReq?relay SYMBOL "?relay", ZDP_MatchDescReq
??ZDP_NwkAddrReq?relay SYMBOL "?relay", ZDP_NwkAddrReq
??afRegister?relay  SYMBOL "?relay", afRegister
??bindFind?relay    SYMBOL "?relay", bindFind
??bindRemoveEntry?relay SYMBOL "?relay", bindRemoveEntry
??osal_mem_alloc?relay SYMBOL "?relay", osal_mem_alloc
??osal_memcpy?relay SYMBOL "?relay", osal_memcpy
??osal_msg_deallocate?relay SYMBOL "?relay", osal_msg_deallocate
??osal_msg_receive?relay SYMBOL "?relay", osal_msg_receive
??osal_start_timerEx?relay SYMBOL "?relay", osal_start_timerEx
??osal_stop_timerEx?relay SYMBOL "?relay", osal_stop_timerEx
??sAddrExtCpy?relay SYMBOL "?relay", sAddrExtCpy
Switch_BindDevice   SYMBOL "Switch_BindDevice"
??Switch_BindDevice?relay SYMBOL "?relay", Switch_BindDevice
Switch_Init         SYMBOL "Switch_Init"
??Switch_Init?relay SYMBOL "?relay", Switch_Init
Switch_ProcessEvent SYMBOL "Switch_ProcessEvent"
??Switch_ProcessEvent?relay SYMBOL "?relay", Switch_ProcessEvent
Switch_ProcessZDOMsgs SYMBOL "Switch_ProcessZDOMsgs"
??Switch_ProcessZDOMsgs?relay SYMBOL "?relay", Switch_ProcessZDOMsgs

        EXTERN ZDO_RegisterForZDOMsg
        FUNCTION ZDO_RegisterForZDOMsg,0202H
        ARGFRAME ISTACK, 0, STACK
        ARGFRAME PSTACK, 0, STACK
        ARGFRAME XSTACK, 9, STACK
        ARGFRAME IOVERLAY, 0, STATIC
        ARGFRAME DOVERLAY, 0, STATIC
        EXTERN osal_msg_receive
        FUNCTION osal_msg_receive,0202H
        ARGFRAME ISTACK, 0, STACK
        ARGFRAME PSTACK, 0, STACK
        ARGFRAME XSTACK, 14, STACK
        ARGFRAME IOVERLAY, 0, STATIC
        ARGFRAME DOVERLAY, 0, STATIC
        EXTERN osal_msg_deallocate
        FUNCTION osal_msg_deallocate,0202H
        ARGFRAME ISTACK, 0, STACK
        ARGFRAME PSTACK, 0, STACK
        ARGFRAME XSTACK, 14, STACK
        ARGFRAME IOVERLAY, 0, STATIC
        ARGFRAME DOVERLAY, 0, STATIC
        EXTERN Sys_BindConfirm
        FUNCTION Sys_BindConfirm,0202H
        ARGFRAME ISTACK, 0, STACK
        ARGFRAME PSTACK, 0, STACK
        ARGFRAME XSTACK, 20, STACK
        ARGFRAME IOVERLAY, 0, STATIC
        ARGFRAME DOVERLAY, 0, STATIC
        EXTERN ZDO_ParseEPListRsp
        FUNCTION ZDO_ParseEPListRsp,0202H
        ARGFRAME ISTACK, 0, STACK
        ARGFRAME PSTACK, 0, STACK
        ARGFRAME XSTACK, 20, STACK
        ARGFRAME IOVERLAY, 0, STATIC
        ARGFRAME DOVERLAY, 0, STATIC
        EXTERN APSME_BindRequest
        FUNCTION APSME_BindRequest,0202H
        ARGFRAME ISTACK, 0, STACK
        ARGFRAME PSTACK, 0, STACK
        ARGFRAME XSTACK, 40, STACK
        ARGFRAME IOVERLAY, 0, STATIC
        ARGFRAME DOVERLAY, 0, STATIC
        EXTERN osal_stop_timerEx
        FUNCTION osal_stop_timerEx,0202H
        ARGFRAME ISTACK, 0, STACK
        ARGFRAME PSTACK, 0, STACK
        ARGFRAME XSTACK, 20, STACK
        ARGFRAME IOVERLAY, 0, STATIC
        ARGFRAME DOVERLAY, 0, STATIC
        EXTERN osal_start_timerEx
        FUNCTION osal_start_timerEx,0202H
        ARGFRAME ISTACK, 0, STACK
        ARGFRAME PSTACK, 0, STACK
        ARGFRAME XSTACK, 39, STACK
        ARGFRAME IOVERLAY, 0, STATIC
        ARGFRAME DOVERLAY, 0, STATIC
        EXTERN ZDP_IEEEAddrReq
        FUNCTION ZDP_IEEEAddrReq,0202H
        ARGFRAME ISTACK, 0, STACK
        ARGFRAME PSTACK, 0, STACK
        ARGFRAME XSTACK, 20, STACK
        ARGFRAME IOVERLAY, 0, STATIC
        ARGFRAME DOVERLAY, 0, STATIC
        EXTERN osal_mem_alloc
        FUNCTION osal_mem_alloc,0202H
        ARGFRAME ISTACK, 0, STACK
        ARGFRAME PSTACK, 0, STACK
        ARGFRAME XSTACK, 39, STACK
        ARGFRAME IOVERLAY, 0, STATIC
        ARGFRAME DOVERLAY, 0, STATIC
        EXTERN osal_memcpy
        FUNCTION osal_memcpy,0202H
        ARGFRAME ISTACK, 0, STACK
        ARGFRAME PSTACK, 0, STACK
        ARGFRAME XSTACK, 42, STACK
        ARGFRAME IOVERLAY, 0, STATIC
        ARGFRAME DOVERLAY, 0, STATIC
        EXTERN afRegister
        FUNCTION afRegister,0202H
        ARGFRAME ISTACK, 0, STACK
        ARGFRAME PSTACK, 0, STACK
        ARGFRAME XSTACK, 39, STACK
        ARGFRAME IOVERLAY, 0, STATIC
        ARGFRAME DOVERLAY, 0, STATIC
        EXTERN sAddrExtCpy
        FUNCTION sAddrExtCpy,0202H
        ARGFRAME ISTACK, 0, STACK
        ARGFRAME PSTACK, 0, STACK
        ARGFRAME XSTACK, 39, STACK
        ARGFRAME IOVERLAY, 0, STATIC
        ARGFRAME DOVERLAY, 0, STATIC
        EXTERN ZDP_NwkAddrReq
        FUNCTION ZDP_NwkAddrReq,0202H
        ARGFRAME ISTACK, 0, STACK
        ARGFRAME PSTACK, 0, STACK
        ARGFRAME XSTACK, 39, STACK
        ARGFRAME IOVERLAY, 0, STATIC
        ARGFRAME DOVERLAY, 0, STATIC
        EXTERN ZDO_AnyClusterMatches
        FUNCTION ZDO_AnyClusterMatches,0202H
        ARGFRAME ISTACK, 0, STACK
        ARGFRAME PSTACK, 0, STACK
        ARGFRAME XSTACK, 41, STACK
        ARGFRAME IOVERLAY, 0, STATIC
        ARGFRAME DOVERLAY, 0, STATIC
        EXTERN ZDP_MatchDescReq
        FUNCTION ZDP_MatchDescReq,0202H
        ARGFRAME ISTACK, 0, STACK
        ARGFRAME PSTACK, 0, STACK
        ARGFRAME XSTACK, 47, STACK
        ARGFRAME IOVERLAY, 0, STATIC
        ARGFRAME DOVERLAY, 0, STATIC
        EXTERN bindRemoveEntry
        FUNCTION bindRemoveEntry,0202H
        ARGFRAME ISTACK, 0, STACK
        ARGFRAME PSTACK, 0, STACK
        ARGFRAME XSTACK, 39, STACK
        ARGFRAME IOVERLAY, 0, STATIC
        ARGFRAME DOVERLAY, 0, STATIC
        EXTERN bindFind
        FUNCTION bindFind,0202H
        ARGFRAME ISTACK, 0, STACK
        ARGFRAME PSTACK, 0, STACK
        ARGFRAME XSTACK, 39, STACK
        ARGFRAME IOVERLAY, 0, STATIC
        ARGFRAME DOVERLAY, 0, STATIC
        EXTERN ??APSME_BindRequest?relay
        FUNCTION ??APSME_BindRequest?relay,00H
        EXTERN ??Sys_BindConfirm?relay
        FUNCTION ??Sys_BindConfirm?relay,00H
        EXTERN ??ZDO_AnyClusterMatches?relay
        FUNCTION ??ZDO_AnyClusterMatches?relay,00H
        EXTERN ??ZDO_ParseEPListRsp?relay
        FUNCTION ??ZDO_ParseEPListRsp?relay,00H
        EXTERN ??ZDO_RegisterForZDOMsg?relay
        FUNCTION ??ZDO_RegisterForZDOMsg?relay,00H
        EXTERN ??ZDP_IEEEAddrReq?relay
        FUNCTION ??ZDP_IEEEAddrReq?relay,00H
        EXTERN ??ZDP_MatchDescReq?relay
        FUNCTION ??ZDP_MatchDescReq?relay,00H
        EXTERN ??ZDP_NwkAddrReq?relay
        FUNCTION ??ZDP_NwkAddrReq?relay,00H
        EXTERN ??afRegister?relay
        FUNCTION ??afRegister?relay,00H
        EXTERN ??bindFind?relay
        FUNCTION ??bindFind?relay,00H
        EXTERN ??bindRemoveEntry?relay
        FUNCTION ??bindRemoveEntry?relay,00H
        EXTERN ??osal_mem_alloc?relay
        FUNCTION ??osal_mem_alloc?relay,00H
        EXTERN ??osal_memcpy?relay
        FUNCTION ??osal_memcpy?relay,00H
        EXTERN ??osal_msg_deallocate?relay
        FUNCTION ??osal_msg_deallocate?relay,00H
        EXTERN ??osal_msg_receive?relay
        FUNCTION ??osal_msg_receive?relay,00H
        EXTERN ??osal_start_timerEx?relay
        FUNCTION ??osal_start_timerEx?relay,00H
        EXTERN ??osal_stop_timerEx?relay
        FUNCTION ??osal_stop_timerEx?relay,00H
        EXTERN ??sAddrExtCpy?relay
        FUNCTION ??sAddrExtCpy?relay,00H
        EXTERN AIB_MaxBindingTime
        EXTERN ZDAppTaskID

// D:\ProgramData\Hardware\zigbee\Projects\zstack\Samples\SensorSys\Source\Switch_Coor.c
//    1 /*********************************************************************
//    2  * INCLUDES
//    3  */
//    4 #include "OSAL.h"
//    5 #include "AF.h"
//    6 #include "ZDApp.h"
//    7 #include "ZDObject.h"
//    8 #include "ZDProfile.h"
//    9 #include "sapi.h"
//   10 
//   11 #include "SensorSys_Coor.h"
//   12 #include "device.h"
//   13 #include "DebugTrace.h"
//   14 
//   15 #if !defined( WIN32 )
//   16   #include "OnBoard.h"
//   17 #endif
//   18 
//   19 /* HAL */
//   20 #include "hal_led.h"
//   21 #include "hal_uart.h"
//   22 
//   23 /*********************************************************************
//   24  * MACROS
//   25  */
//   26 
//   27 /*********************************************************************
//   28  * CONSTANTS
//   29  */
//   30 
//   31 /*********************************************************************
//   32  * TYPEDEFS
//   33  */
//   34 
//   35 /*********************************************************************
//   36  * GLOBAL VARIABLES
//   37  */

        RSEG XDATA_Z:XDATA:NOROOT(0)
        DATA8
//   38 byte Switch_TaskID;
Switch_TaskID:
        DS 1
        REQUIRE __INIT_XDATA_Z

        RSEG XDATA_Z:XDATA:NOROOT(0)
        DATA8
//   39 uint8 swCnt;
swCnt:
        DS 1
        REQUIRE __INIT_XDATA_Z
//   40 
//   41 
//   42 // Switch 端点的簇ID
//   43 // This list should be filled with Application specific Cluster IDs.

        RSEG XDATA_I:XDATA:NOROOT(0)
//   44 cId_t Switch_ClusterList[SWITCH_MAX_CLUSTERS] =
Switch_ClusterList:
        DATA8
        DS 8
        REQUIRE `?<Initializer for Switch_ClusterList>`
        REQUIRE __INIT_XDATA_I
//   45 {
//   46     PORT_INIT_CLUSTER,
//   47     OPERATE_CLUSTER,
//   48     LOOP_OPERATE_CLUSTER,
//   49     DELETE_CLUSTER
//   50 };
//   51 
//   52 // Switch 端点简单描述符

        RSEG XDATA_Z:XDATA:NOROOT(0)
        DATA8
//   53 SimpleDescriptionFormat_t *Switch_SimpleDesc[SWITCH_NUM_MAX];
Switch_SimpleDesc:
        DS 40
        REQUIRE __INIT_XDATA_Z

        RSEG XDATA_Z:XDATA:NOROOT(0)
        DATA8
//   54 endPointDesc_t *Switch_epDesc[SWITCH_NUM_MAX];
Switch_epDesc:
        DS 40
        REQUIRE __INIT_XDATA_Z
//   55 
//   56 /*********************************************************************
//   57  * EXTERNAL VARIABLES
//   58  */
//   59 
//   60 /*********************************************************************
//   61  * EXTERNAL FUNCTIONS
//   62  */
//   63 
//   64 /*********************************************************************
//   65  * LOCAL VARIABLES
//   66  */

        RSEG XDATA_Z:XDATA:NOROOT(0)
        DATA8
//   67 afAddrType_t Switch_DstAddr;
Switch_DstAddr:
        DS 12
        REQUIRE __INIT_XDATA_Z

        RSEG XDATA_Z:XDATA:NOROOT(0)
        DATA16
//   68 uint16 switch_bindInProgress;
switch_bindInProgress:
        DS 2
        REQUIRE __INIT_XDATA_Z
//   69 
//   70 /*********************************************************************
//   71  * LOCAL FUNCTIONS
//   72  */
//   73 void Switch_Init( byte task_id );
//   74 void Switch_ProcessZDOMsgs( zdoIncomingMsg_t *inMsg );
//   75 
//   76 void Switch_BindDevice ( uint8 create, uint8 endpoint, uint16 *commandId, uint8 *pDestination );
//   77 
//   78 static void SAPI_BindConfirm( uint16 commandId, uint8 status );
//   79 /*********************************************************************
//   80  * @fn      Switch_Init
//   81  *
//   82  * @brief   Initialization function for the Generic App Task.
//   83  *          This is called during initialization and should contain
//   84  *          any application specific initialization (ie. hardware
//   85  *          initialization/setup, table initialization, power up
//   86  *          notificaiton ... ).
//   87  *
//   88  * @param   task_id - the ID assigned by OSAL.  This ID should be
//   89  *                    used to send messages and set timers.
//   90  *
//   91  * @return  none
//   92  */

        RSEG BANKED_CODE:CODE:NOROOT(0)
//   93 void Switch_Init( byte task_id )
Switch_Init:
        CFI Block cfiBlock0 Using cfiCommon0
        CFI Function Switch_Init
        CODE
//   94 {
        FUNCALL Switch_Init, ZDO_RegisterForZDOMsg
        LOCFRAME ISTACK, 0, STACK
        LOCFRAME PSTACK, 0, STACK
        LOCFRAME XSTACK, 9, STACK
        LOCFRAME IOVERLAY, 0, STATIC
        LOCFRAME DOVERLAY, 0, STATIC
        ARGFRAME ISTACK, 0, STACK
        ARGFRAME PSTACK, 0, STACK
        ARGFRAME XSTACK, 9, STACK
        ARGFRAME IOVERLAY, 0, STATIC
        ARGFRAME DOVERLAY, 0, STATIC
        MOV     A,#-0x9
        LCALL   ?BANKED_ENTER_XDATA
        CFI DPH0 load(1, XDATA, add(CFA_XSP16, literal(-1)))
        CFI DPL0 load(1, XDATA, add(CFA_XSP16, literal(-2)))
        CFI ?BRET_EXT load(1, XDATA, add(CFA_XSP16, literal(-3)))
        CFI ?RET_HIGH load(1, XDATA, add(CFA_XSP16, literal(-4)))
        CFI ?RET_LOW load(1, XDATA, add(CFA_XSP16, literal(-5)))
        CFI R7 load(1, XDATA, add(CFA_XSP16, literal(-6)))
        CFI V0 load(1, XDATA, add(CFA_XSP16, literal(-7)))
        CFI VB load(1, XDATA, add(CFA_XSP16, literal(-8)))
        CFI R6 load(1, XDATA, add(CFA_XSP16, literal(-9)))
        CFI CFA_SP SP+0
        CFI CFA_XSP16 add(XSP16, 9)
        ; Saved register size: 9
        ; Auto size: 0
        MOV     A,R1
//   95   char i;
//   96   Switch_TaskID = task_id;
        MOV     DPTR,#Switch_TaskID
        MOVX    @DPTR,A
//   97   swCnt = 0;
        MOV     DPTR,#swCnt
        CLR     A
        MOVX    @DPTR,A
//   98   
//   99   // Device hardware initialization can be added here or in main() (Zmain.c).
//  100   // If the hardware is application specific - add it here.
//  101   // If the hardware is other parts of the device add it in main().
//  102 
//  103   Switch_DstAddr.addrMode = (afAddrMode_t)AddrNotPresent;
        MOV     DPTR,#Switch_DstAddr + 8
        MOVX    @DPTR,A
//  104   Switch_DstAddr.endPoint = 0;
        INC     DPTR
        MOVX    @DPTR,A
//  105   Switch_DstAddr.addr.shortAddr = 0;
        MOV     DPTR,#Switch_DstAddr
        MOVX    @DPTR,A
        INC     DPTR
        MOVX    @DPTR,A
//  106 
//  107     for( i=0; i<SWITCH_NUM_MAX; i++)
//  108     {
//  109 
//  110     }
//  111 
//  112   switch_bindInProgress = 0xffff;
        MOV     DPTR,#switch_bindInProgress
        MOV     A,#-0x1
        MOVX    @DPTR,A
        INC     DPTR
        MOVX    @DPTR,A
//  113 
//  114   ZDO_RegisterForZDOMsg( Switch_TaskID, Match_Desc_rsp );
        ; Setup parameters for call to function ZDO_RegisterForZDOMsg
        MOV     R2,#0x6
        MOV     R3,#-0x80
        LCALL   ??ZDO_RegisterForZDOMsg?relay
//  115 }
        MOV     R7,#0x1
        LJMP    ?BANKED_LEAVE_XDATA
        CFI EndBlock cfiBlock0
//  116 
//  117 /*********************************************************************
//  118  * @fn      Switch_ProcessEvent
//  119  *
//  120  * @brief   Generic Application Task event processor.  This function
//  121  *          is called to process all events for the task.  Events
//  122  *          include timers, messages and any other user defined events.
//  123  *
//  124  * @param   task_id  - The OSAL assigned task ID.
//  125  * @param   events - events to process.  This is a bit map and can
//  126  *                   contain more than one event.
//  127  *
//  128  * @return  none
//  129  */

        RSEG BANKED_CODE:CODE:NOROOT(0)
//  130 UINT16 Switch_ProcessEvent( byte task_id, UINT16 events )
Switch_ProcessEvent:
        CFI Block cfiBlock1 Using cfiCommon0
        CFI Function Switch_ProcessEvent
        CODE
//  131 {
        FUNCALL Switch_ProcessEvent, osal_msg_receive
        LOCFRAME ISTACK, 0, STACK
        LOCFRAME PSTACK, 0, STACK
        LOCFRAME XSTACK, 14, STACK
        LOCFRAME IOVERLAY, 0, STATIC
        LOCFRAME DOVERLAY, 0, STATIC
        ARGFRAME ISTACK, 0, STACK
        ARGFRAME PSTACK, 0, STACK
        ARGFRAME XSTACK, 14, STACK
        ARGFRAME IOVERLAY, 0, STATIC
        ARGFRAME DOVERLAY, 0, STATIC
        FUNCALL Switch_ProcessEvent, Switch_ProcessZDOMsgs
        LOCFRAME ISTACK, 0, STACK
        LOCFRAME PSTACK, 0, STACK
        LOCFRAME XSTACK, 14, STACK
        LOCFRAME IOVERLAY, 0, STATIC
        LOCFRAME DOVERLAY, 0, STATIC
        ARGFRAME ISTACK, 0, STACK
        ARGFRAME PSTACK, 0, STACK
        ARGFRAME XSTACK, 14, STACK
        ARGFRAME IOVERLAY, 0, STATIC
        ARGFRAME DOVERLAY, 0, STATIC
        FUNCALL Switch_ProcessEvent, osal_msg_deallocate
        LOCFRAME ISTACK, 0, STACK
        LOCFRAME PSTACK, 0, STACK
        LOCFRAME XSTACK, 14, STACK
        LOCFRAME IOVERLAY, 0, STATIC
        LOCFRAME DOVERLAY, 0, STATIC
        ARGFRAME ISTACK, 0, STACK
        ARGFRAME PSTACK, 0, STACK
        ARGFRAME XSTACK, 14, STACK
        ARGFRAME IOVERLAY, 0, STATIC
        ARGFRAME DOVERLAY, 0, STATIC
        FUNCALL Switch_ProcessEvent, osal_msg_receive
        LOCFRAME ISTACK, 0, STACK
        LOCFRAME PSTACK, 0, STACK
        LOCFRAME XSTACK, 14, STACK
        LOCFRAME IOVERLAY, 0, STATIC
        LOCFRAME DOVERLAY, 0, STATIC
        ARGFRAME ISTACK, 0, STACK
        ARGFRAME PSTACK, 0, STACK
        ARGFRAME XSTACK, 14, STACK
        ARGFRAME IOVERLAY, 0, STATIC
        ARGFRAME DOVERLAY, 0, STATIC
        FUNCALL Switch_ProcessEvent, Switch_BindDevice
        LOCFRAME ISTACK, 0, STACK
        LOCFRAME PSTACK, 0, STACK
        LOCFRAME XSTACK, 16, STACK
        LOCFRAME IOVERLAY, 0, STATIC
        LOCFRAME DOVERLAY, 0, STATIC
        ARGFRAME ISTACK, 0, STACK
        ARGFRAME PSTACK, 0, STACK
        ARGFRAME XSTACK, 16, STACK
        ARGFRAME IOVERLAY, 0, STATIC
        ARGFRAME DOVERLAY, 0, STATIC
        FUNCALL Switch_ProcessEvent, Sys_BindConfirm
        LOCFRAME ISTACK, 0, STACK
        LOCFRAME PSTACK, 0, STACK
        LOCFRAME XSTACK, 14, STACK
        LOCFRAME IOVERLAY, 0, STATIC
        LOCFRAME DOVERLAY, 0, STATIC
        ARGFRAME ISTACK, 0, STACK
        ARGFRAME PSTACK, 0, STACK
        ARGFRAME XSTACK, 14, STACK
        ARGFRAME IOVERLAY, 0, STATIC
        ARGFRAME DOVERLAY, 0, STATIC
        MOV     A,#-0xe
        LCALL   ?BANKED_ENTER_XDATA
        CFI DPH0 load(1, XDATA, add(CFA_XSP16, literal(-1)))
        CFI DPL0 load(1, XDATA, add(CFA_XSP16, literal(-2)))
        CFI ?BRET_EXT load(1, XDATA, add(CFA_XSP16, literal(-3)))
        CFI ?RET_HIGH load(1, XDATA, add(CFA_XSP16, literal(-4)))
        CFI ?RET_LOW load(1, XDATA, add(CFA_XSP16, literal(-5)))
        CFI R7 load(1, XDATA, add(CFA_XSP16, literal(-6)))
        CFI V5 load(1, XDATA, add(CFA_XSP16, literal(-7)))
        CFI V4 load(1, XDATA, add(CFA_XSP16, literal(-8)))
        CFI V3 load(1, XDATA, add(CFA_XSP16, literal(-9)))
        CFI V2 load(1, XDATA, add(CFA_XSP16, literal(-10)))
        CFI V1 load(1, XDATA, add(CFA_XSP16, literal(-11)))
        CFI V0 load(1, XDATA, add(CFA_XSP16, literal(-12)))
        CFI VB load(1, XDATA, add(CFA_XSP16, literal(-13)))
        CFI R6 load(1, XDATA, add(CFA_XSP16, literal(-14)))
        CFI CFA_SP SP+0
        CFI CFA_XSP16 add(XSP16, 14)
        ; Saved register size: 14
        ; Auto size: 0
        MOV     A,R2
        MOV     R6,A
        MOV     A,R3
        MOV     R7,A
//  132   afIncomingMSGPacket_t *MSGpkt = NULL;
//  133 
//  134   (void)task_id;  // Intentionally unreferenced parameter
//  135 
//  136   if ( events & SYS_EVENT_MSG )
        ANL     A,#0x80
        JZ      ??Switch_ProcessEvent_0
//  137   {
//  138     MSGpkt = (afIncomingMSGPacket_t *)osal_msg_receive( task_id );
        ; Setup parameters for call to function osal_msg_receive
        SJMP    ??Switch_ProcessEvent_1
//  139     while ( MSGpkt )
//  140     {
//  141       switch ( MSGpkt->hdr.event )
??Switch_ProcessEvent_2:
        MOV     DPL,?V0 + 0
        MOV     DPH,?V0 + 1
        MOVX    A,@DPTR
        XRL     A,#0xd3
        JNZ     ??Switch_ProcessEvent_3
//  142       {
//  143         case ZDO_CB_MSG:  // 收到被绑定节点的rsp
//  144           Switch_ProcessZDOMsgs( (zdoIncomingMsg_t *)MSGpkt);
        ; Setup parameters for call to function Switch_ProcessZDOMsgs
        MOV     R2,?V0 + 0
        MOV     R3,?V0 + 1
        LCALL   ??Switch_ProcessZDOMsgs?relay
//  145           break;
//  146       }
//  147       // Release the memory
//  148       osal_msg_deallocate( (uint8 *)MSGpkt );
??Switch_ProcessEvent_3:
        ; Setup parameters for call to function osal_msg_deallocate
        MOV     R2,?V0 + 0
        MOV     R3,?V0 + 1
        LCALL   ??osal_msg_deallocate?relay
//  149 
//  150       // Next
//  151       MSGpkt = (afIncomingMSGPacket_t *)osal_msg_receive( Switch_TaskID );
        ; Setup parameters for call to function osal_msg_receive
        MOV     DPTR,#Switch_TaskID
        MOVX    A,@DPTR
        MOV     R1,A
??Switch_ProcessEvent_1:
        LCALL   ??osal_msg_receive?relay
        MOV     ?V0 + 0,R2
        MOV     ?V0 + 1,R3
//  152     }
        MOV     A,?V0 + 0
        ORL     A,?V0 + 1
        JNZ     ??Switch_ProcessEvent_2
//  153    return (events ^ SYS_EVENT_MSG);
        MOV     A,R6
        MOV     R2,A
        MOV     A,R7
        XRL     A,#0x80
??Switch_ProcessEvent_4:
        MOV     R3,A
        SJMP    ??Switch_ProcessEvent_5
//  154   }
//  155 
//  156   if( events & MATCH_BIND_EVT ) // 广播 match 绑定
??Switch_ProcessEvent_0:
        MOV     A,R6
        ANL     A,#0x2
        JZ      ??Switch_ProcessEvent_6
//  157   {
//  158     if(swCnt == SWITCH_NUM_MAX)
        MOV     DPTR,#swCnt
        MOVX    A,@DPTR
        XRL     A,#0x14
        JZ      ??Switch_ProcessEvent_7
//  159     {
//  160         // do something
//  161     }
//  162     else
//  163     {
//  164         Switch_BindDevice(TRUE, SWITCH_ENDPOINT+swCnt, Switch_ClusterList, NULL); 
        ; Setup parameters for call to function Switch_BindDevice
        CLR     A
        MOV     ?V0 + 0,A
        MOV     ?V0 + 1,A
        MOV     R0,#?V0 + 0
        LCALL   ?PUSH_XSTACK_I_TWO
        CFI CFA_XSP16 add(XSP16, 16)
        MOV     R4,#Switch_ClusterList & 0xff
        MOV     R5,#(Switch_ClusterList >> 8) & 0xff
        MOV     DPTR,#swCnt
        MOVX    A,@DPTR
        ADD     A,#0x3c
        MOV     R2,A
        MOV     R1,#0x1
        LCALL   ??Switch_BindDevice?relay
        MOV     A,#0x2
        LCALL   ?DEALLOC_XSTACK8
        CFI CFA_XSP16 add(XSP16, 14)
//  165     }
//  166     return (events ^ MATCH_BIND_EVT);
??Switch_ProcessEvent_7:
        MOV     A,R6
        XRL     A,#0x2
??Switch_ProcessEvent_8:
        MOV     R2,A
        MOV     A,R7
        SJMP    ??Switch_ProcessEvent_4
//  167   }
//  168   
//  169   if ( events & SWITCH_BIND_TIMER )
??Switch_ProcessEvent_6:
        MOV     A,R6
        ANL     A,#0x21
        JZ      ??Switch_ProcessEvent_9
//  170   {
//  171     // Send bind confirm callback to application
//  172     SAPI_BindConfirm( switch_bindInProgress, ZB_TIMEOUT );
        ; Setup parameters for call to function Sys_BindConfirm
        MOV     R1,#0x21
        LCALL   ?Subroutine4 & 0xFFFF
//  173     switch_bindInProgress = 0xffff;
//  174 
//  175     return (events ^ SWITCH_BIND_TIMER);
??CrossCallReturnLabel_8:
        MOV     A,R6
        XRL     A,#0x21
        SJMP    ??Switch_ProcessEvent_8
//  176   }
//  177   
//  178   return 0;
??Switch_ProcessEvent_9:
        MOV     R2,#0x0
        MOV     R3,#0x0
??Switch_ProcessEvent_5:
        MOV     R7,#0x6
        LJMP    ?BANKED_LEAVE_XDATA
        CFI EndBlock cfiBlock1
//  179 }
//  180 
//  181 /*********************************************************************
//  182  * @fn      Switch_ProcessZDOMsgs()
//  183  *
//  184  * @brief   Process response messages
//  185  *
//  186  * @param   none
//  187  *
//  188  * @return  none
//  189  */

        RSEG BANKED_CODE:CODE:NOROOT(0)
//  190 void Switch_ProcessZDOMsgs( zdoIncomingMsg_t *inMsg )
Switch_ProcessZDOMsgs:
        CFI Block cfiBlock2 Using cfiCommon0
        CFI Function Switch_ProcessZDOMsgs
        CODE
//  191 {
        FUNCALL Switch_ProcessZDOMsgs, ZDO_ParseEPListRsp
        LOCFRAME ISTACK, 0, STACK
        LOCFRAME PSTACK, 0, STACK
        LOCFRAME XSTACK, 20, STACK
        LOCFRAME IOVERLAY, 0, STATIC
        LOCFRAME DOVERLAY, 0, STATIC
        ARGFRAME ISTACK, 0, STACK
        ARGFRAME PSTACK, 0, STACK
        ARGFRAME XSTACK, 20, STACK
        ARGFRAME IOVERLAY, 0, STATIC
        ARGFRAME DOVERLAY, 0, STATIC
        FUNCALL Switch_ProcessZDOMsgs, APSME_BindRequest
        LOCFRAME ISTACK, 0, STACK
        LOCFRAME PSTACK, 0, STACK
        LOCFRAME XSTACK, 21, STACK
        LOCFRAME IOVERLAY, 0, STATIC
        LOCFRAME DOVERLAY, 0, STATIC
        ARGFRAME ISTACK, 0, STACK
        ARGFRAME PSTACK, 0, STACK
        ARGFRAME XSTACK, 21, STACK
        ARGFRAME IOVERLAY, 0, STATIC
        ARGFRAME DOVERLAY, 0, STATIC
        FUNCALL Switch_ProcessZDOMsgs, osal_stop_timerEx
        LOCFRAME ISTACK, 0, STACK
        LOCFRAME PSTACK, 0, STACK
        LOCFRAME XSTACK, 20, STACK
        LOCFRAME IOVERLAY, 0, STATIC
        LOCFRAME DOVERLAY, 0, STATIC
        ARGFRAME ISTACK, 0, STACK
        ARGFRAME PSTACK, 0, STACK
        ARGFRAME XSTACK, 20, STACK
        ARGFRAME IOVERLAY, 0, STATIC
        ARGFRAME DOVERLAY, 0, STATIC
        FUNCALL Switch_ProcessZDOMsgs, osal_start_timerEx
        LOCFRAME ISTACK, 0, STACK
        LOCFRAME PSTACK, 0, STACK
        LOCFRAME XSTACK, 20, STACK
        LOCFRAME IOVERLAY, 0, STATIC
        LOCFRAME DOVERLAY, 0, STATIC
        ARGFRAME ISTACK, 0, STACK
        ARGFRAME PSTACK, 0, STACK
        ARGFRAME XSTACK, 20, STACK
        ARGFRAME IOVERLAY, 0, STATIC
        ARGFRAME DOVERLAY, 0, STATIC
        FUNCALL Switch_ProcessZDOMsgs, ZDP_IEEEAddrReq
        LOCFRAME ISTACK, 0, STACK
        LOCFRAME PSTACK, 0, STACK
        LOCFRAME XSTACK, 20, STACK
        LOCFRAME IOVERLAY, 0, STATIC
        LOCFRAME DOVERLAY, 0, STATIC
        ARGFRAME ISTACK, 0, STACK
        ARGFRAME PSTACK, 0, STACK
        ARGFRAME XSTACK, 20, STACK
        ARGFRAME IOVERLAY, 0, STATIC
        ARGFRAME DOVERLAY, 0, STATIC
        FUNCALL Switch_ProcessZDOMsgs, Sys_BindConfirm
        LOCFRAME ISTACK, 0, STACK
        LOCFRAME PSTACK, 0, STACK
        LOCFRAME XSTACK, 20, STACK
        LOCFRAME IOVERLAY, 0, STATIC
        LOCFRAME DOVERLAY, 0, STATIC
        ARGFRAME ISTACK, 0, STACK
        ARGFRAME PSTACK, 0, STACK
        ARGFRAME XSTACK, 20, STACK
        ARGFRAME IOVERLAY, 0, STATIC
        ARGFRAME DOVERLAY, 0, STATIC
        MOV     A,#-0xb
        LCALL   ?BANKED_ENTER_XDATA
        CFI DPH0 load(1, XDATA, add(CFA_XSP16, literal(-1)))
        CFI DPL0 load(1, XDATA, add(CFA_XSP16, literal(-2)))
        CFI ?BRET_EXT load(1, XDATA, add(CFA_XSP16, literal(-3)))
        CFI ?RET_HIGH load(1, XDATA, add(CFA_XSP16, literal(-4)))
        CFI ?RET_LOW load(1, XDATA, add(CFA_XSP16, literal(-5)))
        CFI R7 load(1, XDATA, add(CFA_XSP16, literal(-6)))
        CFI V2 load(1, XDATA, add(CFA_XSP16, literal(-7)))
        CFI V1 load(1, XDATA, add(CFA_XSP16, literal(-8)))
        CFI V0 load(1, XDATA, add(CFA_XSP16, literal(-9)))
        CFI VB load(1, XDATA, add(CFA_XSP16, literal(-10)))
        CFI R6 load(1, XDATA, add(CFA_XSP16, literal(-11)))
        CFI CFA_SP SP+0
        CFI CFA_XSP16 add(XSP16, 11)
        ; Saved register size: 11
        ; Auto size: 9
        MOV     A,#-0x9
        LCALL   ?ALLOC_XSTACK8
        CFI CFA_XSP16 add(XSP16, 20)
//  192   switch ( inMsg->clusterID )
        MOV     A,R2
        ADD     A,#0xc
        MOV     DPL,A
        MOV     A,R3
        ADDC    A,#0x0
        MOV     DPH,A
        MOVX    A,@DPTR
        XRL     A,#0x6
        JNZ     ??Switch_ProcessZDOMsgs_0
        INC     DPTR
        MOVX    A,@DPTR
        XRL     A,#0x80
??Switch_ProcessZDOMsgs_0:
        JZ      $+5
        LJMP    ??Switch_ProcessZDOMsgs_1 & 0xFFFF
//  193   {
//  194     case Match_Desc_rsp:
//  195       {
//  196         zAddrType_t dstAddr;
//  197         ZDO_ActiveEndpointRsp_t *pRsp = ZDO_ParseEPListRsp( inMsg );
        ; Setup parameters for call to function ZDO_ParseEPListRsp
        LCALL   ??ZDO_ParseEPListRsp?relay
        MOV     ?V0 + 0,R2
        MOV     ?V0 + 1,R3
        MOV     R6,?V0 + 0
        MOV     R7,?V0 + 1
//  198 
//  199         if ( switch_bindInProgress != 0xffff )
        MOV     DPTR,#switch_bindInProgress
        MOVX    A,@DPTR
        CPL     A
        JNZ     ??Switch_ProcessZDOMsgs_2
        INC     DPTR
        MOVX    A,@DPTR
        CPL     A
??Switch_ProcessZDOMsgs_2:
        JNZ     $+5
        LJMP    ??Switch_ProcessZDOMsgs_1 & 0xFFFF
//  200         {
//  201           uint8 ret = 0;
//  202           // Create a binding table entry
//  203           dstAddr.addrMode = Addr16Bit;
        MOV     A,#0x8
        LCALL   ?XSTACK_DISP0_8
        MOV     A,#0x2
        MOVX    @DPTR,A
//  204           dstAddr.addr.shortAddr = pRsp->nwkAddr;
        MOV     DPL,R6
        MOV     DPH,R7
        INC     DPTR
        MOVX    A,@DPTR
        MOV     R0,A
        INC     DPTR
        MOVX    A,@DPTR
        MOV     R1,A
        MOV     DPL,?XSP + 0
        MOV     DPH,?XSP + 1
        MOV     A,R0
        MOVX    @DPTR,A
        INC     DPTR
        MOV     A,R1
        MOVX    @DPTR,A
//  205 
//  206           for(char i=0; i<SWITCH_MAX_CLUSTERS; i++)
        MOV     ?V0 + 2,#0x0
//  207           {
//  208                 if ( APSME_BindRequest( Switch_epDesc[swCnt]->simpleDesc->EndPoint,
//  209                      switch_bindInProgress+i, &dstAddr, pRsp->epList[0] ) != ZSuccess )
??Switch_ProcessZDOMsgs_3:
        ; Setup parameters for call to function APSME_BindRequest
        MOV     DPL,R6
        MOV     DPH,R7
        INC     DPTR
        INC     DPTR
        INC     DPTR
        INC     DPTR
        MOVX    A,@DPTR
        MOV     ?V0 + 0,A
        MOV     R0,#?V0 + 0
        LCALL   ?PUSH_XSTACK_I_ONE
        CFI CFA_XSP16 add(XSP16, 21)
        MOV     A,#0x1
        LCALL   ?XSTACK_DISP0_8
        MOV     R4,DPL
        MOV     R5,DPH
        MOV     DPTR,#switch_bindInProgress
        MOV     ?V0 + 0,?V0 + 2
        MOVX    A,@DPTR
        ADD     A,?V0 + 0
        MOV     R2,A
        INC     DPTR
        MOVX    A,@DPTR
        ADDC    A,#0x0
        MOV     R3,A
        LCALL   ?Subroutine3 & 0xFFFF
//  210                 {
//  211                     ret = 1;
//  212                     break;
//  213                 }
//  214           }
??CrossCallReturnLabel_6:
        LCALL   ?Subroutine14 & 0xFFFF
??CrossCallReturnLabel_26:
        LCALL   ?Subroutine11 & 0xFFFF
??CrossCallReturnLabel_18:
        MOVX    A,@DPTR
        MOV     R1,A
        LCALL   ??APSME_BindRequest?relay
        MOV     A,#0x1
        LCALL   ?DEALLOC_XSTACK8
        CFI CFA_XSP16 add(XSP16, 20)
        MOV     A,R1
        JNZ     ??Switch_ProcessZDOMsgs_1
        INC     ?V0 + 2
        MOV     A,?V0 + 2
        CLR     C
        SUBB    A,#0x4
        JC      ??Switch_ProcessZDOMsgs_3
//  215           if(ret == ZSuccess)
//  216           {
//  217             osal_stop_timerEx(Switch_TaskID,  SWITCH_BIND_TIMER);
        ; Setup parameters for call to function osal_stop_timerEx
        MOV     R2,#0x21
        MOV     R3,#0x0
        MOV     DPTR,#Switch_TaskID
        MOVX    A,@DPTR
        MOV     R1,A
        LCALL   ??osal_stop_timerEx?relay
//  218             osal_start_timerEx( ZDAppTaskID, ZDO_NWK_UPDATE_NV, 250 );
        ; Setup parameters for call to function osal_start_timerEx
        LCALL   ?Subroutine10 & 0xFFFF
//  219             // Find IEEE addr
//  220             ZDP_IEEEAddrReq( pRsp->nwkAddr, ZDP_ADDR_REQTYPE_SINGLE, 0, 0 );
??CrossCallReturnLabel_32:
        ; Setup parameters for call to function ZDP_IEEEAddrReq
        MOV     R5,#0x0
        MOV     R4,#0x0
        MOV     R1,#0x0
        MOV     DPL,R6
        MOV     DPH,R7
        INC     DPTR
        LCALL   ??Subroutine18_0 & 0xFFFF
??CrossCallReturnLabel_35:
        LCALL   ??ZDP_IEEEAddrReq?relay
//  221             // Send bind confirm callback to application
//  222             Sys_BindConfirm( switch_bindInProgress, ZB_SUCCESS );
        ; Setup parameters for call to function Sys_BindConfirm
        MOV     R1,#0x0
        LCALL   ?Subroutine4 & 0xFFFF
//  223             switch_bindInProgress = 0xffff;
//  224             swCnt++;
??CrossCallReturnLabel_9:
        MOV     DPTR,#swCnt
        MOVX    A,@DPTR
        INC     A
        MOVX    @DPTR,A
//  225           }
//  226           else
//  227           {
//  228                 // ClusterID error
//  229                 
//  230           }
//  231         }
//  232       }
//  233     break;
//  234   }
//  235 }
??Switch_ProcessZDOMsgs_1:
        MOV     A,#0x9
        LCALL   ?DEALLOC_XSTACK8
        CFI CFA_XSP16 add(XSP16, 11)
        MOV     R7,#0x3
        LJMP    ?BANKED_LEAVE_XDATA
        CFI EndBlock cfiBlock2

        RSEG BANKED_CODE:CODE:NOROOT(0)
?Subroutine10:
        CFI Block cfiCond3 Using cfiCommon0
        CFI NoFunction
        CFI Conditional ??CrossCallReturnLabel_32
        CFI R6 load(1, XDATA, add(CFA_XSP16, literal(-11)))
        CFI VB load(1, XDATA, add(CFA_XSP16, literal(-10)))
        CFI V0 load(1, XDATA, add(CFA_XSP16, literal(-9)))
        CFI V1 load(1, XDATA, add(CFA_XSP16, literal(-8)))
        CFI V2 load(1, XDATA, add(CFA_XSP16, literal(-7)))
        CFI R7 load(1, XDATA, add(CFA_XSP16, literal(-6)))
        CFI ?RET_LOW load(1, XDATA, add(CFA_XSP16, literal(-5)))
        CFI ?RET_HIGH load(1, XDATA, add(CFA_XSP16, literal(-4)))
        CFI ?BRET_EXT load(1, XDATA, add(CFA_XSP16, literal(-3)))
        CFI DPL0 load(1, XDATA, add(CFA_XSP16, literal(-2)))
        CFI DPH0 load(1, XDATA, add(CFA_XSP16, literal(-1)))
        CFI CFA_SP SP+0
        CFI CFA_XSP16 add(XSP16, 20)
        CFI Block cfiCond4 Using cfiCommon0
        CFI (cfiCond4) NoFunction
        CFI (cfiCond4) Conditional ??CrossCallReturnLabel_33
        CFI (cfiCond4) R6 load(1, XDATA, add(CFA_XSP16, literal(-18)))
        CFI (cfiCond4) VB load(1, XDATA, add(CFA_XSP16, literal(-17)))
        CFI (cfiCond4) V0 load(1, XDATA, add(CFA_XSP16, literal(-16)))
        CFI (cfiCond4) V1 load(1, XDATA, add(CFA_XSP16, literal(-15)))
        CFI (cfiCond4) V2 load(1, XDATA, add(CFA_XSP16, literal(-14)))
        CFI (cfiCond4) V3 load(1, XDATA, add(CFA_XSP16, literal(-13)))
        CFI (cfiCond4) V4 load(1, XDATA, add(CFA_XSP16, literal(-12)))
        CFI (cfiCond4) V5 load(1, XDATA, add(CFA_XSP16, literal(-11)))
        CFI (cfiCond4) V6 load(1, XDATA, add(CFA_XSP16, literal(-10)))
        CFI (cfiCond4) V7 load(1, XDATA, add(CFA_XSP16, literal(-9)))
        CFI (cfiCond4) V8 load(1, XDATA, add(CFA_XSP16, literal(-8)))
        CFI (cfiCond4) V9 load(1, XDATA, add(CFA_XSP16, literal(-7)))
        CFI (cfiCond4) R7 load(1, XDATA, add(CFA_XSP16, literal(-6)))
        CFI (cfiCond4) ?RET_LOW load(1, XDATA, add(CFA_XSP16, literal(-5)))
        CFI (cfiCond4) ?RET_HIGH load(1, XDATA, add(CFA_XSP16, literal(-4)))
        CFI (cfiCond4) ?BRET_EXT load(1, XDATA, add(CFA_XSP16, literal(-3)))
        CFI (cfiCond4) DPL0 load(1, XDATA, add(CFA_XSP16, literal(-2)))
        CFI (cfiCond4) DPH0 load(1, XDATA, add(CFA_XSP16, literal(-1)))
        CFI (cfiCond4) CFA_SP SP+0
        CFI (cfiCond4) CFA_XSP16 add(XSP16, 39)
        CFI Block cfiPicker5 Using cfiCommon1
        CFI (cfiPicker5) NoFunction
        CFI (cfiPicker5) Picker
        MOV     R4,#-0x6
        MOV     R5,#0x0
        MOV     R2,#0x0
        MOV     R3,#0x2
        MOV     DPTR,#ZDAppTaskID
        CFI EndBlock cfiCond3
        CFI EndBlock cfiCond4
        CFI EndBlock cfiPicker5
        REQUIRE ??Subroutine17_0
        ; // Fall through to label ??Subroutine17_0

        RSEG BANKED_CODE:CODE:NOROOT(0)
??Subroutine17_0:
        CFI Block cfiCond6 Using cfiCommon0
        CFI NoFunction
        CFI Conditional ??CrossCallReturnLabel_34
        CFI R6 load(1, XDATA, add(CFA_XSP16, literal(-18)))
        CFI VB load(1, XDATA, add(CFA_XSP16, literal(-17)))
        CFI V0 load(1, XDATA, add(CFA_XSP16, literal(-16)))
        CFI V1 load(1, XDATA, add(CFA_XSP16, literal(-15)))
        CFI V2 load(1, XDATA, add(CFA_XSP16, literal(-14)))
        CFI V3 load(1, XDATA, add(CFA_XSP16, literal(-13)))
        CFI V4 load(1, XDATA, add(CFA_XSP16, literal(-12)))
        CFI V5 load(1, XDATA, add(CFA_XSP16, literal(-11)))
        CFI V6 load(1, XDATA, add(CFA_XSP16, literal(-10)))
        CFI V7 load(1, XDATA, add(CFA_XSP16, literal(-9)))
        CFI V8 load(1, XDATA, add(CFA_XSP16, literal(-8)))
        CFI V9 load(1, XDATA, add(CFA_XSP16, literal(-7)))
        CFI R7 load(1, XDATA, add(CFA_XSP16, literal(-6)))
        CFI ?RET_LOW load(1, XDATA, add(CFA_XSP16, literal(-5)))
        CFI ?RET_HIGH load(1, XDATA, add(CFA_XSP16, literal(-4)))
        CFI ?BRET_EXT load(1, XDATA, add(CFA_XSP16, literal(-3)))
        CFI DPL0 load(1, XDATA, add(CFA_XSP16, literal(-2)))
        CFI DPH0 load(1, XDATA, add(CFA_XSP16, literal(-1)))
        CFI CFA_SP SP+0
        CFI CFA_XSP16 add(XSP16, 39)
        CFI Block cfiCond7 Using cfiCommon0
        CFI (cfiCond7) NoFunction
        CFI (cfiCond7) Conditional ??CrossCallReturnLabel_32
        CFI (cfiCond7) R6 load(1, XDATA, add(CFA_XSP16, literal(-11)))
        CFI (cfiCond7) VB load(1, XDATA, add(CFA_XSP16, literal(-10)))
        CFI (cfiCond7) V0 load(1, XDATA, add(CFA_XSP16, literal(-9)))
        CFI (cfiCond7) V1 load(1, XDATA, add(CFA_XSP16, literal(-8)))
        CFI (cfiCond7) V2 load(1, XDATA, add(CFA_XSP16, literal(-7)))
        CFI (cfiCond7) R7 load(1, XDATA, add(CFA_XSP16, literal(-6)))
        CFI (cfiCond7) ?RET_LOW load(1, XDATA, add(CFA_XSP16, literal(-5)))
        CFI (cfiCond7) ?RET_HIGH load(1, XDATA, add(CFA_XSP16, literal(-4)))
        CFI (cfiCond7) ?BRET_EXT load(1, XDATA, add(CFA_XSP16, literal(-3)))
        CFI (cfiCond7) DPL0 load(1, XDATA, add(CFA_XSP16, literal(-2)))
        CFI (cfiCond7) DPH0 load(1, XDATA, add(CFA_XSP16, literal(-1)))
        CFI (cfiCond7) CFA_SP SP+0
        CFI (cfiCond7) CFA_XSP16 add(XSP16, 20)
        CFI Block cfiCond8 Using cfiCommon0
        CFI (cfiCond8) NoFunction
        CFI (cfiCond8) Conditional ??CrossCallReturnLabel_33
        CFI (cfiCond8) R6 load(1, XDATA, add(CFA_XSP16, literal(-18)))
        CFI (cfiCond8) VB load(1, XDATA, add(CFA_XSP16, literal(-17)))
        CFI (cfiCond8) V0 load(1, XDATA, add(CFA_XSP16, literal(-16)))
        CFI (cfiCond8) V1 load(1, XDATA, add(CFA_XSP16, literal(-15)))
        CFI (cfiCond8) V2 load(1, XDATA, add(CFA_XSP16, literal(-14)))
        CFI (cfiCond8) V3 load(1, XDATA, add(CFA_XSP16, literal(-13)))
        CFI (cfiCond8) V4 load(1, XDATA, add(CFA_XSP16, literal(-12)))
        CFI (cfiCond8) V5 load(1, XDATA, add(CFA_XSP16, literal(-11)))
        CFI (cfiCond8) V6 load(1, XDATA, add(CFA_XSP16, literal(-10)))
        CFI (cfiCond8) V7 load(1, XDATA, add(CFA_XSP16, literal(-9)))
        CFI (cfiCond8) V8 load(1, XDATA, add(CFA_XSP16, literal(-8)))
        CFI (cfiCond8) V9 load(1, XDATA, add(CFA_XSP16, literal(-7)))
        CFI (cfiCond8) R7 load(1, XDATA, add(CFA_XSP16, literal(-6)))
        CFI (cfiCond8) ?RET_LOW load(1, XDATA, add(CFA_XSP16, literal(-5)))
        CFI (cfiCond8) ?RET_HIGH load(1, XDATA, add(CFA_XSP16, literal(-4)))
        CFI (cfiCond8) ?BRET_EXT load(1, XDATA, add(CFA_XSP16, literal(-3)))
        CFI (cfiCond8) DPL0 load(1, XDATA, add(CFA_XSP16, literal(-2)))
        CFI (cfiCond8) DPH0 load(1, XDATA, add(CFA_XSP16, literal(-1)))
        CFI (cfiCond8) CFA_SP SP+0
        CFI (cfiCond8) CFA_XSP16 add(XSP16, 39)
        CFI Block cfiPicker9 Using cfiCommon1
        CFI (cfiPicker9) NoFunction
        CFI (cfiPicker9) Picker
        MOVX    A,@DPTR
        MOV     R1,A
        LCALL   ??osal_start_timerEx?relay
        RET
        CFI EndBlock cfiCond6
        CFI EndBlock cfiCond7
        CFI EndBlock cfiCond8
        CFI EndBlock cfiPicker9

        RSEG BANKED_CODE:CODE:NOROOT(0)
?Subroutine4:
        CFI Block cfiCond10 Using cfiCommon0
        CFI NoFunction
        CFI Conditional ??CrossCallReturnLabel_8
        CFI R6 load(1, XDATA, add(CFA_XSP16, literal(-14)))
        CFI VB load(1, XDATA, add(CFA_XSP16, literal(-13)))
        CFI V0 load(1, XDATA, add(CFA_XSP16, literal(-12)))
        CFI V1 load(1, XDATA, add(CFA_XSP16, literal(-11)))
        CFI V2 load(1, XDATA, add(CFA_XSP16, literal(-10)))
        CFI V3 load(1, XDATA, add(CFA_XSP16, literal(-9)))
        CFI V4 load(1, XDATA, add(CFA_XSP16, literal(-8)))
        CFI V5 load(1, XDATA, add(CFA_XSP16, literal(-7)))
        CFI R7 load(1, XDATA, add(CFA_XSP16, literal(-6)))
        CFI ?RET_LOW load(1, XDATA, add(CFA_XSP16, literal(-5)))
        CFI ?RET_HIGH load(1, XDATA, add(CFA_XSP16, literal(-4)))
        CFI ?BRET_EXT load(1, XDATA, add(CFA_XSP16, literal(-3)))
        CFI DPL0 load(1, XDATA, add(CFA_XSP16, literal(-2)))
        CFI DPH0 load(1, XDATA, add(CFA_XSP16, literal(-1)))
        CFI CFA_SP SP+0
        CFI CFA_XSP16 add(XSP16, 14)
        CFI Block cfiCond11 Using cfiCommon0
        CFI (cfiCond11) NoFunction
        CFI (cfiCond11) Conditional ??CrossCallReturnLabel_9
        CFI (cfiCond11) R6 load(1, XDATA, add(CFA_XSP16, literal(-11)))
        CFI (cfiCond11) VB load(1, XDATA, add(CFA_XSP16, literal(-10)))
        CFI (cfiCond11) V0 load(1, XDATA, add(CFA_XSP16, literal(-9)))
        CFI (cfiCond11) V1 load(1, XDATA, add(CFA_XSP16, literal(-8)))
        CFI (cfiCond11) V2 load(1, XDATA, add(CFA_XSP16, literal(-7)))
        CFI (cfiCond11) R7 load(1, XDATA, add(CFA_XSP16, literal(-6)))
        CFI (cfiCond11) ?RET_LOW load(1, XDATA, add(CFA_XSP16, literal(-5)))
        CFI (cfiCond11) ?RET_HIGH load(1, XDATA, add(CFA_XSP16, literal(-4)))
        CFI (cfiCond11) ?BRET_EXT load(1, XDATA, add(CFA_XSP16, literal(-3)))
        CFI (cfiCond11) DPL0 load(1, XDATA, add(CFA_XSP16, literal(-2)))
        CFI (cfiCond11) DPH0 load(1, XDATA, add(CFA_XSP16, literal(-1)))
        CFI (cfiCond11) CFA_SP SP+0
        CFI (cfiCond11) CFA_XSP16 add(XSP16, 20)
        CFI Block cfiPicker12 Using cfiCommon1
        CFI (cfiPicker12) NoFunction
        CFI (cfiPicker12) Picker
        MOV     DPTR,#switch_bindInProgress
        MOVX    A,@DPTR
        MOV     R2,A
        INC     DPTR
        MOVX    A,@DPTR
        MOV     R3,A
        LCALL   ??Sys_BindConfirm?relay
        MOV     DPTR,#switch_bindInProgress
        MOV     A,#-0x1
        MOVX    @DPTR,A
        INC     DPTR
        MOVX    @DPTR,A
        RET
        CFI EndBlock cfiCond10
        CFI EndBlock cfiCond11
        CFI EndBlock cfiPicker12
//  236 
//  237 /******************************************************************************
//  238  * @fn          Switch_BindDevice
//  239  *
//  240  * @brief       The zb_BindDevice function establishes or removes a binding? *              between two devices.  Once bound, an application can send
//  241  *              messages to a device by referencing the commandId for the
//  242  *              binding.
//  243  *
//  244  * @param       create - TRUE to create a binding, FALSE to remove a binding
//  245  *              commandId - The identifier of the binding
//  246  *              pDestination - The 64-bit IEEE address of the device to bind to
//  247  *
//  248  * @return      The status of the bind operation is returned in the
//  249  *              Sys_BindConfirm callback.
//  250  */

        RSEG BANKED_CODE:CODE:NOROOT(0)
//  251 void Switch_BindDevice ( uint8 create, uint8 endpoint, uint16 *commandId, uint8 *pDestination )
Switch_BindDevice:
        CFI Block cfiBlock13 Using cfiCommon0
        CFI Function Switch_BindDevice
        CODE
//  252 {
        FUNCALL Switch_BindDevice, osal_mem_alloc
        LOCFRAME ISTACK, 0, STACK
        LOCFRAME PSTACK, 0, STACK
        LOCFRAME XSTACK, 39, STACK
        LOCFRAME IOVERLAY, 0, STATIC
        LOCFRAME DOVERLAY, 0, STATIC
        ARGFRAME ISTACK, 0, STACK
        ARGFRAME PSTACK, 0, STACK
        ARGFRAME XSTACK, 39, STACK
        ARGFRAME IOVERLAY, 0, STATIC
        ARGFRAME DOVERLAY, 0, STATIC
        FUNCALL Switch_BindDevice, osal_mem_alloc
        LOCFRAME ISTACK, 0, STACK
        LOCFRAME PSTACK, 0, STACK
        LOCFRAME XSTACK, 39, STACK
        LOCFRAME IOVERLAY, 0, STATIC
        LOCFRAME DOVERLAY, 0, STATIC
        ARGFRAME ISTACK, 0, STACK
        ARGFRAME PSTACK, 0, STACK
        ARGFRAME XSTACK, 39, STACK
        ARGFRAME IOVERLAY, 0, STATIC
        ARGFRAME DOVERLAY, 0, STATIC
        FUNCALL Switch_BindDevice, osal_memcpy
        LOCFRAME ISTACK, 0, STACK
        LOCFRAME PSTACK, 0, STACK
        LOCFRAME XSTACK, 42, STACK
        LOCFRAME IOVERLAY, 0, STATIC
        LOCFRAME DOVERLAY, 0, STATIC
        ARGFRAME ISTACK, 0, STACK
        ARGFRAME PSTACK, 0, STACK
        ARGFRAME XSTACK, 42, STACK
        ARGFRAME IOVERLAY, 0, STATIC
        ARGFRAME DOVERLAY, 0, STATIC
        FUNCALL Switch_BindDevice, afRegister
        LOCFRAME ISTACK, 0, STACK
        LOCFRAME PSTACK, 0, STACK
        LOCFRAME XSTACK, 39, STACK
        LOCFRAME IOVERLAY, 0, STATIC
        LOCFRAME DOVERLAY, 0, STATIC
        ARGFRAME ISTACK, 0, STACK
        ARGFRAME PSTACK, 0, STACK
        ARGFRAME XSTACK, 39, STACK
        ARGFRAME IOVERLAY, 0, STATIC
        ARGFRAME DOVERLAY, 0, STATIC
        FUNCALL Switch_BindDevice, sAddrExtCpy
        LOCFRAME ISTACK, 0, STACK
        LOCFRAME PSTACK, 0, STACK
        LOCFRAME XSTACK, 39, STACK
        LOCFRAME IOVERLAY, 0, STATIC
        LOCFRAME DOVERLAY, 0, STATIC
        ARGFRAME ISTACK, 0, STACK
        ARGFRAME PSTACK, 0, STACK
        ARGFRAME XSTACK, 39, STACK
        ARGFRAME IOVERLAY, 0, STATIC
        ARGFRAME DOVERLAY, 0, STATIC
        FUNCALL Switch_BindDevice, APSME_BindRequest
        LOCFRAME ISTACK, 0, STACK
        LOCFRAME PSTACK, 0, STACK
        LOCFRAME XSTACK, 40, STACK
        LOCFRAME IOVERLAY, 0, STATIC
        LOCFRAME DOVERLAY, 0, STATIC
        ARGFRAME ISTACK, 0, STACK
        ARGFRAME PSTACK, 0, STACK
        ARGFRAME XSTACK, 40, STACK
        ARGFRAME IOVERLAY, 0, STATIC
        ARGFRAME DOVERLAY, 0, STATIC
        FUNCALL Switch_BindDevice, ZDP_NwkAddrReq
        LOCFRAME ISTACK, 0, STACK
        LOCFRAME PSTACK, 0, STACK
        LOCFRAME XSTACK, 39, STACK
        LOCFRAME IOVERLAY, 0, STATIC
        LOCFRAME DOVERLAY, 0, STATIC
        ARGFRAME ISTACK, 0, STACK
        ARGFRAME PSTACK, 0, STACK
        ARGFRAME XSTACK, 39, STACK
        ARGFRAME IOVERLAY, 0, STATIC
        ARGFRAME DOVERLAY, 0, STATIC
        FUNCALL Switch_BindDevice, osal_start_timerEx
        LOCFRAME ISTACK, 0, STACK
        LOCFRAME PSTACK, 0, STACK
        LOCFRAME XSTACK, 39, STACK
        LOCFRAME IOVERLAY, 0, STATIC
        LOCFRAME DOVERLAY, 0, STATIC
        ARGFRAME ISTACK, 0, STACK
        ARGFRAME PSTACK, 0, STACK
        ARGFRAME XSTACK, 39, STACK
        ARGFRAME IOVERLAY, 0, STATIC
        ARGFRAME DOVERLAY, 0, STATIC
        FUNCALL Switch_BindDevice, ZDO_AnyClusterMatches
        LOCFRAME ISTACK, 0, STACK
        LOCFRAME PSTACK, 0, STACK
        LOCFRAME XSTACK, 41, STACK
        LOCFRAME IOVERLAY, 0, STATIC
        LOCFRAME DOVERLAY, 0, STATIC
        ARGFRAME ISTACK, 0, STACK
        ARGFRAME PSTACK, 0, STACK
        ARGFRAME XSTACK, 41, STACK
        ARGFRAME IOVERLAY, 0, STATIC
        ARGFRAME DOVERLAY, 0, STATIC
        FUNCALL Switch_BindDevice, ZDP_MatchDescReq
        LOCFRAME ISTACK, 0, STACK
        LOCFRAME PSTACK, 0, STACK
        LOCFRAME XSTACK, 47, STACK
        LOCFRAME IOVERLAY, 0, STATIC
        LOCFRAME DOVERLAY, 0, STATIC
        ARGFRAME ISTACK, 0, STACK
        ARGFRAME PSTACK, 0, STACK
        ARGFRAME XSTACK, 47, STACK
        ARGFRAME IOVERLAY, 0, STATIC
        ARGFRAME DOVERLAY, 0, STATIC
        FUNCALL Switch_BindDevice, ZDO_AnyClusterMatches
        LOCFRAME ISTACK, 0, STACK
        LOCFRAME PSTACK, 0, STACK
        LOCFRAME XSTACK, 41, STACK
        LOCFRAME IOVERLAY, 0, STATIC
        LOCFRAME DOVERLAY, 0, STATIC
        ARGFRAME ISTACK, 0, STACK
        ARGFRAME PSTACK, 0, STACK
        ARGFRAME XSTACK, 41, STACK
        ARGFRAME IOVERLAY, 0, STATIC
        ARGFRAME DOVERLAY, 0, STATIC
        FUNCALL Switch_BindDevice, ZDP_MatchDescReq
        LOCFRAME ISTACK, 0, STACK
        LOCFRAME PSTACK, 0, STACK
        LOCFRAME XSTACK, 47, STACK
        LOCFRAME IOVERLAY, 0, STATIC
        LOCFRAME DOVERLAY, 0, STATIC
        ARGFRAME ISTACK, 0, STACK
        ARGFRAME PSTACK, 0, STACK
        ARGFRAME XSTACK, 47, STACK
        ARGFRAME IOVERLAY, 0, STATIC
        ARGFRAME DOVERLAY, 0, STATIC
        FUNCALL Switch_BindDevice, osal_start_timerEx
        LOCFRAME ISTACK, 0, STACK
        LOCFRAME PSTACK, 0, STACK
        LOCFRAME XSTACK, 39, STACK
        LOCFRAME IOVERLAY, 0, STATIC
        LOCFRAME DOVERLAY, 0, STATIC
        ARGFRAME ISTACK, 0, STACK
        ARGFRAME PSTACK, 0, STACK
        ARGFRAME XSTACK, 39, STACK
        ARGFRAME IOVERLAY, 0, STATIC
        ARGFRAME DOVERLAY, 0, STATIC
        FUNCALL Switch_BindDevice, bindRemoveEntry
        LOCFRAME ISTACK, 0, STACK
        LOCFRAME PSTACK, 0, STACK
        LOCFRAME XSTACK, 39, STACK
        LOCFRAME IOVERLAY, 0, STATIC
        LOCFRAME DOVERLAY, 0, STATIC
        ARGFRAME ISTACK, 0, STACK
        ARGFRAME PSTACK, 0, STACK
        ARGFRAME XSTACK, 39, STACK
        ARGFRAME IOVERLAY, 0, STATIC
        ARGFRAME DOVERLAY, 0, STATIC
        FUNCALL Switch_BindDevice, bindFind
        LOCFRAME ISTACK, 0, STACK
        LOCFRAME PSTACK, 0, STACK
        LOCFRAME XSTACK, 39, STACK
        LOCFRAME IOVERLAY, 0, STATIC
        LOCFRAME DOVERLAY, 0, STATIC
        ARGFRAME ISTACK, 0, STACK
        ARGFRAME PSTACK, 0, STACK
        ARGFRAME XSTACK, 39, STACK
        ARGFRAME IOVERLAY, 0, STATIC
        ARGFRAME DOVERLAY, 0, STATIC
        FUNCALL Switch_BindDevice, osal_start_timerEx
        LOCFRAME ISTACK, 0, STACK
        LOCFRAME PSTACK, 0, STACK
        LOCFRAME XSTACK, 39, STACK
        LOCFRAME IOVERLAY, 0, STATIC
        LOCFRAME DOVERLAY, 0, STATIC
        ARGFRAME ISTACK, 0, STACK
        ARGFRAME PSTACK, 0, STACK
        ARGFRAME XSTACK, 39, STACK
        ARGFRAME IOVERLAY, 0, STATIC
        ARGFRAME DOVERLAY, 0, STATIC
        MOV     A,#-0x12
        LCALL   ?BANKED_ENTER_XDATA
        CFI DPH0 load(1, XDATA, add(CFA_XSP16, literal(-1)))
        CFI DPL0 load(1, XDATA, add(CFA_XSP16, literal(-2)))
        CFI ?BRET_EXT load(1, XDATA, add(CFA_XSP16, literal(-3)))
        CFI ?RET_HIGH load(1, XDATA, add(CFA_XSP16, literal(-4)))
        CFI ?RET_LOW load(1, XDATA, add(CFA_XSP16, literal(-5)))
        CFI R7 load(1, XDATA, add(CFA_XSP16, literal(-6)))
        CFI V9 load(1, XDATA, add(CFA_XSP16, literal(-7)))
        CFI V8 load(1, XDATA, add(CFA_XSP16, literal(-8)))
        CFI V7 load(1, XDATA, add(CFA_XSP16, literal(-9)))
        CFI V6 load(1, XDATA, add(CFA_XSP16, literal(-10)))
        CFI V5 load(1, XDATA, add(CFA_XSP16, literal(-11)))
        CFI V4 load(1, XDATA, add(CFA_XSP16, literal(-12)))
        CFI V3 load(1, XDATA, add(CFA_XSP16, literal(-13)))
        CFI V2 load(1, XDATA, add(CFA_XSP16, literal(-14)))
        CFI V1 load(1, XDATA, add(CFA_XSP16, literal(-15)))
        CFI V0 load(1, XDATA, add(CFA_XSP16, literal(-16)))
        CFI VB load(1, XDATA, add(CFA_XSP16, literal(-17)))
        CFI R6 load(1, XDATA, add(CFA_XSP16, literal(-18)))
        CFI CFA_SP SP+0
        CFI CFA_XSP16 add(XSP16, 18)
        ; Saved register size: 18
        ; Auto size: 21
        MOV     A,#-0x15
        LCALL   ?ALLOC_XSTACK8
        CFI CFA_XSP16 add(XSP16, 39)
        MOV     ?V0 + 1,R1
        MOV     ?V0 + 0,R2
        MOV     ?V0 + 8,R4
        MOV     ?V0 + 9,R5
        MOV     A,#0x27
        LCALL   ?XSTACK_DISP0_8
        MOVX    A,@DPTR
        MOV     R6,A
        INC     DPTR
        MOVX    A,@DPTR
        MOV     R7,A
//  253   zAddrType_t destination;
//  254   uint8 ret = ZB_ALREADY_IN_PROGRESS;
//  255 
//  256   // malloc epDesc
//  257     Switch_epDesc[swCnt] = (endPointDesc_t *)osal_mem_alloc(sizeof(endPointDesc_t));
        ; Setup parameters for call to function osal_mem_alloc
        MOV     R2,#0x6
        MOV     R3,#0x0
        LCALL   ??osal_mem_alloc?relay
        MOV     ?V0 + 2,R2
        MOV     ?V0 + 3,R3
        MOV     DPTR,#swCnt
        MOVX    A,@DPTR
        CLR     C
        RLC     A
        MOV     R2,A
        CLR     A
        RLC     A
        MOV     R3,A
        MOV     A,#Switch_epDesc & 0xff
        ADD     A,R2
        MOV     DPL,A
        MOV     A,#(Switch_epDesc >> 8) & 0xff
        ADDC    A,R3
        MOV     DPH,A
        MOV     A,?V0 + 2
        MOVX    @DPTR,A
        INC     DPTR
        MOV     A,?V0 + 3
        MOVX    @DPTR,A
//  258     Switch_SimpleDesc[swCnt] = (SimpleDescriptionFormat_t *)osal_mem_alloc(sizeof(SimpleDescriptionFormat_t));
        ; Setup parameters for call to function osal_mem_alloc
        MOV     R2,#0xc
        MOV     R3,#0x0
        LCALL   ??osal_mem_alloc?relay
        LCALL   ?Subroutine7 & 0xFFFF
??CrossCallReturnLabel_14:
        MOV     DPL,A
        MOV     A,#(Switch_SimpleDesc >> 8) & 0xff
        ADDC    A,R1
        MOV     DPH,A
        MOV     A,R2
        MOVX    @DPTR,A
        INC     DPTR
        MOV     A,R3
        MOVX    @DPTR,A
//  259     
//  260     SimpleDescriptionFormat_t simpleDesc_temp =
//  261     {
//  262         SWITCH_ENDPOINT,           //  int Endpoint;
//  263         SYS_PROFID,                //  uint16 AppProfId[2];
//  264         SYS_DEVICEID,              //  uint16 AppDeviceId[2];
//  265         SYS_DEVICE_VERSION,        //  int   AppDevVer:4;
//  266         SYS_FLAGS,                 //  int   AppFlags:4;
//  267         0,                          //  byte  AppNumInClusters;
//  268         NULL,                       //  byte *pAppInClusterList;
//  269         SWITCH_MAX_CLUSTERS,          //  byte  AppNumOutClusters;
//  270         (cId_t *)Switch_ClusterList   //  byte *pAppOutClusterList;
//  271     };
        MOV     A,#0x9
        LCALL   ?XSTACK_DISP0_8
        MOV     R4,DPL
        MOV     R5,DPH
        MOV     DPH,#(`?<Constant {60, 3844, 1, 0, 0, 0, (cId_t *)0, ` >> 8) & 0xff
        MOV     DPL,#`?<Constant {60, 3844, 1, 0, 0, 0, (cId_t *)0, ` & 0xff
        MOV     A,#0xc
        LCALL   ?MOVE_LONG8_XDATA_XDATA
//  272     // Fill out the endpoint description.
//  273     Switch_epDesc[swCnt]->endPoint = SWITCH_ENDPOINT+swCnt;
        MOV     DPTR,#swCnt
        MOVX    A,@DPTR
        ADD     A,#0x3c
        PUSH    A
        CFI CFA_SP SP+-1
        LCALL   ?Subroutine16 & 0xFFFF
??CrossCallReturnLabel_30:
        LCALL   ?Subroutine11 & 0xFFFF
??CrossCallReturnLabel_19:
        POP     A
        CFI CFA_SP SP+0
        MOVX    @DPTR,A
//  274     Switch_epDesc[swCnt]->task_id = &Switch_TaskID;
        MOV     DPTR,#swCnt
        MOVX    A,@DPTR
        CLR     C
        RLC     A
        MOV     ?V0 + 2,A
        CLR     A
        RLC     A
        MOV     ?V0 + 3,A
        MOV     A,#Switch_epDesc & 0xff
        ADD     A,?V0 + 2
        MOV     DPL,A
        MOV     A,#(Switch_epDesc >> 8) & 0xff
        ADDC    A,?V0 + 3
        LCALL   ?Subroutine8 & 0xFFFF
??CrossCallReturnLabel_16:
        MOV     A,#Switch_TaskID & 0xff
        MOVX    @DPTR,A
        INC     DPTR
        MOV     A,#(Switch_TaskID >> 8) & 0xff
        MOVX    @DPTR,A
//  275     
//  276     osal_memcpy(Switch_SimpleDesc[swCnt], &simpleDesc_temp, sizeof(SimpleDescriptionFormat_t));
        ; Setup parameters for call to function osal_memcpy
        MOV     A,#0x9
        LCALL   ?XSTACK_DISP0_8
        MOV     R1,DPL
        MOV     R2,DPH
        MOV     ?V0 + 4,R1
        MOV     ?V0 + 5,R2
        MOV     ?V0 + 6,#0x0
        MOV     R0,#?V0 + 4
        LCALL   ?PUSH_XSTACK_I_THREE
        CFI CFA_XSP16 add(XSP16, 42)
        MOV     R4,#0xc
        MOV     R5,#0x0
        MOV     A,#Switch_SimpleDesc & 0xff
        ADD     A,?V0 + 2
        MOV     DPL,A
        MOV     A,#(Switch_SimpleDesc >> 8) & 0xff
        ADDC    A,?V0 + 3
        MOV     DPH,A
        LCALL   ??Subroutine18_0 & 0xFFFF
??CrossCallReturnLabel_36:
        LCALL   ??osal_memcpy?relay
        MOV     A,#0x3
        LCALL   ?DEALLOC_XSTACK8
        CFI CFA_XSP16 add(XSP16, 39)
//  277     
//  278     Switch_epDesc[swCnt]->simpleDesc
//  279                                         = (SimpleDescriptionFormat_t *)(Switch_SimpleDesc[swCnt]);
        LCALL   ?Subroutine7 & 0xFFFF
??CrossCallReturnLabel_15:
        MOV     R2,A
        MOV     A,#(Switch_SimpleDesc >> 8) & 0xff
        ADDC    A,R1
        MOV     R3,A
        MOV     DPL,R2
        MOV     DPH,R3
        MOVX    A,@DPTR
        MOV     R4,A
        INC     DPTR
        MOVX    A,@DPTR
        MOV     R5,A
        MOV     A,#Switch_epDesc & 0xff
        ADD     A,R0
        MOV     DPL,A
        MOV     A,#(Switch_epDesc >> 8) & 0xff
        ADDC    A,R1
        LCALL   ?Subroutine8 & 0xFFFF
??CrossCallReturnLabel_17:
        INC     DPTR
        INC     DPTR
        MOV     A,R4
        MOVX    @DPTR,A
        INC     DPTR
        MOV     A,R5
        MOVX    @DPTR,A
//  280     Switch_SimpleDesc[swCnt]->EndPoint += swCnt;
        MOV     DPTR,#swCnt
        MOVX    A,@DPTR
        MOV     R0,A
        MOV     DPL,R2
        MOV     DPH,R3
        MOVX    A,@DPTR
        MOV     R1,A
        INC     DPTR
        MOVX    A,@DPTR
        MOV     DPH,A
        MOV     DPL,R1
        MOVX    A,@DPTR
        ADD     A,R0
        LCALL   ?Subroutine0 & 0xFFFF
//  281     Switch_epDesc[swCnt]->latencyReq = noLatencyReqs;
??CrossCallReturnLabel_0:
        MOV     R2,A
        INC     DPTR
        MOVX    A,@DPTR
        MOV     R3,A
        MOV     DPL,R2
        MOV     DPH,R3
        INC     DPTR
        INC     DPTR
        INC     DPTR
        INC     DPTR
        INC     DPTR
        CLR     A
        MOVX    @DPTR,A
//  282     
//  283     // Register the endpoint description with the AF
//  284     afRegister( Switch_epDesc[swCnt] );
        ; Setup parameters for call to function afRegister
        LCALL   ??afRegister?relay
//  285   
//  286   if ( create )
        MOV     A,?V0 + 1
        JNZ     $+5
        LJMP    ??Switch_BindDevice_0 & 0xFFFF
//  287   {
//  288     if (switch_bindInProgress == 0xffff)
        MOV     DPTR,#switch_bindInProgress
        MOVX    A,@DPTR
        CPL     A
        JNZ     ??Switch_BindDevice_1
        INC     DPTR
        MOVX    A,@DPTR
        CPL     A
??Switch_BindDevice_1:
        JZ      $+5
        LJMP    ??CrossCallReturnLabel_33 & 0xFFFF
//  289     {
//  290       if ( pDestination )
        MOV     A,R6
        ORL     A,R7
        JZ      ??Switch_BindDevice_2
//  291       {
//  292         destination.addrMode = Addr64Bit;
        MOV     A,#0x8
        LCALL   ?XSTACK_DISP0_8
        MOV     A,#0x3
        MOVX    @DPTR,A
//  293         osal_cpyExtAddr( destination.addr.extAddr, pDestination );
        ; Setup parameters for call to function sAddrExtCpy
        MOV     A,R6
        MOV     R4,A
        MOV     A,R7
        MOV     R5,A
        MOV     DPL,?XSP + 0
        MOV     DPH,?XSP + 1
        MOV     R2,DPL
        MOV     R3,DPH
        LCALL   ??sAddrExtCpy?relay
//  294           // srcEndpoint, dstEndpoint
//  295         ret = APSME_BindRequest( endpoint, commandId[0],
//  296                                             &destination, endpoint );
//  297 
//  298         if ( ret == ZSuccess )
        ; Setup parameters for call to function APSME_BindRequest
        MOV     A,?V0 + 0
        MOV     ?V0 + 2,A
        MOV     R0,#?V0 + 2
        LCALL   ?PUSH_XSTACK_I_ONE
        CFI CFA_XSP16 add(XSP16, 40)
        MOV     A,#0x1
        LCALL   ?XSTACK_DISP0_8
        MOV     R4,DPL
        MOV     R5,DPH
        LCALL   ?Subroutine9 & 0xFFFF
??CrossCallReturnLabel_37:
        MOV     R1,?V0 + 0
        LCALL   ??APSME_BindRequest?relay
        MOV     A,#0x1
        LCALL   ?DEALLOC_XSTACK8
        CFI CFA_XSP16 add(XSP16, 39)
        MOV     A,R1
        JZ      $+5
        LJMP    ??CrossCallReturnLabel_33 & 0xFFFF
//  299         {
//  300           // Find nwk addr
//  301           ZDP_NwkAddrReq(pDestination, ZDP_ADDR_REQTYPE_SINGLE, 0, 0 );
        ; Setup parameters for call to function ZDP_NwkAddrReq
        MOV     R5,#0x0
        MOV     R4,#0x0
        MOV     R1,#0x0
        MOV     A,R6
        MOV     R2,A
        MOV     A,R7
        MOV     R3,A
        LCALL   ??ZDP_NwkAddrReq?relay
//  302           osal_start_timerEx( ZDAppTaskID, ZDO_NWK_UPDATE_NV, 250 );
        ; Setup parameters for call to function osal_start_timerEx
        LJMP    ??Switch_BindDevice_3 & 0xFFFF
//  303         }
//  304       }
//  305       else
//  306       {
//  307         ret = ZB_INVALID_PARAMETER;
//  308         destination.addrMode = Addr16Bit;
??Switch_BindDevice_2:
        MOV     A,#0x8
        LCALL   ?XSTACK_DISP0_8
        MOV     A,#0x2
        MOVX    @DPTR,A
//  309         destination.addr.shortAddr = NWK_BROADCAST_SHORTADDR;
        MOV     DPL,?XSP + 0
        MOV     DPH,?XSP + 1
        MOV     A,#-0x1
        MOVX    @DPTR,A
        INC     DPTR
        LCALL   ?Subroutine0 & 0xFFFF
//  310         if ( ZDO_AnyClusterMatches( SWITCH_MAX_CLUSTERS, commandId, Switch_epDesc[swCnt]->simpleDesc->AppNumOutClusters,
//  311                                                 Switch_epDesc[swCnt]->simpleDesc->pAppOutClusterList ) )
??CrossCallReturnLabel_1:
        LCALL   ?Subroutine2 & 0xFFFF
??CrossCallReturnLabel_4:
        INC     DPTR
        INC     DPTR
        INC     DPTR
        LCALL   ?PUSH_XSTACK8_X_TWO
        CFI CFA_XSP16 add(XSP16, 41)
        LCALL   ?Subroutine5 & 0xFFFF
??CrossCallReturnLabel_10:
        INC     DPTR
        INC     DPTR
        INC     DPTR
        LCALL   ?Subroutine6 & 0xFFFF
??CrossCallReturnLabel_12:
        LCALL   ?DEALLOC_XSTACK8
        CFI CFA_XSP16 add(XSP16, 39)
        MOV     A,R1
        JZ      ??Switch_BindDevice_4
//  312         {
//  313           // Try to match with a device in the allow bind mode
//  314           ret = ZDP_MatchDescReq( &destination, NWK_BROADCAST_SHORTADDR,
//  315               Switch_epDesc[swCnt]->simpleDesc->AppProfId, SWITCH_MAX_CLUSTERS, commandId, 0, (cId_t *)NULL, 0 );
        ; Setup parameters for call to function ZDP_MatchDescReq
        MOV     ?V0 + 2,#0x0
        MOV     R0,#?V0 + 2
        LCALL   ?PUSH_XSTACK_I_ONE
        CFI CFA_XSP16 add(XSP16, 40)
        CLR     A
        MOV     ?V0 + 3,A
        MOV     R0,#?V0 + 2
        LCALL   ?PUSH_XSTACK_I_TWO
        CFI CFA_XSP16 add(XSP16, 42)
        MOV     R0,#?V0 + 2
        LCALL   ?PUSH_XSTACK_I_ONE
        CFI CFA_XSP16 add(XSP16, 43)
        MOV     R0,#?V0 + 8
        LCALL   ?PUSH_XSTACK_I_TWO
        CFI CFA_XSP16 add(XSP16, 45)
        LCALL   ?Subroutine1 & 0xFFFF
//  316         }
??CrossCallReturnLabel_2:
        LCALL   ?PUSH_XSTACK8_X_TWO
        CFI CFA_XSP16 add(XSP16, 47)
        MOV     R1,#0x4
        SJMP    ??Switch_BindDevice_5
        CFI CFA_XSP16 add(XSP16, 39)
//  317         else if ( ZDO_AnyClusterMatches( SWITCH_MAX_CLUSTERS, commandId, Switch_epDesc[swCnt]->simpleDesc->AppNumInClusters,
//  318                                                 Switch_epDesc[swCnt]->simpleDesc->pAppInClusterList ) )
??Switch_BindDevice_4:
        LCALL   ?Subroutine3 & 0xFFFF
??CrossCallReturnLabel_7:
        LCALL   ?Subroutine2 & 0xFFFF
??CrossCallReturnLabel_5:
        LCALL   ?PUSH_XSTACK8_X_TWO
        CFI CFA_XSP16 add(XSP16, 41)
        LCALL   ?Subroutine5 & 0xFFFF
??CrossCallReturnLabel_11:
        LCALL   ?Subroutine6 & 0xFFFF
??CrossCallReturnLabel_13:
        LCALL   ?DEALLOC_XSTACK8
        CFI CFA_XSP16 add(XSP16, 39)
        MOV     A,R1
        JZ      ??CrossCallReturnLabel_33
//  319         {
//  320           ret = ZDP_MatchDescReq( &destination, NWK_BROADCAST_SHORTADDR,
//  321               Switch_epDesc[swCnt]->simpleDesc->AppProfId, 0, (cId_t *)NULL, SWITCH_MAX_CLUSTERS, commandId, 0 );
        ; Setup parameters for call to function ZDP_MatchDescReq
        MOV     ?V0 + 2,#0x0
        MOV     R0,#?V0 + 2
        LCALL   ?PUSH_XSTACK_I_ONE
        CFI CFA_XSP16 add(XSP16, 40)
        MOV     R0,#?V0 + 8
        LCALL   ?PUSH_XSTACK_I_TWO
        CFI CFA_XSP16 add(XSP16, 42)
        MOV     ?V0 + 2,#0x4
        MOV     R0,#?V0 + 2
        LCALL   ?PUSH_XSTACK_I_ONE
        CFI CFA_XSP16 add(XSP16, 43)
        CLR     A
        MOV     ?V0 + 2,A
        MOV     ?V0 + 3,A
        MOV     R0,#?V0 + 2
        LCALL   ?PUSH_XSTACK_I_TWO
        CFI CFA_XSP16 add(XSP16, 45)
        LCALL   ?Subroutine1 & 0xFFFF
//  322         }
??CrossCallReturnLabel_3:
        LCALL   ?PUSH_XSTACK8_X_TWO
        CFI CFA_XSP16 add(XSP16, 47)
        MOV     R1,#0x0
??Switch_BindDevice_5:
        MOV     R4,#-0x1
        MOV     R5,#-0x1
        MOV     A,#0x8
        LCALL   ?XSTACK_DISP0_8
        MOV     R2,DPL
        MOV     R3,DPH
        LCALL   ??ZDP_MatchDescReq?relay
        MOV     A,#0x8
        LCALL   ?DEALLOC_XSTACK8
        CFI CFA_XSP16 add(XSP16, 39)
        MOV     A,R1
//  323 
//  324         if ( ret == ZB_SUCCESS )
        JNZ     ??CrossCallReturnLabel_33
//  325         {
//  326           // Set a timer to make sure bind completes
//  327 #if ( ZG_BUILD_RTR_TYPE )
//  328           osal_start_timerEx(Switch_TaskID, SWITCH_BIND_TIMER, AIB_MaxBindingTime);
        ; Setup parameters for call to function osal_start_timerEx
        MOV     DPTR,#AIB_MaxBindingTime
        MOVX    A,@DPTR
        MOV     R4,A
        INC     DPTR
        MOVX    A,@DPTR
        MOV     R5,A
        MOV     R2,#0x21
        MOV     R3,#0x0
        MOV     DPTR,#Switch_TaskID
        LCALL   ??Subroutine17_0 & 0xFFFF
//  329 #else
//  330           // AIB_MaxBindingTime is not defined for an End Device
//  331           osal_start_timerEx(Switch_TaskID, SWITCH_BIND_TIMER, zgApsDefaultMaxBindingTime);
//  332 #endif
//  333           switch_bindInProgress = commandId[0];
??CrossCallReturnLabel_34:
        MOV     DPL,?V0 + 8
        MOV     DPH,?V0 + 9
        MOVX    A,@DPTR
        MOV     R0,A
        INC     DPTR
        MOVX    A,@DPTR
        MOV     R1,A
        MOV     DPTR,#switch_bindInProgress
        MOV     A,R0
        MOVX    @DPTR,A
        INC     DPTR
        MOV     A,R1
        MOVX    @DPTR,A
//  334           return; // dont send cback event
        SJMP    ??CrossCallReturnLabel_33
//  335         }
//  336       }
//  337     }
//  338 
//  339   //  SAPI_SendCback( SAPICB_BIND_CNF, ret, commandId );
//  340   }
//  341   else
//  342   {
//  343     // Remove local bindings for the commandId
//  344     BindingEntry_t *pBind;
//  345 
//  346     // Loop through bindings an remove any that match the cluster
//  347     while ( pBind = bindFind( endpoint, commandId[0], 0 ) )
//  348     {
//  349       bindRemoveEntry(pBind);
??Switch_BindDevice_6:
        ; Setup parameters for call to function bindRemoveEntry
        LCALL   ??bindRemoveEntry?relay
//  350     }
??Switch_BindDevice_0:
        ; Setup parameters for call to function bindFind
        MOV     R4,#0x0
        LCALL   ?Subroutine9 & 0xFFFF
??CrossCallReturnLabel_38:
        MOV     R1,?V0 + 0
        LCALL   ??bindFind?relay
        MOV     A,R2
        ORL     A,R3
        JNZ     ??Switch_BindDevice_6
//  351     osal_start_timerEx( ZDAppTaskID, ZDO_NWK_UPDATE_NV, 250 );
        ; Setup parameters for call to function osal_start_timerEx
//  352   }
??Switch_BindDevice_3:
        LCALL   ?Subroutine10 & 0xFFFF
??CrossCallReturnLabel_33:
        MOV     A,#0x15
        LCALL   ?DEALLOC_XSTACK8
        CFI CFA_XSP16 add(XSP16, 18)
        MOV     R7,#0xa
        LJMP    ?BANKED_LEAVE_XDATA
        CFI EndBlock cfiBlock13
//  353   return;
//  354 }

        RSEG BANKED_CODE:CODE:NOROOT(0)
?Subroutine11:
        CFI Block cfiCond14 Using cfiCommon0
        CFI NoFunction
        CFI Conditional ??CrossCallReturnLabel_18
        CFI R6 load(1, XDATA, add(CFA_XSP16, literal(-11)))
        CFI VB load(1, XDATA, add(CFA_XSP16, literal(-10)))
        CFI V0 load(1, XDATA, add(CFA_XSP16, literal(-9)))
        CFI V1 load(1, XDATA, add(CFA_XSP16, literal(-8)))
        CFI V2 load(1, XDATA, add(CFA_XSP16, literal(-7)))
        CFI R7 load(1, XDATA, add(CFA_XSP16, literal(-6)))
        CFI ?RET_LOW load(1, XDATA, add(CFA_XSP16, literal(-5)))
        CFI ?RET_HIGH load(1, XDATA, add(CFA_XSP16, literal(-4)))
        CFI ?BRET_EXT load(1, XDATA, add(CFA_XSP16, literal(-3)))
        CFI DPL0 load(1, XDATA, add(CFA_XSP16, literal(-2)))
        CFI DPH0 load(1, XDATA, add(CFA_XSP16, literal(-1)))
        CFI CFA_SP SP+0
        CFI CFA_XSP16 add(XSP16, 21)
        CFI Block cfiCond15 Using cfiCommon0
        CFI (cfiCond15) NoFunction
        CFI (cfiCond15) Conditional ??CrossCallReturnLabel_19
        CFI (cfiCond15) R6 load(1, XDATA, add(CFA_XSP16, literal(-18)))
        CFI (cfiCond15) VB load(1, XDATA, add(CFA_XSP16, literal(-17)))
        CFI (cfiCond15) V0 load(1, XDATA, add(CFA_XSP16, literal(-16)))
        CFI (cfiCond15) V1 load(1, XDATA, add(CFA_XSP16, literal(-15)))
        CFI (cfiCond15) V2 load(1, XDATA, add(CFA_XSP16, literal(-14)))
        CFI (cfiCond15) V3 load(1, XDATA, add(CFA_XSP16, literal(-13)))
        CFI (cfiCond15) V4 load(1, XDATA, add(CFA_XSP16, literal(-12)))
        CFI (cfiCond15) V5 load(1, XDATA, add(CFA_XSP16, literal(-11)))
        CFI (cfiCond15) V6 load(1, XDATA, add(CFA_XSP16, literal(-10)))
        CFI (cfiCond15) V7 load(1, XDATA, add(CFA_XSP16, literal(-9)))
        CFI (cfiCond15) V8 load(1, XDATA, add(CFA_XSP16, literal(-8)))
        CFI (cfiCond15) V9 load(1, XDATA, add(CFA_XSP16, literal(-7)))
        CFI (cfiCond15) R7 load(1, XDATA, add(CFA_XSP16, literal(-6)))
        CFI (cfiCond15) ?RET_LOW load(1, XDATA, add(CFA_XSP16, literal(-5)))
        CFI (cfiCond15) ?RET_HIGH load(1, XDATA, add(CFA_XSP16, literal(-4)))
        CFI (cfiCond15) ?BRET_EXT load(1, XDATA, add(CFA_XSP16, literal(-3)))
        CFI (cfiCond15) DPL0 load(1, XDATA, add(CFA_XSP16, literal(-2)))
        CFI (cfiCond15) DPH0 load(1, XDATA, add(CFA_XSP16, literal(-1)))
        CFI (cfiCond15) CFA_SP SP+-1
        CFI (cfiCond15) CFA_XSP16 add(XSP16, 39)
        CFI Block cfiPicker16 Using cfiCommon1
        CFI (cfiPicker16) NoFunction
        CFI (cfiPicker16) Picker
        LCALL   ?Subroutine15 & 0xFFFF
??CrossCallReturnLabel_28:
        RET
        CFI EndBlock cfiCond14
        CFI EndBlock cfiCond15
        CFI EndBlock cfiPicker16

        RSEG BANKED_CODE:CODE:NOROOT(0)
?Subroutine15:
        CFI Block cfiCond17 Using cfiCommon0
        CFI NoFunction
        CFI Conditional ??CrossCallReturnLabel_28, ??CrossCallReturnLabel_18
        CFI R6 load(1, XDATA, add(CFA_XSP16, literal(-11)))
        CFI VB load(1, XDATA, add(CFA_XSP16, literal(-10)))
        CFI V0 load(1, XDATA, add(CFA_XSP16, literal(-9)))
        CFI V1 load(1, XDATA, add(CFA_XSP16, literal(-8)))
        CFI V2 load(1, XDATA, add(CFA_XSP16, literal(-7)))
        CFI R7 load(1, XDATA, add(CFA_XSP16, literal(-6)))
        CFI ?RET_LOW load(1, XDATA, add(CFA_XSP16, literal(-5)))
        CFI ?RET_HIGH load(1, XDATA, add(CFA_XSP16, literal(-4)))
        CFI ?BRET_EXT load(1, XDATA, add(CFA_XSP16, literal(-3)))
        CFI DPL0 load(1, XDATA, add(CFA_XSP16, literal(-2)))
        CFI DPH0 load(1, XDATA, add(CFA_XSP16, literal(-1)))
        CFI CFA_SP SP+0
        CFI CFA_XSP16 add(XSP16, 21)
        CFI Block cfiCond18 Using cfiCommon0
        CFI (cfiCond18) NoFunction
        CFI (cfiCond18) Conditional ??CrossCallReturnLabel_28, ??CrossCallReturnLabel_19
        CFI (cfiCond18) R6 load(1, XDATA, add(CFA_XSP16, literal(-18)))
        CFI (cfiCond18) VB load(1, XDATA, add(CFA_XSP16, literal(-17)))
        CFI (cfiCond18) V0 load(1, XDATA, add(CFA_XSP16, literal(-16)))
        CFI (cfiCond18) V1 load(1, XDATA, add(CFA_XSP16, literal(-15)))
        CFI (cfiCond18) V2 load(1, XDATA, add(CFA_XSP16, literal(-14)))
        CFI (cfiCond18) V3 load(1, XDATA, add(CFA_XSP16, literal(-13)))
        CFI (cfiCond18) V4 load(1, XDATA, add(CFA_XSP16, literal(-12)))
        CFI (cfiCond18) V5 load(1, XDATA, add(CFA_XSP16, literal(-11)))
        CFI (cfiCond18) V6 load(1, XDATA, add(CFA_XSP16, literal(-10)))
        CFI (cfiCond18) V7 load(1, XDATA, add(CFA_XSP16, literal(-9)))
        CFI (cfiCond18) V8 load(1, XDATA, add(CFA_XSP16, literal(-8)))
        CFI (cfiCond18) V9 load(1, XDATA, add(CFA_XSP16, literal(-7)))
        CFI (cfiCond18) R7 load(1, XDATA, add(CFA_XSP16, literal(-6)))
        CFI (cfiCond18) ?RET_LOW load(1, XDATA, add(CFA_XSP16, literal(-5)))
        CFI (cfiCond18) ?RET_HIGH load(1, XDATA, add(CFA_XSP16, literal(-4)))
        CFI (cfiCond18) ?BRET_EXT load(1, XDATA, add(CFA_XSP16, literal(-3)))
        CFI (cfiCond18) DPL0 load(1, XDATA, add(CFA_XSP16, literal(-2)))
        CFI (cfiCond18) DPH0 load(1, XDATA, add(CFA_XSP16, literal(-1)))
        CFI (cfiCond18) CFA_SP SP+-1
        CFI (cfiCond18) CFA_XSP16 add(XSP16, 39)
        CFI Block cfiCond19 Using cfiCommon0
        CFI (cfiCond19) NoFunction
        CFI (cfiCond19) Conditional ??CrossCallReturnLabel_29, ??CrossCallReturnLabel_25, ??CrossCallReturnLabel_16
        CFI (cfiCond19) R6 load(1, XDATA, add(CFA_XSP16, literal(-18)))
        CFI (cfiCond19) VB load(1, XDATA, add(CFA_XSP16, literal(-17)))
        CFI (cfiCond19) V0 load(1, XDATA, add(CFA_XSP16, literal(-16)))
        CFI (cfiCond19) V1 load(1, XDATA, add(CFA_XSP16, literal(-15)))
        CFI (cfiCond19) V2 load(1, XDATA, add(CFA_XSP16, literal(-14)))
        CFI (cfiCond19) V3 load(1, XDATA, add(CFA_XSP16, literal(-13)))
        CFI (cfiCond19) V4 load(1, XDATA, add(CFA_XSP16, literal(-12)))
        CFI (cfiCond19) V5 load(1, XDATA, add(CFA_XSP16, literal(-11)))
        CFI (cfiCond19) V6 load(1, XDATA, add(CFA_XSP16, literal(-10)))
        CFI (cfiCond19) V7 load(1, XDATA, add(CFA_XSP16, literal(-9)))
        CFI (cfiCond19) V8 load(1, XDATA, add(CFA_XSP16, literal(-8)))
        CFI (cfiCond19) V9 load(1, XDATA, add(CFA_XSP16, literal(-7)))
        CFI (cfiCond19) R7 load(1, XDATA, add(CFA_XSP16, literal(-6)))
        CFI (cfiCond19) ?RET_LOW load(1, XDATA, add(CFA_XSP16, literal(-5)))
        CFI (cfiCond19) ?RET_HIGH load(1, XDATA, add(CFA_XSP16, literal(-4)))
        CFI (cfiCond19) ?BRET_EXT load(1, XDATA, add(CFA_XSP16, literal(-3)))
        CFI (cfiCond19) DPL0 load(1, XDATA, add(CFA_XSP16, literal(-2)))
        CFI (cfiCond19) DPH0 load(1, XDATA, add(CFA_XSP16, literal(-1)))
        CFI (cfiCond19) CFA_SP SP+0
        CFI (cfiCond19) CFA_XSP16 add(XSP16, 39)
        CFI Block cfiCond20 Using cfiCommon0
        CFI (cfiCond20) NoFunction
        CFI (cfiCond20) Conditional ??CrossCallReturnLabel_29, ??CrossCallReturnLabel_25, ??CrossCallReturnLabel_17
        CFI (cfiCond20) R6 load(1, XDATA, add(CFA_XSP16, literal(-18)))
        CFI (cfiCond20) VB load(1, XDATA, add(CFA_XSP16, literal(-17)))
        CFI (cfiCond20) V0 load(1, XDATA, add(CFA_XSP16, literal(-16)))
        CFI (cfiCond20) V1 load(1, XDATA, add(CFA_XSP16, literal(-15)))
        CFI (cfiCond20) V2 load(1, XDATA, add(CFA_XSP16, literal(-14)))
        CFI (cfiCond20) V3 load(1, XDATA, add(CFA_XSP16, literal(-13)))
        CFI (cfiCond20) V4 load(1, XDATA, add(CFA_XSP16, literal(-12)))
        CFI (cfiCond20) V5 load(1, XDATA, add(CFA_XSP16, literal(-11)))
        CFI (cfiCond20) V6 load(1, XDATA, add(CFA_XSP16, literal(-10)))
        CFI (cfiCond20) V7 load(1, XDATA, add(CFA_XSP16, literal(-9)))
        CFI (cfiCond20) V8 load(1, XDATA, add(CFA_XSP16, literal(-8)))
        CFI (cfiCond20) V9 load(1, XDATA, add(CFA_XSP16, literal(-7)))
        CFI (cfiCond20) R7 load(1, XDATA, add(CFA_XSP16, literal(-6)))
        CFI (cfiCond20) ?RET_LOW load(1, XDATA, add(CFA_XSP16, literal(-5)))
        CFI (cfiCond20) ?RET_HIGH load(1, XDATA, add(CFA_XSP16, literal(-4)))
        CFI (cfiCond20) ?BRET_EXT load(1, XDATA, add(CFA_XSP16, literal(-3)))
        CFI (cfiCond20) DPL0 load(1, XDATA, add(CFA_XSP16, literal(-2)))
        CFI (cfiCond20) DPH0 load(1, XDATA, add(CFA_XSP16, literal(-1)))
        CFI (cfiCond20) CFA_SP SP+0
        CFI (cfiCond20) CFA_XSP16 add(XSP16, 39)
        CFI Block cfiCond21 Using cfiCommon0
        CFI (cfiCond21) NoFunction
        CFI (cfiCond21) Conditional ??CrossCallReturnLabel_29, ??CrossCallReturnLabel_24, ??CrossCallReturnLabel_10
        CFI (cfiCond21) R6 load(1, XDATA, add(CFA_XSP16, literal(-18)))
        CFI (cfiCond21) VB load(1, XDATA, add(CFA_XSP16, literal(-17)))
        CFI (cfiCond21) V0 load(1, XDATA, add(CFA_XSP16, literal(-16)))
        CFI (cfiCond21) V1 load(1, XDATA, add(CFA_XSP16, literal(-15)))
        CFI (cfiCond21) V2 load(1, XDATA, add(CFA_XSP16, literal(-14)))
        CFI (cfiCond21) V3 load(1, XDATA, add(CFA_XSP16, literal(-13)))
        CFI (cfiCond21) V4 load(1, XDATA, add(CFA_XSP16, literal(-12)))
        CFI (cfiCond21) V5 load(1, XDATA, add(CFA_XSP16, literal(-11)))
        CFI (cfiCond21) V6 load(1, XDATA, add(CFA_XSP16, literal(-10)))
        CFI (cfiCond21) V7 load(1, XDATA, add(CFA_XSP16, literal(-9)))
        CFI (cfiCond21) V8 load(1, XDATA, add(CFA_XSP16, literal(-8)))
        CFI (cfiCond21) V9 load(1, XDATA, add(CFA_XSP16, literal(-7)))
        CFI (cfiCond21) R7 load(1, XDATA, add(CFA_XSP16, literal(-6)))
        CFI (cfiCond21) ?RET_LOW load(1, XDATA, add(CFA_XSP16, literal(-5)))
        CFI (cfiCond21) ?RET_HIGH load(1, XDATA, add(CFA_XSP16, literal(-4)))
        CFI (cfiCond21) ?BRET_EXT load(1, XDATA, add(CFA_XSP16, literal(-3)))
        CFI (cfiCond21) DPL0 load(1, XDATA, add(CFA_XSP16, literal(-2)))
        CFI (cfiCond21) DPH0 load(1, XDATA, add(CFA_XSP16, literal(-1)))
        CFI (cfiCond21) CFA_SP SP+0
        CFI (cfiCond21) CFA_XSP16 add(XSP16, 41)
        CFI Block cfiCond22 Using cfiCommon0
        CFI (cfiCond22) NoFunction
        CFI (cfiCond22) Conditional ??CrossCallReturnLabel_29, ??CrossCallReturnLabel_24, ??CrossCallReturnLabel_11
        CFI (cfiCond22) R6 load(1, XDATA, add(CFA_XSP16, literal(-18)))
        CFI (cfiCond22) VB load(1, XDATA, add(CFA_XSP16, literal(-17)))
        CFI (cfiCond22) V0 load(1, XDATA, add(CFA_XSP16, literal(-16)))
        CFI (cfiCond22) V1 load(1, XDATA, add(CFA_XSP16, literal(-15)))
        CFI (cfiCond22) V2 load(1, XDATA, add(CFA_XSP16, literal(-14)))
        CFI (cfiCond22) V3 load(1, XDATA, add(CFA_XSP16, literal(-13)))
        CFI (cfiCond22) V4 load(1, XDATA, add(CFA_XSP16, literal(-12)))
        CFI (cfiCond22) V5 load(1, XDATA, add(CFA_XSP16, literal(-11)))
        CFI (cfiCond22) V6 load(1, XDATA, add(CFA_XSP16, literal(-10)))
        CFI (cfiCond22) V7 load(1, XDATA, add(CFA_XSP16, literal(-9)))
        CFI (cfiCond22) V8 load(1, XDATA, add(CFA_XSP16, literal(-8)))
        CFI (cfiCond22) V9 load(1, XDATA, add(CFA_XSP16, literal(-7)))
        CFI (cfiCond22) R7 load(1, XDATA, add(CFA_XSP16, literal(-6)))
        CFI (cfiCond22) ?RET_LOW load(1, XDATA, add(CFA_XSP16, literal(-5)))
        CFI (cfiCond22) ?RET_HIGH load(1, XDATA, add(CFA_XSP16, literal(-4)))
        CFI (cfiCond22) ?BRET_EXT load(1, XDATA, add(CFA_XSP16, literal(-3)))
        CFI (cfiCond22) DPL0 load(1, XDATA, add(CFA_XSP16, literal(-2)))
        CFI (cfiCond22) DPH0 load(1, XDATA, add(CFA_XSP16, literal(-1)))
        CFI (cfiCond22) CFA_SP SP+0
        CFI (cfiCond22) CFA_XSP16 add(XSP16, 41)
        CFI Block cfiCond23 Using cfiCommon0
        CFI (cfiCond23) NoFunction
        CFI (cfiCond23) Conditional ??CrossCallReturnLabel_29, ??CrossCallReturnLabel_23, ??CrossCallReturnLabel_2
        CFI (cfiCond23) R6 load(1, XDATA, add(CFA_XSP16, literal(-18)))
        CFI (cfiCond23) VB load(1, XDATA, add(CFA_XSP16, literal(-17)))
        CFI (cfiCond23) V0 load(1, XDATA, add(CFA_XSP16, literal(-16)))
        CFI (cfiCond23) V1 load(1, XDATA, add(CFA_XSP16, literal(-15)))
        CFI (cfiCond23) V2 load(1, XDATA, add(CFA_XSP16, literal(-14)))
        CFI (cfiCond23) V3 load(1, XDATA, add(CFA_XSP16, literal(-13)))
        CFI (cfiCond23) V4 load(1, XDATA, add(CFA_XSP16, literal(-12)))
        CFI (cfiCond23) V5 load(1, XDATA, add(CFA_XSP16, literal(-11)))
        CFI (cfiCond23) V6 load(1, XDATA, add(CFA_XSP16, literal(-10)))
        CFI (cfiCond23) V7 load(1, XDATA, add(CFA_XSP16, literal(-9)))
        CFI (cfiCond23) V8 load(1, XDATA, add(CFA_XSP16, literal(-8)))
        CFI (cfiCond23) V9 load(1, XDATA, add(CFA_XSP16, literal(-7)))
        CFI (cfiCond23) R7 load(1, XDATA, add(CFA_XSP16, literal(-6)))
        CFI (cfiCond23) ?RET_LOW load(1, XDATA, add(CFA_XSP16, literal(-5)))
        CFI (cfiCond23) ?RET_HIGH load(1, XDATA, add(CFA_XSP16, literal(-4)))
        CFI (cfiCond23) ?BRET_EXT load(1, XDATA, add(CFA_XSP16, literal(-3)))
        CFI (cfiCond23) DPL0 load(1, XDATA, add(CFA_XSP16, literal(-2)))
        CFI (cfiCond23) DPH0 load(1, XDATA, add(CFA_XSP16, literal(-1)))
        CFI (cfiCond23) CFA_SP SP+0
        CFI (cfiCond23) CFA_XSP16 add(XSP16, 45)
        CFI Block cfiCond24 Using cfiCommon0
        CFI (cfiCond24) NoFunction
        CFI (cfiCond24) Conditional ??CrossCallReturnLabel_29, ??CrossCallReturnLabel_23, ??CrossCallReturnLabel_3
        CFI (cfiCond24) R6 load(1, XDATA, add(CFA_XSP16, literal(-18)))
        CFI (cfiCond24) VB load(1, XDATA, add(CFA_XSP16, literal(-17)))
        CFI (cfiCond24) V0 load(1, XDATA, add(CFA_XSP16, literal(-16)))
        CFI (cfiCond24) V1 load(1, XDATA, add(CFA_XSP16, literal(-15)))
        CFI (cfiCond24) V2 load(1, XDATA, add(CFA_XSP16, literal(-14)))
        CFI (cfiCond24) V3 load(1, XDATA, add(CFA_XSP16, literal(-13)))
        CFI (cfiCond24) V4 load(1, XDATA, add(CFA_XSP16, literal(-12)))
        CFI (cfiCond24) V5 load(1, XDATA, add(CFA_XSP16, literal(-11)))
        CFI (cfiCond24) V6 load(1, XDATA, add(CFA_XSP16, literal(-10)))
        CFI (cfiCond24) V7 load(1, XDATA, add(CFA_XSP16, literal(-9)))
        CFI (cfiCond24) V8 load(1, XDATA, add(CFA_XSP16, literal(-8)))
        CFI (cfiCond24) V9 load(1, XDATA, add(CFA_XSP16, literal(-7)))
        CFI (cfiCond24) R7 load(1, XDATA, add(CFA_XSP16, literal(-6)))
        CFI (cfiCond24) ?RET_LOW load(1, XDATA, add(CFA_XSP16, literal(-5)))
        CFI (cfiCond24) ?RET_HIGH load(1, XDATA, add(CFA_XSP16, literal(-4)))
        CFI (cfiCond24) ?BRET_EXT load(1, XDATA, add(CFA_XSP16, literal(-3)))
        CFI (cfiCond24) DPL0 load(1, XDATA, add(CFA_XSP16, literal(-2)))
        CFI (cfiCond24) DPH0 load(1, XDATA, add(CFA_XSP16, literal(-1)))
        CFI (cfiCond24) CFA_SP SP+0
        CFI (cfiCond24) CFA_XSP16 add(XSP16, 45)
        CFI Block cfiPicker25 Using cfiCommon1
        CFI (cfiPicker25) NoFunction
        CFI (cfiPicker25) Picker
        MOVX    A,@DPTR
        MOV     R0,A
        INC     DPTR
        MOVX    A,@DPTR
        MOV     DPH,A
        MOV     DPL,R0
        RET
        CFI EndBlock cfiCond17
        CFI EndBlock cfiCond18
        CFI EndBlock cfiCond19
        CFI EndBlock cfiCond20
        CFI EndBlock cfiCond21
        CFI EndBlock cfiCond22
        CFI EndBlock cfiCond23
        CFI EndBlock cfiCond24
        CFI EndBlock cfiPicker25

        RSEG BANKED_CODE:CODE:NOROOT(0)
?Subroutine9:
        CFI Block cfiCond26 Using cfiCommon0
        CFI NoFunction
        CFI Conditional ??CrossCallReturnLabel_37
        CFI R6 load(1, XDATA, add(CFA_XSP16, literal(-18)))
        CFI VB load(1, XDATA, add(CFA_XSP16, literal(-17)))
        CFI V0 load(1, XDATA, add(CFA_XSP16, literal(-16)))
        CFI V1 load(1, XDATA, add(CFA_XSP16, literal(-15)))
        CFI V2 load(1, XDATA, add(CFA_XSP16, literal(-14)))
        CFI V3 load(1, XDATA, add(CFA_XSP16, literal(-13)))
        CFI V4 load(1, XDATA, add(CFA_XSP16, literal(-12)))
        CFI V5 load(1, XDATA, add(CFA_XSP16, literal(-11)))
        CFI V6 load(1, XDATA, add(CFA_XSP16, literal(-10)))
        CFI V7 load(1, XDATA, add(CFA_XSP16, literal(-9)))
        CFI V8 load(1, XDATA, add(CFA_XSP16, literal(-8)))
        CFI V9 load(1, XDATA, add(CFA_XSP16, literal(-7)))
        CFI R7 load(1, XDATA, add(CFA_XSP16, literal(-6)))
        CFI ?RET_LOW load(1, XDATA, add(CFA_XSP16, literal(-5)))
        CFI ?RET_HIGH load(1, XDATA, add(CFA_XSP16, literal(-4)))
        CFI ?BRET_EXT load(1, XDATA, add(CFA_XSP16, literal(-3)))
        CFI DPL0 load(1, XDATA, add(CFA_XSP16, literal(-2)))
        CFI DPH0 load(1, XDATA, add(CFA_XSP16, literal(-1)))
        CFI CFA_SP SP+0
        CFI CFA_XSP16 add(XSP16, 40)
        CFI Block cfiCond27 Using cfiCommon0
        CFI (cfiCond27) NoFunction
        CFI (cfiCond27) Conditional ??CrossCallReturnLabel_38
        CFI (cfiCond27) R6 load(1, XDATA, add(CFA_XSP16, literal(-18)))
        CFI (cfiCond27) VB load(1, XDATA, add(CFA_XSP16, literal(-17)))
        CFI (cfiCond27) V0 load(1, XDATA, add(CFA_XSP16, literal(-16)))
        CFI (cfiCond27) V1 load(1, XDATA, add(CFA_XSP16, literal(-15)))
        CFI (cfiCond27) V2 load(1, XDATA, add(CFA_XSP16, literal(-14)))
        CFI (cfiCond27) V3 load(1, XDATA, add(CFA_XSP16, literal(-13)))
        CFI (cfiCond27) V4 load(1, XDATA, add(CFA_XSP16, literal(-12)))
        CFI (cfiCond27) V5 load(1, XDATA, add(CFA_XSP16, literal(-11)))
        CFI (cfiCond27) V6 load(1, XDATA, add(CFA_XSP16, literal(-10)))
        CFI (cfiCond27) V7 load(1, XDATA, add(CFA_XSP16, literal(-9)))
        CFI (cfiCond27) V8 load(1, XDATA, add(CFA_XSP16, literal(-8)))
        CFI (cfiCond27) V9 load(1, XDATA, add(CFA_XSP16, literal(-7)))
        CFI (cfiCond27) R7 load(1, XDATA, add(CFA_XSP16, literal(-6)))
        CFI (cfiCond27) ?RET_LOW load(1, XDATA, add(CFA_XSP16, literal(-5)))
        CFI (cfiCond27) ?RET_HIGH load(1, XDATA, add(CFA_XSP16, literal(-4)))
        CFI (cfiCond27) ?BRET_EXT load(1, XDATA, add(CFA_XSP16, literal(-3)))
        CFI (cfiCond27) DPL0 load(1, XDATA, add(CFA_XSP16, literal(-2)))
        CFI (cfiCond27) DPH0 load(1, XDATA, add(CFA_XSP16, literal(-1)))
        CFI (cfiCond27) CFA_SP SP+0
        CFI (cfiCond27) CFA_XSP16 add(XSP16, 39)
        CFI Block cfiPicker28 Using cfiCommon1
        CFI (cfiPicker28) NoFunction
        CFI (cfiPicker28) Picker
        MOV     DPL,?V0 + 8
        MOV     DPH,?V0 + 9
        CFI EndBlock cfiCond26
        CFI EndBlock cfiCond27
        CFI EndBlock cfiPicker28
        REQUIRE ??Subroutine18_0
        ; // Fall through to label ??Subroutine18_0

        RSEG BANKED_CODE:CODE:NOROOT(0)
??Subroutine18_0:
        CFI Block cfiCond29 Using cfiCommon0
        CFI NoFunction
        CFI Conditional ??CrossCallReturnLabel_35
        CFI R6 load(1, XDATA, add(CFA_XSP16, literal(-11)))
        CFI VB load(1, XDATA, add(CFA_XSP16, literal(-10)))
        CFI V0 load(1, XDATA, add(CFA_XSP16, literal(-9)))
        CFI V1 load(1, XDATA, add(CFA_XSP16, literal(-8)))
        CFI V2 load(1, XDATA, add(CFA_XSP16, literal(-7)))
        CFI R7 load(1, XDATA, add(CFA_XSP16, literal(-6)))
        CFI ?RET_LOW load(1, XDATA, add(CFA_XSP16, literal(-5)))
        CFI ?RET_HIGH load(1, XDATA, add(CFA_XSP16, literal(-4)))
        CFI ?BRET_EXT load(1, XDATA, add(CFA_XSP16, literal(-3)))
        CFI DPL0 load(1, XDATA, add(CFA_XSP16, literal(-2)))
        CFI DPH0 load(1, XDATA, add(CFA_XSP16, literal(-1)))
        CFI CFA_SP SP+0
        CFI CFA_XSP16 add(XSP16, 20)
        CFI Block cfiCond30 Using cfiCommon0
        CFI (cfiCond30) NoFunction
        CFI (cfiCond30) Conditional ??CrossCallReturnLabel_36
        CFI (cfiCond30) R6 load(1, XDATA, add(CFA_XSP16, literal(-18)))
        CFI (cfiCond30) VB load(1, XDATA, add(CFA_XSP16, literal(-17)))
        CFI (cfiCond30) V0 load(1, XDATA, add(CFA_XSP16, literal(-16)))
        CFI (cfiCond30) V1 load(1, XDATA, add(CFA_XSP16, literal(-15)))
        CFI (cfiCond30) V2 load(1, XDATA, add(CFA_XSP16, literal(-14)))
        CFI (cfiCond30) V3 load(1, XDATA, add(CFA_XSP16, literal(-13)))
        CFI (cfiCond30) V4 load(1, XDATA, add(CFA_XSP16, literal(-12)))
        CFI (cfiCond30) V5 load(1, XDATA, add(CFA_XSP16, literal(-11)))
        CFI (cfiCond30) V6 load(1, XDATA, add(CFA_XSP16, literal(-10)))
        CFI (cfiCond30) V7 load(1, XDATA, add(CFA_XSP16, literal(-9)))
        CFI (cfiCond30) V8 load(1, XDATA, add(CFA_XSP16, literal(-8)))
        CFI (cfiCond30) V9 load(1, XDATA, add(CFA_XSP16, literal(-7)))
        CFI (cfiCond30) R7 load(1, XDATA, add(CFA_XSP16, literal(-6)))
        CFI (cfiCond30) ?RET_LOW load(1, XDATA, add(CFA_XSP16, literal(-5)))
        CFI (cfiCond30) ?RET_HIGH load(1, XDATA, add(CFA_XSP16, literal(-4)))
        CFI (cfiCond30) ?BRET_EXT load(1, XDATA, add(CFA_XSP16, literal(-3)))
        CFI (cfiCond30) DPL0 load(1, XDATA, add(CFA_XSP16, literal(-2)))
        CFI (cfiCond30) DPH0 load(1, XDATA, add(CFA_XSP16, literal(-1)))
        CFI (cfiCond30) CFA_SP SP+0
        CFI (cfiCond30) CFA_XSP16 add(XSP16, 42)
        CFI Block cfiCond31 Using cfiCommon0
        CFI (cfiCond31) NoFunction
        CFI (cfiCond31) Conditional ??CrossCallReturnLabel_37
        CFI (cfiCond31) R6 load(1, XDATA, add(CFA_XSP16, literal(-18)))
        CFI (cfiCond31) VB load(1, XDATA, add(CFA_XSP16, literal(-17)))
        CFI (cfiCond31) V0 load(1, XDATA, add(CFA_XSP16, literal(-16)))
        CFI (cfiCond31) V1 load(1, XDATA, add(CFA_XSP16, literal(-15)))
        CFI (cfiCond31) V2 load(1, XDATA, add(CFA_XSP16, literal(-14)))
        CFI (cfiCond31) V3 load(1, XDATA, add(CFA_XSP16, literal(-13)))
        CFI (cfiCond31) V4 load(1, XDATA, add(CFA_XSP16, literal(-12)))
        CFI (cfiCond31) V5 load(1, XDATA, add(CFA_XSP16, literal(-11)))
        CFI (cfiCond31) V6 load(1, XDATA, add(CFA_XSP16, literal(-10)))
        CFI (cfiCond31) V7 load(1, XDATA, add(CFA_XSP16, literal(-9)))
        CFI (cfiCond31) V8 load(1, XDATA, add(CFA_XSP16, literal(-8)))
        CFI (cfiCond31) V9 load(1, XDATA, add(CFA_XSP16, literal(-7)))
        CFI (cfiCond31) R7 load(1, XDATA, add(CFA_XSP16, literal(-6)))
        CFI (cfiCond31) ?RET_LOW load(1, XDATA, add(CFA_XSP16, literal(-5)))
        CFI (cfiCond31) ?RET_HIGH load(1, XDATA, add(CFA_XSP16, literal(-4)))
        CFI (cfiCond31) ?BRET_EXT load(1, XDATA, add(CFA_XSP16, literal(-3)))
        CFI (cfiCond31) DPL0 load(1, XDATA, add(CFA_XSP16, literal(-2)))
        CFI (cfiCond31) DPH0 load(1, XDATA, add(CFA_XSP16, literal(-1)))
        CFI (cfiCond31) CFA_SP SP+0
        CFI (cfiCond31) CFA_XSP16 add(XSP16, 40)
        CFI Block cfiCond32 Using cfiCommon0
        CFI (cfiCond32) NoFunction
        CFI (cfiCond32) Conditional ??CrossCallReturnLabel_38
        CFI (cfiCond32) R6 load(1, XDATA, add(CFA_XSP16, literal(-18)))
        CFI (cfiCond32) VB load(1, XDATA, add(CFA_XSP16, literal(-17)))
        CFI (cfiCond32) V0 load(1, XDATA, add(CFA_XSP16, literal(-16)))
        CFI (cfiCond32) V1 load(1, XDATA, add(CFA_XSP16, literal(-15)))
        CFI (cfiCond32) V2 load(1, XDATA, add(CFA_XSP16, literal(-14)))
        CFI (cfiCond32) V3 load(1, XDATA, add(CFA_XSP16, literal(-13)))
        CFI (cfiCond32) V4 load(1, XDATA, add(CFA_XSP16, literal(-12)))
        CFI (cfiCond32) V5 load(1, XDATA, add(CFA_XSP16, literal(-11)))
        CFI (cfiCond32) V6 load(1, XDATA, add(CFA_XSP16, literal(-10)))
        CFI (cfiCond32) V7 load(1, XDATA, add(CFA_XSP16, literal(-9)))
        CFI (cfiCond32) V8 load(1, XDATA, add(CFA_XSP16, literal(-8)))
        CFI (cfiCond32) V9 load(1, XDATA, add(CFA_XSP16, literal(-7)))
        CFI (cfiCond32) R7 load(1, XDATA, add(CFA_XSP16, literal(-6)))
        CFI (cfiCond32) ?RET_LOW load(1, XDATA, add(CFA_XSP16, literal(-5)))
        CFI (cfiCond32) ?RET_HIGH load(1, XDATA, add(CFA_XSP16, literal(-4)))
        CFI (cfiCond32) ?BRET_EXT load(1, XDATA, add(CFA_XSP16, literal(-3)))
        CFI (cfiCond32) DPL0 load(1, XDATA, add(CFA_XSP16, literal(-2)))
        CFI (cfiCond32) DPH0 load(1, XDATA, add(CFA_XSP16, literal(-1)))
        CFI (cfiCond32) CFA_SP SP+0
        CFI (cfiCond32) CFA_XSP16 add(XSP16, 39)
        CFI Block cfiPicker33 Using cfiCommon1
        CFI (cfiPicker33) NoFunction
        CFI (cfiPicker33) Picker
        MOVX    A,@DPTR
        MOV     R2,A
        INC     DPTR
        MOVX    A,@DPTR
        MOV     R3,A
        RET
        CFI EndBlock cfiCond29
        CFI EndBlock cfiCond30
        CFI EndBlock cfiCond31
        CFI EndBlock cfiCond32
        CFI EndBlock cfiPicker33

        RSEG BANKED_CODE:CODE:NOROOT(0)
?Subroutine8:
        CFI Block cfiCond34 Using cfiCommon0
        CFI NoFunction
        CFI Conditional ??CrossCallReturnLabel_16
        CFI R6 load(1, XDATA, add(CFA_XSP16, literal(-18)))
        CFI VB load(1, XDATA, add(CFA_XSP16, literal(-17)))
        CFI V0 load(1, XDATA, add(CFA_XSP16, literal(-16)))
        CFI V1 load(1, XDATA, add(CFA_XSP16, literal(-15)))
        CFI V2 load(1, XDATA, add(CFA_XSP16, literal(-14)))
        CFI V3 load(1, XDATA, add(CFA_XSP16, literal(-13)))
        CFI V4 load(1, XDATA, add(CFA_XSP16, literal(-12)))
        CFI V5 load(1, XDATA, add(CFA_XSP16, literal(-11)))
        CFI V6 load(1, XDATA, add(CFA_XSP16, literal(-10)))
        CFI V7 load(1, XDATA, add(CFA_XSP16, literal(-9)))
        CFI V8 load(1, XDATA, add(CFA_XSP16, literal(-8)))
        CFI V9 load(1, XDATA, add(CFA_XSP16, literal(-7)))
        CFI R7 load(1, XDATA, add(CFA_XSP16, literal(-6)))
        CFI ?RET_LOW load(1, XDATA, add(CFA_XSP16, literal(-5)))
        CFI ?RET_HIGH load(1, XDATA, add(CFA_XSP16, literal(-4)))
        CFI ?BRET_EXT load(1, XDATA, add(CFA_XSP16, literal(-3)))
        CFI DPL0 load(1, XDATA, add(CFA_XSP16, literal(-2)))
        CFI DPH0 load(1, XDATA, add(CFA_XSP16, literal(-1)))
        CFI CFA_SP SP+0
        CFI CFA_XSP16 add(XSP16, 39)
        CFI Block cfiCond35 Using cfiCommon0
        CFI (cfiCond35) NoFunction
        CFI (cfiCond35) Conditional ??CrossCallReturnLabel_17
        CFI (cfiCond35) R6 load(1, XDATA, add(CFA_XSP16, literal(-18)))
        CFI (cfiCond35) VB load(1, XDATA, add(CFA_XSP16, literal(-17)))
        CFI (cfiCond35) V0 load(1, XDATA, add(CFA_XSP16, literal(-16)))
        CFI (cfiCond35) V1 load(1, XDATA, add(CFA_XSP16, literal(-15)))
        CFI (cfiCond35) V2 load(1, XDATA, add(CFA_XSP16, literal(-14)))
        CFI (cfiCond35) V3 load(1, XDATA, add(CFA_XSP16, literal(-13)))
        CFI (cfiCond35) V4 load(1, XDATA, add(CFA_XSP16, literal(-12)))
        CFI (cfiCond35) V5 load(1, XDATA, add(CFA_XSP16, literal(-11)))
        CFI (cfiCond35) V6 load(1, XDATA, add(CFA_XSP16, literal(-10)))
        CFI (cfiCond35) V7 load(1, XDATA, add(CFA_XSP16, literal(-9)))
        CFI (cfiCond35) V8 load(1, XDATA, add(CFA_XSP16, literal(-8)))
        CFI (cfiCond35) V9 load(1, XDATA, add(CFA_XSP16, literal(-7)))
        CFI (cfiCond35) R7 load(1, XDATA, add(CFA_XSP16, literal(-6)))
        CFI (cfiCond35) ?RET_LOW load(1, XDATA, add(CFA_XSP16, literal(-5)))
        CFI (cfiCond35) ?RET_HIGH load(1, XDATA, add(CFA_XSP16, literal(-4)))
        CFI (cfiCond35) ?BRET_EXT load(1, XDATA, add(CFA_XSP16, literal(-3)))
        CFI (cfiCond35) DPL0 load(1, XDATA, add(CFA_XSP16, literal(-2)))
        CFI (cfiCond35) DPH0 load(1, XDATA, add(CFA_XSP16, literal(-1)))
        CFI (cfiCond35) CFA_SP SP+0
        CFI (cfiCond35) CFA_XSP16 add(XSP16, 39)
        CFI Block cfiPicker36 Using cfiCommon1
        CFI (cfiPicker36) NoFunction
        CFI (cfiPicker36) Picker
        MOV     DPH,A
        LCALL   ?Subroutine13 & 0xFFFF
??CrossCallReturnLabel_25:
        RET
        CFI EndBlock cfiCond34
        CFI EndBlock cfiCond35
        CFI EndBlock cfiPicker36

        RSEG BANKED_CODE:CODE:NOROOT(0)
?Subroutine7:
        CFI Block cfiCond37 Using cfiCommon0
        CFI NoFunction
        CFI Conditional ??CrossCallReturnLabel_14
        CFI R6 load(1, XDATA, add(CFA_XSP16, literal(-18)))
        CFI VB load(1, XDATA, add(CFA_XSP16, literal(-17)))
        CFI V0 load(1, XDATA, add(CFA_XSP16, literal(-16)))
        CFI V1 load(1, XDATA, add(CFA_XSP16, literal(-15)))
        CFI V2 load(1, XDATA, add(CFA_XSP16, literal(-14)))
        CFI V3 load(1, XDATA, add(CFA_XSP16, literal(-13)))
        CFI V4 load(1, XDATA, add(CFA_XSP16, literal(-12)))
        CFI V5 load(1, XDATA, add(CFA_XSP16, literal(-11)))
        CFI V6 load(1, XDATA, add(CFA_XSP16, literal(-10)))
        CFI V7 load(1, XDATA, add(CFA_XSP16, literal(-9)))
        CFI V8 load(1, XDATA, add(CFA_XSP16, literal(-8)))
        CFI V9 load(1, XDATA, add(CFA_XSP16, literal(-7)))
        CFI R7 load(1, XDATA, add(CFA_XSP16, literal(-6)))
        CFI ?RET_LOW load(1, XDATA, add(CFA_XSP16, literal(-5)))
        CFI ?RET_HIGH load(1, XDATA, add(CFA_XSP16, literal(-4)))
        CFI ?BRET_EXT load(1, XDATA, add(CFA_XSP16, literal(-3)))
        CFI DPL0 load(1, XDATA, add(CFA_XSP16, literal(-2)))
        CFI DPH0 load(1, XDATA, add(CFA_XSP16, literal(-1)))
        CFI CFA_SP SP+0
        CFI CFA_XSP16 add(XSP16, 39)
        CFI Block cfiCond38 Using cfiCommon0
        CFI (cfiCond38) NoFunction
        CFI (cfiCond38) Conditional ??CrossCallReturnLabel_15
        CFI (cfiCond38) R6 load(1, XDATA, add(CFA_XSP16, literal(-18)))
        CFI (cfiCond38) VB load(1, XDATA, add(CFA_XSP16, literal(-17)))
        CFI (cfiCond38) V0 load(1, XDATA, add(CFA_XSP16, literal(-16)))
        CFI (cfiCond38) V1 load(1, XDATA, add(CFA_XSP16, literal(-15)))
        CFI (cfiCond38) V2 load(1, XDATA, add(CFA_XSP16, literal(-14)))
        CFI (cfiCond38) V3 load(1, XDATA, add(CFA_XSP16, literal(-13)))
        CFI (cfiCond38) V4 load(1, XDATA, add(CFA_XSP16, literal(-12)))
        CFI (cfiCond38) V5 load(1, XDATA, add(CFA_XSP16, literal(-11)))
        CFI (cfiCond38) V6 load(1, XDATA, add(CFA_XSP16, literal(-10)))
        CFI (cfiCond38) V7 load(1, XDATA, add(CFA_XSP16, literal(-9)))
        CFI (cfiCond38) V8 load(1, XDATA, add(CFA_XSP16, literal(-8)))
        CFI (cfiCond38) V9 load(1, XDATA, add(CFA_XSP16, literal(-7)))
        CFI (cfiCond38) R7 load(1, XDATA, add(CFA_XSP16, literal(-6)))
        CFI (cfiCond38) ?RET_LOW load(1, XDATA, add(CFA_XSP16, literal(-5)))
        CFI (cfiCond38) ?RET_HIGH load(1, XDATA, add(CFA_XSP16, literal(-4)))
        CFI (cfiCond38) ?BRET_EXT load(1, XDATA, add(CFA_XSP16, literal(-3)))
        CFI (cfiCond38) DPL0 load(1, XDATA, add(CFA_XSP16, literal(-2)))
        CFI (cfiCond38) DPH0 load(1, XDATA, add(CFA_XSP16, literal(-1)))
        CFI (cfiCond38) CFA_SP SP+0
        CFI (cfiCond38) CFA_XSP16 add(XSP16, 39)
        CFI Block cfiPicker39 Using cfiCommon1
        CFI (cfiPicker39) NoFunction
        CFI (cfiPicker39) Picker
        MOV     DPTR,#swCnt
        MOVX    A,@DPTR
        CLR     C
        RLC     A
        MOV     R0,A
        CLR     A
        RLC     A
        MOV     R1,A
        MOV     A,#Switch_SimpleDesc & 0xff
        ADD     A,R0
        RET
        CFI EndBlock cfiCond37
        CFI EndBlock cfiCond38
        CFI EndBlock cfiPicker39

        RSEG BANKED_CODE:CODE:NOROOT(0)
?Subroutine6:
        CFI Block cfiCond40 Using cfiCommon0
        CFI NoFunction
        CFI Conditional ??CrossCallReturnLabel_12
        CFI R6 load(1, XDATA, add(CFA_XSP16, literal(-18)))
        CFI VB load(1, XDATA, add(CFA_XSP16, literal(-17)))
        CFI V0 load(1, XDATA, add(CFA_XSP16, literal(-16)))
        CFI V1 load(1, XDATA, add(CFA_XSP16, literal(-15)))
        CFI V2 load(1, XDATA, add(CFA_XSP16, literal(-14)))
        CFI V3 load(1, XDATA, add(CFA_XSP16, literal(-13)))
        CFI V4 load(1, XDATA, add(CFA_XSP16, literal(-12)))
        CFI V5 load(1, XDATA, add(CFA_XSP16, literal(-11)))
        CFI V6 load(1, XDATA, add(CFA_XSP16, literal(-10)))
        CFI V7 load(1, XDATA, add(CFA_XSP16, literal(-9)))
        CFI V8 load(1, XDATA, add(CFA_XSP16, literal(-8)))
        CFI V9 load(1, XDATA, add(CFA_XSP16, literal(-7)))
        CFI R7 load(1, XDATA, add(CFA_XSP16, literal(-6)))
        CFI ?RET_LOW load(1, XDATA, add(CFA_XSP16, literal(-5)))
        CFI ?RET_HIGH load(1, XDATA, add(CFA_XSP16, literal(-4)))
        CFI ?BRET_EXT load(1, XDATA, add(CFA_XSP16, literal(-3)))
        CFI DPL0 load(1, XDATA, add(CFA_XSP16, literal(-2)))
        CFI DPH0 load(1, XDATA, add(CFA_XSP16, literal(-1)))
        CFI CFA_SP SP+0
        CFI CFA_XSP16 add(XSP16, 41)
        CFI Block cfiCond41 Using cfiCommon0
        CFI (cfiCond41) NoFunction
        CFI (cfiCond41) Conditional ??CrossCallReturnLabel_13
        CFI (cfiCond41) R6 load(1, XDATA, add(CFA_XSP16, literal(-18)))
        CFI (cfiCond41) VB load(1, XDATA, add(CFA_XSP16, literal(-17)))
        CFI (cfiCond41) V0 load(1, XDATA, add(CFA_XSP16, literal(-16)))
        CFI (cfiCond41) V1 load(1, XDATA, add(CFA_XSP16, literal(-15)))
        CFI (cfiCond41) V2 load(1, XDATA, add(CFA_XSP16, literal(-14)))
        CFI (cfiCond41) V3 load(1, XDATA, add(CFA_XSP16, literal(-13)))
        CFI (cfiCond41) V4 load(1, XDATA, add(CFA_XSP16, literal(-12)))
        CFI (cfiCond41) V5 load(1, XDATA, add(CFA_XSP16, literal(-11)))
        CFI (cfiCond41) V6 load(1, XDATA, add(CFA_XSP16, literal(-10)))
        CFI (cfiCond41) V7 load(1, XDATA, add(CFA_XSP16, literal(-9)))
        CFI (cfiCond41) V8 load(1, XDATA, add(CFA_XSP16, literal(-8)))
        CFI (cfiCond41) V9 load(1, XDATA, add(CFA_XSP16, literal(-7)))
        CFI (cfiCond41) R7 load(1, XDATA, add(CFA_XSP16, literal(-6)))
        CFI (cfiCond41) ?RET_LOW load(1, XDATA, add(CFA_XSP16, literal(-5)))
        CFI (cfiCond41) ?RET_HIGH load(1, XDATA, add(CFA_XSP16, literal(-4)))
        CFI (cfiCond41) ?BRET_EXT load(1, XDATA, add(CFA_XSP16, literal(-3)))
        CFI (cfiCond41) DPL0 load(1, XDATA, add(CFA_XSP16, literal(-2)))
        CFI (cfiCond41) DPH0 load(1, XDATA, add(CFA_XSP16, literal(-1)))
        CFI (cfiCond41) CFA_SP SP+0
        CFI (cfiCond41) CFA_XSP16 add(XSP16, 41)
        CFI Block cfiPicker42 Using cfiCommon1
        CFI (cfiPicker42) NoFunction
        CFI (cfiPicker42) Picker
        MOVX    A,@DPTR
        MOV     R4,A
        MOV     R2,?V0 + 8
        MOV     R3,?V0 + 9
        MOV     R1,#0x4
        LCALL   ??ZDO_AnyClusterMatches?relay
        MOV     A,#0x2
        RET
        CFI EndBlock cfiCond40
        CFI EndBlock cfiCond41
        CFI EndBlock cfiPicker42

        RSEG BANKED_CODE:CODE:NOROOT(0)
?Subroutine5:
        CFI Block cfiCond43 Using cfiCommon0
        CFI NoFunction
        CFI Conditional ??CrossCallReturnLabel_10
        CFI R6 load(1, XDATA, add(CFA_XSP16, literal(-18)))
        CFI VB load(1, XDATA, add(CFA_XSP16, literal(-17)))
        CFI V0 load(1, XDATA, add(CFA_XSP16, literal(-16)))
        CFI V1 load(1, XDATA, add(CFA_XSP16, literal(-15)))
        CFI V2 load(1, XDATA, add(CFA_XSP16, literal(-14)))
        CFI V3 load(1, XDATA, add(CFA_XSP16, literal(-13)))
        CFI V4 load(1, XDATA, add(CFA_XSP16, literal(-12)))
        CFI V5 load(1, XDATA, add(CFA_XSP16, literal(-11)))
        CFI V6 load(1, XDATA, add(CFA_XSP16, literal(-10)))
        CFI V7 load(1, XDATA, add(CFA_XSP16, literal(-9)))
        CFI V8 load(1, XDATA, add(CFA_XSP16, literal(-8)))
        CFI V9 load(1, XDATA, add(CFA_XSP16, literal(-7)))
        CFI R7 load(1, XDATA, add(CFA_XSP16, literal(-6)))
        CFI ?RET_LOW load(1, XDATA, add(CFA_XSP16, literal(-5)))
        CFI ?RET_HIGH load(1, XDATA, add(CFA_XSP16, literal(-4)))
        CFI ?BRET_EXT load(1, XDATA, add(CFA_XSP16, literal(-3)))
        CFI DPL0 load(1, XDATA, add(CFA_XSP16, literal(-2)))
        CFI DPH0 load(1, XDATA, add(CFA_XSP16, literal(-1)))
        CFI CFA_SP SP+0
        CFI CFA_XSP16 add(XSP16, 41)
        CFI Block cfiCond44 Using cfiCommon0
        CFI (cfiCond44) NoFunction
        CFI (cfiCond44) Conditional ??CrossCallReturnLabel_11
        CFI (cfiCond44) R6 load(1, XDATA, add(CFA_XSP16, literal(-18)))
        CFI (cfiCond44) VB load(1, XDATA, add(CFA_XSP16, literal(-17)))
        CFI (cfiCond44) V0 load(1, XDATA, add(CFA_XSP16, literal(-16)))
        CFI (cfiCond44) V1 load(1, XDATA, add(CFA_XSP16, literal(-15)))
        CFI (cfiCond44) V2 load(1, XDATA, add(CFA_XSP16, literal(-14)))
        CFI (cfiCond44) V3 load(1, XDATA, add(CFA_XSP16, literal(-13)))
        CFI (cfiCond44) V4 load(1, XDATA, add(CFA_XSP16, literal(-12)))
        CFI (cfiCond44) V5 load(1, XDATA, add(CFA_XSP16, literal(-11)))
        CFI (cfiCond44) V6 load(1, XDATA, add(CFA_XSP16, literal(-10)))
        CFI (cfiCond44) V7 load(1, XDATA, add(CFA_XSP16, literal(-9)))
        CFI (cfiCond44) V8 load(1, XDATA, add(CFA_XSP16, literal(-8)))
        CFI (cfiCond44) V9 load(1, XDATA, add(CFA_XSP16, literal(-7)))
        CFI (cfiCond44) R7 load(1, XDATA, add(CFA_XSP16, literal(-6)))
        CFI (cfiCond44) ?RET_LOW load(1, XDATA, add(CFA_XSP16, literal(-5)))
        CFI (cfiCond44) ?RET_HIGH load(1, XDATA, add(CFA_XSP16, literal(-4)))
        CFI (cfiCond44) ?BRET_EXT load(1, XDATA, add(CFA_XSP16, literal(-3)))
        CFI (cfiCond44) DPL0 load(1, XDATA, add(CFA_XSP16, literal(-2)))
        CFI (cfiCond44) DPH0 load(1, XDATA, add(CFA_XSP16, literal(-1)))
        CFI (cfiCond44) CFA_SP SP+0
        CFI (cfiCond44) CFA_XSP16 add(XSP16, 41)
        CFI Block cfiPicker45 Using cfiCommon1
        CFI (cfiPicker45) NoFunction
        CFI (cfiPicker45) Picker
        MOV     DPL,R0
        MOV     DPH,R1
        LCALL   ?Subroutine13 & 0xFFFF
??CrossCallReturnLabel_24:
        INC     DPTR
        INC     DPTR
        INC     DPTR
        INC     DPTR
        INC     DPTR
        RET
        CFI EndBlock cfiCond43
        CFI EndBlock cfiCond44
        CFI EndBlock cfiPicker45

        RSEG BANKED_CODE:CODE:NOROOT(0)
?Subroutine3:
        CFI Block cfiCond46 Using cfiCommon0
        CFI NoFunction
        CFI Conditional ??CrossCallReturnLabel_6
        CFI R6 load(1, XDATA, add(CFA_XSP16, literal(-11)))
        CFI VB load(1, XDATA, add(CFA_XSP16, literal(-10)))
        CFI V0 load(1, XDATA, add(CFA_XSP16, literal(-9)))
        CFI V1 load(1, XDATA, add(CFA_XSP16, literal(-8)))
        CFI V2 load(1, XDATA, add(CFA_XSP16, literal(-7)))
        CFI R7 load(1, XDATA, add(CFA_XSP16, literal(-6)))
        CFI ?RET_LOW load(1, XDATA, add(CFA_XSP16, literal(-5)))
        CFI ?RET_HIGH load(1, XDATA, add(CFA_XSP16, literal(-4)))
        CFI ?BRET_EXT load(1, XDATA, add(CFA_XSP16, literal(-3)))
        CFI DPL0 load(1, XDATA, add(CFA_XSP16, literal(-2)))
        CFI DPH0 load(1, XDATA, add(CFA_XSP16, literal(-1)))
        CFI CFA_SP SP+0
        CFI CFA_XSP16 add(XSP16, 21)
        CFI Block cfiCond47 Using cfiCommon0
        CFI (cfiCond47) NoFunction
        CFI (cfiCond47) Conditional ??CrossCallReturnLabel_7
        CFI (cfiCond47) R6 load(1, XDATA, add(CFA_XSP16, literal(-18)))
        CFI (cfiCond47) VB load(1, XDATA, add(CFA_XSP16, literal(-17)))
        CFI (cfiCond47) V0 load(1, XDATA, add(CFA_XSP16, literal(-16)))
        CFI (cfiCond47) V1 load(1, XDATA, add(CFA_XSP16, literal(-15)))
        CFI (cfiCond47) V2 load(1, XDATA, add(CFA_XSP16, literal(-14)))
        CFI (cfiCond47) V3 load(1, XDATA, add(CFA_XSP16, literal(-13)))
        CFI (cfiCond47) V4 load(1, XDATA, add(CFA_XSP16, literal(-12)))
        CFI (cfiCond47) V5 load(1, XDATA, add(CFA_XSP16, literal(-11)))
        CFI (cfiCond47) V6 load(1, XDATA, add(CFA_XSP16, literal(-10)))
        CFI (cfiCond47) V7 load(1, XDATA, add(CFA_XSP16, literal(-9)))
        CFI (cfiCond47) V8 load(1, XDATA, add(CFA_XSP16, literal(-8)))
        CFI (cfiCond47) V9 load(1, XDATA, add(CFA_XSP16, literal(-7)))
        CFI (cfiCond47) R7 load(1, XDATA, add(CFA_XSP16, literal(-6)))
        CFI (cfiCond47) ?RET_LOW load(1, XDATA, add(CFA_XSP16, literal(-5)))
        CFI (cfiCond47) ?RET_HIGH load(1, XDATA, add(CFA_XSP16, literal(-4)))
        CFI (cfiCond47) ?BRET_EXT load(1, XDATA, add(CFA_XSP16, literal(-3)))
        CFI (cfiCond47) DPL0 load(1, XDATA, add(CFA_XSP16, literal(-2)))
        CFI (cfiCond47) DPH0 load(1, XDATA, add(CFA_XSP16, literal(-1)))
        CFI (cfiCond47) CFA_SP SP+0
        CFI (cfiCond47) CFA_XSP16 add(XSP16, 39)
        CFI Block cfiPicker48 Using cfiCommon1
        CFI (cfiPicker48) NoFunction
        CFI (cfiPicker48) Picker
        LCALL   ?Subroutine12 & 0xFFFF
??CrossCallReturnLabel_22:
        RET
        CFI EndBlock cfiCond46
        CFI EndBlock cfiCond47
        CFI EndBlock cfiPicker48

        RSEG BANKED_CODE:CODE:NOROOT(0)
?Subroutine2:
        CFI Block cfiCond49 Using cfiCommon0
        CFI NoFunction
        CFI Conditional ??CrossCallReturnLabel_4
        CFI R6 load(1, XDATA, add(CFA_XSP16, literal(-18)))
        CFI VB load(1, XDATA, add(CFA_XSP16, literal(-17)))
        CFI V0 load(1, XDATA, add(CFA_XSP16, literal(-16)))
        CFI V1 load(1, XDATA, add(CFA_XSP16, literal(-15)))
        CFI V2 load(1, XDATA, add(CFA_XSP16, literal(-14)))
        CFI V3 load(1, XDATA, add(CFA_XSP16, literal(-13)))
        CFI V4 load(1, XDATA, add(CFA_XSP16, literal(-12)))
        CFI V5 load(1, XDATA, add(CFA_XSP16, literal(-11)))
        CFI V6 load(1, XDATA, add(CFA_XSP16, literal(-10)))
        CFI V7 load(1, XDATA, add(CFA_XSP16, literal(-9)))
        CFI V8 load(1, XDATA, add(CFA_XSP16, literal(-8)))
        CFI V9 load(1, XDATA, add(CFA_XSP16, literal(-7)))
        CFI R7 load(1, XDATA, add(CFA_XSP16, literal(-6)))
        CFI ?RET_LOW load(1, XDATA, add(CFA_XSP16, literal(-5)))
        CFI ?RET_HIGH load(1, XDATA, add(CFA_XSP16, literal(-4)))
        CFI ?BRET_EXT load(1, XDATA, add(CFA_XSP16, literal(-3)))
        CFI DPL0 load(1, XDATA, add(CFA_XSP16, literal(-2)))
        CFI DPH0 load(1, XDATA, add(CFA_XSP16, literal(-1)))
        CFI CFA_SP SP+0
        CFI CFA_XSP16 add(XSP16, 39)
        CFI Block cfiCond50 Using cfiCommon0
        CFI (cfiCond50) NoFunction
        CFI (cfiCond50) Conditional ??CrossCallReturnLabel_5
        CFI (cfiCond50) R6 load(1, XDATA, add(CFA_XSP16, literal(-18)))
        CFI (cfiCond50) VB load(1, XDATA, add(CFA_XSP16, literal(-17)))
        CFI (cfiCond50) V0 load(1, XDATA, add(CFA_XSP16, literal(-16)))
        CFI (cfiCond50) V1 load(1, XDATA, add(CFA_XSP16, literal(-15)))
        CFI (cfiCond50) V2 load(1, XDATA, add(CFA_XSP16, literal(-14)))
        CFI (cfiCond50) V3 load(1, XDATA, add(CFA_XSP16, literal(-13)))
        CFI (cfiCond50) V4 load(1, XDATA, add(CFA_XSP16, literal(-12)))
        CFI (cfiCond50) V5 load(1, XDATA, add(CFA_XSP16, literal(-11)))
        CFI (cfiCond50) V6 load(1, XDATA, add(CFA_XSP16, literal(-10)))
        CFI (cfiCond50) V7 load(1, XDATA, add(CFA_XSP16, literal(-9)))
        CFI (cfiCond50) V8 load(1, XDATA, add(CFA_XSP16, literal(-8)))
        CFI (cfiCond50) V9 load(1, XDATA, add(CFA_XSP16, literal(-7)))
        CFI (cfiCond50) R7 load(1, XDATA, add(CFA_XSP16, literal(-6)))
        CFI (cfiCond50) ?RET_LOW load(1, XDATA, add(CFA_XSP16, literal(-5)))
        CFI (cfiCond50) ?RET_HIGH load(1, XDATA, add(CFA_XSP16, literal(-4)))
        CFI (cfiCond50) ?BRET_EXT load(1, XDATA, add(CFA_XSP16, literal(-3)))
        CFI (cfiCond50) DPL0 load(1, XDATA, add(CFA_XSP16, literal(-2)))
        CFI (cfiCond50) DPH0 load(1, XDATA, add(CFA_XSP16, literal(-1)))
        CFI (cfiCond50) CFA_SP SP+0
        CFI (cfiCond50) CFA_XSP16 add(XSP16, 39)
        CFI Block cfiPicker51 Using cfiCommon1
        CFI (cfiPicker51) NoFunction
        CFI (cfiPicker51) Picker
        ADD     A,#0x3
        MOV     R0,A
        INC     DPTR
        MOVX    A,@DPTR
        ADDC    A,#0x0
        MOV     R1,A
        ; Setup parameters for call to function ZDO_AnyClusterMatches
        ; Setup parameters for call to function ZDO_AnyClusterMatches
        MOV     DPL,R0
        MOV     DPH,R1
        MOVX    A,@DPTR
        MOV     R2,A
        INC     DPTR
        MOVX    A,@DPTR
        MOV     DPH,A
        MOV     DPL,R2
        INC     DPTR
        INC     DPTR
        INC     DPTR
        INC     DPTR
        INC     DPTR
        INC     DPTR
        INC     DPTR
        RET
        CFI EndBlock cfiCond49
        CFI EndBlock cfiCond50
        CFI EndBlock cfiPicker51

        RSEG BANKED_CODE:CODE:NOROOT(0)
?Subroutine1:
        CFI Block cfiCond52 Using cfiCommon0
        CFI NoFunction
        CFI Conditional ??CrossCallReturnLabel_2
        CFI R6 load(1, XDATA, add(CFA_XSP16, literal(-18)))
        CFI VB load(1, XDATA, add(CFA_XSP16, literal(-17)))
        CFI V0 load(1, XDATA, add(CFA_XSP16, literal(-16)))
        CFI V1 load(1, XDATA, add(CFA_XSP16, literal(-15)))
        CFI V2 load(1, XDATA, add(CFA_XSP16, literal(-14)))
        CFI V3 load(1, XDATA, add(CFA_XSP16, literal(-13)))
        CFI V4 load(1, XDATA, add(CFA_XSP16, literal(-12)))
        CFI V5 load(1, XDATA, add(CFA_XSP16, literal(-11)))
        CFI V6 load(1, XDATA, add(CFA_XSP16, literal(-10)))
        CFI V7 load(1, XDATA, add(CFA_XSP16, literal(-9)))
        CFI V8 load(1, XDATA, add(CFA_XSP16, literal(-8)))
        CFI V9 load(1, XDATA, add(CFA_XSP16, literal(-7)))
        CFI R7 load(1, XDATA, add(CFA_XSP16, literal(-6)))
        CFI ?RET_LOW load(1, XDATA, add(CFA_XSP16, literal(-5)))
        CFI ?RET_HIGH load(1, XDATA, add(CFA_XSP16, literal(-4)))
        CFI ?BRET_EXT load(1, XDATA, add(CFA_XSP16, literal(-3)))
        CFI DPL0 load(1, XDATA, add(CFA_XSP16, literal(-2)))
        CFI DPH0 load(1, XDATA, add(CFA_XSP16, literal(-1)))
        CFI CFA_SP SP+0
        CFI CFA_XSP16 add(XSP16, 45)
        CFI Block cfiCond53 Using cfiCommon0
        CFI (cfiCond53) NoFunction
        CFI (cfiCond53) Conditional ??CrossCallReturnLabel_3
        CFI (cfiCond53) R6 load(1, XDATA, add(CFA_XSP16, literal(-18)))
        CFI (cfiCond53) VB load(1, XDATA, add(CFA_XSP16, literal(-17)))
        CFI (cfiCond53) V0 load(1, XDATA, add(CFA_XSP16, literal(-16)))
        CFI (cfiCond53) V1 load(1, XDATA, add(CFA_XSP16, literal(-15)))
        CFI (cfiCond53) V2 load(1, XDATA, add(CFA_XSP16, literal(-14)))
        CFI (cfiCond53) V3 load(1, XDATA, add(CFA_XSP16, literal(-13)))
        CFI (cfiCond53) V4 load(1, XDATA, add(CFA_XSP16, literal(-12)))
        CFI (cfiCond53) V5 load(1, XDATA, add(CFA_XSP16, literal(-11)))
        CFI (cfiCond53) V6 load(1, XDATA, add(CFA_XSP16, literal(-10)))
        CFI (cfiCond53) V7 load(1, XDATA, add(CFA_XSP16, literal(-9)))
        CFI (cfiCond53) V8 load(1, XDATA, add(CFA_XSP16, literal(-8)))
        CFI (cfiCond53) V9 load(1, XDATA, add(CFA_XSP16, literal(-7)))
        CFI (cfiCond53) R7 load(1, XDATA, add(CFA_XSP16, literal(-6)))
        CFI (cfiCond53) ?RET_LOW load(1, XDATA, add(CFA_XSP16, literal(-5)))
        CFI (cfiCond53) ?RET_HIGH load(1, XDATA, add(CFA_XSP16, literal(-4)))
        CFI (cfiCond53) ?BRET_EXT load(1, XDATA, add(CFA_XSP16, literal(-3)))
        CFI (cfiCond53) DPL0 load(1, XDATA, add(CFA_XSP16, literal(-2)))
        CFI (cfiCond53) DPH0 load(1, XDATA, add(CFA_XSP16, literal(-1)))
        CFI (cfiCond53) CFA_SP SP+0
        CFI (cfiCond53) CFA_XSP16 add(XSP16, 45)
        CFI Block cfiPicker54 Using cfiCommon1
        CFI (cfiPicker54) NoFunction
        CFI (cfiPicker54) Picker
        LCALL   ?Subroutine12 & 0xFFFF
??CrossCallReturnLabel_21:
        LCALL   ?Subroutine14 & 0xFFFF
??CrossCallReturnLabel_27:
        LCALL   ?Subroutine13 & 0xFFFF
??CrossCallReturnLabel_23:
        RET
        CFI EndBlock cfiCond52
        CFI EndBlock cfiCond53
        CFI EndBlock cfiPicker54

        RSEG BANKED_CODE:CODE:NOROOT(0)
?Subroutine14:
        CFI Block cfiCond55 Using cfiCommon0
        CFI NoFunction
        CFI Conditional ??CrossCallReturnLabel_26
        CFI R6 load(1, XDATA, add(CFA_XSP16, literal(-11)))
        CFI VB load(1, XDATA, add(CFA_XSP16, literal(-10)))
        CFI V0 load(1, XDATA, add(CFA_XSP16, literal(-9)))
        CFI V1 load(1, XDATA, add(CFA_XSP16, literal(-8)))
        CFI V2 load(1, XDATA, add(CFA_XSP16, literal(-7)))
        CFI R7 load(1, XDATA, add(CFA_XSP16, literal(-6)))
        CFI ?RET_LOW load(1, XDATA, add(CFA_XSP16, literal(-5)))
        CFI ?RET_HIGH load(1, XDATA, add(CFA_XSP16, literal(-4)))
        CFI ?BRET_EXT load(1, XDATA, add(CFA_XSP16, literal(-3)))
        CFI DPL0 load(1, XDATA, add(CFA_XSP16, literal(-2)))
        CFI DPH0 load(1, XDATA, add(CFA_XSP16, literal(-1)))
        CFI CFA_SP SP+0
        CFI CFA_XSP16 add(XSP16, 21)
        CFI Block cfiCond56 Using cfiCommon0
        CFI (cfiCond56) NoFunction
        CFI (cfiCond56) Conditional ??CrossCallReturnLabel_27, ??CrossCallReturnLabel_2
        CFI (cfiCond56) R6 load(1, XDATA, add(CFA_XSP16, literal(-18)))
        CFI (cfiCond56) VB load(1, XDATA, add(CFA_XSP16, literal(-17)))
        CFI (cfiCond56) V0 load(1, XDATA, add(CFA_XSP16, literal(-16)))
        CFI (cfiCond56) V1 load(1, XDATA, add(CFA_XSP16, literal(-15)))
        CFI (cfiCond56) V2 load(1, XDATA, add(CFA_XSP16, literal(-14)))
        CFI (cfiCond56) V3 load(1, XDATA, add(CFA_XSP16, literal(-13)))
        CFI (cfiCond56) V4 load(1, XDATA, add(CFA_XSP16, literal(-12)))
        CFI (cfiCond56) V5 load(1, XDATA, add(CFA_XSP16, literal(-11)))
        CFI (cfiCond56) V6 load(1, XDATA, add(CFA_XSP16, literal(-10)))
        CFI (cfiCond56) V7 load(1, XDATA, add(CFA_XSP16, literal(-9)))
        CFI (cfiCond56) V8 load(1, XDATA, add(CFA_XSP16, literal(-8)))
        CFI (cfiCond56) V9 load(1, XDATA, add(CFA_XSP16, literal(-7)))
        CFI (cfiCond56) R7 load(1, XDATA, add(CFA_XSP16, literal(-6)))
        CFI (cfiCond56) ?RET_LOW load(1, XDATA, add(CFA_XSP16, literal(-5)))
        CFI (cfiCond56) ?RET_HIGH load(1, XDATA, add(CFA_XSP16, literal(-4)))
        CFI (cfiCond56) ?BRET_EXT load(1, XDATA, add(CFA_XSP16, literal(-3)))
        CFI (cfiCond56) DPL0 load(1, XDATA, add(CFA_XSP16, literal(-2)))
        CFI (cfiCond56) DPH0 load(1, XDATA, add(CFA_XSP16, literal(-1)))
        CFI (cfiCond56) CFA_SP SP+0
        CFI (cfiCond56) CFA_XSP16 add(XSP16, 45)
        CFI Block cfiCond57 Using cfiCommon0
        CFI (cfiCond57) NoFunction
        CFI (cfiCond57) Conditional ??CrossCallReturnLabel_27, ??CrossCallReturnLabel_3
        CFI (cfiCond57) R6 load(1, XDATA, add(CFA_XSP16, literal(-18)))
        CFI (cfiCond57) VB load(1, XDATA, add(CFA_XSP16, literal(-17)))
        CFI (cfiCond57) V0 load(1, XDATA, add(CFA_XSP16, literal(-16)))
        CFI (cfiCond57) V1 load(1, XDATA, add(CFA_XSP16, literal(-15)))
        CFI (cfiCond57) V2 load(1, XDATA, add(CFA_XSP16, literal(-14)))
        CFI (cfiCond57) V3 load(1, XDATA, add(CFA_XSP16, literal(-13)))
        CFI (cfiCond57) V4 load(1, XDATA, add(CFA_XSP16, literal(-12)))
        CFI (cfiCond57) V5 load(1, XDATA, add(CFA_XSP16, literal(-11)))
        CFI (cfiCond57) V6 load(1, XDATA, add(CFA_XSP16, literal(-10)))
        CFI (cfiCond57) V7 load(1, XDATA, add(CFA_XSP16, literal(-9)))
        CFI (cfiCond57) V8 load(1, XDATA, add(CFA_XSP16, literal(-8)))
        CFI (cfiCond57) V9 load(1, XDATA, add(CFA_XSP16, literal(-7)))
        CFI (cfiCond57) R7 load(1, XDATA, add(CFA_XSP16, literal(-6)))
        CFI (cfiCond57) ?RET_LOW load(1, XDATA, add(CFA_XSP16, literal(-5)))
        CFI (cfiCond57) ?RET_HIGH load(1, XDATA, add(CFA_XSP16, literal(-4)))
        CFI (cfiCond57) ?BRET_EXT load(1, XDATA, add(CFA_XSP16, literal(-3)))
        CFI (cfiCond57) DPL0 load(1, XDATA, add(CFA_XSP16, literal(-2)))
        CFI (cfiCond57) DPH0 load(1, XDATA, add(CFA_XSP16, literal(-1)))
        CFI (cfiCond57) CFA_SP SP+0
        CFI (cfiCond57) CFA_XSP16 add(XSP16, 45)
        CFI Block cfiPicker58 Using cfiCommon1
        CFI (cfiPicker58) NoFunction
        CFI (cfiPicker58) Picker
        MOV     R0,A
        INC     DPTR
        MOVX    A,@DPTR
        MOV     DPH,A
        MOV     DPL,R0
        INC     DPTR
        INC     DPTR
        INC     DPTR
        RET
        CFI EndBlock cfiCond55
        CFI EndBlock cfiCond56
        CFI EndBlock cfiCond57
        CFI EndBlock cfiPicker58

        RSEG BANKED_CODE:CODE:NOROOT(0)
?Subroutine13:
        CFI Block cfiCond59 Using cfiCommon0
        CFI NoFunction
        CFI Conditional ??CrossCallReturnLabel_25, ??CrossCallReturnLabel_16
        CFI R6 load(1, XDATA, add(CFA_XSP16, literal(-18)))
        CFI VB load(1, XDATA, add(CFA_XSP16, literal(-17)))
        CFI V0 load(1, XDATA, add(CFA_XSP16, literal(-16)))
        CFI V1 load(1, XDATA, add(CFA_XSP16, literal(-15)))
        CFI V2 load(1, XDATA, add(CFA_XSP16, literal(-14)))
        CFI V3 load(1, XDATA, add(CFA_XSP16, literal(-13)))
        CFI V4 load(1, XDATA, add(CFA_XSP16, literal(-12)))
        CFI V5 load(1, XDATA, add(CFA_XSP16, literal(-11)))
        CFI V6 load(1, XDATA, add(CFA_XSP16, literal(-10)))
        CFI V7 load(1, XDATA, add(CFA_XSP16, literal(-9)))
        CFI V8 load(1, XDATA, add(CFA_XSP16, literal(-8)))
        CFI V9 load(1, XDATA, add(CFA_XSP16, literal(-7)))
        CFI R7 load(1, XDATA, add(CFA_XSP16, literal(-6)))
        CFI ?RET_LOW load(1, XDATA, add(CFA_XSP16, literal(-5)))
        CFI ?RET_HIGH load(1, XDATA, add(CFA_XSP16, literal(-4)))
        CFI ?BRET_EXT load(1, XDATA, add(CFA_XSP16, literal(-3)))
        CFI DPL0 load(1, XDATA, add(CFA_XSP16, literal(-2)))
        CFI DPH0 load(1, XDATA, add(CFA_XSP16, literal(-1)))
        CFI CFA_SP SP+0
        CFI CFA_XSP16 add(XSP16, 39)
        CFI Block cfiCond60 Using cfiCommon0
        CFI (cfiCond60) NoFunction
        CFI (cfiCond60) Conditional ??CrossCallReturnLabel_25, ??CrossCallReturnLabel_17
        CFI (cfiCond60) R6 load(1, XDATA, add(CFA_XSP16, literal(-18)))
        CFI (cfiCond60) VB load(1, XDATA, add(CFA_XSP16, literal(-17)))
        CFI (cfiCond60) V0 load(1, XDATA, add(CFA_XSP16, literal(-16)))
        CFI (cfiCond60) V1 load(1, XDATA, add(CFA_XSP16, literal(-15)))
        CFI (cfiCond60) V2 load(1, XDATA, add(CFA_XSP16, literal(-14)))
        CFI (cfiCond60) V3 load(1, XDATA, add(CFA_XSP16, literal(-13)))
        CFI (cfiCond60) V4 load(1, XDATA, add(CFA_XSP16, literal(-12)))
        CFI (cfiCond60) V5 load(1, XDATA, add(CFA_XSP16, literal(-11)))
        CFI (cfiCond60) V6 load(1, XDATA, add(CFA_XSP16, literal(-10)))
        CFI (cfiCond60) V7 load(1, XDATA, add(CFA_XSP16, literal(-9)))
        CFI (cfiCond60) V8 load(1, XDATA, add(CFA_XSP16, literal(-8)))
        CFI (cfiCond60) V9 load(1, XDATA, add(CFA_XSP16, literal(-7)))
        CFI (cfiCond60) R7 load(1, XDATA, add(CFA_XSP16, literal(-6)))
        CFI (cfiCond60) ?RET_LOW load(1, XDATA, add(CFA_XSP16, literal(-5)))
        CFI (cfiCond60) ?RET_HIGH load(1, XDATA, add(CFA_XSP16, literal(-4)))
        CFI (cfiCond60) ?BRET_EXT load(1, XDATA, add(CFA_XSP16, literal(-3)))
        CFI (cfiCond60) DPL0 load(1, XDATA, add(CFA_XSP16, literal(-2)))
        CFI (cfiCond60) DPH0 load(1, XDATA, add(CFA_XSP16, literal(-1)))
        CFI (cfiCond60) CFA_SP SP+0
        CFI (cfiCond60) CFA_XSP16 add(XSP16, 39)
        CFI Block cfiCond61 Using cfiCommon0
        CFI (cfiCond61) NoFunction
        CFI (cfiCond61) Conditional ??CrossCallReturnLabel_24, ??CrossCallReturnLabel_10
        CFI (cfiCond61) R6 load(1, XDATA, add(CFA_XSP16, literal(-18)))
        CFI (cfiCond61) VB load(1, XDATA, add(CFA_XSP16, literal(-17)))
        CFI (cfiCond61) V0 load(1, XDATA, add(CFA_XSP16, literal(-16)))
        CFI (cfiCond61) V1 load(1, XDATA, add(CFA_XSP16, literal(-15)))
        CFI (cfiCond61) V2 load(1, XDATA, add(CFA_XSP16, literal(-14)))
        CFI (cfiCond61) V3 load(1, XDATA, add(CFA_XSP16, literal(-13)))
        CFI (cfiCond61) V4 load(1, XDATA, add(CFA_XSP16, literal(-12)))
        CFI (cfiCond61) V5 load(1, XDATA, add(CFA_XSP16, literal(-11)))
        CFI (cfiCond61) V6 load(1, XDATA, add(CFA_XSP16, literal(-10)))
        CFI (cfiCond61) V7 load(1, XDATA, add(CFA_XSP16, literal(-9)))
        CFI (cfiCond61) V8 load(1, XDATA, add(CFA_XSP16, literal(-8)))
        CFI (cfiCond61) V9 load(1, XDATA, add(CFA_XSP16, literal(-7)))
        CFI (cfiCond61) R7 load(1, XDATA, add(CFA_XSP16, literal(-6)))
        CFI (cfiCond61) ?RET_LOW load(1, XDATA, add(CFA_XSP16, literal(-5)))
        CFI (cfiCond61) ?RET_HIGH load(1, XDATA, add(CFA_XSP16, literal(-4)))
        CFI (cfiCond61) ?BRET_EXT load(1, XDATA, add(CFA_XSP16, literal(-3)))
        CFI (cfiCond61) DPL0 load(1, XDATA, add(CFA_XSP16, literal(-2)))
        CFI (cfiCond61) DPH0 load(1, XDATA, add(CFA_XSP16, literal(-1)))
        CFI (cfiCond61) CFA_SP SP+0
        CFI (cfiCond61) CFA_XSP16 add(XSP16, 41)
        CFI Block cfiCond62 Using cfiCommon0
        CFI (cfiCond62) NoFunction
        CFI (cfiCond62) Conditional ??CrossCallReturnLabel_24, ??CrossCallReturnLabel_11
        CFI (cfiCond62) R6 load(1, XDATA, add(CFA_XSP16, literal(-18)))
        CFI (cfiCond62) VB load(1, XDATA, add(CFA_XSP16, literal(-17)))
        CFI (cfiCond62) V0 load(1, XDATA, add(CFA_XSP16, literal(-16)))
        CFI (cfiCond62) V1 load(1, XDATA, add(CFA_XSP16, literal(-15)))
        CFI (cfiCond62) V2 load(1, XDATA, add(CFA_XSP16, literal(-14)))
        CFI (cfiCond62) V3 load(1, XDATA, add(CFA_XSP16, literal(-13)))
        CFI (cfiCond62) V4 load(1, XDATA, add(CFA_XSP16, literal(-12)))
        CFI (cfiCond62) V5 load(1, XDATA, add(CFA_XSP16, literal(-11)))
        CFI (cfiCond62) V6 load(1, XDATA, add(CFA_XSP16, literal(-10)))
        CFI (cfiCond62) V7 load(1, XDATA, add(CFA_XSP16, literal(-9)))
        CFI (cfiCond62) V8 load(1, XDATA, add(CFA_XSP16, literal(-8)))
        CFI (cfiCond62) V9 load(1, XDATA, add(CFA_XSP16, literal(-7)))
        CFI (cfiCond62) R7 load(1, XDATA, add(CFA_XSP16, literal(-6)))
        CFI (cfiCond62) ?RET_LOW load(1, XDATA, add(CFA_XSP16, literal(-5)))
        CFI (cfiCond62) ?RET_HIGH load(1, XDATA, add(CFA_XSP16, literal(-4)))
        CFI (cfiCond62) ?BRET_EXT load(1, XDATA, add(CFA_XSP16, literal(-3)))
        CFI (cfiCond62) DPL0 load(1, XDATA, add(CFA_XSP16, literal(-2)))
        CFI (cfiCond62) DPH0 load(1, XDATA, add(CFA_XSP16, literal(-1)))
        CFI (cfiCond62) CFA_SP SP+0
        CFI (cfiCond62) CFA_XSP16 add(XSP16, 41)
        CFI Block cfiCond63 Using cfiCommon0
        CFI (cfiCond63) NoFunction
        CFI (cfiCond63) Conditional ??CrossCallReturnLabel_23, ??CrossCallReturnLabel_2
        CFI (cfiCond63) R6 load(1, XDATA, add(CFA_XSP16, literal(-18)))
        CFI (cfiCond63) VB load(1, XDATA, add(CFA_XSP16, literal(-17)))
        CFI (cfiCond63) V0 load(1, XDATA, add(CFA_XSP16, literal(-16)))
        CFI (cfiCond63) V1 load(1, XDATA, add(CFA_XSP16, literal(-15)))
        CFI (cfiCond63) V2 load(1, XDATA, add(CFA_XSP16, literal(-14)))
        CFI (cfiCond63) V3 load(1, XDATA, add(CFA_XSP16, literal(-13)))
        CFI (cfiCond63) V4 load(1, XDATA, add(CFA_XSP16, literal(-12)))
        CFI (cfiCond63) V5 load(1, XDATA, add(CFA_XSP16, literal(-11)))
        CFI (cfiCond63) V6 load(1, XDATA, add(CFA_XSP16, literal(-10)))
        CFI (cfiCond63) V7 load(1, XDATA, add(CFA_XSP16, literal(-9)))
        CFI (cfiCond63) V8 load(1, XDATA, add(CFA_XSP16, literal(-8)))
        CFI (cfiCond63) V9 load(1, XDATA, add(CFA_XSP16, literal(-7)))
        CFI (cfiCond63) R7 load(1, XDATA, add(CFA_XSP16, literal(-6)))
        CFI (cfiCond63) ?RET_LOW load(1, XDATA, add(CFA_XSP16, literal(-5)))
        CFI (cfiCond63) ?RET_HIGH load(1, XDATA, add(CFA_XSP16, literal(-4)))
        CFI (cfiCond63) ?BRET_EXT load(1, XDATA, add(CFA_XSP16, literal(-3)))
        CFI (cfiCond63) DPL0 load(1, XDATA, add(CFA_XSP16, literal(-2)))
        CFI (cfiCond63) DPH0 load(1, XDATA, add(CFA_XSP16, literal(-1)))
        CFI (cfiCond63) CFA_SP SP+0
        CFI (cfiCond63) CFA_XSP16 add(XSP16, 45)
        CFI Block cfiCond64 Using cfiCommon0
        CFI (cfiCond64) NoFunction
        CFI (cfiCond64) Conditional ??CrossCallReturnLabel_23, ??CrossCallReturnLabel_3
        CFI (cfiCond64) R6 load(1, XDATA, add(CFA_XSP16, literal(-18)))
        CFI (cfiCond64) VB load(1, XDATA, add(CFA_XSP16, literal(-17)))
        CFI (cfiCond64) V0 load(1, XDATA, add(CFA_XSP16, literal(-16)))
        CFI (cfiCond64) V1 load(1, XDATA, add(CFA_XSP16, literal(-15)))
        CFI (cfiCond64) V2 load(1, XDATA, add(CFA_XSP16, literal(-14)))
        CFI (cfiCond64) V3 load(1, XDATA, add(CFA_XSP16, literal(-13)))
        CFI (cfiCond64) V4 load(1, XDATA, add(CFA_XSP16, literal(-12)))
        CFI (cfiCond64) V5 load(1, XDATA, add(CFA_XSP16, literal(-11)))
        CFI (cfiCond64) V6 load(1, XDATA, add(CFA_XSP16, literal(-10)))
        CFI (cfiCond64) V7 load(1, XDATA, add(CFA_XSP16, literal(-9)))
        CFI (cfiCond64) V8 load(1, XDATA, add(CFA_XSP16, literal(-8)))
        CFI (cfiCond64) V9 load(1, XDATA, add(CFA_XSP16, literal(-7)))
        CFI (cfiCond64) R7 load(1, XDATA, add(CFA_XSP16, literal(-6)))
        CFI (cfiCond64) ?RET_LOW load(1, XDATA, add(CFA_XSP16, literal(-5)))
        CFI (cfiCond64) ?RET_HIGH load(1, XDATA, add(CFA_XSP16, literal(-4)))
        CFI (cfiCond64) ?BRET_EXT load(1, XDATA, add(CFA_XSP16, literal(-3)))
        CFI (cfiCond64) DPL0 load(1, XDATA, add(CFA_XSP16, literal(-2)))
        CFI (cfiCond64) DPH0 load(1, XDATA, add(CFA_XSP16, literal(-1)))
        CFI (cfiCond64) CFA_SP SP+0
        CFI (cfiCond64) CFA_XSP16 add(XSP16, 45)
        CFI Block cfiPicker65 Using cfiCommon1
        CFI (cfiPicker65) NoFunction
        CFI (cfiPicker65) Picker
        LCALL   ?Subroutine15 & 0xFFFF
??CrossCallReturnLabel_29:
        INC     DPTR
        RET
        CFI EndBlock cfiCond59
        CFI EndBlock cfiCond60
        CFI EndBlock cfiCond61
        CFI EndBlock cfiCond62
        CFI EndBlock cfiCond63
        CFI EndBlock cfiCond64
        CFI EndBlock cfiPicker65

        RSEG BANKED_CODE:CODE:NOROOT(0)
?Subroutine0:
        CFI Block cfiCond66 Using cfiCommon0
        CFI NoFunction
        CFI Conditional ??CrossCallReturnLabel_0
        CFI R6 load(1, XDATA, add(CFA_XSP16, literal(-18)))
        CFI VB load(1, XDATA, add(CFA_XSP16, literal(-17)))
        CFI V0 load(1, XDATA, add(CFA_XSP16, literal(-16)))
        CFI V1 load(1, XDATA, add(CFA_XSP16, literal(-15)))
        CFI V2 load(1, XDATA, add(CFA_XSP16, literal(-14)))
        CFI V3 load(1, XDATA, add(CFA_XSP16, literal(-13)))
        CFI V4 load(1, XDATA, add(CFA_XSP16, literal(-12)))
        CFI V5 load(1, XDATA, add(CFA_XSP16, literal(-11)))
        CFI V6 load(1, XDATA, add(CFA_XSP16, literal(-10)))
        CFI V7 load(1, XDATA, add(CFA_XSP16, literal(-9)))
        CFI V8 load(1, XDATA, add(CFA_XSP16, literal(-8)))
        CFI V9 load(1, XDATA, add(CFA_XSP16, literal(-7)))
        CFI R7 load(1, XDATA, add(CFA_XSP16, literal(-6)))
        CFI ?RET_LOW load(1, XDATA, add(CFA_XSP16, literal(-5)))
        CFI ?RET_HIGH load(1, XDATA, add(CFA_XSP16, literal(-4)))
        CFI ?BRET_EXT load(1, XDATA, add(CFA_XSP16, literal(-3)))
        CFI DPL0 load(1, XDATA, add(CFA_XSP16, literal(-2)))
        CFI DPH0 load(1, XDATA, add(CFA_XSP16, literal(-1)))
        CFI CFA_SP SP+0
        CFI CFA_XSP16 add(XSP16, 39)
        CFI Block cfiCond67 Using cfiCommon0
        CFI (cfiCond67) NoFunction
        CFI (cfiCond67) Conditional ??CrossCallReturnLabel_1
        CFI (cfiCond67) R6 load(1, XDATA, add(CFA_XSP16, literal(-18)))
        CFI (cfiCond67) VB load(1, XDATA, add(CFA_XSP16, literal(-17)))
        CFI (cfiCond67) V0 load(1, XDATA, add(CFA_XSP16, literal(-16)))
        CFI (cfiCond67) V1 load(1, XDATA, add(CFA_XSP16, literal(-15)))
        CFI (cfiCond67) V2 load(1, XDATA, add(CFA_XSP16, literal(-14)))
        CFI (cfiCond67) V3 load(1, XDATA, add(CFA_XSP16, literal(-13)))
        CFI (cfiCond67) V4 load(1, XDATA, add(CFA_XSP16, literal(-12)))
        CFI (cfiCond67) V5 load(1, XDATA, add(CFA_XSP16, literal(-11)))
        CFI (cfiCond67) V6 load(1, XDATA, add(CFA_XSP16, literal(-10)))
        CFI (cfiCond67) V7 load(1, XDATA, add(CFA_XSP16, literal(-9)))
        CFI (cfiCond67) V8 load(1, XDATA, add(CFA_XSP16, literal(-8)))
        CFI (cfiCond67) V9 load(1, XDATA, add(CFA_XSP16, literal(-7)))
        CFI (cfiCond67) R7 load(1, XDATA, add(CFA_XSP16, literal(-6)))
        CFI (cfiCond67) ?RET_LOW load(1, XDATA, add(CFA_XSP16, literal(-5)))
        CFI (cfiCond67) ?RET_HIGH load(1, XDATA, add(CFA_XSP16, literal(-4)))
        CFI (cfiCond67) ?BRET_EXT load(1, XDATA, add(CFA_XSP16, literal(-3)))
        CFI (cfiCond67) DPL0 load(1, XDATA, add(CFA_XSP16, literal(-2)))
        CFI (cfiCond67) DPH0 load(1, XDATA, add(CFA_XSP16, literal(-1)))
        CFI (cfiCond67) CFA_SP SP+0
        CFI (cfiCond67) CFA_XSP16 add(XSP16, 39)
        CFI Block cfiPicker68 Using cfiCommon1
        CFI (cfiPicker68) NoFunction
        CFI (cfiPicker68) Picker
        MOVX    @DPTR,A
        LCALL   ?Subroutine12 & 0xFFFF
??CrossCallReturnLabel_20:
        RET
        CFI EndBlock cfiCond66
        CFI EndBlock cfiCond67
        CFI EndBlock cfiPicker68

        RSEG BANKED_CODE:CODE:NOROOT(0)
?Subroutine12:
        CFI Block cfiCond69 Using cfiCommon0
        CFI NoFunction
        CFI Conditional ??CrossCallReturnLabel_22, ??CrossCallReturnLabel_6
        CFI R6 load(1, XDATA, add(CFA_XSP16, literal(-11)))
        CFI VB load(1, XDATA, add(CFA_XSP16, literal(-10)))
        CFI V0 load(1, XDATA, add(CFA_XSP16, literal(-9)))
        CFI V1 load(1, XDATA, add(CFA_XSP16, literal(-8)))
        CFI V2 load(1, XDATA, add(CFA_XSP16, literal(-7)))
        CFI R7 load(1, XDATA, add(CFA_XSP16, literal(-6)))
        CFI ?RET_LOW load(1, XDATA, add(CFA_XSP16, literal(-5)))
        CFI ?RET_HIGH load(1, XDATA, add(CFA_XSP16, literal(-4)))
        CFI ?BRET_EXT load(1, XDATA, add(CFA_XSP16, literal(-3)))
        CFI DPL0 load(1, XDATA, add(CFA_XSP16, literal(-2)))
        CFI DPH0 load(1, XDATA, add(CFA_XSP16, literal(-1)))
        CFI CFA_SP SP+0
        CFI CFA_XSP16 add(XSP16, 21)
        CFI Block cfiCond70 Using cfiCommon0
        CFI (cfiCond70) NoFunction
        CFI (cfiCond70) Conditional ??CrossCallReturnLabel_22, ??CrossCallReturnLabel_7
        CFI (cfiCond70) R6 load(1, XDATA, add(CFA_XSP16, literal(-18)))
        CFI (cfiCond70) VB load(1, XDATA, add(CFA_XSP16, literal(-17)))
        CFI (cfiCond70) V0 load(1, XDATA, add(CFA_XSP16, literal(-16)))
        CFI (cfiCond70) V1 load(1, XDATA, add(CFA_XSP16, literal(-15)))
        CFI (cfiCond70) V2 load(1, XDATA, add(CFA_XSP16, literal(-14)))
        CFI (cfiCond70) V3 load(1, XDATA, add(CFA_XSP16, literal(-13)))
        CFI (cfiCond70) V4 load(1, XDATA, add(CFA_XSP16, literal(-12)))
        CFI (cfiCond70) V5 load(1, XDATA, add(CFA_XSP16, literal(-11)))
        CFI (cfiCond70) V6 load(1, XDATA, add(CFA_XSP16, literal(-10)))
        CFI (cfiCond70) V7 load(1, XDATA, add(CFA_XSP16, literal(-9)))
        CFI (cfiCond70) V8 load(1, XDATA, add(CFA_XSP16, literal(-8)))
        CFI (cfiCond70) V9 load(1, XDATA, add(CFA_XSP16, literal(-7)))
        CFI (cfiCond70) R7 load(1, XDATA, add(CFA_XSP16, literal(-6)))
        CFI (cfiCond70) ?RET_LOW load(1, XDATA, add(CFA_XSP16, literal(-5)))
        CFI (cfiCond70) ?RET_HIGH load(1, XDATA, add(CFA_XSP16, literal(-4)))
        CFI (cfiCond70) ?BRET_EXT load(1, XDATA, add(CFA_XSP16, literal(-3)))
        CFI (cfiCond70) DPL0 load(1, XDATA, add(CFA_XSP16, literal(-2)))
        CFI (cfiCond70) DPH0 load(1, XDATA, add(CFA_XSP16, literal(-1)))
        CFI (cfiCond70) CFA_SP SP+0
        CFI (cfiCond70) CFA_XSP16 add(XSP16, 39)
        CFI Block cfiCond71 Using cfiCommon0
        CFI (cfiCond71) NoFunction
        CFI (cfiCond71) Conditional ??CrossCallReturnLabel_21, ??CrossCallReturnLabel_2
        CFI (cfiCond71) R6 load(1, XDATA, add(CFA_XSP16, literal(-18)))
        CFI (cfiCond71) VB load(1, XDATA, add(CFA_XSP16, literal(-17)))
        CFI (cfiCond71) V0 load(1, XDATA, add(CFA_XSP16, literal(-16)))
        CFI (cfiCond71) V1 load(1, XDATA, add(CFA_XSP16, literal(-15)))
        CFI (cfiCond71) V2 load(1, XDATA, add(CFA_XSP16, literal(-14)))
        CFI (cfiCond71) V3 load(1, XDATA, add(CFA_XSP16, literal(-13)))
        CFI (cfiCond71) V4 load(1, XDATA, add(CFA_XSP16, literal(-12)))
        CFI (cfiCond71) V5 load(1, XDATA, add(CFA_XSP16, literal(-11)))
        CFI (cfiCond71) V6 load(1, XDATA, add(CFA_XSP16, literal(-10)))
        CFI (cfiCond71) V7 load(1, XDATA, add(CFA_XSP16, literal(-9)))
        CFI (cfiCond71) V8 load(1, XDATA, add(CFA_XSP16, literal(-8)))
        CFI (cfiCond71) V9 load(1, XDATA, add(CFA_XSP16, literal(-7)))
        CFI (cfiCond71) R7 load(1, XDATA, add(CFA_XSP16, literal(-6)))
        CFI (cfiCond71) ?RET_LOW load(1, XDATA, add(CFA_XSP16, literal(-5)))
        CFI (cfiCond71) ?RET_HIGH load(1, XDATA, add(CFA_XSP16, literal(-4)))
        CFI (cfiCond71) ?BRET_EXT load(1, XDATA, add(CFA_XSP16, literal(-3)))
        CFI (cfiCond71) DPL0 load(1, XDATA, add(CFA_XSP16, literal(-2)))
        CFI (cfiCond71) DPH0 load(1, XDATA, add(CFA_XSP16, literal(-1)))
        CFI (cfiCond71) CFA_SP SP+0
        CFI (cfiCond71) CFA_XSP16 add(XSP16, 45)
        CFI Block cfiCond72 Using cfiCommon0
        CFI (cfiCond72) NoFunction
        CFI (cfiCond72) Conditional ??CrossCallReturnLabel_21, ??CrossCallReturnLabel_3
        CFI (cfiCond72) R6 load(1, XDATA, add(CFA_XSP16, literal(-18)))
        CFI (cfiCond72) VB load(1, XDATA, add(CFA_XSP16, literal(-17)))
        CFI (cfiCond72) V0 load(1, XDATA, add(CFA_XSP16, literal(-16)))
        CFI (cfiCond72) V1 load(1, XDATA, add(CFA_XSP16, literal(-15)))
        CFI (cfiCond72) V2 load(1, XDATA, add(CFA_XSP16, literal(-14)))
        CFI (cfiCond72) V3 load(1, XDATA, add(CFA_XSP16, literal(-13)))
        CFI (cfiCond72) V4 load(1, XDATA, add(CFA_XSP16, literal(-12)))
        CFI (cfiCond72) V5 load(1, XDATA, add(CFA_XSP16, literal(-11)))
        CFI (cfiCond72) V6 load(1, XDATA, add(CFA_XSP16, literal(-10)))
        CFI (cfiCond72) V7 load(1, XDATA, add(CFA_XSP16, literal(-9)))
        CFI (cfiCond72) V8 load(1, XDATA, add(CFA_XSP16, literal(-8)))
        CFI (cfiCond72) V9 load(1, XDATA, add(CFA_XSP16, literal(-7)))
        CFI (cfiCond72) R7 load(1, XDATA, add(CFA_XSP16, literal(-6)))
        CFI (cfiCond72) ?RET_LOW load(1, XDATA, add(CFA_XSP16, literal(-5)))
        CFI (cfiCond72) ?RET_HIGH load(1, XDATA, add(CFA_XSP16, literal(-4)))
        CFI (cfiCond72) ?BRET_EXT load(1, XDATA, add(CFA_XSP16, literal(-3)))
        CFI (cfiCond72) DPL0 load(1, XDATA, add(CFA_XSP16, literal(-2)))
        CFI (cfiCond72) DPH0 load(1, XDATA, add(CFA_XSP16, literal(-1)))
        CFI (cfiCond72) CFA_SP SP+0
        CFI (cfiCond72) CFA_XSP16 add(XSP16, 45)
        CFI Block cfiCond73 Using cfiCommon0
        CFI (cfiCond73) NoFunction
        CFI (cfiCond73) Conditional ??CrossCallReturnLabel_20, ??CrossCallReturnLabel_0
        CFI (cfiCond73) R6 load(1, XDATA, add(CFA_XSP16, literal(-18)))
        CFI (cfiCond73) VB load(1, XDATA, add(CFA_XSP16, literal(-17)))
        CFI (cfiCond73) V0 load(1, XDATA, add(CFA_XSP16, literal(-16)))
        CFI (cfiCond73) V1 load(1, XDATA, add(CFA_XSP16, literal(-15)))
        CFI (cfiCond73) V2 load(1, XDATA, add(CFA_XSP16, literal(-14)))
        CFI (cfiCond73) V3 load(1, XDATA, add(CFA_XSP16, literal(-13)))
        CFI (cfiCond73) V4 load(1, XDATA, add(CFA_XSP16, literal(-12)))
        CFI (cfiCond73) V5 load(1, XDATA, add(CFA_XSP16, literal(-11)))
        CFI (cfiCond73) V6 load(1, XDATA, add(CFA_XSP16, literal(-10)))
        CFI (cfiCond73) V7 load(1, XDATA, add(CFA_XSP16, literal(-9)))
        CFI (cfiCond73) V8 load(1, XDATA, add(CFA_XSP16, literal(-8)))
        CFI (cfiCond73) V9 load(1, XDATA, add(CFA_XSP16, literal(-7)))
        CFI (cfiCond73) R7 load(1, XDATA, add(CFA_XSP16, literal(-6)))
        CFI (cfiCond73) ?RET_LOW load(1, XDATA, add(CFA_XSP16, literal(-5)))
        CFI (cfiCond73) ?RET_HIGH load(1, XDATA, add(CFA_XSP16, literal(-4)))
        CFI (cfiCond73) ?BRET_EXT load(1, XDATA, add(CFA_XSP16, literal(-3)))
        CFI (cfiCond73) DPL0 load(1, XDATA, add(CFA_XSP16, literal(-2)))
        CFI (cfiCond73) DPH0 load(1, XDATA, add(CFA_XSP16, literal(-1)))
        CFI (cfiCond73) CFA_SP SP+0
        CFI (cfiCond73) CFA_XSP16 add(XSP16, 39)
        CFI Block cfiCond74 Using cfiCommon0
        CFI (cfiCond74) NoFunction
        CFI (cfiCond74) Conditional ??CrossCallReturnLabel_20, ??CrossCallReturnLabel_1
        CFI (cfiCond74) R6 load(1, XDATA, add(CFA_XSP16, literal(-18)))
        CFI (cfiCond74) VB load(1, XDATA, add(CFA_XSP16, literal(-17)))
        CFI (cfiCond74) V0 load(1, XDATA, add(CFA_XSP16, literal(-16)))
        CFI (cfiCond74) V1 load(1, XDATA, add(CFA_XSP16, literal(-15)))
        CFI (cfiCond74) V2 load(1, XDATA, add(CFA_XSP16, literal(-14)))
        CFI (cfiCond74) V3 load(1, XDATA, add(CFA_XSP16, literal(-13)))
        CFI (cfiCond74) V4 load(1, XDATA, add(CFA_XSP16, literal(-12)))
        CFI (cfiCond74) V5 load(1, XDATA, add(CFA_XSP16, literal(-11)))
        CFI (cfiCond74) V6 load(1, XDATA, add(CFA_XSP16, literal(-10)))
        CFI (cfiCond74) V7 load(1, XDATA, add(CFA_XSP16, literal(-9)))
        CFI (cfiCond74) V8 load(1, XDATA, add(CFA_XSP16, literal(-8)))
        CFI (cfiCond74) V9 load(1, XDATA, add(CFA_XSP16, literal(-7)))
        CFI (cfiCond74) R7 load(1, XDATA, add(CFA_XSP16, literal(-6)))
        CFI (cfiCond74) ?RET_LOW load(1, XDATA, add(CFA_XSP16, literal(-5)))
        CFI (cfiCond74) ?RET_HIGH load(1, XDATA, add(CFA_XSP16, literal(-4)))
        CFI (cfiCond74) ?BRET_EXT load(1, XDATA, add(CFA_XSP16, literal(-3)))
        CFI (cfiCond74) DPL0 load(1, XDATA, add(CFA_XSP16, literal(-2)))
        CFI (cfiCond74) DPH0 load(1, XDATA, add(CFA_XSP16, literal(-1)))
        CFI (cfiCond74) CFA_SP SP+0
        CFI (cfiCond74) CFA_XSP16 add(XSP16, 39)
        CFI Block cfiPicker75 Using cfiCommon1
        CFI (cfiPicker75) NoFunction
        CFI (cfiPicker75) Picker
        MOV     DPTR,#swCnt
        MOVX    A,@DPTR
        CLR     C
        RLC     A
        MOV     R0,A
        CLR     A
        RLC     A
        MOV     R1,A
        LCALL   ?Subroutine16 & 0xFFFF
??CrossCallReturnLabel_31:
        MOVX    A,@DPTR
        RET
        CFI EndBlock cfiCond69
        CFI EndBlock cfiCond70
        CFI EndBlock cfiCond71
        CFI EndBlock cfiCond72
        CFI EndBlock cfiCond73
        CFI EndBlock cfiCond74
        CFI EndBlock cfiPicker75

        RSEG BANKED_CODE:CODE:NOROOT(0)
?Subroutine16:
        CFI Block cfiCond76 Using cfiCommon0
        CFI NoFunction
        CFI Conditional ??CrossCallReturnLabel_30
        CFI R6 load(1, XDATA, add(CFA_XSP16, literal(-18)))
        CFI VB load(1, XDATA, add(CFA_XSP16, literal(-17)))
        CFI V0 load(1, XDATA, add(CFA_XSP16, literal(-16)))
        CFI V1 load(1, XDATA, add(CFA_XSP16, literal(-15)))
        CFI V2 load(1, XDATA, add(CFA_XSP16, literal(-14)))
        CFI V3 load(1, XDATA, add(CFA_XSP16, literal(-13)))
        CFI V4 load(1, XDATA, add(CFA_XSP16, literal(-12)))
        CFI V5 load(1, XDATA, add(CFA_XSP16, literal(-11)))
        CFI V6 load(1, XDATA, add(CFA_XSP16, literal(-10)))
        CFI V7 load(1, XDATA, add(CFA_XSP16, literal(-9)))
        CFI V8 load(1, XDATA, add(CFA_XSP16, literal(-8)))
        CFI V9 load(1, XDATA, add(CFA_XSP16, literal(-7)))
        CFI R7 load(1, XDATA, add(CFA_XSP16, literal(-6)))
        CFI ?RET_LOW load(1, XDATA, add(CFA_XSP16, literal(-5)))
        CFI ?RET_HIGH load(1, XDATA, add(CFA_XSP16, literal(-4)))
        CFI ?BRET_EXT load(1, XDATA, add(CFA_XSP16, literal(-3)))
        CFI DPL0 load(1, XDATA, add(CFA_XSP16, literal(-2)))
        CFI DPH0 load(1, XDATA, add(CFA_XSP16, literal(-1)))
        CFI CFA_SP SP+-1
        CFI CFA_XSP16 add(XSP16, 39)
        CFI Block cfiCond77 Using cfiCommon0
        CFI (cfiCond77) NoFunction
        CFI (cfiCond77) Conditional ??CrossCallReturnLabel_31, ??CrossCallReturnLabel_22, ??CrossCallReturnLabel_6
        CFI (cfiCond77) R6 load(1, XDATA, add(CFA_XSP16, literal(-11)))
        CFI (cfiCond77) VB load(1, XDATA, add(CFA_XSP16, literal(-10)))
        CFI (cfiCond77) V0 load(1, XDATA, add(CFA_XSP16, literal(-9)))
        CFI (cfiCond77) V1 load(1, XDATA, add(CFA_XSP16, literal(-8)))
        CFI (cfiCond77) V2 load(1, XDATA, add(CFA_XSP16, literal(-7)))
        CFI (cfiCond77) R7 load(1, XDATA, add(CFA_XSP16, literal(-6)))
        CFI (cfiCond77) ?RET_LOW load(1, XDATA, add(CFA_XSP16, literal(-5)))
        CFI (cfiCond77) ?RET_HIGH load(1, XDATA, add(CFA_XSP16, literal(-4)))
        CFI (cfiCond77) ?BRET_EXT load(1, XDATA, add(CFA_XSP16, literal(-3)))
        CFI (cfiCond77) DPL0 load(1, XDATA, add(CFA_XSP16, literal(-2)))
        CFI (cfiCond77) DPH0 load(1, XDATA, add(CFA_XSP16, literal(-1)))
        CFI (cfiCond77) CFA_SP SP+0
        CFI (cfiCond77) CFA_XSP16 add(XSP16, 21)
        CFI Block cfiCond78 Using cfiCommon0
        CFI (cfiCond78) NoFunction
        CFI (cfiCond78) Conditional ??CrossCallReturnLabel_31, ??CrossCallReturnLabel_22, ??CrossCallReturnLabel_7
        CFI (cfiCond78) R6 load(1, XDATA, add(CFA_XSP16, literal(-18)))
        CFI (cfiCond78) VB load(1, XDATA, add(CFA_XSP16, literal(-17)))
        CFI (cfiCond78) V0 load(1, XDATA, add(CFA_XSP16, literal(-16)))
        CFI (cfiCond78) V1 load(1, XDATA, add(CFA_XSP16, literal(-15)))
        CFI (cfiCond78) V2 load(1, XDATA, add(CFA_XSP16, literal(-14)))
        CFI (cfiCond78) V3 load(1, XDATA, add(CFA_XSP16, literal(-13)))
        CFI (cfiCond78) V4 load(1, XDATA, add(CFA_XSP16, literal(-12)))
        CFI (cfiCond78) V5 load(1, XDATA, add(CFA_XSP16, literal(-11)))
        CFI (cfiCond78) V6 load(1, XDATA, add(CFA_XSP16, literal(-10)))
        CFI (cfiCond78) V7 load(1, XDATA, add(CFA_XSP16, literal(-9)))
        CFI (cfiCond78) V8 load(1, XDATA, add(CFA_XSP16, literal(-8)))
        CFI (cfiCond78) V9 load(1, XDATA, add(CFA_XSP16, literal(-7)))
        CFI (cfiCond78) R7 load(1, XDATA, add(CFA_XSP16, literal(-6)))
        CFI (cfiCond78) ?RET_LOW load(1, XDATA, add(CFA_XSP16, literal(-5)))
        CFI (cfiCond78) ?RET_HIGH load(1, XDATA, add(CFA_XSP16, literal(-4)))
        CFI (cfiCond78) ?BRET_EXT load(1, XDATA, add(CFA_XSP16, literal(-3)))
        CFI (cfiCond78) DPL0 load(1, XDATA, add(CFA_XSP16, literal(-2)))
        CFI (cfiCond78) DPH0 load(1, XDATA, add(CFA_XSP16, literal(-1)))
        CFI (cfiCond78) CFA_SP SP+0
        CFI (cfiCond78) CFA_XSP16 add(XSP16, 39)
        CFI Block cfiCond79 Using cfiCommon0
        CFI (cfiCond79) NoFunction
        CFI (cfiCond79) Conditional ??CrossCallReturnLabel_31, ??CrossCallReturnLabel_21, ??CrossCallReturnLabel_2
        CFI (cfiCond79) R6 load(1, XDATA, add(CFA_XSP16, literal(-18)))
        CFI (cfiCond79) VB load(1, XDATA, add(CFA_XSP16, literal(-17)))
        CFI (cfiCond79) V0 load(1, XDATA, add(CFA_XSP16, literal(-16)))
        CFI (cfiCond79) V1 load(1, XDATA, add(CFA_XSP16, literal(-15)))
        CFI (cfiCond79) V2 load(1, XDATA, add(CFA_XSP16, literal(-14)))
        CFI (cfiCond79) V3 load(1, XDATA, add(CFA_XSP16, literal(-13)))
        CFI (cfiCond79) V4 load(1, XDATA, add(CFA_XSP16, literal(-12)))
        CFI (cfiCond79) V5 load(1, XDATA, add(CFA_XSP16, literal(-11)))
        CFI (cfiCond79) V6 load(1, XDATA, add(CFA_XSP16, literal(-10)))
        CFI (cfiCond79) V7 load(1, XDATA, add(CFA_XSP16, literal(-9)))
        CFI (cfiCond79) V8 load(1, XDATA, add(CFA_XSP16, literal(-8)))
        CFI (cfiCond79) V9 load(1, XDATA, add(CFA_XSP16, literal(-7)))
        CFI (cfiCond79) R7 load(1, XDATA, add(CFA_XSP16, literal(-6)))
        CFI (cfiCond79) ?RET_LOW load(1, XDATA, add(CFA_XSP16, literal(-5)))
        CFI (cfiCond79) ?RET_HIGH load(1, XDATA, add(CFA_XSP16, literal(-4)))
        CFI (cfiCond79) ?BRET_EXT load(1, XDATA, add(CFA_XSP16, literal(-3)))
        CFI (cfiCond79) DPL0 load(1, XDATA, add(CFA_XSP16, literal(-2)))
        CFI (cfiCond79) DPH0 load(1, XDATA, add(CFA_XSP16, literal(-1)))
        CFI (cfiCond79) CFA_SP SP+0
        CFI (cfiCond79) CFA_XSP16 add(XSP16, 45)
        CFI Block cfiCond80 Using cfiCommon0
        CFI (cfiCond80) NoFunction
        CFI (cfiCond80) Conditional ??CrossCallReturnLabel_31, ??CrossCallReturnLabel_21, ??CrossCallReturnLabel_3
        CFI (cfiCond80) R6 load(1, XDATA, add(CFA_XSP16, literal(-18)))
        CFI (cfiCond80) VB load(1, XDATA, add(CFA_XSP16, literal(-17)))
        CFI (cfiCond80) V0 load(1, XDATA, add(CFA_XSP16, literal(-16)))
        CFI (cfiCond80) V1 load(1, XDATA, add(CFA_XSP16, literal(-15)))
        CFI (cfiCond80) V2 load(1, XDATA, add(CFA_XSP16, literal(-14)))
        CFI (cfiCond80) V3 load(1, XDATA, add(CFA_XSP16, literal(-13)))
        CFI (cfiCond80) V4 load(1, XDATA, add(CFA_XSP16, literal(-12)))
        CFI (cfiCond80) V5 load(1, XDATA, add(CFA_XSP16, literal(-11)))
        CFI (cfiCond80) V6 load(1, XDATA, add(CFA_XSP16, literal(-10)))
        CFI (cfiCond80) V7 load(1, XDATA, add(CFA_XSP16, literal(-9)))
        CFI (cfiCond80) V8 load(1, XDATA, add(CFA_XSP16, literal(-8)))
        CFI (cfiCond80) V9 load(1, XDATA, add(CFA_XSP16, literal(-7)))
        CFI (cfiCond80) R7 load(1, XDATA, add(CFA_XSP16, literal(-6)))
        CFI (cfiCond80) ?RET_LOW load(1, XDATA, add(CFA_XSP16, literal(-5)))
        CFI (cfiCond80) ?RET_HIGH load(1, XDATA, add(CFA_XSP16, literal(-4)))
        CFI (cfiCond80) ?BRET_EXT load(1, XDATA, add(CFA_XSP16, literal(-3)))
        CFI (cfiCond80) DPL0 load(1, XDATA, add(CFA_XSP16, literal(-2)))
        CFI (cfiCond80) DPH0 load(1, XDATA, add(CFA_XSP16, literal(-1)))
        CFI (cfiCond80) CFA_SP SP+0
        CFI (cfiCond80) CFA_XSP16 add(XSP16, 45)
        CFI Block cfiCond81 Using cfiCommon0
        CFI (cfiCond81) NoFunction
        CFI (cfiCond81) Conditional ??CrossCallReturnLabel_31, ??CrossCallReturnLabel_20, ??CrossCallReturnLabel_0
        CFI (cfiCond81) R6 load(1, XDATA, add(CFA_XSP16, literal(-18)))
        CFI (cfiCond81) VB load(1, XDATA, add(CFA_XSP16, literal(-17)))
        CFI (cfiCond81) V0 load(1, XDATA, add(CFA_XSP16, literal(-16)))
        CFI (cfiCond81) V1 load(1, XDATA, add(CFA_XSP16, literal(-15)))
        CFI (cfiCond81) V2 load(1, XDATA, add(CFA_XSP16, literal(-14)))
        CFI (cfiCond81) V3 load(1, XDATA, add(CFA_XSP16, literal(-13)))
        CFI (cfiCond81) V4 load(1, XDATA, add(CFA_XSP16, literal(-12)))
        CFI (cfiCond81) V5 load(1, XDATA, add(CFA_XSP16, literal(-11)))
        CFI (cfiCond81) V6 load(1, XDATA, add(CFA_XSP16, literal(-10)))
        CFI (cfiCond81) V7 load(1, XDATA, add(CFA_XSP16, literal(-9)))
        CFI (cfiCond81) V8 load(1, XDATA, add(CFA_XSP16, literal(-8)))
        CFI (cfiCond81) V9 load(1, XDATA, add(CFA_XSP16, literal(-7)))
        CFI (cfiCond81) R7 load(1, XDATA, add(CFA_XSP16, literal(-6)))
        CFI (cfiCond81) ?RET_LOW load(1, XDATA, add(CFA_XSP16, literal(-5)))
        CFI (cfiCond81) ?RET_HIGH load(1, XDATA, add(CFA_XSP16, literal(-4)))
        CFI (cfiCond81) ?BRET_EXT load(1, XDATA, add(CFA_XSP16, literal(-3)))
        CFI (cfiCond81) DPL0 load(1, XDATA, add(CFA_XSP16, literal(-2)))
        CFI (cfiCond81) DPH0 load(1, XDATA, add(CFA_XSP16, literal(-1)))
        CFI (cfiCond81) CFA_SP SP+0
        CFI (cfiCond81) CFA_XSP16 add(XSP16, 39)
        CFI Block cfiCond82 Using cfiCommon0
        CFI (cfiCond82) NoFunction
        CFI (cfiCond82) Conditional ??CrossCallReturnLabel_31, ??CrossCallReturnLabel_20, ??CrossCallReturnLabel_1
        CFI (cfiCond82) R6 load(1, XDATA, add(CFA_XSP16, literal(-18)))
        CFI (cfiCond82) VB load(1, XDATA, add(CFA_XSP16, literal(-17)))
        CFI (cfiCond82) V0 load(1, XDATA, add(CFA_XSP16, literal(-16)))
        CFI (cfiCond82) V1 load(1, XDATA, add(CFA_XSP16, literal(-15)))
        CFI (cfiCond82) V2 load(1, XDATA, add(CFA_XSP16, literal(-14)))
        CFI (cfiCond82) V3 load(1, XDATA, add(CFA_XSP16, literal(-13)))
        CFI (cfiCond82) V4 load(1, XDATA, add(CFA_XSP16, literal(-12)))
        CFI (cfiCond82) V5 load(1, XDATA, add(CFA_XSP16, literal(-11)))
        CFI (cfiCond82) V6 load(1, XDATA, add(CFA_XSP16, literal(-10)))
        CFI (cfiCond82) V7 load(1, XDATA, add(CFA_XSP16, literal(-9)))
        CFI (cfiCond82) V8 load(1, XDATA, add(CFA_XSP16, literal(-8)))
        CFI (cfiCond82) V9 load(1, XDATA, add(CFA_XSP16, literal(-7)))
        CFI (cfiCond82) R7 load(1, XDATA, add(CFA_XSP16, literal(-6)))
        CFI (cfiCond82) ?RET_LOW load(1, XDATA, add(CFA_XSP16, literal(-5)))
        CFI (cfiCond82) ?RET_HIGH load(1, XDATA, add(CFA_XSP16, literal(-4)))
        CFI (cfiCond82) ?BRET_EXT load(1, XDATA, add(CFA_XSP16, literal(-3)))
        CFI (cfiCond82) DPL0 load(1, XDATA, add(CFA_XSP16, literal(-2)))
        CFI (cfiCond82) DPH0 load(1, XDATA, add(CFA_XSP16, literal(-1)))
        CFI (cfiCond82) CFA_SP SP+0
        CFI (cfiCond82) CFA_XSP16 add(XSP16, 39)
        CFI Block cfiPicker83 Using cfiCommon1
        CFI (cfiPicker83) NoFunction
        CFI (cfiPicker83) Picker
        MOV     A,#Switch_epDesc & 0xff
        ADD     A,R0
        MOV     DPL,A
        MOV     A,#(Switch_epDesc >> 8) & 0xff
        ADDC    A,R1
        MOV     DPH,A
        RET
        CFI EndBlock cfiCond76
        CFI EndBlock cfiCond77
        CFI EndBlock cfiCond78
        CFI EndBlock cfiCond79
        CFI EndBlock cfiCond80
        CFI EndBlock cfiCond81
        CFI EndBlock cfiCond82
        CFI EndBlock cfiPicker83

        RSEG XDATA_ID:CODE:NOROOT(0)
`?<Initializer for Switch_ClusterList>`:
        DATA16
        DW 1
        DW 2
        DW 3
        DW 4

        RSEG BANK_RELAYS:CODE:REORDER:NOROOT(0)
??Switch_Init?relay:
        LCALL   ?BDISPATCH
        DATA
        DC24    Switch_Init

        RSEG BANK_RELAYS:CODE:REORDER:NOROOT(0)
??Switch_ProcessEvent?relay:
        LCALL   ?BDISPATCH
        DATA
        DC24    Switch_ProcessEvent

        RSEG BANK_RELAYS:CODE:REORDER:NOROOT(0)
??Switch_ProcessZDOMsgs?relay:
        LCALL   ?BDISPATCH
        DATA
        DC24    Switch_ProcessZDOMsgs

        RSEG BANK_RELAYS:CODE:REORDER:NOROOT(0)
??Switch_BindDevice?relay:
        LCALL   ?BDISPATCH
        DATA
        DC24    Switch_BindDevice

        RSEG XDATA_ROM_C:CONST:REORDER:NOROOT(0)
        DATA8
`?<Constant {60, 3844, 1, 0, 0, 0, (cId_t *)0, `:
        DB 60
        DATA16
        DW 3844
        DW 1
        DATA8
        DB 0
        DB 0
        DATA16
        DW 0H
        DATA8
        DB 4
        DATA16
        DW Switch_ClusterList

        END
//  355 
//  356 
//  357 /*********************************
//  358  * CALLBACK FUNCTIONS   */
//  359 /******************************************************************************
//  360  * @fn          SAPI_BindConfirm
//  361  *
//  362  * @brief       The SAPI_BindConfirm callback is called by the ZigBee stack
//  363  *              after a bind operation completes.
//  364  *
//  365  * @param       commandId - The command ID of the binding being confirmed.
//  366  *              status - The status of the bind operation.
//  367  *              allowBind - TRUE if the bind operation was initiated by a call
//  368  *                          to zb_AllowBindRespones.  FALSE if the operation
//  369  *                          was initiated by a call to ZB_BindDevice
//  370  *
//  371  * @return      none
//  372  */
//  373 void SAPI_BindConfirm( uint16 commandId, uint8 status )
//  374 {
//  375     Sys_BindConfirm( commandId, status );
//  376 }
// 
// 1 220 bytes in segment BANKED_CODE
//    24 bytes in segment BANK_RELAYS
//     8 bytes in segment XDATA_I
//     8 bytes in segment XDATA_ID
//    12 bytes in segment XDATA_ROM_C
//    96 bytes in segment XDATA_Z
// 
// 1 252 bytes of CODE  memory
//    12 bytes of CONST memory
//   104 bytes of XDATA memory
//
//Errors: none
//Warnings: none
