###############################################################################
#                                                                             #
# IAR C/C++ Compiler V8.10.3.10338/W32 for 8051         15/Aug/2017  23:22:48 #
# Copyright 2004-2011 IAR Systems AB.                                         #
#                                                                             #
#    Core               =  plain                                              #
#    Code model         =  banked                                             #
#    Data model         =  large                                              #
#    Calling convention =  xdata reentrant                                    #
#    Constant location  =  data_rom                                           #
#    Dptr setup         =  1,16                                               #
#    Source file        =  D:\ProgramData\Hardware\zigbee\Components\stack\zd #
#                          o\ZDProfile.c                                      #
#    Command line       =  -f D:\ProgramData\Hardware\zigbee\Projects\zstack\ #
#                          Samples\SensorSys\CC2530DB\..\..\..\Tools\CC2530DB #
#                          \f8wCoord.cfg (-DCPU32MHZ -DROOT=__near_func       #
#                          -DMAC_CFG_APP_PENDING_QUEUE=TRUE                   #
#                          -DMAC_CFG_TX_DATA_MAX=5 -DMAC_CFG_TX_MAX=8         #
#                          -DMAC_CFG_RX_MAX=5 -DZDO_COORDINATOR -DRTR_NWK)    #
#                          -f D:\ProgramData\Hardware\zigbee\Projects\zstack\ #
#                          Samples\SensorSys\CC2530DB\..\..\..\Tools\CC2530DB #
#                          \f8wConfig.cfg (-DZIGBEEPRO -DSECURE=0             #
#                          -DZG_SECURE_DYNAMIC=0 -DREFLECTOR                  #
#                          -DDEFAULT_CHANLIST=0x00000800                      #
#                          -DZDAPP_CONFIG_PAN_ID=0xFFF1                       #
#                          -DNWK_START_DELAY=100 -DEXTENDED_JOINING_RANDOM_MA #
#                          SK=0x007F -DBEACON_REQUEST_DELAY=100               #
#                          -DBEACON_REQ_DELAY_MASK=0x00FF                     #
#                          -DLINK_STATUS_JITTER_MASK=0x007F                   #
#                          -DROUTE_EXPIRY_TIME=30 -DAPSC_ACK_WAIT_DURATION_PO #
#                          LLED=3000 -DNWK_INDIRECT_MSG_TIMEOUT=7             #
#                          -DMAX_RREQ_ENTRIES=8 -DAPSC_MAX_FRAME_RETRIES=3    #
#                          -DNWK_MAX_DATA_RETRIES=2                           #
#                          -DMAX_POLL_FAILURE_RETRIES=2 -DMAX_BCAST=9         #
#                          -DAPS_MAX_GROUPS=16 -DMAX_RTG_ENTRIES=40           #
#                          -DNWK_MAX_BINDING_ENTRIES=4                        #
#                          -DMAX_BINDING_CLUSTER_IDS=4 "-DDEFAULT_KEY={0x01,  #
#                          0x03, 0x05, 0x07, 0x09, 0x0B, 0x0D, 0x0F, 0x00,    #
#                          0x02, 0x04, 0x06, 0x08, 0x0A, 0x0C, 0x0D}"         #
#                          -DMAC_MAX_FRAME_SIZE=116                           #
#                          -DZDNWKMGR_MIN_TRANSMISSIONS=20 "-DCONST=const     #
#                          __code" -DGENERIC=__generic                        #
#                          -DRFD_RCVC_ALWAYS_ON=FALSE -DPOLL_RATE=1000        #
#                          -DQUEUED_POLL_RATE=100 -DRESPONSE_POLL_RATE=100)   #
#                          -DREJOIN_POLL_RATE=440 D:\ProgramData\Hardware\zig #
#                          bee\Components\stack\zdo\ZDProfile.c -D ZTOOL_P1   #
#                          -D MT_TASK -D MT_SYS_FUNC -D MT_ZDO_FUNC -D        #
#                          LCD_SUPPORTED=DEBUG -lC D:\ProgramData\Hardware\zi #
#                          gbee\Projects\zstack\Samples\SensorSys\CC2530DB\Co #
#                          ordinatorEB\List\ -lA D:\ProgramData\Hardware\zigb #
#                          ee\Projects\zstack\Samples\SensorSys\CC2530DB\Coor #
#                          dinatorEB\List\ --diag_suppress Pe001,Pa010 -o     #
#                          D:\ProgramData\Hardware\zigbee\Projects\zstack\Sam #
#                          ples\SensorSys\CC2530DB\CoordinatorEB\Obj\ -e      #
#                          --no_code_motion --debug --core=plain --dptr=16,1  #
#                          --data_model=large --code_model=banked             #
#                          --calling_convention=xdata_reentrant               #
#                          --place_constants=data_rom --nr_virtual_regs 16    #
#                          -I D:\ProgramData\Hardware\zigbee\Projects\zstack\ #
#                          Samples\SensorSys\CC2530DB\ -I                     #
#                          D:\ProgramData\Hardware\zigbee\Projects\zstack\Sam #
#                          ples\SensorSys\CC2530DB\..\Source\ -I              #
#                          D:\ProgramData\Hardware\zigbee\Projects\zstack\Sam #
#                          ples\SensorSys\CC2530DB\..\..\..\ZMain\TI2530DB\   #
#                          -I D:\ProgramData\Hardware\zigbee\Projects\zstack\ #
#                          Samples\SensorSys\CC2530DB\..\..\..\..\..\Componen #
#                          ts\hal\include\ -I D:\ProgramData\Hardware\zigbee\ #
#                          Projects\zstack\Samples\SensorSys\CC2530DB\..\..\. #
#                          .\..\..\Components\hal\target\CC2530EB\ -I         #
#                          D:\ProgramData\Hardware\zigbee\Projects\zstack\Sam #
#                          ples\SensorSys\CC2530DB\..\..\..\..\..\Components\ #
#                          mac\include\ -I D:\ProgramData\Hardware\zigbee\Pro #
#                          jects\zstack\Samples\SensorSys\CC2530DB\..\..\..\. #
#                          .\..\Components\mac\high_level\ -I                 #
#                          D:\ProgramData\Hardware\zigbee\Projects\zstack\Sam #
#                          ples\SensorSys\CC2530DB\..\..\..\..\..\Components\ #
#                          mac\low_level\srf04\ -I D:\ProgramData\Hardware\zi #
#                          gbee\Projects\zstack\Samples\SensorSys\CC2530DB\.. #
#                          \..\..\..\..\Components\mac\low_level\srf04\single #
#                          _chip\ -I D:\ProgramData\Hardware\zigbee\Projects\ #
#                          zstack\Samples\SensorSys\CC2530DB\..\..\..\..\..\C #
#                          omponents\mt\ -I D:\ProgramData\Hardware\zigbee\Pr #
#                          ojects\zstack\Samples\SensorSys\CC2530DB\..\..\..\ #
#                          ..\..\Components\osal\include\ -I                  #
#                          D:\ProgramData\Hardware\zigbee\Projects\zstack\Sam #
#                          ples\SensorSys\CC2530DB\..\..\..\..\..\Components\ #
#                          services\saddr\ -I D:\ProgramData\Hardware\zigbee\ #
#                          Projects\zstack\Samples\SensorSys\CC2530DB\..\..\. #
#                          .\..\..\Components\services\sdata\ -I              #
#                          D:\ProgramData\Hardware\zigbee\Projects\zstack\Sam #
#                          ples\SensorSys\CC2530DB\..\..\..\..\..\Components\ #
#                          stack\af\ -I D:\ProgramData\Hardware\zigbee\Projec #
#                          ts\zstack\Samples\SensorSys\CC2530DB\..\..\..\..\. #
#                          .\Components\stack\nwk\ -I                         #
#                          D:\ProgramData\Hardware\zigbee\Projects\zstack\Sam #
#                          ples\SensorSys\CC2530DB\..\..\..\..\..\Components\ #
#                          stack\sapi\ -I D:\ProgramData\Hardware\zigbee\Proj #
#                          ects\zstack\Samples\SensorSys\CC2530DB\..\..\..\.. #
#                          \..\Components\stack\sec\ -I                       #
#                          D:\ProgramData\Hardware\zigbee\Projects\zstack\Sam #
#                          ples\SensorSys\CC2530DB\..\..\..\..\..\Components\ #
#                          stack\sys\ -I D:\ProgramData\Hardware\zigbee\Proje #
#                          cts\zstack\Samples\SensorSys\CC2530DB\..\..\..\..\ #
#                          ..\Components\stack\zdo\ -I                        #
#                          D:\ProgramData\Hardware\zigbee\Projects\zstack\Sam #
#                          ples\SensorSys\CC2530DB\..\..\..\..\..\Components\ #
#                          zmac\ -I D:\ProgramData\Hardware\zigbee\Projects\z #
#                          stack\Samples\SensorSys\CC2530DB\..\..\..\..\..\Co #
#                          mponents\zmac\f8w\ -Ohz --require_prototypes       #
#    List file          =  D:\ProgramData\Hardware\zigbee\Projects\zstack\Sam #
#                          ples\SensorSys\CC2530DB\CoordinatorEB\List\ZDProfi #
#                          le.lst                                             #
#    Object file        =  D:\ProgramData\Hardware\zigbee\Projects\zstack\Sam #
#                          ples\SensorSys\CC2530DB\CoordinatorEB\Obj\ZDProfil #
#                          e.r51                                              #
#                                                                             #
#                                                                             #
###############################################################################

D:\ProgramData\Hardware\zigbee\Components\stack\zdo\ZDProfile.c
      1          /**************************************************************************************************
      2            Filename:       ZDProfile.c
      3            Revised:        $Date: 2010-01-17 08:58:03 -0800 (Sun, 17 Jan 2010) $
      4            Revision:       $Revision: 21533 $
      5          
      6            Description:    This is the Zigbee Device Profile.
      7          
      8          
      9            Copyright 2004-2009 Texas Instruments Incorporated. All rights reserved.
     10          
     11            IMPORTANT: Your use of this Software is limited to those specific rights
     12            granted under the terms of a software license agreement between the user
     13            who downloaded the software, his/her employer (which must be your employer)
     14            and Texas Instruments Incorporated (the "License").  You may not use this
     15            Software unless you agree to abide by the terms of the License. The License
     16            limits your use, and you acknowledge, that the Software may not be modified,
     17            copied or distributed unless embedded on a Texas Instruments microcontroller
     18            or used solely and exclusively in conjunction with a Texas Instruments radio
     19            frequency transceiver, which is integrated into your product.  Other than for
     20            the foregoing purpose, you may not use, reproduce, copy, prepare derivative
     21            works of, modify, distribute, perform, display or sell this Software and/or
     22            its documentation for any purpose.
     23          
     24            YOU FURTHER ACKNOWLEDGE AND AGREE THAT THE SOFTWARE AND DOCUMENTATION ARE
     25            PROVIDED “AS IS” WITHOUT WARRANTY OF ANY KIND, EITHER EXPRESS OR IMPLIED,
     26            INCLUDING WITHOUT LIMITATION, ANY WARRANTY OF MERCHANTABILITY, TITLE,
     27            NON-INFRINGEMENT AND FITNESS FOR A PARTICULAR PURPOSE. IN NO EVENT SHALL
     28            TEXAS INSTRUMENTS OR ITS LICENSORS BE LIABLE OR OBLIGATED UNDER CONTRACT,
     29            NEGLIGENCE, STRICT LIABILITY, CONTRIBUTION, BREACH OF WARRANTY, OR OTHER
     30            LEGAL EQUITABLE THEORY ANY DIRECT OR INDIRECT DAMAGES OR EXPENSES
     31            INCLUDING BUT NOT LIMITED TO ANY INCIDENTAL, SPECIAL, INDIRECT, PUNITIVE
     32            OR CONSEQUENTIAL DAMAGES, LOST PROFITS OR LOST DATA, COST OF PROCUREMENT
     33            OF SUBSTITUTE GOODS, TECHNOLOGY, SERVICES, OR ANY CLAIMS BY THIRD PARTIES
     34            (INCLUDING BUT NOT LIMITED TO ANY DEFENSE THEREOF), OR OTHER SIMILAR COSTS.
     35          
     36            Should you have any questions regarding your right to use this Software,
     37            contact Texas Instruments Incorporated at www.TI.com.
     38          **************************************************************************************************/
     39          
     40          /*********************************************************************
     41           * INCLUDES
     42           */
     43          #include "ZComdef.h"
     44          #include "OSAL.h"
     45          #include "AF.h"
     46          #include "NLMEDE.h"
     47          #include "nwk_util.h"
     48          #include "APS.h"
     49          
     50          #include "AddrMgr.h"
     51          #include "ZDConfig.h"
     52          #include "ZDProfile.h"
     53          #include "ZDObject.h"
     54          #include "ZDNwkMgr.h"
     55          
     56          #if defined( LCD_SUPPORTED )
     57            #include "OnBoard.h"
     58          #endif
     59          
     60          #include "nwk_util.h"
     61          
     62          #if defined( MT_ZDO_FUNC )
     63            #include "MT_ZDO.h"
     64          #endif
     65          
     66          /*********************************************************************
     67           * MACROS
     68           */
     69          
     70          #define ZADDR_TO_AFADDR( pZADDR, AFADDR ) {                            \
     71            (AFADDR).endPoint = ZDP_AF_ENDPOINT;                                 \
     72            (AFADDR).addrMode = (afAddrMode_t)(pZADDR)->addrMode;                \
     73            (AFADDR).addr.shortAddr = (pZADDR)->addr.shortAddr;                  \
     74          }
     75          
     76          #define FillAndSendBuffer( TRANSSEQ, ADDR, ID, LEN, BUF ) {     \
     77            afStatus_t stat;                                    \
     78            ZDP_TmpBuf = (BUF)+1;                               \
     79            stat = fillAndSend( (TRANSSEQ), (ADDR), (ID), (LEN) );          \
     80            osal_mem_free( (BUF) );                             \
     81            ZDP_TmpBuf = ZDP_Buf+1;                             \
     82            return stat;                                        \
     83          }
     84          
     85          #define FillAndSendTxOptions( TRANSSEQ, ADDR, ID, LEN, TxO ) {  \
     86            afStatus_t stat;                                    \
     87            ZDP_TxOptions = (TxO);                              \
     88            stat = fillAndSend( (TRANSSEQ), (ADDR), (ID), (LEN) );          \
     89            ZDP_TxOptions = AF_TX_OPTIONS_NONE;                 \
     90            return stat;                                        \
     91          }
     92          
     93          #define FillAndSendBufferTxOptions( TRANSSEQ, ADDR, ID, LEN, BUF, TxO ) { \
     94            afStatus_t stat;                                    \
     95            ZDP_TmpBuf = (BUF)+1;                               \
     96            ZDP_TxOptions = (TxO);                              \
     97            stat = fillAndSend( (TRANSSEQ), (ADDR), (ID), (LEN) );          \
     98            osal_mem_free( (BUF) );                             \
     99            ZDP_TmpBuf = ZDP_Buf+1;                             \
    100            ZDP_TxOptions = AF_TX_OPTIONS_NONE;                 \
    101            return stat;                                        \
    102          }
    103          
    104          /*********************************************************************
    105           * CONSTANTS
    106           */
    107          
    108          #define ZDP_BUF_SZ          80
    109          

   \                                 In  segment CODE_C, align 1
    110          CONST byte ZDP_AF_ENDPOINT = 0;
   \                     ZDP_AF_ENDPOINT:
   \   000000   00           DB 0
    111          
    112          /*********************************************************************
    113           * TYPEDEFS
    114           */
    115          typedef struct
    116          {
    117            void *next;
    118            uint8 taskID;
    119            uint16 clusterID;
    120          } ZDO_MsgCB_t;
    121          
    122          
    123          /*********************************************************************
    124           * GLOBAL VARIABLES
    125           */
    126          

   \                                 In  segment XDATA_Z, align 1, keep-with-next
    127          byte ZDP_TransID = 0;
   \                     ZDP_TransID:
   \   000000                DS 1
   \   000001                REQUIRE __INIT_XDATA_Z
    128          
    129          /*********************************************************************
    130           * EXTERNAL VARIABLES
    131           */
    132          
    133          extern endPointDesc_t ZDApp_epDesc;
    134          
    135          /*********************************************************************
    136           * EXTERNAL FUNCTIONS
    137           */
    138          
    139          /*********************************************************************
    140           * LOCAL FUNCTIONS
    141           */
    142          
    143          static afStatus_t fillAndSend( uint8 *transSeq, zAddrType_t *addr, cId_t clusterID, byte len );
    144          uint8 ZDO_SendMsgCBs( zdoIncomingMsg_t *inMsg );
    145          void zdpProcessAddrReq( zdoIncomingMsg_t *inMsg );
    146          
    147          /*********************************************************************
    148           * LOCAL VARIABLES
    149           */
    150          

   \                                 In  segment XDATA_Z, align 1, keep-with-next
    151          static uint8  ZDP_Buf[ ZDP_BUF_SZ ];
   \                     ZDP_Buf:
   \   000000                DS 80
   \   000050                REQUIRE __INIT_XDATA_Z

   \                                 In  segment XDATA_I, align 1, keep-with-next
    152          static uint8 *ZDP_TmpBuf = ZDP_Buf+1;
   \                     ZDP_TmpBuf:
   \   000000                DS 2
   \   000002                REQUIRE `?<Initializer for ZDP_TmpBuf>`
   \   000002                REQUIRE __INIT_XDATA_I

   \                                 In  segment XDATA_Z, align 1, keep-with-next
    153          static byte ZDP_TxOptions = AF_TX_OPTIONS_NONE;
   \                     ZDP_TxOptions:
   \   000000                DS 1
   \   000001                REQUIRE __INIT_XDATA_Z
    154          

   \                                 In  segment XDATA_Z, align 1, keep-with-next
    155          ZDO_MsgCB_t *zdoMsgCBs = (ZDO_MsgCB_t *)NULL;
   \                     zdoMsgCBs:
   \   000000                DS 2
   \   000002                REQUIRE __INIT_XDATA_Z
    156          
    157          /*********************************************************************
    158           * ZDO Message Processing table
    159           */
    160          
    161          typedef void (*pfnZDPMsgProcessor)( zdoIncomingMsg_t *inMsg );
    162          
    163          typedef struct
    164          {
    165            uint16                clusterID;
    166            pfnZDPMsgProcessor    pFn;
    167          } zdpMsgProcItem_t;
    168          

   \                                 In  segment CODE_C, align 1
    169          CONST zdpMsgProcItem_t zdpMsgProcs[] =
   \                     zdpMsgProcs:
   \   000000   0000         DW 0
   \   000002   ....         DW ??zdpProcessAddrReq?relay
   \   000004   1300         DW 19
   \   000006   ....         DW ??ZDO_ProcessDeviceAnnce?relay
   \   000008   0100         DW 1
   \   00000A   ....         DW ??zdpProcessAddrReq?relay
   \   00000C   0200         DW 2
   \   00000E   ....         DW ??ZDO_ProcessNodeDescReq?relay
   \   000010   0300         DW 3
   \   000012   ....         DW ??ZDO_ProcessPowerDescReq?relay
   \   000014   0400         DW 4
   \   000016   ....         DW ??ZDO_ProcessSimpleDescReq?relay
   \   000018   0500         DW 5
   \   00001A   ....         DW ??ZDO_ProcessActiveEPReq?relay
   \   00001C   0600         DW 6
   \   00001E   ....         DW ??ZDO_ProcessMatchDescReq?relay
   \   000020   1100         DW 17
   \   000022   ....         DW ??ZDO_ProcessUserDescReq?relay
   \   000024   1400         DW 20
   \   000026   ....         DW ??ZDO_ProcessUserDescSet?relay
   \   000028   1500         DW 21
   \   00002A   ....         DW ??ZDO_ProcessServerDiscReq?relay
   \   00002C   FFFF         DW 65535
   \   00002E   0000         DW 0H
    170          {
    171          #if ( RFD_RCVC_ALWAYS_ON==TRUE ) || ( ZG_BUILD_RTR_TYPE )
    172            // These aren't processed by sleeping end devices.
    173            { NWK_addr_req,           zdpProcessAddrReq },
    174            { Device_annce,           ZDO_ProcessDeviceAnnce },
    175          #endif
    176            { IEEE_addr_req,          zdpProcessAddrReq },
    177            { Node_Desc_req,          ZDO_ProcessNodeDescReq },
    178            { Power_Desc_req,         ZDO_ProcessPowerDescReq },
    179            { Simple_Desc_req,        ZDO_ProcessSimpleDescReq },
    180            { Active_EP_req,          ZDO_ProcessActiveEPReq },
    181            { Match_Desc_req,         ZDO_ProcessMatchDescReq },
    182          #if defined ( ZDO_MGMT_NWKDISC_RESPONSE )
    183            { Mgmt_NWK_Disc_req,      ZDO_ProcessMgmtNwkDiscReq },
    184          #endif
    185          #if defined ( ZDO_MGMT_LQI_RESPONSE ) && ( ZG_BUILD_RTR_TYPE )
    186            { Mgmt_Lqi_req,           ZDO_ProcessMgmtLqiReq },
    187          #endif
    188          #if defined ( ZDO_MGMT_RTG_RESPONSE ) && ( ZG_BUILD_RTR_TYPE )
    189            { Mgmt_Rtg_req,           ZDO_ProcessMgmtRtgReq },
    190          #endif
    191          #if defined ( ZDO_MGMT_BIND_RESPONSE ) && defined ( REFLECTOR )
    192            { Mgmt_Bind_req,          ZDO_ProcessMgmtBindReq },
    193          #endif
    194          #if defined ( ZDO_MGMT_JOINDIRECT_RESPONSE ) && ( ZG_BUILD_RTR_TYPE )
    195            { Mgmt_Direct_Join_req,   ZDO_ProcessMgmtDirectJoinReq },
    196          #endif
    197          #if defined ( ZDO_MGMT_LEAVE_RESPONSE )
    198            { Mgmt_Leave_req,         ZDO_ProcessMgmtLeaveReq },
    199          #endif
    200          #if defined ( ZDO_MGMT_PERMIT_JOIN_RESPONSE )  && ( ZG_BUILD_RTR_TYPE )
    201            { Mgmt_Permit_Join_req,   ZDO_ProcessMgmtPermitJoinReq },
    202          #endif
    203          #if defined ( ZDO_USERDESC_RESPONSE )
    204            { User_Desc_req,          ZDO_ProcessUserDescReq },
    205          #endif
    206          #if defined ( ZDO_USERDESCSET_RESPONSE )
    207            { User_Desc_set,          ZDO_ProcessUserDescSet },
    208          #endif
    209          #if defined ( ZDO_SERVERDISC_RESPONSE )
    210            { Server_Discovery_req,   ZDO_ProcessServerDiscReq },
    211          #endif
    212            {0xFFFF, NULL} // Last
    213          };
    214          
    215          /*********************************************************************
    216           * @fn          fillAndSend
    217           *
    218           * @brief       Combined to reduce space
    219           *
    220           * @param
    221           * @param
    222           *
    223           * @return      afStatus_t
    224           */

   \                                 In  segment BANKED_CODE, align 1, keep-with-next
    225          static afStatus_t fillAndSend( uint8 *transSeq, zAddrType_t *addr, cId_t clusterID, byte len )
   \                     fillAndSend:
    226          {
   \   000000   74F0         MOV     A,#-0x10
   \   000002   12....       LCALL   ?BANKED_ENTER_XDATA
   \   000005                ; Saved register size: 16
   \   000005                ; Auto size: 12
   \   000005   74F4         MOV     A,#-0xc
   \   000007   12....       LCALL   ?ALLOC_XSTACK8
   \   00000A   8A..         MOV     ?V0 + 2,R2
   \   00000C   8B..         MOV     ?V0 + 3,R3
   \   00000E   EC           MOV     A,R4
   \   00000F   FE           MOV     R6,A
   \   000010   ED           MOV     A,R5
   \   000011   FF           MOV     R7,A
   \   000012   89..         MOV     ?V0 + 6,R1
   \   000014   741C         MOV     A,#0x1c
   \   000016   12....       LCALL   ?XSTACK_DISP0_8
   \   000019   12....       LCALL   ??Subroutine119_0 & 0xFFFF
    227            afAddrType_t afAddr;
    228          
    229            osal_memset( &afAddr, 0, sizeof(afAddrType_t) );
   \                     ??CrossCallReturnLabel_215:
   \   00001C                ; Setup parameters for call to function osal_memset
   \   00001C   7C0C         MOV     R4,#0xc
   \   00001E   7D00         MOV     R5,#0x0
   \   000020   7900         MOV     R1,#0x0
   \   000022   85..82       MOV     DPL,?XSP + 0
   \   000025   85..83       MOV     DPH,?XSP + 1
   \   000028   AA82         MOV     R2,DPL
   \   00002A   AB83         MOV     R3,DPH
   \   00002C   12....       LCALL   ??osal_memset?relay
    230            ZADDR_TO_AFADDR( addr, afAddr );
   \   00002F   7409         MOV     A,#0x9
   \   000031   12....       LCALL   ?XSTACK_DISP0_8
   \   000034   E4           CLR     A
   \   000035   F0           MOVX    @DPTR,A
   \   000036   8E82         MOV     DPL,R6
   \   000038   8F83         MOV     DPH,R7
   \   00003A   A3           INC     DPTR
   \   00003B   A3           INC     DPTR
   \   00003C   A3           INC     DPTR
   \   00003D   A3           INC     DPTR
   \   00003E   A3           INC     DPTR
   \   00003F   A3           INC     DPTR
   \   000040   A3           INC     DPTR
   \   000041   A3           INC     DPTR
   \   000042   E0           MOVX    A,@DPTR
   \   000043   C0E0         PUSH    A
   \   000045   7408         MOV     A,#0x8
   \   000047   12....       LCALL   ?XSTACK_DISP0_8
   \   00004A   D0E0         POP     A
   \   00004C   F0           MOVX    @DPTR,A
   \   00004D   8E82         MOV     DPL,R6
   \   00004F   8F83         MOV     DPH,R7
   \   000051   12....       LCALL   ?Subroutine29 & 0xFFFF
   \                     ??CrossCallReturnLabel_30:
   \   000054   F0           MOVX    @DPTR,A
    231          
    232            *(ZDP_TmpBuf-1) = *transSeq;
   \   000055   90....       MOV     DPTR,#ZDP_TmpBuf
   \   000058   E0           MOVX    A,@DPTR
   \   000059   24FF         ADD     A,#-0x1
   \   00005B   F5..         MOV     ?V0 + 4,A
   \   00005D   A3           INC     DPTR
   \   00005E   E0           MOVX    A,@DPTR
   \   00005F   34FF         ADDC    A,#-0x1
   \   000061   F5..         MOV     ?V0 + 5,A
   \   000063   85..82       MOV     DPL,?V0 + 2
   \   000066   85..83       MOV     DPH,?V0 + 3
   \   000069   E0           MOVX    A,@DPTR
   \   00006A   85..82       MOV     DPL,?V0 + 4
   \   00006D   85..83       MOV     DPH,?V0 + 5
   \   000070   F0           MOVX    @DPTR,A
    233          
    234            return AF_DataRequest( &afAddr, &ZDApp_epDesc, clusterID,
    235                                     (uint16)(len+1), (uint8*)(ZDP_TmpBuf-1),
    236                                     transSeq, ZDP_TxOptions,  AF_DEFAULT_RADIUS );
   \   000071                ; Setup parameters for call to function AF_DataRequest
   \   000071   75..1E       MOV     ?V0 + 7,#0x1e
   \   000074   78..         MOV     R0,#?V0 + 7
   \   000076   12....       LCALL   ?PUSH_XSTACK_I_ONE
   \   000079   78..         MOV     R0,#?V0 + 2
   \   00007B   12....       LCALL   ?PUSH_XSTACK_I_TWO
   \   00007E   78..         MOV     R0,#?V0 + 4
   \   000080   12....       LCALL   ?PUSH_XSTACK_I_TWO
   \   000083   85....       MOV     ?V0 + 2,?V0 + 6
   \   000086   E5..         MOV     A,?V0 + 2
   \   000088   2401         ADD     A,#0x1
   \   00008A   F5..         MOV     ?V0 + 2,A
   \   00008C   E4           CLR     A
   \   00008D   3400         ADDC    A,#0x0
   \   00008F   F5..         MOV     ?V0 + 3,A
   \   000091   78..         MOV     R0,#?V0 + 2
   \   000093   12....       LCALL   ?PUSH_XSTACK_I_TWO
   \   000096   78..         MOV     R0,#?V0 + 0
   \   000098   12....       LCALL   ?PUSH_XSTACK_I_TWO
   \   00009B   90....       MOV     DPTR,#ZDP_TxOptions
   \   00009E   E0           MOVX    A,@DPTR
   \   00009F   F9           MOV     R1,A
   \   0000A0   7C..         MOV     R4,#ZDApp_epDesc & 0xff
   \   0000A2   7D..         MOV     R5,#(ZDApp_epDesc >> 8) & 0xff
   \   0000A4   7409         MOV     A,#0x9
   \   0000A6   12....       LCALL   ?XSTACK_DISP0_8
   \   0000A9   AA82         MOV     R2,DPL
   \   0000AB   AB83         MOV     R3,DPH
   \   0000AD   12....       LCALL   ??AF_DataRequest?relay
   \   0000B0   7409         MOV     A,#0x9
   \   0000B2   12....       LCALL   ?DEALLOC_XSTACK8
   \   0000B5   740C         MOV     A,#0xc
   \   0000B7   02....       LJMP    ?Subroutine0 & 0xFFFF
    237          
    238          }

   \                                 In  segment BANKED_CODE, align 1, keep-with-next
   \                     ?Subroutine29:
   \   000000   12....       LCALL   ?Subroutine84 & 0xFFFF
   \                     ??CrossCallReturnLabel_183:
   \   000003   85..82       MOV     DPL,?XSP + 0
   \   000006   85..83       MOV     DPH,?XSP + 1
   \   000009   E8           MOV     A,R0
   \   00000A   F0           MOVX    @DPTR,A
   \   00000B   A3           INC     DPTR
   \   00000C   E9           MOV     A,R1
   \   00000D   22           RET

   \                                 In  segment BANKED_CODE, align 1, keep-with-next
   \                     ?Subroutine0:
   \   000000   12....       LCALL   ?DEALLOC_XSTACK8
   \   000003                REQUIRE ??Subroutine107_0
   \   000003                ; // Fall through to label ??Subroutine107_0

   \                                 In  segment BANKED_CODE, align 1, keep-with-next
   \                     ??Subroutine107_0:
   \   000000   7F08         MOV     R7,#0x8
   \   000002   02....       LJMP    ?BANKED_LEAVE_XDATA

   \                                 In  segment BANKED_CODE, align 1, keep-with-next
   \                     ?Subroutine84:
   \   000000   E0           MOVX    A,@DPTR
   \   000001   F8           MOV     R0,A
   \   000002   A3           INC     DPTR
   \   000003   E0           MOVX    A,@DPTR
   \   000004   F9           MOV     R1,A
   \   000005   22           RET

   \                                 In  segment BANKED_CODE, align 1, keep-with-next
   \                     ??Subroutine119_0:
   \   000000   E0           MOVX    A,@DPTR
   \   000001   F5..         MOV     ?V0 + 0,A
   \   000003   A3           INC     DPTR
   \   000004   E0           MOVX    A,@DPTR
   \   000005   F5..         MOV     ?V0 + 1,A
   \   000007   22           RET
    239          
    240          /*********************************************************************
    241           * @fn          ZDP_SendData
    242           *
    243           * @brief       This builds and send a request message that has
    244           *              NWKAddrOfInterest as its only parameter.
    245           *
    246           * @param       dstAddr - destination address
    247           * @param       cmd - clusterID
    248           * @param       dataLen - number of bytes of data
    249           * @param       data - pointer to the data
    250           * @param       SecurityEnable - Security Options
    251           *
    252           * @return      afStatus_t
    253           */

   \                                 In  segment BANKED_CODE, align 1, keep-with-next
    254          afStatus_t ZDP_SendData( uint8 *TransSeq, zAddrType_t *dstAddr, uint16 cmd,
   \                     ZDP_SendData:
    255                                  byte len, uint8 *buf, byte SecurityEnable )
    256          {
   \   000000   74F2         MOV     A,#-0xe
   \   000002   12....       LCALL   ?BANKED_ENTER_XDATA
   \   000005                ; Saved register size: 14
   \   000005                ; Auto size: 0
   \   000005   E9           MOV     A,R1
   \   000006   FE           MOV     R6,A
   \   000007   740E         MOV     A,#0xe
   \   000009   12....       LCALL   ?XSTACK_DISP0_8
   \   00000C   12....       LCALL   ??Subroutine103_0 & 0xFFFF
   \                     ??CrossCallReturnLabel_146:
   \   00000F   7410         MOV     A,#0x10
   \   000011   12....       LCALL   ?XSTACK_DISP0_8
   \   000014   12....       LCALL   ?Subroutine36 & 0xFFFF
   \                     ??CrossCallReturnLabel_41:
   \   000017   7412         MOV     A,#0x12
   \   000019   12....       LCALL   ?XSTACK_DISP0_8
   \   00001C   E0           MOVX    A,@DPTR
   \   00001D   F5..         MOV     ?V0 + 1,A
    257            uint8 *pBuf = ZDP_TmpBuf;
   \   00001F   12....       LCALL   ?Subroutine43 & 0xFFFF
    258            byte cnt = len;
   \                     ??CrossCallReturnLabel_53:
   \   000022   FF           MOV     R7,A
   \   000023   801F         SJMP    ??ZDP_SendData_0
    259          
    260            while ( cnt-- )
    261            {
    262              *pBuf++ = *buf++;
   \                     ??ZDP_SendData_1:
   \   000025   85..82       MOV     DPL,?V0 + 4
   \   000028   85..83       MOV     DPH,?V0 + 5
   \   00002B   12....       LCALL   ?Subroutine44 & 0xFFFF
    263            }
   \                     ??CrossCallReturnLabel_56:
   \   00002E   85..82       MOV     DPL,?V0 + 4
   \   000031   85..83       MOV     DPH,?V0 + 5
   \   000034   A3           INC     DPTR
   \   000035   8582..       MOV     ?V0 + 4,DPL
   \   000038   8583..       MOV     ?V0 + 5,DPH
   \   00003B   8882         MOV     DPL,R0
   \   00003D   8983         MOV     DPH,R1
   \   00003F   A3           INC     DPTR
   \   000040   A882         MOV     R0,DPL
   \   000042   A983         MOV     R1,DPH
   \                     ??ZDP_SendData_0:
   \   000044   8F..         MOV     ?V0 + 0,R7
   \   000046   74FF         MOV     A,#-0x1
   \   000048   25..         ADD     A,?V0 + 0
   \   00004A   1F           DEC     R7
   \   00004B   04           INC     A
   \   00004C   70D7         JNZ     ??ZDP_SendData_1
    264          
    265            FillAndSendTxOptions( TransSeq, dstAddr, cmd, len,
    266                         (AF_DEFAULT_RADIUS | ((SecurityEnable) ? AF_EN_SECURITY : 0)) );
   \   00004E   E5..         MOV     A,?V0 + 1
   \   000050   6004         JZ      ??ZDP_SendData_2
   \   000052   7840         MOV     R0,#0x40
   \   000054   8002         SJMP    ??ZDP_SendData_3
   \                     ??ZDP_SendData_2:
   \   000056   7800         MOV     R0,#0x0
   \                     ??ZDP_SendData_3:
   \   000058   E8           MOV     A,R0
   \   000059   441E         ORL     A,#0x1e
   \   00005B   90....       MOV     DPTR,#ZDP_TxOptions
   \   00005E   F0           MOVX    @DPTR,A
   \   00005F                ; Setup parameters for call to function fillAndSend
   \   00005F   78..         MOV     R0,#?V0 + 2
   \   000061   12....       LCALL   ?PUSH_XSTACK_I_TWO
   \   000064   EE           MOV     A,R6
   \   000065   F9           MOV     R1,A
   \   000066   12....       LCALL   ??Subroutine128_0 & 0xFFFF
   \                     ??CrossCallReturnLabel_277:
   \   000069   12....       LCALL   ?DEALLOC_XSTACK8
   \   00006C   90....       MOV     DPTR,#ZDP_TxOptions
   \   00006F   E4           CLR     A
   \   000070   F0           MOVX    @DPTR,A
   \   000071                REQUIRE ?Subroutine1
   \   000071                ; // Fall through to label ?Subroutine1
    267          }

   \                                 In  segment BANKED_CODE, align 1, keep-with-next
   \                     ?Subroutine1:
   \   000000   7F06         MOV     R7,#0x6
   \   000002   02....       LJMP    ?BANKED_LEAVE_XDATA

   \                                 In  segment BANKED_CODE, align 1, keep-with-next
   \                     ?Subroutine43:
   \   000000   90....       MOV     DPTR,#ZDP_TmpBuf
   \   000003   12....       LCALL   ?Subroutine84 & 0xFFFF
   \                     ??CrossCallReturnLabel_184:
   \   000006   EE           MOV     A,R6
   \   000007   22           RET

   \                                 In  segment BANKED_CODE, align 1, keep-with-next
   \                     ??Subroutine103_0:
   \   000000   E0           MOVX    A,@DPTR
   \   000001   F5..         MOV     ?V0 + 2,A
   \   000003   A3           INC     DPTR
   \   000004   E0           MOVX    A,@DPTR
   \   000005   F5..         MOV     ?V0 + 3,A
   \   000007   22           RET

   \                                 In  segment BANKED_CODE, align 1, keep-with-next
   \                     ?Subroutine44:
   \   000000   E0           MOVX    A,@DPTR
   \   000001   8882         MOV     DPL,R0
   \   000003   8983         MOV     DPH,R1
   \   000005   F0           MOVX    @DPTR,A
   \   000006   22           RET

   \                                 In  segment BANKED_CODE, align 1, keep-with-next
   \                     ?Subroutine36:
   \   000000   E0           MOVX    A,@DPTR
   \   000001   F5..         MOV     ?V0 + 4,A
   \   000003   A3           INC     DPTR
   \   000004   E0           MOVX    A,@DPTR
   \   000005   F5..         MOV     ?V0 + 5,A
   \   000007   22           RET

   \                                 In  segment BANKED_CODE, align 1, keep-with-next
   \                     ??Subroutine128_0:
   \   000000   12....       LCALL   ??fillAndSend?relay
   \   000003   7402         MOV     A,#0x2
   \   000005   22           RET
    268          
    269          /*********************************************************************
    270           * @fn          ZDP_NWKAddrOfInterestReq
    271           *
    272           * @brief       This builds and send a request message that has
    273           *              NWKAddrOfInterest as its only parameter.
    274           *
    275           * @param       dstAddr - destination address
    276           * @param       nwkAddr - 16 bit address
    277           * @param       SecurityEnable - Security Options
    278           *
    279           * @return      afStatus_t
    280           */

   \                                 In  segment BANKED_CODE, align 1, keep-with-next
    281          afStatus_t ZDP_NWKAddrOfInterestReq( zAddrType_t *dstAddr, uint16 nwkAddr,
   \                     ZDP_NWKAddrOfInterestReq:
    282                                               byte cmd, byte SecurityEnable )
    283          {
   \   000000   74F6         MOV     A,#-0xa
   \   000002   12....       LCALL   ?BANKED_ENTER_XDATA
   \   000005                ; Saved register size: 10
   \   000005                ; Auto size: 0
   \   000005   E9           MOV     A,R1
   \   000006   FE           MOV     R6,A
    284            (void)SecurityEnable;  // Intentionally unreferenced parameter
    285          
    286            ZDP_TmpBuf[0] = LO_UINT16( nwkAddr );
   \   000007   12....       LCALL   ?Subroutine18 & 0xFFFF
    287            ZDP_TmpBuf[1] = HI_UINT16( nwkAddr );
    288          
    289            return fillAndSend( &ZDP_TransID, dstAddr, cmd, 2 );
   \                     ??CrossCallReturnLabel_9:
   \   00000A                ; Setup parameters for call to function fillAndSend
   \   00000A   8E..         MOV     ?V0 + 0,R6
   \   00000C   02....       LJMP    ?Subroutine2 & 0xFFFF
    290          }

   \                                 In  segment BANKED_CODE, align 1, keep-with-next
   \                     ?Subroutine2:
   \   000000   75..00       MOV     ?V0 + 1,#0x0
   \   000003   78..         MOV     R0,#?V0 + 0
   \   000005   12....       LCALL   ?PUSH_XSTACK_I_TWO
   \   000008   7902         MOV     R1,#0x2
   \   00000A                REQUIRE ??Subroutine95_0
   \   00000A                ; // Fall through to label ??Subroutine95_0

   \                                 In  segment BANKED_CODE, align 1, keep-with-next
   \                     ??Subroutine95_0:
   \   000000   EA           MOV     A,R2
   \   000001   FC           MOV     R4,A
   \   000002   EB           MOV     A,R3
   \   000003   FD           MOV     R5,A
   \   000004   7A..         MOV     R2,#ZDP_TransID & 0xff
   \   000006   7B..         MOV     R3,#(ZDP_TransID >> 8) & 0xff
   \   000008                REQUIRE ??Subroutine96_0
   \   000008                ; // Fall through to label ??Subroutine96_0

   \                                 In  segment BANKED_CODE, align 1, keep-with-next
   \                     ??Subroutine96_0:
   \   000000   12....       LCALL   ??Subroutine128_0 & 0xFFFF
   \                     ??CrossCallReturnLabel_278:
   \   000003                REQUIRE ??Subroutine97_0
   \   000003                ; // Fall through to label ??Subroutine97_0

   \                                 In  segment BANKED_CODE, align 1, keep-with-next
   \                     ??Subroutine97_0:
   \   000000   12....       LCALL   ?DEALLOC_XSTACK8
   \   000003   7F02         MOV     R7,#0x2
   \   000005   02....       LJMP    ?BANKED_LEAVE_XDATA

   \                                 In  segment BANKED_CODE, align 1, keep-with-next
   \                     ?Subroutine18:
   \   000000   90....       MOV     DPTR,#ZDP_TmpBuf
   \   000003   12....       LCALL   ?Subroutine86 & 0xFFFF
   \                     ??CrossCallReturnLabel_192:
   \   000006   EC           MOV     A,R4
   \   000007   F0           MOVX    @DPTR,A
   \   000008   12....       LCALL   ?Subroutine82 & 0xFFFF
   \                     ??CrossCallReturnLabel_138:
   \   00000B   ED           MOV     A,R5
   \   00000C   F0           MOVX    @DPTR,A
   \   00000D   22           RET

   \                                 In  segment BANKED_CODE, align 1, keep-with-next
   \                     ?Subroutine82:
   \   000000   90....       MOV     DPTR,#ZDP_TmpBuf
   \   000003   12....       LCALL   ?Subroutine92 & 0xFFFF
   \                     ??CrossCallReturnLabel_194:
   \   000006   A3           INC     DPTR
   \   000007   22           RET

   \                                 In  segment BANKED_CODE, align 1, keep-with-next
   \                     ?Subroutine86:
   \   000000   12....       LCALL   ?Subroutine92 & 0xFFFF
   \                     ??CrossCallReturnLabel_195:
   \   000003   22           RET

   \                                 In  segment BANKED_CODE, align 1, keep-with-next
   \                     ?Subroutine92:
   \   000000   E0           MOVX    A,@DPTR
   \   000001   F8           MOV     R0,A
   \   000002   A3           INC     DPTR
   \   000003   E0           MOVX    A,@DPTR
   \   000004   F583         MOV     DPH,A
   \   000006   8882         MOV     DPL,R0
   \   000008   22           RET
    291          
    292          /*********************************************************************
    293           * Address Requests
    294           */
    295          
    296          /*********************************************************************
    297           * @fn          ZDP_NwkAddrReq
    298           *
    299           * @brief       This builds and send a NWK_addr_req message.  This
    300           *              function sends a broadcast message looking for a 16
    301           *              bit address with a 64 bit address as bait.
    302           *
    303           * @param       IEEEAddress - looking for this device
    304           * @param       SecurityEnable - Security Options
    305           *
    306           * @return      afStatus_t
    307           */

   \                                 In  segment BANKED_CODE, align 1, keep-with-next
    308          afStatus_t ZDP_NwkAddrReq( uint8 *IEEEAddress, byte ReqType,
   \                     ZDP_NwkAddrReq:
    309                                     byte StartIndex, byte SecurityEnable )
    310          {
   \   000000   74F2         MOV     A,#-0xe
   \   000002   12....       LCALL   ?BANKED_ENTER_XDATA
   \   000005                ; Saved register size: 14
   \   000005                ; Auto size: 9
   \   000005   74F7         MOV     A,#-0x9
   \   000007   12....       LCALL   ?ALLOC_XSTACK8
   \   00000A   EA           MOV     A,R2
   \   00000B   FE           MOV     R6,A
   \   00000C   EB           MOV     A,R3
   \   00000D   FF           MOV     R7,A
   \   00000E   89..         MOV     ?V0 + 2,R1
   \   000010   8C..         MOV     ?V0 + 3,R4
    311            uint8 *pBuf = ZDP_TmpBuf;
   \   000012   12....       LCALL   ?Subroutine42 & 0xFFFF
    312            byte len = Z_EXTADDR_LEN + 1 + 1;  // IEEEAddress + ReqType + StartIndex.
    313            zAddrType_t dstAddr;
    314          
    315            (void)SecurityEnable;  // Intentionally unreferenced parameter
    316          
    317            if ( osal_ExtAddrEqual( saveExtAddr, IEEEAddress ) == FALSE )
   \                     ??CrossCallReturnLabel_223:
   \   000015                ; Setup parameters for call to function sAddrExtCmp
   \   000015   EE           MOV     A,R6
   \   000016   FC           MOV     R4,A
   \   000017   EF           MOV     A,R7
   \   000018   FD           MOV     R5,A
   \   000019   7A..         MOV     R2,#saveExtAddr & 0xff
   \   00001B   7B..         MOV     R3,#(saveExtAddr >> 8) & 0xff
   \   00001D   12....       LCALL   ??sAddrExtCmp?relay
   \   000020   E9           MOV     A,R1
   \   000021   700A         JNZ     ??ZDP_NwkAddrReq_0
    318            {
    319              dstAddr.addrMode = AddrBroadcast;
   \   000023   7408         MOV     A,#0x8
   \   000025   12....       LCALL   ?XSTACK_DISP0_8
   \   000028   12....       LCALL   ?Subroutine75 & 0xFFFF
    320              dstAddr.addr.shortAddr = NWK_BROADCAST_SHORTADDR_DEVRXON;
    321            }
   \                     ??CrossCallReturnLabel_108:
   \   00002B   800E         SJMP    ??CrossCallReturnLabel_31
    322            else
    323            {
    324              dstAddr.addrMode = Addr16Bit;
   \                     ??ZDP_NwkAddrReq_0:
   \   00002D   7408         MOV     A,#0x8
   \   00002F   12....       LCALL   ?XSTACK_DISP0_8
   \   000032   7402         MOV     A,#0x2
   \   000034   F0           MOVX    @DPTR,A
    325              dstAddr.addr.shortAddr = ZDAppNwkAddr.addr.shortAddr;
   \   000035   90....       MOV     DPTR,#ZDAppNwkAddr
   \   000038   12....       LCALL   ?Subroutine29 & 0xFFFF
    326            }
   \                     ??CrossCallReturnLabel_31:
   \   00003B   F0           MOVX    @DPTR,A
    327          
    328            pBuf = osal_cpyExtAddr( pBuf, IEEEAddress );
   \   00003C                ; Setup parameters for call to function sAddrExtCpy
   \   00003C   EE           MOV     A,R6
   \   00003D   FC           MOV     R4,A
   \   00003E   EF           MOV     A,R7
   \   00003F   FD           MOV     R5,A
   \   000040   AA..         MOV     R2,?V0 + 0
   \   000042   AB..         MOV     R3,?V0 + 1
   \   000044   12....       LCALL   ?Subroutine72 & 0xFFFF
    329          
    330            *pBuf++ = ReqType;
   \                     ??CrossCallReturnLabel_101:
   \   000047   E5..         MOV     A,?V0 + 2
   \   000049   F0           MOVX    @DPTR,A
   \   00004A   A3           INC     DPTR
    331            *pBuf++ = StartIndex;
   \   00004B   E5..         MOV     A,?V0 + 3
   \   00004D   F0           MOVX    @DPTR,A
    332          
    333            return fillAndSend( &ZDP_TransID, &dstAddr, NWK_addr_req, len );
   \   00004E                ; Setup parameters for call to function fillAndSend
   \   00004E   E4           CLR     A
   \   00004F   F5..         MOV     ?V0 + 0,A
   \   000051   F5..         MOV     ?V0 + 1,A
   \   000053   78..         MOV     R0,#?V0 + 0
   \   000055   12....       LCALL   ?PUSH_XSTACK_I_TWO
   \   000058   790A         MOV     R1,#0xa
   \   00005A   7402         MOV     A,#0x2
   \   00005C   12....       LCALL   ?XSTACK_DISP0_8
   \   00005F   12....       LCALL   ?Subroutine70 & 0xFFFF
   \                     ??CrossCallReturnLabel_267:
   \   000062   12....       LCALL   ?DEALLOC_XSTACK8
   \   000065   7409         MOV     A,#0x9
   \   000067   12....       LCALL   ?DEALLOC_XSTACK8
   \   00006A   80..         SJMP    ?Subroutine1
    334          }

   \                                 In  segment BANKED_CODE, align 1, keep-with-next
   \                     ?Subroutine75:
   \   000000   740F         MOV     A,#0xf
   \   000002   F0           MOVX    @DPTR,A
   \   000003   85..82       MOV     DPL,?XSP + 0
   \   000006   85..83       MOV     DPH,?XSP + 1
   \   000009   74FD         MOV     A,#-0x3
   \   00000B   F0           MOVX    @DPTR,A
   \   00000C   A3           INC     DPTR
   \   00000D   74FF         MOV     A,#-0x1
   \   00000F   22           RET

   \                                 In  segment BANKED_CODE, align 1, keep-with-next
   \                     ?Subroutine72:
   \   000000   12....       LCALL   ??sAddrExtCpy?relay
   \   000003   8A82         MOV     DPL,R2
   \   000005   8B83         MOV     DPH,R3
   \   000007   22           RET

   \                                 In  segment BANKED_CODE, align 1, keep-with-next
   \                     ?Subroutine42:
   \   000000   90....       MOV     DPTR,#ZDP_TmpBuf
   \   000003                REQUIRE ??Subroutine119_0
   \   000003                ; // Fall through to label ??Subroutine119_0

   \                                 In  segment BANKED_CODE, align 1, keep-with-next
   \                     ?Subroutine70:
   \   000000   AC82         MOV     R4,DPL
   \   000002   AD83         MOV     R5,DPH
   \   000004                REQUIRE ??Subroutine127_0
   \   000004                ; // Fall through to label ??Subroutine127_0

   \                                 In  segment BANKED_CODE, align 1, keep-with-next
   \                     ??Subroutine127_0:
   \   000000   7A..         MOV     R2,#ZDP_TransID & 0xff
   \   000002   7B..         MOV     R3,#(ZDP_TransID >> 8) & 0xff
   \   000004                REQUIRE ??Subroutine128_0
   \   000004                ; // Fall through to label ??Subroutine128_0
    335          
    336          /*********************************************************************
    337           * @fn          ZDP_IEEEAddrReq
    338           *
    339           * @brief       This builds and send a IEEE_addr_req message.  This
    340           *              function sends a unicast message looking for a 64
    341           *              bit IEEE address with a 16 bit address as bait.
    342           *
    343           * @param       ReqType - ZDP_IEEEADDR_REQTYPE_SINGLE or
    344           *                        ZDP_IEEEADDR_REQTYPE_EXTENDED
    345           * @param       SecurityEnable - Security Options
    346           *
    347           * @return      afStatus_t
    348           */

   \                                 In  segment BANKED_CODE, align 1, keep-with-next
    349          afStatus_t ZDP_IEEEAddrReq( uint16 shortAddr, byte ReqType,
   \                     ZDP_IEEEAddrReq:
    350                                      byte StartIndex, byte SecurityEnable )
    351          {
   \   000000   74F6         MOV     A,#-0xa
   \   000002   12....       LCALL   ?BANKED_ENTER_XDATA
   \   000005                ; Saved register size: 10
   \   000005                ; Auto size: 9
   \   000005   74F7         MOV     A,#-0x9
   \   000007   12....       LCALL   ?ALLOC_XSTACK8
   \   00000A   E9           MOV     A,R1
   \   00000B   FE           MOV     R6,A
   \   00000C   EC           MOV     A,R4
   \   00000D   FF           MOV     R7,A
    352            uint8 *pBuf = ZDP_TmpBuf;
   \   00000E   90....       MOV     DPTR,#ZDP_TmpBuf
   \   000011   12....       LCALL   ??Subroutine112_0 & 0xFFFF
    353            byte len = 2 + 1 + 1;  // shortAddr + ReqType + StartIndex.
    354            zAddrType_t dstAddr;
    355          
    356            (void)SecurityEnable;  // Intentionally unreferenced parameter
    357          
    358            dstAddr.addrMode = (afAddrMode_t)Addr16Bit;
   \                     ??CrossCallReturnLabel_168:
   \   000014   7408         MOV     A,#0x8
   \   000016   12....       LCALL   ?XSTACK_DISP0_8
   \   000019   7402         MOV     A,#0x2
   \   00001B   F0           MOVX    @DPTR,A
    359            dstAddr.addr.shortAddr = shortAddr;
   \   00001C   85..82       MOV     DPL,?XSP + 0
   \   00001F   85..83       MOV     DPH,?XSP + 1
   \   000022   EA           MOV     A,R2
   \   000023   F0           MOVX    @DPTR,A
   \   000024   A3           INC     DPTR
   \   000025   EB           MOV     A,R3
   \   000026   F0           MOVX    @DPTR,A
    360          
    361            *pBuf++ = LO_UINT16( shortAddr );
   \   000027   EA           MOV     A,R2
   \   000028   8882         MOV     DPL,R0
   \   00002A   8983         MOV     DPH,R1
   \   00002C   F0           MOVX    @DPTR,A
   \   00002D   A3           INC     DPTR
    362            *pBuf++ = HI_UINT16( shortAddr );
   \   00002E   EB           MOV     A,R3
   \   00002F   F0           MOVX    @DPTR,A
   \   000030   A3           INC     DPTR
    363          
    364            *pBuf++ = ReqType;
   \   000031   EE           MOV     A,R6
   \   000032   F0           MOVX    @DPTR,A
   \   000033   A3           INC     DPTR
    365            *pBuf++ = StartIndex;
   \   000034   EF           MOV     A,R7
   \   000035   F0           MOVX    @DPTR,A
    366          
    367            return fillAndSend( &ZDP_TransID, &dstAddr, IEEE_addr_req, len );
   \   000036                ; Setup parameters for call to function fillAndSend
   \   000036   75..01       MOV     ?V0 + 0,#0x1
   \   000039   75..00       MOV     ?V0 + 1,#0x0
   \   00003C   78..         MOV     R0,#?V0 + 0
   \   00003E   12....       LCALL   ?PUSH_XSTACK_I_TWO
   \   000041   7904         MOV     R1,#0x4
   \   000043                REQUIRE ?Subroutine8
   \   000043                ; // Fall through to label ?Subroutine8
    368          }

   \                                 In  segment BANKED_CODE, align 1, keep-with-next
   \                     ?Subroutine8:
   \   000000   7402         MOV     A,#0x2
   \   000002   12....       LCALL   ?XSTACK_DISP0_8
   \   000005   12....       LCALL   ?Subroutine70 & 0xFFFF
   \                     ??CrossCallReturnLabel_268:
   \   000008   12....       LCALL   ?DEALLOC_XSTACK8
   \   00000B                REQUIRE ??Subroutine94_0
   \   00000B                ; // Fall through to label ??Subroutine94_0

   \                                 In  segment BANKED_CODE, align 1, keep-with-next
   \                     ??Subroutine94_0:
   \   000000   7409         MOV     A,#0x9
   \   000002   80..         SJMP    ??Subroutine97_0

   \                                 In  segment BANKED_CODE, align 1, keep-with-next
   \                     ??Subroutine112_0:
   \   000000   12....       LCALL   ?Subroutine84 & 0xFFFF
   \                     ??CrossCallReturnLabel_187:
   \   000003   22           RET
    369          
    370          /*********************************************************************
    371           * @fn          ZDP_MatchDescReq
    372           *
    373           * @brief       This builds and send a Match_Desc_req message.  This
    374           *              function sends a broadcast or unicast message
    375           *              requesting the list of endpoint/interfaces that
    376           *              match profile ID and cluster IDs.
    377           *
    378           * @param       dstAddr - destination address
    379           * @param       nwkAddr - network address of interest
    380           * @param       ProfileID - Profile ID
    381           * @param       NumInClusters - number of input clusters
    382           * @param       InClusterList - input cluster ID list
    383           * @param       NumOutClusters - number of output clusters
    384           * @param       OutClusterList - output cluster ID list
    385           * @param       SecurityEnable - Security Options
    386           *
    387           * @return      afStatus_t
    388           */

   \                                 In  segment BANKED_CODE, align 1, keep-with-next
    389          afStatus_t ZDP_MatchDescReq( zAddrType_t *dstAddr, uint16 nwkAddr,
   \                     ZDP_MatchDescReq:
    390                                          uint16 ProfileID,
    391                                          byte NumInClusters, cId_t *InClusterList,
    392                                          byte NumOutClusters, cId_t *OutClusterList,
    393                                          byte SecurityEnable )
    394          {
   \   000000   74EE         MOV     A,#-0x12
   \   000002   12....       LCALL   ?BANKED_ENTER_XDATA
   \   000005                ; Saved register size: 18
   \   000005                ; Auto size: 0
   \   000005   E9           MOV     A,R1
   \   000006   FE           MOV     R6,A
   \   000007   7412         MOV     A,#0x12
   \   000009   12....       LCALL   ?XSTACK_DISP0_8
   \   00000C   12....       LCALL   ??Subroutine119_0 & 0xFFFF
   \                     ??CrossCallReturnLabel_216:
   \   00000F   7414         MOV     A,#0x14
   \   000011   12....       LCALL   ?XSTACK_DISP0_8
   \   000014   12....       LCALL   ??Subroutine112_0 & 0xFFFF
   \                     ??CrossCallReturnLabel_169:
   \   000017   88..         MOV     ?V0 + 2,R0
   \   000019   89..         MOV     ?V0 + 3,R1
   \   00001B   7416         MOV     A,#0x16
   \   00001D   12....       LCALL   ?XSTACK_DISP0_8
   \   000020   E0           MOVX    A,@DPTR
   \   000021   FF           MOV     R7,A
   \   000022   7417         MOV     A,#0x17
   \   000024   12....       LCALL   ?XSTACK_DISP0_8
   \   000027   12....       LCALL   ??Subroutine112_0 & 0xFFFF
   \                     ??CrossCallReturnLabel_170:
   \   00002A   88..         MOV     ?V0 + 6,R0
   \   00002C   89..         MOV     ?V0 + 7,R1
    395            uint8 *pBuf = ZDP_TmpBuf;
   \   00002E   12....       LCALL   ?Subroutine43 & 0xFFFF
    396            // nwkAddr+ProfileID+NumInClusters+NumOutClusters.
    397            byte i, len = 2 + 2 + 1 + 1;  // nwkAddr+ProfileID+NumInClusters+NumOutClusters.
    398          
    399            (void)SecurityEnable;  // Intentionally unreferenced parameter
    400          
    401            len += (NumInClusters + NumOutClusters) * sizeof(uint16);
   \                     ??CrossCallReturnLabel_54:
   \   000031   2F           ADD     A,R7
   \   000032   C3           CLR     C
   \   000033   33           RLC     A
   \   000034   2406         ADD     A,#0x6
   \   000036   F5..         MOV     ?V0 + 4,A
    402          
    403            if ( len >= ZDP_BUF_SZ-1 )
   \   000038   C3           CLR     C
   \   000039   944F         SUBB    A,#0x4f
   \   00003B   4005         JC      ??ZDP_MatchDescReq_0
    404            {
    405              return afStatus_MEM_FAIL;
   \   00003D   7910         MOV     R1,#0x10
   \   00003F   02....       LJMP    ??ZDP_MatchDescReq_1 & 0xFFFF
    406            }
    407          
    408            // The spec changed in Zigbee 2007 (2.4.3.1.7.1) to not allow sending
    409            // this command to 0xFFFF.  So, here we will filter this and replace 
    410            // with 0xFFFD to only send to devices with RX ON.  This includes the 
    411            // network address of interest.
    412            if ( ((dstAddr->addrMode == AddrBroadcast) || (dstAddr->addrMode == Addr16Bit))
    413                && (dstAddr->addr.shortAddr == NWK_BROADCAST_SHORTADDR_DEVALL) )
   \                     ??ZDP_MatchDescReq_0:
   \   000042   8A82         MOV     DPL,R2
   \   000044   8B83         MOV     DPH,R3
   \   000046   A3           INC     DPTR
   \   000047   A3           INC     DPTR
   \   000048   A3           INC     DPTR
   \   000049   A3           INC     DPTR
   \   00004A   A3           INC     DPTR
   \   00004B   A3           INC     DPTR
   \   00004C   A3           INC     DPTR
   \   00004D   A3           INC     DPTR
   \   00004E   E0           MOVX    A,@DPTR
   \   00004F   640F         XRL     A,#0xf
   \   000051   6011         JZ      ??ZDP_MatchDescReq_2
   \   000053   8A82         MOV     DPL,R2
   \   000055   8B83         MOV     DPH,R3
   \   000057   A3           INC     DPTR
   \   000058   A3           INC     DPTR
   \   000059   A3           INC     DPTR
   \   00005A   A3           INC     DPTR
   \   00005B   A3           INC     DPTR
   \   00005C   A3           INC     DPTR
   \   00005D   A3           INC     DPTR
   \   00005E   A3           INC     DPTR
   \   00005F   E0           MOVX    A,@DPTR
   \   000060   6402         XRL     A,#0x2
   \   000062   7018         JNZ     ??ZDP_MatchDescReq_3
   \                     ??ZDP_MatchDescReq_2:
   \   000064   8A82         MOV     DPL,R2
   \   000066   8B83         MOV     DPH,R3
   \   000068   E0           MOVX    A,@DPTR
   \   000069   F4           CPL     A
   \   00006A   7003         JNZ     ??ZDP_MatchDescReq_4
   \   00006C   A3           INC     DPTR
   \   00006D   E0           MOVX    A,@DPTR
   \   00006E   F4           CPL     A
   \                     ??ZDP_MatchDescReq_4:
   \   00006F   700B         JNZ     ??ZDP_MatchDescReq_3
    414            {
    415              dstAddr->addr.shortAddr = NWK_BROADCAST_SHORTADDR_DEVRXON;
   \   000071   8A82         MOV     DPL,R2
   \   000073   8B83         MOV     DPH,R3
   \   000075   74FD         MOV     A,#-0x3
   \   000077   F0           MOVX    @DPTR,A
   \   000078   A3           INC     DPTR
   \   000079   74FF         MOV     A,#-0x1
   \   00007B   F0           MOVX    @DPTR,A
    416            }
    417            if ( nwkAddr == NWK_BROADCAST_SHORTADDR_DEVALL )
   \                     ??ZDP_MatchDescReq_3:
   \   00007C   74FF         MOV     A,#-0x1
   \   00007E   6C           XRL     A,R4
   \   00007F   7003         JNZ     ??ZDP_MatchDescReq_5
   \   000081   74FF         MOV     A,#-0x1
   \   000083   6D           XRL     A,R5
   \                     ??ZDP_MatchDescReq_5:
   \   000084   7004         JNZ     ??ZDP_MatchDescReq_6
    418            {
    419              nwkAddr = NWK_BROADCAST_SHORTADDR_DEVRXON;
   \   000086   7CFD         MOV     R4,#-0x3
   \   000088   7DFF         MOV     R5,#-0x1
    420            }
    421            
    422            *pBuf++ = LO_UINT16( nwkAddr );   // NWKAddrOfInterest
   \                     ??ZDP_MatchDescReq_6:
   \   00008A   EC           MOV     A,R4
   \   00008B   8882         MOV     DPL,R0
   \   00008D   8983         MOV     DPH,R1
   \   00008F   F0           MOVX    @DPTR,A
   \   000090   A3           INC     DPTR
    423            *pBuf++ = HI_UINT16( nwkAddr );
   \   000091   ED           MOV     A,R5
   \   000092   12....       LCALL   ?Subroutine57 & 0xFFFF
    424          
    425            *pBuf++ = LO_UINT16( ProfileID );   // Profile ID
    426            *pBuf++ = HI_UINT16( ProfileID );
    427          
    428            *pBuf++ = NumInClusters; // Input cluster list
   \                     ??CrossCallReturnLabel_76:
   \   000095   EE           MOV     A,R6
   \   000096   12....       LCALL   ??Subroutine121_0 & 0xFFFF
    429            if ( NumInClusters )
   \                     ??CrossCallReturnLabel_234:
   \   000099   6017         JZ      ??ZDP_MatchDescReq_7
    430            {
    431              for (i=0; i<NumInClusters; ++i)  {
   \   00009B   75..00       MOV     ?V0 + 0,#0x0
    432                *pBuf++ = LO_UINT16( InClusterList[i] );
   \                     ??ZDP_MatchDescReq_8:
   \   00009E   E5..         MOV     A,?V0 + 0
   \   0000A0   C3           CLR     C
   \   0000A1   33           RLC     A
   \   0000A2   FC           MOV     R4,A
   \   0000A3   E4           CLR     A
   \   0000A4   33           RLC     A
   \   0000A5   FD           MOV     R5,A
   \   0000A6   E5..         MOV     A,?V0 + 2
   \   0000A8   2C           ADD     A,R4
   \   0000A9   FC           MOV     R4,A
   \   0000AA   E5..         MOV     A,?V0 + 3
   \   0000AC   12....       LCALL   ?Subroutine13 & 0xFFFF
    433                *pBuf++ = HI_UINT16( InClusterList[i] );
    434              }
    435            }
   \                     ??CrossCallReturnLabel_2:
   \   0000AF   9E           SUBB    A,R6
   \   0000B0   40EC         JC      ??ZDP_MatchDescReq_8
    436          
    437            *pBuf++ = NumOutClusters; // Output cluster list
   \                     ??ZDP_MatchDescReq_7:
   \   0000B2   EF           MOV     A,R7
   \   0000B3   12....       LCALL   ?Subroutine52 & 0xFFFF
    438            if ( NumOutClusters )
   \                     ??CrossCallReturnLabel_237:
   \   0000B6   6017         JZ      ??ZDP_MatchDescReq_9
    439            {
    440              for (i=0; i<NumOutClusters; ++i)  {
   \   0000B8   75..00       MOV     ?V0 + 0,#0x0
    441                *pBuf++ = LO_UINT16( OutClusterList[i] );
   \                     ??ZDP_MatchDescReq_10:
   \   0000BB   E5..         MOV     A,?V0 + 0
   \   0000BD   C3           CLR     C
   \   0000BE   33           RLC     A
   \   0000BF   FC           MOV     R4,A
   \   0000C0   E4           CLR     A
   \   0000C1   33           RLC     A
   \   0000C2   FD           MOV     R5,A
   \   0000C3   E5..         MOV     A,?V0 + 6
   \   0000C5   2C           ADD     A,R4
   \   0000C6   FC           MOV     R4,A
   \   0000C7   E5..         MOV     A,?V0 + 7
   \   0000C9   12....       LCALL   ?Subroutine13 & 0xFFFF
    442                *pBuf++ = HI_UINT16( OutClusterList[i] );
    443              }
    444            }
   \                     ??CrossCallReturnLabel_3:
   \   0000CC   9F           SUBB    A,R7
   \   0000CD   40EC         JC      ??ZDP_MatchDescReq_10
    445          
    446            return fillAndSend( &ZDP_TransID, dstAddr, Match_Desc_req, len );
   \                     ??ZDP_MatchDescReq_9:
   \   0000CF                ; Setup parameters for call to function fillAndSend
   \   0000CF   75..06       MOV     ?V0 + 0,#0x6
   \   0000D2   75..00       MOV     ?V0 + 1,#0x0
   \   0000D5   78..         MOV     R0,#?V0 + 0
   \   0000D7   12....       LCALL   ?PUSH_XSTACK_I_TWO
   \   0000DA   A9..         MOV     R1,?V0 + 4
   \   0000DC   EA           MOV     A,R2
   \   0000DD   FC           MOV     R4,A
   \   0000DE   EB           MOV     A,R3
   \   0000DF   FD           MOV     R5,A
   \   0000E0   12....       LCALL   ??Subroutine127_0 & 0xFFFF
   \                     ??CrossCallReturnLabel_270:
   \   0000E3   12....       LCALL   ?DEALLOC_XSTACK8
   \                     ??ZDP_MatchDescReq_1:
   \   0000E6   02....       LJMP    ??Subroutine109_0 & 0xFFFF
    447          }

   \                                 In  segment BANKED_CODE, align 1, keep-with-next
   \                     ?Subroutine13:
   \   000000   3D           ADDC    A,R5
   \   000001   FD           MOV     R5,A
   \   000002   8C82         MOV     DPL,R4
   \   000004   8D83         MOV     DPH,R5
   \   000006   12....       LCALL   ?Subroutine76 & 0xFFFF
   \                     ??CrossCallReturnLabel_240:
   \   000009   8C82         MOV     DPL,R4
   \   00000B   8D83         MOV     DPH,R5
   \   00000D   12....       LCALL   ?Subroutine80 & 0xFFFF
   \                     ??CrossCallReturnLabel_248:
   \   000010   05..         INC     ?V0 + 0
   \   000012   E5..         MOV     A,?V0 + 0
   \   000014   C3           CLR     C
   \   000015   22           RET

   \                                 In  segment BANKED_CODE, align 1, keep-with-next
   \                     ?Subroutine76:
   \   000000   E0           MOVX    A,@DPTR
   \   000001   8882         MOV     DPL,R0
   \   000003   8983         MOV     DPH,R1
   \   000005                REQUIRE ??Subroutine106_0
   \   000005                ; // Fall through to label ??Subroutine106_0

   \                                 In  segment BANKED_CODE, align 1, keep-with-next
   \                     ??Subroutine106_0:
   \   000000   F0           MOVX    @DPTR,A
   \   000001   A3           INC     DPTR
   \   000002   A882         MOV     R0,DPL
   \   000004   A983         MOV     R1,DPH
   \   000006   22           RET

   \                                 In  segment BANKED_CODE, align 1, keep-with-next
   \                     ??Subroutine109_0:
   \   000000   7F0A         MOV     R7,#0xa
   \   000002   02....       LJMP    ?BANKED_LEAVE_XDATA

   \                                 In  segment BANKED_CODE, align 1, keep-with-next
   \                     ?Subroutine57:
   \   000000   F0           MOVX    @DPTR,A
   \   000001   A3           INC     DPTR
   \   000002   E5..         MOV     A,?V0 + 0
   \   000004   F0           MOVX    @DPTR,A
   \   000005   A3           INC     DPTR
   \   000006   E5..         MOV     A,?V0 + 1
   \   000008   F0           MOVX    @DPTR,A
   \   000009   A3           INC     DPTR
   \   00000A   22           RET

   \                                 In  segment BANKED_CODE, align 1, keep-with-next
   \                     ?Subroutine52:
   \   000000   8882         MOV     DPL,R0
   \   000002   8983         MOV     DPH,R1
   \   000004                REQUIRE ??Subroutine121_0
   \   000004                ; // Fall through to label ??Subroutine121_0

   \                                 In  segment BANKED_CODE, align 1, keep-with-next
   \                     ??Subroutine121_0:
   \   000000   12....       LCALL   ??Subroutine106_0 & 0xFFFF
   \                     ??CrossCallReturnLabel_242:
   \   000003   22           RET

   \                                 In  segment BANKED_CODE, align 1, keep-with-next
   \                     ?Subroutine80:
   \   000000   A3           INC     DPTR
   \   000001                REQUIRE ??Subroutine122_0
   \   000001                ; // Fall through to label ??Subroutine122_0

   \                                 In  segment BANKED_CODE, align 1, keep-with-next
   \                     ??Subroutine122_0:
   \   000000   E0           MOVX    A,@DPTR
   \   000001                REQUIRE ??Subroutine123_0
   \   000001                ; // Fall through to label ??Subroutine123_0

   \                                 In  segment BANKED_CODE, align 1, keep-with-next
   \                     ??Subroutine123_0:
   \   000000   8882         MOV     DPL,R0
   \   000002   8983         MOV     DPH,R1
   \   000004   F0           MOVX    @DPTR,A
   \   000005   A3           INC     DPTR
   \   000006   08           INC     R0
   \   000007   A983         MOV     R1,DPH
   \   000009   22           RET
    448          
    449          /*********************************************************************
    450           * @fn          ZDP_SimpleDescReq
    451           *
    452           * @brief       This builds and send a NWK_Simple_Desc_req
    453           *              message.  This function sends unicast message to the
    454           *              destination device.
    455           *
    456           * @param       dstAddr - destination address
    457           * @param       nwkAddr - 16 bit address
    458           * @param       epIntf - endpoint/interface
    459           * @param       SecurityEnable - Security Options
    460           *
    461           * @return      afStatus_t
    462           */

   \                                 In  segment BANKED_CODE, align 1, keep-with-next
    463          afStatus_t ZDP_SimpleDescReq( zAddrType_t *dstAddr, uint16 nwkAddr,
   \                     ZDP_SimpleDescReq:
    464                                              byte endPoint, byte SecurityEnable )
    465          
    466          {
   \   000000   74F6         MOV     A,#-0xa
   \   000002   12....       LCALL   ?BANKED_ENTER_XDATA
   \   000005                ; Saved register size: 10
   \   000005                ; Auto size: 0
    467            (void)SecurityEnable;  // Intentionally unreferenced parameter
    468          
    469            ZDP_TmpBuf[0] = LO_UINT16( nwkAddr );
   \   000005   12....       LCALL   ?Subroutine18 & 0xFFFF
    470            ZDP_TmpBuf[1] = HI_UINT16( nwkAddr );
    471            ZDP_TmpBuf[2] = endPoint;
   \                     ??CrossCallReturnLabel_10:
   \   000008   12....       LCALL   ?Subroutine31 & 0xFFFF
    472          
    473            return fillAndSend( &ZDP_TransID, dstAddr, Simple_Desc_req, 3 );
   \                     ??CrossCallReturnLabel_32:
   \   00000B                ; Setup parameters for call to function fillAndSend
   \   00000B   75..04       MOV     ?V0 + 0,#0x4
   \   00000E   75..00       MOV     ?V0 + 1,#0x0
   \   000011   78..         MOV     R0,#?V0 + 0
   \   000013   12....       LCALL   ?PUSH_XSTACK_I_TWO
   \   000016   7903         MOV     R1,#0x3
   \   000018   02....       LJMP    ??Subroutine95_0 & 0xFFFF
    474          }

   \                                 In  segment BANKED_CODE, align 1, keep-with-next
   \                     ?Subroutine31:
   \   000000   12....       LCALL   ?Subroutine82 & 0xFFFF
   \                     ??CrossCallReturnLabel_139:
   \   000003   A3           INC     DPTR
   \   000004   E9           MOV     A,R1
   \   000005   F0           MOVX    @DPTR,A
   \   000006   22           RET
    475          
    476          /*********************************************************************
    477           * @fn          ZDP_UserDescSet
    478           *
    479           * @brief       This builds and send a User_Desc_set message to set
    480           *              the user descriptor.  This function sends unicast
    481           *              message to the destination device.
    482           *
    483           * @param       dstAddr - destination address
    484           * @param       nwkAddr - 16 bit address
    485           * @param       UserDescriptor - user descriptor
    486           * @param       SecurityEnable - Security Options
    487           *
    488           * @return      afStatus_t
    489           */

   \                                 In  segment BANKED_CODE, align 1, keep-with-next
    490          afStatus_t ZDP_UserDescSet( zAddrType_t *dstAddr, uint16 nwkAddr,
   \                     ZDP_UserDescSet:
    491                                    UserDescriptorFormat_t *UserDescriptor,
    492                                    byte SecurityEnable )
    493          {
   \   000000   74ED         MOV     A,#-0x13
   \   000002   12....       LCALL   ?BANKED_ENTER_XDATA
   \   000005                ; Saved register size: 19
   \   000005                ; Auto size: 0
   \   000005   8A..         MOV     ?V0 + 0,R2
   \   000007   8B..         MOV     ?V0 + 1,R3
   \   000009   7413         MOV     A,#0x13
   \   00000B   12....       LCALL   ?XSTACK_DISP0_8
   \   00000E   12....       LCALL   ??Subroutine112_0 & 0xFFFF
   \                     ??CrossCallReturnLabel_171:
   \   000011   E8           MOV     A,R0
   \   000012   FA           MOV     R2,A
   \   000013   E9           MOV     A,R1
   \   000014   FB           MOV     R3,A
    494            uint8 *pBuf = ZDP_TmpBuf;
   \   000015   90....       MOV     DPTR,#ZDP_TmpBuf
   \   000018   12....       LCALL   ??Subroutine103_0 & 0xFFFF
    495            byte len = (UserDescriptor->len < AF_MAX_USER_DESCRIPTOR_LEN) ?
    496                        UserDescriptor->len : AF_MAX_USER_DESCRIPTOR_LEN;
   \                     ??CrossCallReturnLabel_147:
   \   00001B   8A82         MOV     DPL,R2
   \   00001D   8B83         MOV     DPH,R3
   \   00001F   E0           MOVX    A,@DPTR
   \   000020   C3           CLR     C
   \   000021   9410         SUBB    A,#0x10
   \   000023   5005         JNC     ??ZDP_UserDescSet_0
   \   000025   E0           MOVX    A,@DPTR
   \   000026   F5..         MOV     ?V0 + 6,A
   \   000028   8003         SJMP    ??ZDP_UserDescSet_1
   \                     ??ZDP_UserDescSet_0:
   \   00002A   75..10       MOV     ?V0 + 6,#0x10
    497            byte addrLen = 2;
    498          
    499            (void)SecurityEnable;  // Intentionally unreferenced parameter
    500          
    501            *pBuf++ = LO_UINT16( nwkAddr );
   \                     ??ZDP_UserDescSet_1:
   \   00002D   EC           MOV     A,R4
   \   00002E   85..82       MOV     DPL,?V0 + 2
   \   000031   85..83       MOV     DPH,?V0 + 3
   \   000034   F0           MOVX    @DPTR,A
   \   000035   A3           INC     DPTR
    502            *pBuf++ = HI_UINT16( nwkAddr );
   \   000036   ED           MOV     A,R5
   \   000037   F0           MOVX    @DPTR,A
   \   000038   A3           INC     DPTR
    503          
    504            *pBuf++ = len;
   \   000039   E5..         MOV     A,?V0 + 6
   \   00003B   F0           MOVX    @DPTR,A
   \   00003C   A3           INC     DPTR
   \   00003D   8582..       MOV     ?V0 + 2,DPL
   \   000040   8583..       MOV     ?V0 + 3,DPH
    505            addrLen = 3;
    506          
    507            pBuf = osal_memcpy( pBuf, UserDescriptor->desc, len );
    508            osal_memset( pBuf, AF_USER_DESCRIPTOR_FILL, AF_MAX_USER_DESCRIPTOR_LEN-len );
   \   000043                ; Setup parameters for call to function osal_memset
   \   000043   F5..         MOV     ?V0 + 4,A
   \   000045   7410         MOV     A,#0x10
   \   000047   C3           CLR     C
   \   000048   95..         SUBB    A,?V0 + 4
   \   00004A   FC           MOV     R4,A
   \   00004B   95E0         SUBB    A,0xE0 /* A   */
   \   00004D   FD           MOV     R5,A
   \   00004E   7920         MOV     R1,#0x20
   \   000050   E9           MOV     A,R1
   \   000051   C0E0         PUSH    A
   \   000053   EC           MOV     A,R4
   \   000054   FE           MOV     R6,A
   \   000055   ED           MOV     A,R5
   \   000056   FF           MOV     R7,A
   \   000057                ; Setup parameters for call to function osal_memcpy
   \   000057   8A82         MOV     DPL,R2
   \   000059   8B83         MOV     DPH,R3
   \   00005B   A3           INC     DPTR
   \   00005C   A982         MOV     R1,DPL
   \   00005E   AA83         MOV     R2,DPH
   \   000060   89..         MOV     ?V0 + 8,R1
   \   000062   8A..         MOV     ?V0 + 9,R2
   \   000064   75..00       MOV     ?V0 + 10,#0x0
   \   000067   78..         MOV     R0,#?V0 + 8
   \   000069   12....       LCALL   ?PUSH_XSTACK_I_THREE
   \   00006C   AC..         MOV     R4,?V0 + 6
   \   00006E   7D00         MOV     R5,#0x0
   \   000070   AA..         MOV     R2,?V0 + 2
   \   000072   AB..         MOV     R3,?V0 + 3
   \   000074   12....       LCALL   ??Subroutine108_0 & 0xFFFF
   \                     ??CrossCallReturnLabel_166:
   \   000077   12....       LCALL   ?DEALLOC_XSTACK8
   \   00007A   EE           MOV     A,R6
   \   00007B   FC           MOV     R4,A
   \   00007C   EF           MOV     A,R7
   \   00007D   FD           MOV     R5,A
   \   00007E   D0E0         POP     A
   \   000080   F9           MOV     R1,A
   \   000081   12....       LCALL   ??osal_memset?relay
    509          
    510            return fillAndSend( &ZDP_TransID, dstAddr, User_Desc_set, (AF_MAX_USER_DESCRIPTOR_LEN + addrLen) );
   \   000084                ; Setup parameters for call to function fillAndSend
   \   000084   75..14       MOV     ?V0 + 2,#0x14
   \   000087   75..00       MOV     ?V0 + 3,#0x0
   \   00008A   78..         MOV     R0,#?V0 + 2
   \   00008C   12....       LCALL   ?PUSH_XSTACK_I_TWO
   \   00008F   7913         MOV     R1,#0x13
   \   000091   AC..         MOV     R4,?V0 + 0
   \   000093   AD..         MOV     R5,?V0 + 1
   \   000095   12....       LCALL   ??Subroutine127_0 & 0xFFFF
   \                     ??CrossCallReturnLabel_271:
   \   000098                REQUIRE ?Subroutine4
   \   000098                ; // Fall through to label ?Subroutine4
    511          }

   \                                 In  segment BANKED_CODE, align 1, keep-with-next
   \                     ?Subroutine4:
   \   000000   12....       LCALL   ?DEALLOC_XSTACK8
   \   000003   7F0B         MOV     R7,#0xb
   \   000005   02....       LJMP    ?BANKED_LEAVE_XDATA

   \                                 In  segment BANKED_CODE, align 1, keep-with-next
   \                     ??Subroutine108_0:
   \   000000   12....       LCALL   ??osal_memcpy?relay
   \   000003   7403         MOV     A,#0x3
   \   000005   22           RET
    512          
    513          /*********************************************************************
    514           * @fn          ZDP_ServerDiscReq
    515           *
    516           * @brief       Build and send a Server_Discovery_req request message.
    517           *
    518           * @param       serverMask - 16-bit bit-mask of server services being sought.
    519           * @param       SecurityEnable - Security Options
    520           *
    521           * @return      afStatus_t
    522           */

   \                                 In  segment BANKED_CODE, align 1, keep-with-next
    523          afStatus_t ZDP_ServerDiscReq( uint16 serverMask, byte SecurityEnable )
   \                     ZDP_ServerDiscReq:
    524          {
   \   000000   74F6         MOV     A,#-0xa
   \   000002   12....       LCALL   ?BANKED_ENTER_XDATA
   \   000005                ; Saved register size: 10
   \   000005                ; Auto size: 9
   \   000005   74F7         MOV     A,#-0x9
   \   000007   12....       LCALL   ?ALLOC_XSTACK8
   \   00000A   E9           MOV     A,R1
   \   00000B   FE           MOV     R6,A
    525            uint8 *pBuf = ZDP_TmpBuf;
   \   00000C   90....       MOV     DPTR,#ZDP_TmpBuf
   \   00000F   12....       LCALL   ??Subroutine112_0 & 0xFFFF
    526            zAddrType_t dstAddr;
    527          
    528            dstAddr.addrMode = AddrBroadcast;
   \                     ??CrossCallReturnLabel_172:
   \   000012   7408         MOV     A,#0x8
   \   000014   12....       LCALL   ?XSTACK_DISP0_8
   \   000017   12....       LCALL   ?Subroutine53 & 0xFFFF
    529            dstAddr.addr.shortAddr = NWK_BROADCAST_SHORTADDR_DEVRXON;
    530          
    531            *pBuf++ = LO_UINT16( serverMask );
   \                     ??CrossCallReturnLabel_72:
   \   00001A   EA           MOV     A,R2
   \   00001B   8882         MOV     DPL,R0
   \   00001D   8983         MOV     DPH,R1
   \   00001F   F0           MOVX    @DPTR,A
   \   000020   A3           INC     DPTR
    532            *pBuf = HI_UINT16( serverMask );
   \   000021   EB           MOV     A,R3
   \   000022   F0           MOVX    @DPTR,A
    533          
    534            FillAndSendTxOptions( &ZDP_TransID, &dstAddr, Server_Discovery_req, 2,
    535                       ((SecurityEnable) ? AF_EN_SECURITY : AF_TX_OPTIONS_NONE) );
   \   000023   EE           MOV     A,R6
   \   000024   90....       MOV     DPTR,#ZDP_TxOptions
   \   000027   6004         JZ      ??ZDP_ServerDiscReq_0
   \   000029   7440         MOV     A,#0x40
   \   00002B   8001         SJMP    ??ZDP_ServerDiscReq_1
   \                     ??ZDP_ServerDiscReq_0:
   \   00002D   E4           CLR     A
   \                     ??ZDP_ServerDiscReq_1:
   \   00002E   F0           MOVX    @DPTR,A
   \   00002F                ; Setup parameters for call to function fillAndSend
   \   00002F   75..15       MOV     ?V0 + 0,#0x15
   \   000032   75..00       MOV     ?V0 + 1,#0x0
   \   000035   78..         MOV     R0,#?V0 + 0
   \   000037   12....       LCALL   ?PUSH_XSTACK_I_TWO
   \   00003A   7902         MOV     R1,#0x2
   \   00003C   E9           MOV     A,R1
   \   00003D   12....       LCALL   ?XSTACK_DISP0_8
   \   000040   12....       LCALL   ?Subroutine70 & 0xFFFF
   \                     ??CrossCallReturnLabel_269:
   \   000043   12....       LCALL   ?DEALLOC_XSTACK8
   \   000046   90....       MOV     DPTR,#ZDP_TxOptions
   \   000049   E4           CLR     A
   \   00004A   F0           MOVX    @DPTR,A
   \   00004B   02....       LJMP    ??Subroutine94_0 & 0xFFFF
    536          }

   \                                 In  segment BANKED_CODE, align 1, keep-with-next
   \                     ?Subroutine53:
   \   000000   12....       LCALL   ?Subroutine75 & 0xFFFF
   \                     ??CrossCallReturnLabel_109:
   \   000003   F0           MOVX    @DPTR,A
   \   000004   22           RET
    537          
    538          /*********************************************************************
    539           * @fn          ZDP_DeviceAnnce
    540           *
    541           * @brief       This builds and send a Device_Annce message.  This
    542           *              function sends a broadcast message.
    543           *
    544           * @param       nwkAddr - 16 bit address of the device
    545           * @param       IEEEAddr - 64 bit address of the device
    546           * @param       capabilities - device capabilities.  This field is only
    547           *                 sent for v1.1 networks.
    548           * @param       SecurityEnable - Security Options
    549           *
    550           * @return      afStatus_t
    551           */

   \                                 In  segment BANKED_CODE, align 1, keep-with-next
    552          afStatus_t ZDP_DeviceAnnce( uint16 nwkAddr, uint8 *IEEEAddr,
   \                     ZDP_DeviceAnnce:
    553                                        byte capabilities, byte SecurityEnable )
    554          {
   \   000000   74F6         MOV     A,#-0xa
   \   000002   12....       LCALL   ?BANKED_ENTER_XDATA
   \   000005                ; Saved register size: 10
   \   000005                ; Auto size: 9
   \   000005   74F7         MOV     A,#-0x9
   \   000007   12....       LCALL   ?ALLOC_XSTACK8
   \   00000A   E9           MOV     A,R1
   \   00000B   FE           MOV     R6,A
    555            zAddrType_t dstAddr;
    556            uint8 len;
    557          
    558            (void)SecurityEnable;  // Intentionally unreferenced parameter
    559          
    560            dstAddr.addrMode = (afAddrMode_t)AddrBroadcast;
   \   00000C   7408         MOV     A,#0x8
   \   00000E   12....       LCALL   ?XSTACK_DISP0_8
   \   000011   12....       LCALL   ?Subroutine53 & 0xFFFF
    561            dstAddr.addr.shortAddr = NWK_BROADCAST_SHORTADDR_DEVRXON;
    562          
    563            ZDP_TmpBuf[0] = LO_UINT16( nwkAddr );
   \                     ??CrossCallReturnLabel_73:
   \   000014   12....       LCALL   ?Subroutine33 & 0xFFFF
   \                     ??CrossCallReturnLabel_189:
   \   000017   EA           MOV     A,R2
   \   000018   12....       LCALL   ?Subroutine32 & 0xFFFF
    564            ZDP_TmpBuf[1] = HI_UINT16( nwkAddr );
   \                     ??CrossCallReturnLabel_130:
   \   00001B   EB           MOV     A,R3
   \   00001C   F0           MOVX    @DPTR,A
    565            osal_cpyExtAddr( &ZDP_TmpBuf[2], IEEEAddr );
   \   00001D                ; Setup parameters for call to function sAddrExtCpy
   \   00001D   90....       MOV     DPTR,#ZDP_TmpBuf
   \   000020   E0           MOVX    A,@DPTR
   \   000021   2402         ADD     A,#0x2
   \   000023   FA           MOV     R2,A
   \   000024   A3           INC     DPTR
   \   000025   E0           MOVX    A,@DPTR
   \   000026   3400         ADDC    A,#0x0
   \   000028   12....       LCALL   ??Subroutine99_0 & 0xFFFF
    566            len = 2 + Z_EXTADDR_LEN;
    567          
    568            ZDP_TmpBuf[10] = capabilities;
   \                     ??CrossCallReturnLabel_135:
   \   00002B   A3           INC     DPTR
   \   00002C   A3           INC     DPTR
   \   00002D   EE           MOV     A,R6
   \   00002E   F0           MOVX    @DPTR,A
    569            len++;
    570          
    571            return fillAndSend( &ZDP_TransID, &dstAddr, Device_annce, len );
   \   00002F                ; Setup parameters for call to function fillAndSend
   \   00002F   75..13       MOV     ?V0 + 0,#0x13
   \   000032   75..00       MOV     ?V0 + 1,#0x0
   \   000035   78..         MOV     R0,#?V0 + 0
   \   000037   12....       LCALL   ?PUSH_XSTACK_I_TWO
   \   00003A   790B         MOV     R1,#0xb
   \   00003C   02....       LJMP    ?Subroutine8 & 0xFFFF
    572          }

   \                                 In  segment BANKED_CODE, align 1, keep-with-next
   \                     ?Subroutine32:
   \   000000   F0           MOVX    @DPTR,A
   \   000001                REQUIRE ??Subroutine98_0
   \   000001                ; // Fall through to label ??Subroutine98_0

   \                                 In  segment BANKED_CODE, align 1, keep-with-next
   \                     ??Subroutine98_0:
   \   000000   12....       LCALL   ?Subroutine82 & 0xFFFF
   \                     ??CrossCallReturnLabel_140:
   \   000003   22           RET

   \                                 In  segment BANKED_CODE, align 1, keep-with-next
   \                     ??Subroutine99_0:
   \   000000   FB           MOV     R3,A
   \   000001   12....       LCALL   ??sAddrExtCpy?relay
   \   000004                REQUIRE ??Subroutine100_0
   \   000004                ; // Fall through to label ??Subroutine100_0

   \                                 In  segment BANKED_CODE, align 1, keep-with-next
   \                     ??Subroutine100_0:
   \   000000   12....       LCALL   ?Subroutine82 & 0xFFFF
   \                     ??CrossCallReturnLabel_141:
   \   000003   A3           INC     DPTR
   \   000004   A3           INC     DPTR
   \   000005   A3           INC     DPTR
   \   000006   A3           INC     DPTR
   \   000007   A3           INC     DPTR
   \   000008   A3           INC     DPTR
   \   000009   A3           INC     DPTR
   \   00000A   22           RET

   \                                 In  segment BANKED_CODE, align 1, keep-with-next
   \                     ?Subroutine33:
   \   000000   90....       MOV     DPTR,#ZDP_TmpBuf
   \   000003                REQUIRE ??Subroutine114_0
   \   000003                ; // Fall through to label ??Subroutine114_0

   \                                 In  segment BANKED_CODE, align 1, keep-with-next
   \                     ??Subroutine114_0:
   \   000000   12....       LCALL   ?Subroutine86 & 0xFFFF
   \                     ??CrossCallReturnLabel_193:
   \   000003   22           RET
    573          
    574          /*********************************************************************
    575           * Address Responses
    576           */
    577          
    578          /*********************************************************************
    579           * @fn      zdpProcessAddrReq
    580           *
    581           * @brief   Process an incoming NWK_addr_req or IEEE_addr_req message and then
    582           *          build and send a corresponding NWK_addr_rsp or IEEE_addr_rsp msg.
    583           *
    584           * @param   inMsg - incoming message
    585           *
    586           * @return  none
    587           */

   \                                 In  segment BANKED_CODE, align 1, keep-with-next
    588          void zdpProcessAddrReq( zdoIncomingMsg_t *inMsg )
   \                     zdpProcessAddrReq:
    589          {
   \   000000   74EE         MOV     A,#-0x12
   \   000002   12....       LCALL   ?BANKED_ENTER_XDATA
   \   000005                ; Saved register size: 18
   \   000005                ; Auto size: 14
   \   000005   74F2         MOV     A,#-0xe
   \   000007   12....       LCALL   ?ALLOC_XSTACK8
   \   00000A   8A..         MOV     ?V0 + 4,R2
   \   00000C   8B..         MOV     ?V0 + 5,R3
    590            associated_devices_t *pAssoc;
    591            uint8 reqType;
    592            uint16 aoi = INVALID_NODE_ADDR;
   \   00000E   75..FE       MOV     ?V0 + 2,#-0x2
   \   000011   75..FF       MOV     ?V0 + 3,#-0x1
    593            uint8 *ieee = NULL;
   \   000014   75..00       MOV     ?V0 + 0,#0x0
   \   000017   75..00       MOV     ?V0 + 1,#0x0
    594          
    595            reqType = inMsg->asdu[(inMsg->clusterID == NWK_addr_req) ? Z_EXTADDR_LEN : sizeof( uint16 ) ];
   \   00001A   EA           MOV     A,R2
   \   00001B   240C         ADD     A,#0xc
   \   00001D   F582         MOV     DPL,A
   \   00001F   EB           MOV     A,R3
   \   000020   12....       LCALL   ??Subroutine101_0 & 0xFFFF
   \                     ??CrossCallReturnLabel_143:
   \   000023   7004         JNZ     ??zdpProcessAddrReq_0
   \   000025   7808         MOV     R0,#0x8
   \   000027   8002         SJMP    ??zdpProcessAddrReq_1
   \                     ??zdpProcessAddrReq_0:
   \   000029   7802         MOV     R0,#0x2
   \                     ??zdpProcessAddrReq_1:
   \   00002B   EA           MOV     A,R2
   \   00002C   2413         ADD     A,#0x13
   \   00002E   F582         MOV     DPL,A
   \   000030   EB           MOV     A,R3
   \   000031   12....       LCALL   ??Subroutine131_0 & 0xFFFF
   \                     ??CrossCallReturnLabel_297:
   \   000034   28           ADD     A,R0
   \   000035   FA           MOV     R2,A
   \   000036   A3           INC     DPTR
   \   000037   E0           MOVX    A,@DPTR
   \   000038   3400         ADDC    A,#0x0
   \   00003A   8A82         MOV     DPL,R2
   \   00003C   F583         MOV     DPH,A
   \   00003E   E0           MOVX    A,@DPTR
   \   00003F   F5..         MOV     ?V0 + 6,A
    596          
    597            if ( inMsg->clusterID == NWK_addr_req )
   \   000041   E5..         MOV     A,?V0 + 4
   \   000043   240C         ADD     A,#0xc
   \   000045   F582         MOV     DPL,A
   \   000047   EB           MOV     A,R3
   \   000048   12....       LCALL   ??Subroutine131_0 & 0xFFFF
   \                     ??CrossCallReturnLabel_298:
   \   00004B   49           ORL     A,R1
   \   00004C   704B         JNZ     ??zdpProcessAddrReq_2
    598          
    599            {
    600              ieee = inMsg->asdu;
   \   00004E   12....       LCALL   ?Subroutine66 & 0xFFFF
   \                     ??CrossCallReturnLabel_259:
   \   000051   12....       LCALL   ??Subroutine119_0 & 0xFFFF
    601          
    602              if ( osal_ExtAddrEqual( saveExtAddr, ieee ) )
   \                     ??CrossCallReturnLabel_217:
   \   000054                ; Setup parameters for call to function sAddrExtCmp
   \   000054   AC..         MOV     R4,?V0 + 0
   \   000056   FD           MOV     R5,A
   \   000057   7A..         MOV     R2,#saveExtAddr & 0xff
   \   000059   7B..         MOV     R3,#(saveExtAddr >> 8) & 0xff
   \   00005B   12....       LCALL   ??sAddrExtCmp?relay
   \   00005E   E9           MOV     A,R1
   \   00005F   6006         JZ      ??zdpProcessAddrReq_3
    603              {
    604                aoi = ZDAppNwkAddr.addr.shortAddr;
   \   000061   12....       LCALL   ?Subroutine12 & 0xFFFF
    605              }
   \                     ??CrossCallReturnLabel_152:
   \   000064   02....       LJMP    ??zdpProcessAddrReq_4 & 0xFFFF
    606              // Handle response for sleeping end devices
    607              else if ( (ZSTACK_ROUTER_BUILD)
    608                && (((pAssoc = AssocGetWithExt( ieee )) != NULL)
    609                       && (pAssoc->nodeRelation == CHILD_RFD)) )
   \                     ??zdpProcessAddrReq_3:
   \   000067                ; Setup parameters for call to function AssocGetWithExt
   \   000067   AA..         MOV     R2,?V0 + 0
   \   000069   AB..         MOV     R3,?V0 + 1
   \   00006B   12....       LCALL   ??AssocGetWithExt?relay
   \   00006E   EA           MOV     A,R2
   \   00006F   F8           MOV     R0,A
   \   000070   EB           MOV     A,R3
   \   000071   F9           MOV     R1,A
   \   000072   EA           MOV     A,R2
   \   000073   4B           ORL     A,R3
   \   000074   7003         JNZ     $+5
   \   000076   02....       LJMP    ??zdpProcessAddrReq_5 & 0xFFFF
   \   000079   8882         MOV     DPL,R0
   \   00007B   8983         MOV     DPH,R1
   \   00007D   A3           INC     DPTR
   \   00007E   A3           INC     DPTR
   \   00007F   A3           INC     DPTR
   \   000080   A3           INC     DPTR
   \   000081   E0           MOVX    A,@DPTR
   \   000082   6401         XRL     A,#0x1
   \   000084   6003         JZ      $+5
   \   000086   02....       LJMP    ??zdpProcessAddrReq_5 & 0xFFFF
    610              {
    611                aoi = pAssoc->shortAddr;
   \   000089   8882         MOV     DPL,R0
   \   00008B   8983         MOV     DPH,R1
   \   00008D   12....       LCALL   ??Subroutine103_0 & 0xFFFF
    612                if ( reqType != ZDP_ADDR_REQTYPE_SINGLE )
   \                     ??CrossCallReturnLabel_148:
   \   000090   E5..         MOV     A,?V0 + 6
   \   000092   607B         JZ      ??zdpProcessAddrReq_4
    613                  reqType = 0xFF; // Force Invalid
   \                     ??zdpProcessAddrReq_6:
   \   000094   75..FF       MOV     ?V0 + 6,#-0x1
   \   000097   8076         SJMP    ??zdpProcessAddrReq_4
    614              }
    615            }
   \                     ??zdpProcessAddrReq_2:
   \   000099   12....       LCALL   ?Subroutine66 & 0xFFFF
   \                     ??CrossCallReturnLabel_260:
   \   00009C   12....       LCALL   ?Subroutine45 & 0xFFFF
   \                     ??CrossCallReturnLabel_60:
   \   00009F   E0           MOVX    A,@DPTR
   \   0000A0   FA           MOV     R2,A
   \   0000A1   A3           INC     DPTR
   \   0000A2   E0           MOVX    A,@DPTR
   \   0000A3   F9           MOV     R1,A
   \   0000A4   EA           MOV     A,R2
   \   0000A5   2400         ADD     A,#0x0
   \   0000A7   F5..         MOV     ?V0 + 2,A
   \   0000A9   E4           CLR     A
   \   0000AA   39           ADDC    A,R1
   \   0000AB   F5..         MOV     ?V0 + 3,A
    616            else  // if ( inMsg->clusterID == IEEE_addr_req )
    617            {
    618              aoi = BUILD_UINT16( inMsg->asdu[0], inMsg->asdu[1] );
    619          
    620              if ( aoi == ZDAppNwkAddr.addr.shortAddr )
   \   0000AD   90....       MOV     DPTR,#ZDAppNwkAddr
   \   0000B0   E0           MOVX    A,@DPTR
   \   0000B1   65..         XRL     A,?V0 + 2
   \   0000B3   7004         JNZ     ??zdpProcessAddrReq_7
   \   0000B5   A3           INC     DPTR
   \   0000B6   E0           MOVX    A,@DPTR
   \   0000B7   65..         XRL     A,?V0 + 3
   \                     ??zdpProcessAddrReq_7:
   \   0000B9   7008         JNZ     ??zdpProcessAddrReq_8
    621              {
    622                ieee = saveExtAddr;
   \   0000BB   75....       MOV     ?V0 + 0,#saveExtAddr & 0xff
   \   0000BE   75....       MOV     ?V0 + 1,#(saveExtAddr >> 8) & 0xff
   \   0000C1   804C         SJMP    ??zdpProcessAddrReq_4
    623              }
    624              else if ( (ZSTACK_ROUTER_BUILD)
    625                && (((pAssoc = AssocGetWithShort( aoi )) != NULL)
    626                       && (pAssoc->nodeRelation == CHILD_RFD)) )
   \                     ??zdpProcessAddrReq_8:
   \   0000C3                ; Setup parameters for call to function AssocGetWithShort
   \   0000C3   AB..         MOV     R3,?V0 + 3
   \   0000C5   12....       LCALL   ??AssocGetWithShort?relay
   \   0000C8   EA           MOV     A,R2
   \   0000C9   F8           MOV     R0,A
   \   0000CA   EB           MOV     A,R3
   \   0000CB   F9           MOV     R1,A
   \   0000CC   EA           MOV     A,R2
   \   0000CD   4B           ORL     A,R3
   \   0000CE   603F         JZ      ??zdpProcessAddrReq_4
   \   0000D0   8882         MOV     DPL,R0
   \   0000D2   8983         MOV     DPH,R1
   \   0000D4   A3           INC     DPTR
   \   0000D5   A3           INC     DPTR
   \   0000D6   A3           INC     DPTR
   \   0000D7   A3           INC     DPTR
   \   0000D8   E0           MOVX    A,@DPTR
   \   0000D9   6401         XRL     A,#0x1
   \   0000DB   7032         JNZ     ??zdpProcessAddrReq_4
    627              {
    628                AddrMgrEntry_t addrEntry;
    629                addrEntry.user = ADDRMGR_USER_DEFAULT;
   \   0000DD   7401         MOV     A,#0x1
   \   0000DF   12....       LCALL   ?XSTACK_DISP0_8
   \   0000E2   E4           CLR     A
   \   0000E3   12....       LCALL   ?Subroutine61 & 0xFFFF
    630                addrEntry.index = pAssoc->addrIdx;
   \                     ??CrossCallReturnLabel_86:
   \   0000E6   12....       LCALL   ??Subroutine111_0 & 0xFFFF
   \                     ??CrossCallReturnLabel_179:
   \   0000E9   740C         MOV     A,#0xc
   \   0000EB   12....       LCALL   ?XSTACK_DISP0_8
   \   0000EE   12....       LCALL   ??Subroutine116_0 & 0xFFFF
    631                if ( AddrMgrEntryGet( &addrEntry ) )
   \                     ??CrossCallReturnLabel_197:
   \   0000F1                ; Setup parameters for call to function AddrMgrEntryGet
   \   0000F1   7401         MOV     A,#0x1
   \   0000F3   12....       LCALL   ?XSTACK_DISP0_8
   \   0000F6   AA82         MOV     R2,DPL
   \   0000F8   AB83         MOV     R3,DPH
   \   0000FA   12....       LCALL   ??AddrMgrEntryGet?relay
   \   0000FD   E9           MOV     A,R1
   \   0000FE   600B         JZ      ??zdpProcessAddrReq_9
    632                {
    633                  ieee = addrEntry.extAddr;
   \   000100   7404         MOV     A,#0x4
   \   000102   12....       LCALL   ?XSTACK_DISP0_8
   \   000105   8582..       MOV     ?V0 + 0,DPL
   \   000108   8583..       MOV     ?V0 + 1,DPH
    634                }
    635          
    636                if ( reqType != ZDP_ADDR_REQTYPE_SINGLE )
   \                     ??zdpProcessAddrReq_9:
   \   00010B   E5..         MOV     A,?V0 + 6
   \   00010D   7085         JNZ     ??zdpProcessAddrReq_6
    637                  reqType = 0xFF; // Force Invalid
    638              }
    639            }
    640          
    641            if ( ((aoi != INVALID_NODE_ADDR) && (ieee != NULL)) || (inMsg->wasBroadcast == FALSE) )
   \                     ??zdpProcessAddrReq_4:
   \   00010F   74FE         MOV     A,#-0x2
   \   000111   65..         XRL     A,?V0 + 2
   \   000113   7004         JNZ     ??zdpProcessAddrReq_10
   \   000115   74FF         MOV     A,#-0x1
   \   000117   65..         XRL     A,?V0 + 3
   \                     ??zdpProcessAddrReq_10:
   \   000119   6006         JZ      ??zdpProcessAddrReq_5
   \   00011B   E5..         MOV     A,?V0 + 0
   \   00011D   45..         ORL     A,?V0 + 1
   \   00011F   7010         JNZ     ??zdpProcessAddrReq_11
   \                     ??zdpProcessAddrReq_5:
   \   000121   E5..         MOV     A,?V0 + 4
   \   000123   240B         ADD     A,#0xb
   \   000125   F582         MOV     DPL,A
   \   000127   E5..         MOV     A,?V0 + 5
   \   000129   12....       LCALL   ??Subroutine131_0 & 0xFFFF
   \                     ??CrossCallReturnLabel_299:
   \   00012C   6003         JZ      $+5
   \   00012E   02....       LJMP    ??zdpProcessAddrReq_12 & 0xFFFF
    642            {
    643              uint8 stat;
    644              uint8 *pBuf = ZDP_TmpBuf;
   \                     ??zdpProcessAddrReq_11:
   \   000131   12....       LCALL   ?Subroutine26 & 0xFFFF
    645              // Status + IEEE-Addr + Nwk-Addr.
    646              uint8 len = 1 + Z_EXTADDR_LEN + 2;
   \                     ??CrossCallReturnLabel_295:
   \   000134   75..0B       MOV     ?V0 + 8,#0xb
    647              
    648              // If aoi and iee are both setup, we found results
    649              if ( (aoi != INVALID_NODE_ADDR) && (ieee != NULL) )
   \   000137   74FE         MOV     A,#-0x2
   \   000139   65..         XRL     A,?V0 + 2
   \   00013B   7004         JNZ     ??zdpProcessAddrReq_13
   \   00013D   74FF         MOV     A,#-0x1
   \   00013F   65..         XRL     A,?V0 + 3
   \                     ??zdpProcessAddrReq_13:
   \   000141   601A         JZ      ??zdpProcessAddrReq_14
   \   000143   E5..         MOV     A,?V0 + 0
   \   000145   45..         ORL     A,?V0 + 1
   \   000147   6014         JZ      ??zdpProcessAddrReq_14
    650              {
    651                stat = ((reqType == ZDP_ADDR_REQTYPE_SINGLE) || (reqType == ZDP_ADDR_REQTYPE_EXTENDED)) 
    652                              ? ZDP_SUCCESS : ZDP_INVALID_REQTYPE;
   \   000149   E5..         MOV     A,?V0 + 6
   \   00014B   6006         JZ      ??zdpProcessAddrReq_15
   \   00014D   7401         MOV     A,#0x1
   \   00014F   65..         XRL     A,?V0 + 6
   \   000151   7005         JNZ     ??zdpProcessAddrReq_16
   \                     ??zdpProcessAddrReq_15:
   \   000153   75..00       MOV     ?V0 + 7,#0x0
   \   000156   8018         SJMP    ??zdpProcessAddrReq_17
   \                     ??zdpProcessAddrReq_16:
   \   000158   75..80       MOV     ?V0 + 7,#-0x80
   \   00015B   8013         SJMP    ??zdpProcessAddrReq_17
    653              }
    654              else 
    655              {
    656                // not found and the req was unicast to this device
    657                stat = ZDP_DEVICE_NOT_FOUND;
   \                     ??zdpProcessAddrReq_14:
   \   00015D   75..81       MOV     ?V0 + 7,#-0x7f
    658                
    659                // Fill in the missing field with this device's address
    660                if ( inMsg->clusterID == NWK_addr_req )
   \   000160   12....       LCALL   ?Subroutine30 & 0xFFFF
   \                     ??CrossCallReturnLabel_144:
   \   000163   7005         JNZ     ??zdpProcessAddrReq_18
    661                {
    662                  aoi = ZDAppNwkAddr.addr.shortAddr;
   \   000165   12....       LCALL   ?Subroutine12 & 0xFFFF
    663                }
   \                     ??CrossCallReturnLabel_153:
   \   000168   8006         SJMP    ??zdpProcessAddrReq_17
    664                else
    665                {
    666                  ieee = saveExtAddr;
   \                     ??zdpProcessAddrReq_18:
   \   00016A   75....       MOV     ?V0 + 0,#saveExtAddr & 0xff
   \   00016D   75....       MOV     ?V0 + 1,#(saveExtAddr >> 8) & 0xff
    667                }
    668              }
    669          
    670              *pBuf++ = stat;
   \                     ??zdpProcessAddrReq_17:
   \   000170   8E82         MOV     DPL,R6
   \   000172   8F83         MOV     DPH,R7
   \   000174   E5..         MOV     A,?V0 + 7
   \   000176   F0           MOVX    @DPTR,A
   \   000177   A3           INC     DPTR
    671          
    672              pBuf = osal_cpyExtAddr( pBuf, ieee );
   \   000178                ; Setup parameters for call to function sAddrExtCpy
   \   000178   AC..         MOV     R4,?V0 + 0
   \   00017A   AD..         MOV     R5,?V0 + 1
   \   00017C   AA82         MOV     R2,DPL
   \   00017E   AB83         MOV     R3,DPH
   \   000180   12....       LCALL   ??sAddrExtCpy?relay
   \   000183   8A..         MOV     ?V0 + 0,R2
   \   000185   8B..         MOV     ?V0 + 1,R3
   \   000187   AE..         MOV     R6,?V0 + 0
   \   000189   AF..         MOV     R7,?V0 + 1
    673          
    674              *pBuf++ = LO_UINT16( aoi );
   \   00018B   8E82         MOV     DPL,R6
   \   00018D   8F83         MOV     DPH,R7
   \   00018F   E5..         MOV     A,?V0 + 2
   \   000191   F0           MOVX    @DPTR,A
   \   000192   A3           INC     DPTR
    675              *pBuf++ = HI_UINT16( aoi );
   \   000193   E5..         MOV     A,?V0 + 3
   \   000195   12....       LCALL   ?Subroutine78 & 0xFFFF
    676          
    677              if ( ZSTACK_ROUTER_BUILD )
    678              {
    679                if ( (reqType == ZDP_ADDR_REQTYPE_EXTENDED) && (aoi == ZDAppNwkAddr.addr.shortAddr)
    680                     && (stat == ZDP_SUCCESS) )
   \                     ??CrossCallReturnLabel_112:
   \   000198   7401         MOV     A,#0x1
   \   00019A   65..         XRL     A,?V0 + 6
   \   00019C   6003         JZ      $+5
   \   00019E   02....       LJMP    ??zdpProcessAddrReq_19 & 0xFFFF
   \   0001A1   90....       MOV     DPTR,#ZDAppNwkAddr
   \   0001A4   E0           MOVX    A,@DPTR
   \   0001A5   65..         XRL     A,?V0 + 2
   \   0001A7   7004         JNZ     ??zdpProcessAddrReq_20
   \   0001A9   A3           INC     DPTR
   \   0001AA   E0           MOVX    A,@DPTR
   \   0001AB   65..         XRL     A,?V0 + 3
   \                     ??zdpProcessAddrReq_20:
   \   0001AD   6003         JZ      $+5
   \   0001AF   02....       LJMP    ??zdpProcessAddrReq_19 & 0xFFFF
   \   0001B2   E5..         MOV     A,?V0 + 7
   \   0001B4   6003         JZ      $+5
   \   0001B6   02....       LJMP    ??zdpProcessAddrReq_19 & 0xFFFF
    681                {
    682                  uint8  cnt = 0;
   \   0001B9   85..82       MOV     DPL,?XSP + 0
   \   0001BC   85..83       MOV     DPH,?XSP + 1
   \   0001BF   E4           CLR     A
   \   0001C0   F0           MOVX    @DPTR,A
    683                  uint16 *list = AssocMakeList( &cnt );
   \   0001C1                ; Setup parameters for call to function AssocMakeList
   \   0001C1   AA82         MOV     R2,DPL
   \   0001C3   AB83         MOV     R3,DPH
   \   0001C5   12....       LCALL   ??AssocMakeList?relay
    684          
    685                  if ( list != NULL )
   \   0001C8   EA           MOV     A,R2
   \   0001C9   4B           ORL     A,R3
   \   0001CA   7003         JNZ     $+5
   \   0001CC   02....       LJMP    ??zdpProcessAddrReq_21 & 0xFFFF
    686                  {
    687                    byte idx = inMsg->asdu[(((inMsg->clusterID == NWK_addr_req) ? Z_EXTADDR_LEN : sizeof( uint16 )) + 1)];
   \   0001CF   12....       LCALL   ?Subroutine30 & 0xFFFF
   \                     ??CrossCallReturnLabel_145:
   \   0001D2   7004         JNZ     ??zdpProcessAddrReq_22
   \   0001D4   7808         MOV     R0,#0x8
   \   0001D6   8002         SJMP    ??zdpProcessAddrReq_23
   \                     ??zdpProcessAddrReq_22:
   \   0001D8   7802         MOV     R0,#0x2
   \                     ??zdpProcessAddrReq_23:
   \   0001DA   E5..         MOV     A,?V0 + 4
   \   0001DC   2413         ADD     A,#0x13
   \   0001DE   F582         MOV     DPL,A
   \   0001E0   E5..         MOV     A,?V0 + 5
   \   0001E2   12....       LCALL   ??Subroutine131_0 & 0xFFFF
   \                     ??CrossCallReturnLabel_300:
   \   0001E5   28           ADD     A,R0
   \   0001E6   FC           MOV     R4,A
   \   0001E7   A3           INC     DPTR
   \   0001E8   E0           MOVX    A,@DPTR
   \   0001E9   3400         ADDC    A,#0x0
   \   0001EB   8C82         MOV     DPL,R4
   \   0001ED   F583         MOV     DPH,A
   \   0001EF   A3           INC     DPTR
   \   0001F0   E0           MOVX    A,@DPTR
   \   0001F1   FC           MOV     R4,A
    688                    uint16 *pList = list + idx;
   \   0001F2   C3           CLR     C
   \   0001F3   33           RLC     A
   \   0001F4   F8           MOV     R0,A
   \   0001F5   E4           CLR     A
   \   0001F6   33           RLC     A
   \   0001F7   F9           MOV     R1,A
   \   0001F8   EA           MOV     A,R2
   \   0001F9   28           ADD     A,R0
   \   0001FA   F8           MOV     R0,A
   \   0001FB   EB           MOV     A,R3
   \   0001FC   39           ADDC    A,R1
   \   0001FD   F9           MOV     R1,A
    689          
    690                    // NumAssocDev field is only present on success.
    691                    if ( cnt > idx )
   \   0001FE   85..82       MOV     DPL,?XSP + 0
   \   000201   85..83       MOV     DPH,?XSP + 1
   \   000204   E0           MOVX    A,@DPTR
   \   000205   FD           MOV     R5,A
   \   000206   EC           MOV     A,R4
   \   000207   C3           CLR     C
   \   000208   9D           SUBB    A,R5
   \   000209   500C         JNC     ??zdpProcessAddrReq_24
    692                    {
    693                      cnt -= idx;
   \   00020B   E0           MOVX    A,@DPTR
   \   00020C   C3           CLR     C
   \   00020D   9C           SUBB    A,R4
   \   00020E   F0           MOVX    @DPTR,A
    694                      len += (cnt * sizeof( uint16 ));
   \   00020F   C3           CLR     C
   \   000210   33           RLC     A
   \   000211   240B         ADD     A,#0xb
   \   000213   F5..         MOV     ?V0 + 8,A
   \   000215   8002         SJMP    ??zdpProcessAddrReq_25
    695                    }
    696                    else
    697                    {
    698                      cnt = 0;
   \                     ??zdpProcessAddrReq_24:
   \   000217   E4           CLR     A
   \   000218   F0           MOVX    @DPTR,A
    699                    }
    700                    *pBuf++ = cnt;
   \                     ??zdpProcessAddrReq_25:
   \   000219   12....       LCALL   ?Subroutine37 & 0xFFFF
    701                    len++;
    702          
    703                    // StartIndex field is only present if NumAssocDev field is non-zero.
    704                    *pBuf++ = idx;
   \                     ??CrossCallReturnLabel_44:
   \   00021C   EC           MOV     A,R4
   \   00021D   F0           MOVX    @DPTR,A
   \   00021E   A3           INC     DPTR
   \   00021F   0E           INC     R6
   \   000220   0E           INC     R6
   \   000221   AF83         MOV     R7,DPH
    705                    len++;
   \   000223   05..         INC     ?V0 + 8
   \   000225   05..         INC     ?V0 + 8
   \   000227   801B         SJMP    ??zdpProcessAddrReq_26
    706          
    707                    while ( cnt != 0 )
    708                    {
    709                      *pBuf++ = LO_UINT16( *pList );
   \                     ??zdpProcessAddrReq_27:
   \   000229   12....       LCALL   ?Subroutine28 & 0xFFFF
    710                      *pBuf++ = HI_UINT16( *pList );
   \                     ??CrossCallReturnLabel_28:
   \   00022C   12....       LCALL   ?Subroutine37 & 0xFFFF
   \                     ??CrossCallReturnLabel_45:
   \   00022F   0E           INC     R6
   \   000230   AF83         MOV     R7,DPH
    711                      pList++;
   \   000232   E8           MOV     A,R0
   \   000233   2402         ADD     A,#0x2
   \   000235   08           INC     R0
   \   000236   08           INC     R0
   \   000237   E9           MOV     A,R1
   \   000238   3400         ADDC    A,#0x0
   \   00023A   F9           MOV     R1,A
    712                      cnt--;
   \   00023B   85..82       MOV     DPL,?XSP + 0
   \   00023E   85..83       MOV     DPH,?XSP + 1
   \   000241   E0           MOVX    A,@DPTR
   \   000242   14           DEC     A
   \   000243   F0           MOVX    @DPTR,A
    713                    }
   \                     ??zdpProcessAddrReq_26:
   \   000244   85..82       MOV     DPL,?XSP + 0
   \   000247   85..83       MOV     DPH,?XSP + 1
   \   00024A   E0           MOVX    A,@DPTR
   \   00024B   70DC         JNZ     ??zdpProcessAddrReq_27
    714          
    715                    osal_mem_free( (uint8 *)list );
   \   00024D                ; Setup parameters for call to function osal_mem_free
   \   00024D   12....       LCALL   ??osal_mem_free?relay
   \   000250   8009         SJMP    ??zdpProcessAddrReq_19
    716                  }
    717                  else
    718                  {
    719                    // NumAssocDev field is only present on success.
    720                    *pBuf++ = 0;
   \                     ??zdpProcessAddrReq_21:
   \   000252   8E82         MOV     DPL,R6
   \   000254   8F83         MOV     DPH,R7
   \   000256   E4           CLR     A
   \   000257   F0           MOVX    @DPTR,A
    721                    len++;
   \   000258   75..0C       MOV     ?V0 + 8,#0xc
    722                  }
    723                }
    724              }
    725          
    726              ZDP_TxOptions = AF_MSG_ACK_REQUEST;
   \                     ??zdpProcessAddrReq_19:
   \   00025B   90....       MOV     DPTR,#ZDP_TxOptions
   \   00025E   7410         MOV     A,#0x10
   \   000260   F0           MOVX    @DPTR,A
    727              fillAndSend( &(inMsg->TransSeq), &(inMsg->srcAddr), (cId_t)(inMsg->clusterID | ZDO_RESPONSE_BIT), len );
   \   000261                ; Setup parameters for call to function fillAndSend
   \   000261   E5..         MOV     A,?V0 + 4
   \   000263   240C         ADD     A,#0xc
   \   000265   F582         MOV     DPL,A
   \   000267   E5..         MOV     A,?V0 + 5
   \   000269   12....       LCALL   ??Subroutine131_0 & 0xFFFF
   \                     ??CrossCallReturnLabel_301:
   \   00026C   F5..         MOV     ?V0 + 0,A
   \   00026E   A3           INC     DPTR
   \   00026F   E0           MOVX    A,@DPTR
   \   000270   4480         ORL     A,#0x80
   \   000272   F5..         MOV     ?V0 + 1,A
   \   000274   78..         MOV     R0,#?V0 + 0
   \   000276   12....       LCALL   ?PUSH_XSTACK_I_TWO
   \   000279   A9..         MOV     R1,?V0 + 8
   \   00027B   E5..         MOV     A,?V0 + 4
   \   00027D   2402         ADD     A,#0x2
   \   00027F   FC           MOV     R4,A
   \   000280   E5..         MOV     A,?V0 + 5
   \   000282   3400         ADDC    A,#0x0
   \   000284   FD           MOV     R5,A
   \   000285   E5..         MOV     A,?V0 + 4
   \   000287   240F         ADD     A,#0xf
   \   000289   FA           MOV     R2,A
   \   00028A   E5..         MOV     A,?V0 + 5
   \   00028C   12....       LCALL   ?Subroutine69 & 0xFFFF
   \                     ??CrossCallReturnLabel_99:
   \   00028F   12....       LCALL   ?DEALLOC_XSTACK8
    728              ZDP_TxOptions = AF_TX_OPTIONS_NONE;
   \   000292   90....       MOV     DPTR,#ZDP_TxOptions
   \   000295   E4           CLR     A
   \   000296   F0           MOVX    @DPTR,A
    729            }
    730          }
   \                     ??zdpProcessAddrReq_12:
   \   000297   740E         MOV     A,#0xe
   \   000299   02....       LJMP    ?Subroutine3 & 0xFFFF

   \                                 In  segment BANKED_CODE, align 1, keep-with-next
   \                     ?Subroutine30:
   \   000000   E5..         MOV     A,?V0 + 4
   \   000002   240C         ADD     A,#0xc
   \   000004   F582         MOV     DPL,A
   \   000006   E5..         MOV     A,?V0 + 5
   \   000008                REQUIRE ??Subroutine101_0
   \   000008                ; // Fall through to label ??Subroutine101_0

   \                                 In  segment BANKED_CODE, align 1, keep-with-next
   \                     ??Subroutine101_0:
   \   000000   3400         ADDC    A,#0x0
   \   000002   F583         MOV     DPH,A
   \   000004                REQUIRE ??Subroutine102_0
   \   000004                ; // Fall through to label ??Subroutine102_0

   \                                 In  segment BANKED_CODE, align 1, keep-with-next
   \                     ??Subroutine102_0:
   \   000000   12....       LCALL   ?Subroutine84 & 0xFFFF
   \                     ??CrossCallReturnLabel_186:
   \   000003   E8           MOV     A,R0
   \   000004   49           ORL     A,R1
   \   000005   22           RET

   \                                 In  segment BANKED_CODE, align 1, keep-with-next
   \                     ?Subroutine12:
   \   000000   90....       MOV     DPTR,#ZDAppNwkAddr
   \   000003                REQUIRE ??Subroutine103_0
   \   000003                ; // Fall through to label ??Subroutine103_0

   \                                 In  segment BANKED_CODE, align 1, keep-with-next
   \                     ?Subroutine45:
   \   000000   12....       LCALL   ?Subroutine84 & 0xFFFF
   \                     ??CrossCallReturnLabel_185:
   \   000003   8882         MOV     DPL,R0
   \   000005   8983         MOV     DPH,R1
   \   000007   22           RET

   \                                 In  segment BANKED_CODE, align 1, keep-with-next
   \                     ?Subroutine69:
   \   000000   3400         ADDC    A,#0x0
   \   000002   FB           MOV     R3,A
   \   000003   12....       LCALL   ??fillAndSend?relay
   \   000006   7402         MOV     A,#0x2
   \   000008   22           RET

   \                                 In  segment BANKED_CODE, align 1, keep-with-next
   \                     ?Subroutine3:
   \   000000   12....       LCALL   ?DEALLOC_XSTACK8
   \   000003                REQUIRE ??Subroutine109_0
   \   000003                ; // Fall through to label ??Subroutine109_0

   \                                 In  segment BANKED_CODE, align 1, keep-with-next
   \                     ??Subroutine111_0:
   \   000000   A3           INC     DPTR
   \   000001   A3           INC     DPTR
   \   000002                REQUIRE ??Subroutine112_0
   \   000002                ; // Fall through to label ??Subroutine112_0

   \                                 In  segment BANKED_CODE, align 1, keep-with-next
   \                     ??Subroutine116_0:
   \   000000   E8           MOV     A,R0
   \   000001   F0           MOVX    @DPTR,A
   \   000002   A3           INC     DPTR
   \   000003   E9           MOV     A,R1
   \   000004   F0           MOVX    @DPTR,A
   \   000005   22           RET

   \                                 In  segment BANKED_CODE, align 1, keep-with-next
   \                     ?Subroutine37:
   \   000000   12....       LCALL   ?Subroutine91 & 0xFFFF
   \                     ??CrossCallReturnLabel_231:
   \   000003   22           RET

   \                                 In  segment BANKED_CODE, align 1, keep-with-next
   \                     ?Subroutine91:
   \   000000   E0           MOVX    A,@DPTR
   \   000001   8E82         MOV     DPL,R6
   \   000003   8F83         MOV     DPH,R7
   \   000005   F0           MOVX    @DPTR,A
   \   000006   A3           INC     DPTR
   \   000007   22           RET

   \                                 In  segment BANKED_CODE, align 1, keep-with-next
   \                     ?Subroutine78:
   \   000000   F0           MOVX    @DPTR,A
   \   000001   A3           INC     DPTR
   \   000002   AE82         MOV     R6,DPL
   \   000004   AF83         MOV     R7,DPH
   \   000006   22           RET

   \                                 In  segment BANKED_CODE, align 1, keep-with-next
   \                     ?Subroutine28:
   \   000000   12....       LCALL   ?Subroutine77 & 0xFFFF
   \                     ??CrossCallReturnLabel_111:
   \   000003   22           RET

   \                                 In  segment BANKED_CODE, align 1, keep-with-next
   \                     ?Subroutine77:
   \   000000   8882         MOV     DPL,R0
   \   000002   8983         MOV     DPH,R1
   \   000004   12....       LCALL   ?Subroutine91 & 0xFFFF
   \                     ??CrossCallReturnLabel_232:
   \   000007   AE82         MOV     R6,DPL
   \   000009   AF83         MOV     R7,DPH
   \   00000B   8882         MOV     DPL,R0
   \   00000D   8983         MOV     DPH,R1
   \   00000F   A3           INC     DPTR
   \   000010   22           RET

   \                                 In  segment BANKED_CODE, align 1, keep-with-next
   \                     ?Subroutine66:
   \   000000   E5..         MOV     A,?V0 + 4
   \   000002   2413         ADD     A,#0x13
   \   000004                REQUIRE ??Subroutine124_0
   \   000004                ; // Fall through to label ??Subroutine124_0

   \                                 In  segment BANKED_CODE, align 1, keep-with-next
   \                     ??Subroutine124_0:
   \   000000   F582         MOV     DPL,A
   \   000002   EB           MOV     A,R3
   \   000003                REQUIRE ??Subroutine125_0
   \   000003                ; // Fall through to label ??Subroutine125_0

   \                                 In  segment BANKED_CODE, align 1, keep-with-next
   \                     ??Subroutine125_0:
   \   000000   3400         ADDC    A,#0x0
   \   000002   F583         MOV     DPH,A
   \   000004   22           RET

   \                                 In  segment BANKED_CODE, align 1, keep-with-next
   \                     ?Subroutine26:
   \   000000   90....       MOV     DPTR,#ZDP_TmpBuf
   \   000003                REQUIRE ??Subroutine129_0
   \   000003                ; // Fall through to label ??Subroutine129_0

   \                                 In  segment BANKED_CODE, align 1, keep-with-next
   \                     ??Subroutine129_0:
   \   000000   E0           MOVX    A,@DPTR
   \   000001   FE           MOV     R6,A
   \   000002   A3           INC     DPTR
   \   000003   E0           MOVX    A,@DPTR
   \   000004   FF           MOV     R7,A
   \   000005   22           RET

   \                                 In  segment BANKED_CODE, align 1, keep-with-next
   \                     ?Subroutine61:
   \   000000   F0           MOVX    @DPTR,A
   \   000001   8882         MOV     DPL,R0
   \   000003   8983         MOV     DPH,R1
   \   000005   22           RET

   \                                 In  segment BANKED_CODE, align 1, keep-with-next
   \                     ??Subroutine131_0:
   \   000000   3400         ADDC    A,#0x0
   \   000002   F583         MOV     DPH,A
   \   000004   E0           MOVX    A,@DPTR
   \   000005   22           RET
    731          
    732          /*********************************************************************
    733           * @fn          ZDP_NodeDescMsg
    734           *
    735           * @brief       Builds and sends a Node Descriptor message, unicast to the
    736           *              specified device.
    737           *
    738           * @param       inMsg - incoming message
    739           * @param       nwkAddr - 16 bit network address for device
    740           * @param       pNodeDesc - pointer to the node descriptor
    741           *
    742           * @return      afStatus_t
    743           */

   \                                 In  segment BANKED_CODE, align 1, keep-with-next
    744          afStatus_t ZDP_NodeDescMsg( zdoIncomingMsg_t *inMsg,
   \                     ZDP_NodeDescMsg:
    745                                     uint16 nwkAddr, NodeDescriptorFormat_t *pNodeDesc )
    746          {
   \   000000   74F6         MOV     A,#-0xa
   \   000002   12....       LCALL   ?BANKED_ENTER_XDATA
   \   000005                ; Saved register size: 10
   \   000005                ; Auto size: 0
   \   000005   740A         MOV     A,#0xa
   \   000007   12....       LCALL   ?XSTACK_DISP0_8
   \   00000A   12....       LCALL   ??Subroutine129_0 & 0xFFFF
    747            uint8 *pBuf = ZDP_TmpBuf;
   \                     ??CrossCallReturnLabel_289:
   \   00000D   90....       MOV     DPTR,#ZDP_TmpBuf
   \   000010   12....       LCALL   ?Subroutine45 & 0xFFFF
    748            byte len;
    749          
    750            len = 1 + 2 + 13;  // Status + nwkAddr + Node descriptor
    751          
    752            *pBuf++ = ZDP_SUCCESS;
   \                     ??CrossCallReturnLabel_59:
   \   000013   12....       LCALL   ?Subroutine59 & 0xFFFF
    753          
    754            *pBuf++ = LO_UINT16( nwkAddr );
    755            *pBuf++ = HI_UINT16( nwkAddr );
   \                     ??CrossCallReturnLabel_80:
   \   000016   12....       LCALL   ??Subroutine121_0 & 0xFFFF
    756          
    757            *pBuf++ = (byte)((pNodeDesc->ComplexDescAvail << 3) |
    758                               (pNodeDesc->UserDescAvail << 4) |
    759                               (pNodeDesc->LogicalType & 0x07));
   \                     ??CrossCallReturnLabel_235:
   \   000019   8E82         MOV     DPL,R6
   \   00001B   8F83         MOV     DPH,R7
   \   00001D   E0           MOVX    A,@DPTR
   \   00001E   541F         ANL     A,#0x1f
   \   000020   12....       LCALL   ?Subroutine79 & 0xFFFF
    760          
    761            *pBuf++ = (byte)((pNodeDesc->FrequencyBand << 3) | (pNodeDesc->APSFlags & 0x07));
   \                     ??CrossCallReturnLabel_116:
   \   000023   12....       LCALL   ?Subroutine35 & 0xFFFF
    762            *pBuf++ = pNodeDesc->CapabilityFlags;
   \                     ??CrossCallReturnLabel_36:
   \   000026   8E82         MOV     DPL,R6
   \   000028   8F83         MOV     DPH,R7
   \   00002A   A3           INC     DPTR
   \   00002B   A3           INC     DPTR
   \   00002C   12....       LCALL   ?Subroutine24 & 0xFFFF
    763            *pBuf++ = pNodeDesc->ManufacturerCode[0];
   \                     ??CrossCallReturnLabel_22:
   \   00002F   12....       LCALL   ?Subroutine24 & 0xFFFF
    764            *pBuf++ = pNodeDesc->ManufacturerCode[1];
   \                     ??CrossCallReturnLabel_23:
   \   000032   A3           INC     DPTR
   \   000033   12....       LCALL   ?Subroutine22 & 0xFFFF
    765            *pBuf++ = pNodeDesc->MaxBufferSize;
   \                     ??CrossCallReturnLabel_17:
   \   000036   12....       LCALL   ?Subroutine22 & 0xFFFF
    766            *pBuf++ = pNodeDesc->MaxInTransferSize[0];
   \                     ??CrossCallReturnLabel_18:
   \   000039   A3           INC     DPTR
   \   00003A   12....       LCALL   ?Subroutine20 & 0xFFFF
    767            *pBuf++ = pNodeDesc->MaxInTransferSize[1];
   \                     ??CrossCallReturnLabel_13:
   \   00003D   12....       LCALL   ?Subroutine23 & 0xFFFF
    768          
    769            *pBuf++ = LO_UINT16( pNodeDesc->ServerMask );
   \                     ??CrossCallReturnLabel_19:
   \   000040   2408         ADD     A,#0x8
   \   000042   FC           MOV     R4,A
   \   000043   EF           MOV     A,R7
   \   000044   3400         ADDC    A,#0x0
   \   000046   FD           MOV     R5,A
   \   000047   12....       LCALL   ?Subroutine15 & 0xFFFF
    770            *pBuf++ = HI_UINT16( pNodeDesc->ServerMask );
   \                     ??CrossCallReturnLabel_154:
   \   00004A   12....       LCALL   ?Subroutine20 & 0xFFFF
    771            *pBuf++ = pNodeDesc->MaxOutTransferSize[0];
   \                     ??CrossCallReturnLabel_14:
   \   00004D   A3           INC     DPTR
   \   00004E   A3           INC     DPTR
   \   00004F   A3           INC     DPTR
   \   000050   12....       LCALL   ?Subroutine23 & 0xFFFF
    772            *pBuf++ = pNodeDesc->MaxOutTransferSize[1];
   \                     ??CrossCallReturnLabel_20:
   \   000053   240B         ADD     A,#0xb
   \   000055   F582         MOV     DPL,A
   \   000057   EF           MOV     A,R7
   \   000058   12....       LCALL   ??Subroutine125_0 & 0xFFFF
   \                     ??CrossCallReturnLabel_251:
   \   00005B   12....       LCALL   ?Subroutine23 & 0xFFFF
    773            *pBuf = pNodeDesc->DescriptorCapability;
   \                     ??CrossCallReturnLabel_21:
   \   00005E   240C         ADD     A,#0xc
   \   000060   F582         MOV     DPL,A
   \   000062   EF           MOV     A,R7
   \   000063   12....       LCALL   ??Subroutine125_0 & 0xFFFF
   \                     ??CrossCallReturnLabel_252:
   \   000066   12....       LCALL   ?Subroutine44 & 0xFFFF
    774          
    775            return fillAndSend( &(inMsg->TransSeq), &(inMsg->srcAddr), Node_Desc_rsp, len );
   \                     ??CrossCallReturnLabel_57:
   \   000069                ; Setup parameters for call to function fillAndSend
   \   000069   75..02       MOV     ?V0 + 0,#0x2
   \   00006C   75..80       MOV     ?V0 + 1,#-0x80
   \   00006F   78..         MOV     R0,#?V0 + 0
   \   000071   12....       LCALL   ?PUSH_XSTACK_I_TWO
   \   000074   7910         MOV     R1,#0x10
   \   000076   EA           MOV     A,R2
   \   000077   2402         ADD     A,#0x2
   \   000079   FC           MOV     R4,A
   \   00007A   EB           MOV     A,R3
   \   00007B   3400         ADDC    A,#0x0
   \   00007D   FD           MOV     R5,A
   \   00007E   EA           MOV     A,R2
   \   00007F   240F         ADD     A,#0xf
   \   000081   FA           MOV     R2,A
   \   000082   EB           MOV     A,R3
   \   000083                REQUIRE ?Subroutine9
   \   000083                ; // Fall through to label ?Subroutine9
    776          }

   \                                 In  segment BANKED_CODE, align 1, keep-with-next
   \                     ?Subroutine9:
   \   000000   3400         ADDC    A,#0x0
   \   000002   FB           MOV     R3,A
   \   000003   02....       LJMP    ??Subroutine96_0 & 0xFFFF

   \                                 In  segment BANKED_CODE, align 1, keep-with-next
   \                     ?Subroutine24:
   \   000000   E0           MOVX    A,@DPTR
   \   000001   12....       LCALL   ?Subroutine79 & 0xFFFF
   \                     ??CrossCallReturnLabel_117:
   \   000004   A3           INC     DPTR
   \   000005   A3           INC     DPTR
   \   000006   22           RET

   \                                 In  segment BANKED_CODE, align 1, keep-with-next
   \                     ?Subroutine79:
   \   000000   12....       LCALL   ?Subroutine90 & 0xFFFF
   \                     ??CrossCallReturnLabel_126:
   \   000003   22           RET

   \                                 In  segment BANKED_CODE, align 1, keep-with-next
   \                     ?Subroutine90:
   \   000000   8882         MOV     DPL,R0
   \   000002   8983         MOV     DPH,R1
   \   000004   F0           MOVX    @DPTR,A
   \   000005   A3           INC     DPTR
   \   000006   08           INC     R0
   \   000007   A983         MOV     R1,DPH
   \   000009   8E82         MOV     DPL,R6
   \   00000B   8F83         MOV     DPH,R7
   \   00000D   A3           INC     DPTR
   \   00000E   22           RET

   \                                 In  segment BANKED_CODE, align 1, keep-with-next
   \                     ?Subroutine23:
   \   000000   12....       LCALL   ??Subroutine122_0 & 0xFFFF
   \                     ??CrossCallReturnLabel_245:
   \   000003   EE           MOV     A,R6
   \   000004   22           RET

   \                                 In  segment BANKED_CODE, align 1, keep-with-next
   \                     ?Subroutine22:
   \   000000   12....       LCALL   ?Subroutine74 & 0xFFFF
   \                     ??CrossCallReturnLabel_106:
   \   000003   22           RET

   \                                 In  segment BANKED_CODE, align 1, keep-with-next
   \                     ?Subroutine74:
   \   000000   E0           MOVX    A,@DPTR
   \   000001   12....       LCALL   ?Subroutine90 & 0xFFFF
   \                     ??CrossCallReturnLabel_127:
   \   000004   A3           INC     DPTR
   \   000005   A3           INC     DPTR
   \   000006   A3           INC     DPTR
   \   000007   A3           INC     DPTR
   \   000008   22           RET

   \                                 In  segment BANKED_CODE, align 1, keep-with-next
   \                     ?Subroutine20:
   \   000000   12....       LCALL   ?Subroutine74 & 0xFFFF
   \                     ??CrossCallReturnLabel_107:
   \   000003   A3           INC     DPTR
   \   000004   A3           INC     DPTR
   \   000005   22           RET

   \                                 In  segment BANKED_CODE, align 1, keep-with-next
   \                     ?Subroutine15:
   \   000000   8C82         MOV     DPL,R4
   \   000002   8D83         MOV     DPH,R5
   \   000004                REQUIRE ??Subroutine104_0
   \   000004                ; // Fall through to label ??Subroutine104_0

   \                                 In  segment BANKED_CODE, align 1, keep-with-next
   \                     ??Subroutine104_0:
   \   000000   12....       LCALL   ??Subroutine122_0 & 0xFFFF
   \                     ??CrossCallReturnLabel_250:
   \   000003   8C82         MOV     DPL,R4
   \   000005   8D83         MOV     DPH,R5
   \   000007   A3           INC     DPTR
   \   000008   22           RET

   \                                 In  segment BANKED_CODE, align 1, keep-with-next
   \                     ?Subroutine59:
   \   000000   E4           CLR     A
   \   000001   F0           MOVX    @DPTR,A
   \   000002   A3           INC     DPTR
   \   000003   EC           MOV     A,R4
   \   000004   F0           MOVX    @DPTR,A
   \   000005   A3           INC     DPTR
   \   000006   ED           MOV     A,R5
   \   000007   22           RET

   \                                 In  segment BANKED_CODE, align 1, keep-with-next
   \                     ?Subroutine35:
   \   000000   12....       LCALL   ??Subroutine122_0 & 0xFFFF
   \                     ??CrossCallReturnLabel_246:
   \   000003   22           RET
    777          
    778          /*********************************************************************
    779           * @fn          ZDP_PowerDescMsg
    780           *
    781           * @brief       Builds and sends a Power Descriptor message, unicast to the
    782           *              specified device.
    783           *
    784           * @param       inMsg - incoming message (request)
    785           * @param       nwkAddr - 16 bit network address for device
    786           * @param       pPowerDesc - pointer to the node descriptor
    787           *
    788           * @return      afStatus_t
    789           */

   \                                 In  segment BANKED_CODE, align 1, keep-with-next
    790          afStatus_t ZDP_PowerDescMsg( zdoIncomingMsg_t *inMsg,
   \                     ZDP_PowerDescMsg:
    791                               uint16 nwkAddr, NodePowerDescriptorFormat_t *pPowerDesc )
    792          {
   \   000000   74F6         MOV     A,#-0xa
   \   000002   12....       LCALL   ?BANKED_ENTER_XDATA
   \   000005                ; Saved register size: 10
   \   000005                ; Auto size: 0
   \   000005   EA           MOV     A,R2
   \   000006   FE           MOV     R6,A
   \   000007   EB           MOV     A,R3
   \   000008   FF           MOV     R7,A
   \   000009   740A         MOV     A,#0xa
   \   00000B   12....       LCALL   ?XSTACK_DISP0_8
   \   00000E   12....       LCALL   ??Subroutine112_0 & 0xFFFF
    793            uint8 *pBuf = ZDP_TmpBuf;
   \                     ??CrossCallReturnLabel_173:
   \   000011   12....       LCALL   ?Subroutine39 & 0xFFFF
    794            byte len = 1 + 2 + 2;  // Status + nwkAddr + Node Power descriptor.
    795          
    796            *pBuf++ = ZDP_SUCCESS;
   \                     ??CrossCallReturnLabel_159:
   \   000014   8A82         MOV     DPL,R2
   \   000016   8B83         MOV     DPH,R3
   \   000018   12....       LCALL   ?Subroutine59 & 0xFFFF
    797          
    798            *pBuf++ = LO_UINT16( nwkAddr );
    799            *pBuf++ = HI_UINT16( nwkAddr );
   \                     ??CrossCallReturnLabel_81:
   \   00001B   12....       LCALL   ??Subroutine126_0 & 0xFFFF
    800          
    801            *pBuf++ = (byte)((pPowerDesc->AvailablePowerSources << 4)
    802                              | (pPowerDesc->PowerMode & 0x0F));
   \                     ??CrossCallReturnLabel_263:
   \   00001E   8882         MOV     DPL,R0
   \   000020   8983         MOV     DPH,R1
   \   000022   12....       LCALL   ?Subroutine40 & 0xFFFF
    803            *pBuf++ = (byte)((pPowerDesc->CurrentPowerSourceLevel << 4)
    804                              | (pPowerDesc->CurrentPowerSource & 0x0F));
   \                     ??CrossCallReturnLabel_49:
   \   000025   8882         MOV     DPL,R0
   \   000027   8983         MOV     DPH,R1
   \   000029   12....       LCALL   ??Subroutine119_0 & 0xFFFF
   \                     ??CrossCallReturnLabel_218:
   \   00002C   540F         ANL     A,#0xf
   \   00002E   F9           MOV     R1,A
   \   00002F   740C         MOV     A,#0xc
   \   000031   78..         MOV     R0,#?V0 + 0
   \   000033   12....       LCALL   ?US_SHR
   \   000036   E5..         MOV     A,?V0 + 0
   \   000038   C4           SWAP    A
   \   000039   49           ORL     A,R1
   \   00003A   8A82         MOV     DPL,R2
   \   00003C   8B83         MOV     DPH,R3
   \   00003E   F0           MOVX    @DPTR,A
    805          
    806            return fillAndSend( &(inMsg->TransSeq), &(inMsg->srcAddr), Power_Desc_rsp, len );
   \   00003F                ; Setup parameters for call to function fillAndSend
   \   00003F   75..03       MOV     ?V0 + 0,#0x3
   \   000042   75..80       MOV     ?V0 + 1,#-0x80
   \   000045   78..         MOV     R0,#?V0 + 0
   \   000047   12....       LCALL   ?PUSH_XSTACK_I_TWO
   \   00004A   7905         MOV     R1,#0x5
   \   00004C   EE           MOV     A,R6
   \   00004D   2402         ADD     A,#0x2
   \   00004F   FC           MOV     R4,A
   \   000050   EF           MOV     A,R7
   \   000051   3400         ADDC    A,#0x0
   \   000053   FD           MOV     R5,A
   \   000054   EE           MOV     A,R6
   \   000055   240F         ADD     A,#0xf
   \   000057   FA           MOV     R2,A
   \   000058   EF           MOV     A,R7
   \   000059   02....       LJMP    ?Subroutine9 & 0xFFFF
    807          }

   \                                 In  segment BANKED_CODE, align 1, keep-with-next
   \                     ?Subroutine39:
   \   000000   90....       MOV     DPTR,#ZDP_TmpBuf
   \   000003                REQUIRE ??Subroutine105_0
   \   000003                ; // Fall through to label ??Subroutine105_0

   \                                 In  segment BANKED_CODE, align 1, keep-with-next
   \                     ??Subroutine105_0:
   \   000000   E0           MOVX    A,@DPTR
   \   000001   FA           MOV     R2,A
   \   000002   A3           INC     DPTR
   \   000003   E0           MOVX    A,@DPTR
   \   000004   FB           MOV     R3,A
   \   000005   22           RET

   \                                 In  segment BANKED_CODE, align 1, keep-with-next
   \                     ?Subroutine40:
   \   000000   12....       LCALL   ?Subroutine87 & 0xFFFF
   \                     ??CrossCallReturnLabel_123:
   \   000003   AB83         MOV     R3,DPH
   \   000005   22           RET

   \                                 In  segment BANKED_CODE, align 1, keep-with-next
   \                     ??Subroutine126_0:
   \   000000   F0           MOVX    @DPTR,A
   \   000001   A3           INC     DPTR
   \   000002   AA82         MOV     R2,DPL
   \   000004   AB83         MOV     R3,DPH
   \   000006   22           RET

   \                                 In  segment BANKED_CODE, align 1, keep-with-next
   \                     ?Subroutine87:
   \   000000   12....       LCALL   ?Subroutine93 & 0xFFFF
   \                     ??CrossCallReturnLabel_129:
   \   000003   22           RET

   \                                 In  segment BANKED_CODE, align 1, keep-with-next
   \                     ?Subroutine93:
   \   000000   E0           MOVX    A,@DPTR
   \   000001   8A82         MOV     DPL,R2
   \   000003   8B83         MOV     DPH,R3
   \   000005   F0           MOVX    @DPTR,A
   \   000006   A3           INC     DPTR
   \   000007   0A           INC     R2
   \   000008   22           RET
    808          
    809          /*********************************************************************
    810           * @fn          ZDP_SimpleDescMsg
    811           *
    812           * @brief       Builds and sends a Simple Descriptor message, unicast to the
    813           *              specified device.
    814           *
    815           * @param       inMsg - incoming message (request)
    816           * @param       Status - message status (ZDP_SUCCESS or other)
    817           * @param       pSimpleDesc - pointer to the node descriptor
    818           *
    819           * @return      afStatus_t
    820           */

   \                                 In  segment BANKED_CODE, align 1, keep-with-next
    821          afStatus_t ZDP_SimpleDescMsg( zdoIncomingMsg_t *inMsg, byte Status,
   \                     ZDP_SimpleDescMsg:
    822                                        SimpleDescriptionFormat_t *pSimpleDesc )
    823          {
   \   000000   74F0         MOV     A,#-0x10
   \   000002   12....       LCALL   ?BANKED_ENTER_XDATA
   \   000005                ; Saved register size: 16
   \   000005                ; Auto size: 0
   \   000005   8A..         MOV     ?V0 + 0,R2
   \   000007   8B..         MOV     ?V0 + 1,R3
   \   000009   E9           MOV     A,R1
   \   00000A   FE           MOV     R6,A
    824            uint8 *pBuf = ZDP_TmpBuf;
   \   00000B   12....       LCALL   ?Subroutine43 & 0xFFFF
    825            uint8 i, len;
    826          
    827            if ( Status == ZDP_SUCCESS && pSimpleDesc )
   \                     ??CrossCallReturnLabel_55:
   \   00000E   7036         JNZ     ??ZDP_SimpleDescMsg_0
   \   000010   EC           MOV     A,R4
   \   000011   4D           ORL     A,R5
   \   000012   6032         JZ      ??ZDP_SimpleDescMsg_0
    828            {
    829              // Status + NWKAddrOfInterest + desc length + empty simple descriptor.
    830              len = 1 + 2 + 1 + 8;
    831              len += (pSimpleDesc->AppNumInClusters + pSimpleDesc->AppNumOutClusters) * sizeof ( uint16 );
   \   000014   8C82         MOV     DPL,R4
   \   000016   8D83         MOV     DPH,R5
   \   000018   A3           INC     DPTR
   \   000019   A3           INC     DPTR
   \   00001A   A3           INC     DPTR
   \   00001B   A3           INC     DPTR
   \   00001C   A3           INC     DPTR
   \   00001D   A3           INC     DPTR
   \   00001E   A3           INC     DPTR
   \   00001F   A3           INC     DPTR
   \   000020   A3           INC     DPTR
   \   000021   C082         PUSH    DPL
   \   000023   C083         PUSH    DPH
   \   000025   8C82         MOV     DPL,R4
   \   000027   8D83         MOV     DPH,R5
   \   000029   A3           INC     DPTR
   \   00002A   A3           INC     DPTR
   \   00002B   A3           INC     DPTR
   \   00002C   A3           INC     DPTR
   \   00002D   A3           INC     DPTR
   \   00002E   A3           INC     DPTR
   \   00002F   E0           MOVX    A,@DPTR
   \   000030   D083         POP     DPH
   \   000032   D082         POP     DPL
   \   000034   FA           MOV     R2,A
   \   000035   E0           MOVX    A,@DPTR
   \   000036   2A           ADD     A,R2
   \   000037   C3           CLR     C
   \   000038   33           RLC     A
   \   000039   240C         ADD     A,#0xc
   \   00003B   FA           MOV     R2,A
    832            }
    833            else
    834            {
    835              len = 1 + 2 + 1; // Status + desc length
    836            }
    837            if ( len >= ZDP_BUF_SZ-1 )
   \   00003C   C3           CLR     C
   \   00003D   944F         SUBB    A,#0x4f
   \   00003F   4007         JC      ??ZDP_SimpleDescMsg_1
    838            {
    839              return afStatus_MEM_FAIL;
   \   000041   7910         MOV     R1,#0x10
   \   000043   02....       LJMP    ??ZDP_SimpleDescMsg_2 & 0xFFFF
    840            }
   \                     ??ZDP_SimpleDescMsg_0:
   \   000046   7A04         MOV     R2,#0x4
    841          
    842            *pBuf++ = Status;
   \                     ??ZDP_SimpleDescMsg_1:
   \   000048   EE           MOV     A,R6
   \   000049   12....       LCALL   ?Subroutine52 & 0xFFFF
    843          
    844            *pBuf++ = LO_UINT16( ZDAppNwkAddr.addr.shortAddr );
   \                     ??CrossCallReturnLabel_238:
   \   00004C   90....       MOV     DPTR,#ZDAppNwkAddr
   \   00004F   12....       LCALL   ?Subroutine35 & 0xFFFF
    845            *pBuf++ = HI_UINT16( ZDAppNwkAddr.addr.shortAddr );
   \                     ??CrossCallReturnLabel_37:
   \   000052   90....       MOV     DPTR,#ZDAppNwkAddr + 1
   \   000055   12....       LCALL   ?Subroutine44 & 0xFFFF
   \                     ??CrossCallReturnLabel_58:
   \   000058   A3           INC     DPTR
    846          
    847            if ( len > 4 )
   \   000059   EA           MOV     A,R2
   \   00005A   C3           CLR     C
   \   00005B   9405         SUBB    A,#0x5
   \   00005D   5003         JNC     $+5
   \   00005F   02....       LJMP    ??ZDP_SimpleDescMsg_3 & 0xFFFF
    848            {
    849              *pBuf++ = len - 4;   // Simple descriptor length
   \   000062   74FC         MOV     A,#-0x4
   \   000064   2A           ADD     A,R2
   \   000065   F0           MOVX    @DPTR,A
   \   000066   A3           INC     DPTR
   \   000067   08           INC     R0
   \   000068   08           INC     R0
   \   000069   A983         MOV     R1,DPH
    850          
    851              *pBuf++ = pSimpleDesc->EndPoint;
   \   00006B   12....       LCALL   ?Subroutine15 & 0xFFFF
    852              *pBuf++ = LO_UINT16( pSimpleDesc->AppProfId );
   \                     ??CrossCallReturnLabel_155:
   \   00006E   8582..       MOV     ?V0 + 2,DPL
   \   000071   8583..       MOV     ?V0 + 3,DPH
   \   000074   12....       LCALL   ?Subroutine16 & 0xFFFF
    853              *pBuf++ = HI_UINT16( pSimpleDesc->AppProfId );
   \                     ??CrossCallReturnLabel_4:
   \   000077   12....       LCALL   ?Subroutine35 & 0xFFFF
    854              *pBuf++ = LO_UINT16( pSimpleDesc->AppDeviceId );
   \                     ??CrossCallReturnLabel_38:
   \   00007A   EC           MOV     A,R4
   \   00007B   2403         ADD     A,#0x3
   \   00007D   12....       LCALL   ?Subroutine65 & 0xFFFF
   \                     ??CrossCallReturnLabel_92:
   \   000080   12....       LCALL   ?Subroutine16 & 0xFFFF
    855              *pBuf++ = HI_UINT16( pSimpleDesc->AppDeviceId );
   \                     ??CrossCallReturnLabel_5:
   \   000083   12....       LCALL   ??Subroutine104_0 & 0xFFFF
    856          
    857              *pBuf++ = (byte)(pSimpleDesc->AppDevVer << 4);
   \                     ??CrossCallReturnLabel_156:
   \   000086   A3           INC     DPTR
   \   000087   A3           INC     DPTR
   \   000088   A3           INC     DPTR
   \   000089   A3           INC     DPTR
   \   00008A   E0           MOVX    A,@DPTR
   \   00008B   C4           SWAP    A
   \   00008C   54F0         ANL     A,#0xf0
   \   00008E   12....       LCALL   ??Subroutine123_0 & 0xFFFF
    858          
    859              *pBuf++ = pSimpleDesc->AppNumInClusters;
   \                     ??CrossCallReturnLabel_243:
   \   000091   EC           MOV     A,R4
   \   000092   2406         ADD     A,#0x6
   \   000094   12....       LCALL   ?Subroutine65 & 0xFFFF
   \                     ??CrossCallReturnLabel_93:
   \   000097   12....       LCALL   ?Subroutine35 & 0xFFFF
    860              if ( pSimpleDesc->AppNumInClusters )
   \                     ??CrossCallReturnLabel_39:
   \   00009A   85..82       MOV     DPL,?V0 + 2
   \   00009D   85..83       MOV     DPH,?V0 + 3
   \   0000A0   E0           MOVX    A,@DPTR
   \   0000A1   6024         JZ      ??ZDP_SimpleDescMsg_4
    861              {
    862                for (i=0; i<pSimpleDesc->AppNumInClusters; ++i)
   \   0000A3   7B00         MOV     R3,#0x0
   \   0000A5   800F         SJMP    ??CrossCallReturnLabel_0
    863                {
    864                  *pBuf++ = LO_UINT16( pSimpleDesc->pAppInClusterList[i] );
   \                     ??ZDP_SimpleDescMsg_5:
   \   0000A7   EB           MOV     A,R3
   \   0000A8   C3           CLR     C
   \   0000A9   33           RLC     A
   \   0000AA   F5..         MOV     ?V0 + 2,A
   \   0000AC   E4           CLR     A
   \   0000AD   33           RLC     A
   \   0000AE   F5..         MOV     ?V0 + 3,A
   \   0000B0   EC           MOV     A,R4
   \   0000B1   2407         ADD     A,#0x7
   \   0000B3   12....       LCALL   ?Subroutine11 & 0xFFFF
    865                  *pBuf++ = HI_UINT16( pSimpleDesc->pAppInClusterList[i] );
    866                }
   \                     ??CrossCallReturnLabel_0:
   \   0000B6   8C82         MOV     DPL,R4
   \   0000B8   8D83         MOV     DPH,R5
   \   0000BA   A3           INC     DPTR
   \   0000BB   A3           INC     DPTR
   \   0000BC   A3           INC     DPTR
   \   0000BD   A3           INC     DPTR
   \   0000BE   A3           INC     DPTR
   \   0000BF   A3           INC     DPTR
   \   0000C0   E0           MOVX    A,@DPTR
   \   0000C1   FF           MOV     R7,A
   \   0000C2   EB           MOV     A,R3
   \   0000C3   C3           CLR     C
   \   0000C4   9F           SUBB    A,R7
   \   0000C5   40E0         JC      ??ZDP_SimpleDescMsg_5
    867              }
    868          
    869              *pBuf++ = pSimpleDesc->AppNumOutClusters;
   \                     ??ZDP_SimpleDescMsg_4:
   \   0000C7   EC           MOV     A,R4
   \   0000C8   2409         ADD     A,#0x9
   \   0000CA   12....       LCALL   ?Subroutine65 & 0xFFFF
   \                     ??CrossCallReturnLabel_94:
   \   0000CD   12....       LCALL   ?Subroutine25 & 0xFFFF
    870              if ( pSimpleDesc->AppNumOutClusters )
   \                     ??CrossCallReturnLabel_24:
   \   0000D0   E0           MOVX    A,@DPTR
   \   0000D1   6029         JZ      ??ZDP_SimpleDescMsg_6
    871              {
    872                for (i=0; i<pSimpleDesc->AppNumOutClusters; ++i)
   \   0000D3   7B00         MOV     R3,#0x0
   \                     ??ZDP_SimpleDescMsg_7:
   \   0000D5   8C82         MOV     DPL,R4
   \   0000D7   8D83         MOV     DPH,R5
   \   0000D9   A3           INC     DPTR
   \   0000DA   A3           INC     DPTR
   \   0000DB   A3           INC     DPTR
   \   0000DC   A3           INC     DPTR
   \   0000DD   A3           INC     DPTR
   \   0000DE   A3           INC     DPTR
   \   0000DF   A3           INC     DPTR
   \   0000E0   A3           INC     DPTR
   \   0000E1   A3           INC     DPTR
   \   0000E2   E0           MOVX    A,@DPTR
   \   0000E3   FF           MOV     R7,A
   \   0000E4   EB           MOV     A,R3
   \   0000E5   C3           CLR     C
   \   0000E6   9F           SUBB    A,R7
   \   0000E7   5013         JNC     ??ZDP_SimpleDescMsg_6
    873                {
    874                  *pBuf++ = LO_UINT16( pSimpleDesc->pAppOutClusterList[i] );
   \   0000E9   EB           MOV     A,R3
   \   0000EA   C3           CLR     C
   \   0000EB   33           RLC     A
   \   0000EC   F5..         MOV     ?V0 + 2,A
   \   0000EE   E4           CLR     A
   \   0000EF   33           RLC     A
   \   0000F0   F5..         MOV     ?V0 + 3,A
   \   0000F2   EC           MOV     A,R4
   \   0000F3   240A         ADD     A,#0xa
   \   0000F5   12....       LCALL   ?Subroutine11 & 0xFFFF
    875                  *pBuf++ = HI_UINT16( pSimpleDesc->pAppOutClusterList[i] );
    876                }
    877              }
    878            }
   \                     ??CrossCallReturnLabel_1:
   \   0000F8   80DB         SJMP    ??ZDP_SimpleDescMsg_7
    879          
    880            else
    881            {
    882              *pBuf = 0; // Description Length = 0;
   \                     ??ZDP_SimpleDescMsg_3:
   \   0000FA   E4           CLR     A
   \   0000FB   F0           MOVX    @DPTR,A
    883            }
    884          
    885            return fillAndSend( &(inMsg->TransSeq), &(inMsg->srcAddr), Simple_Desc_rsp, len );
   \                     ??ZDP_SimpleDescMsg_6:
   \   0000FC                ; Setup parameters for call to function fillAndSend
   \   0000FC   75..04       MOV     ?V0 + 2,#0x4
   \   0000FF   75..80       MOV     ?V0 + 3,#-0x80
   \   000102   78..         MOV     R0,#?V0 + 2
   \   000104   12....       LCALL   ?PUSH_XSTACK_I_TWO
   \   000107   EA           MOV     A,R2
   \   000108   F9           MOV     R1,A
   \   000109   E5..         MOV     A,?V0 + 0
   \   00010B   2402         ADD     A,#0x2
   \   00010D   FC           MOV     R4,A
   \   00010E   E5..         MOV     A,?V0 + 1
   \   000110   3400         ADDC    A,#0x0
   \   000112   FD           MOV     R5,A
   \   000113   E5..         MOV     A,?V0 + 0
   \   000115   240F         ADD     A,#0xf
   \   000117   FA           MOV     R2,A
   \   000118   E5..         MOV     A,?V0 + 1
   \   00011A   12....       LCALL   ?Subroutine69 & 0xFFFF
   \                     ??CrossCallReturnLabel_100:
   \   00011D   12....       LCALL   ?DEALLOC_XSTACK8
   \                     ??ZDP_SimpleDescMsg_2:
   \   000120   80..         SJMP    ??Subroutine107_0
    886          }

   \                                 In  segment BANKED_CODE, align 1, keep-with-next
   \                     ?Subroutine65:
   \   000000   F5..         MOV     ?V0 + 2,A
   \   000002   ED           MOV     A,R5
   \   000003   3400         ADDC    A,#0x0
   \   000005   F5..         MOV     ?V0 + 3,A
   \   000007   85..82       MOV     DPL,?V0 + 2
   \   00000A   F583         MOV     DPH,A
   \   00000C   22           RET

   \                                 In  segment BANKED_CODE, align 1, keep-with-next
   \                     ?Subroutine11:
   \   000000   F5..         MOV     ?V0 + 4,A
   \   000002   ED           MOV     A,R5
   \   000003   3400         ADDC    A,#0x0
   \   000005   F5..         MOV     ?V0 + 5,A
   \   000007   85..82       MOV     DPL,?V0 + 4
   \   00000A   F583         MOV     DPH,A
   \   00000C   12....       LCALL   ?Subroutine83 & 0xFFFF
   \                     ??CrossCallReturnLabel_120:
   \   00000F   12....       LCALL   ?Subroutine76 & 0xFFFF
   \                     ??CrossCallReturnLabel_239:
   \   000012   85..82       MOV     DPL,?V0 + 4
   \   000015   85..83       MOV     DPH,?V0 + 5
   \   000018   12....       LCALL   ?Subroutine83 & 0xFFFF
   \                     ??CrossCallReturnLabel_121:
   \   00001B   12....       LCALL   ?Subroutine80 & 0xFFFF
   \                     ??CrossCallReturnLabel_247:
   \   00001E   0B           INC     R3
   \   00001F   22           RET

   \                                 In  segment BANKED_CODE, align 1, keep-with-next
   \                     ?Subroutine83:
   \   000000   E0           MOVX    A,@DPTR
   \   000001   25..         ADD     A,?V0 + 2
   \   000003   FF           MOV     R7,A
   \   000004   A3           INC     DPTR
   \   000005   E0           MOVX    A,@DPTR
   \   000006   35..         ADDC    A,?V0 + 3
   \   000008   8F82         MOV     DPL,R7
   \   00000A   F583         MOV     DPH,A
   \   00000C   22           RET

   \                                 In  segment BANKED_CODE, align 1, keep-with-next
   \                     ?Subroutine25:
   \   000000   12....       LCALL   ?Subroutine76 & 0xFFFF
   \                     ??CrossCallReturnLabel_241:
   \   000003   85..82       MOV     DPL,?V0 + 2
   \   000006   85..83       MOV     DPH,?V0 + 3
   \   000009   22           RET

   \                                 In  segment BANKED_CODE, align 1, keep-with-next
   \                     ?Subroutine16:
   \   000000   12....       LCALL   ??Subroutine122_0 & 0xFFFF
   \                     ??CrossCallReturnLabel_244:
   \   000003   85..82       MOV     DPL,?V0 + 2
   \   000006   85..83       MOV     DPH,?V0 + 3
   \   000009   A3           INC     DPTR
   \   00000A   22           RET
    887          
    888          /*********************************************************************
    889           * @fn          ZDP_EPRsp
    890           *
    891           * @brief       This builds and send an endpoint list. Used in
    892           *              Active_EP_rsp and Match_Desc_Rsp
    893           *              message.  This function sends unicast message to the
    894           *              requesting device.
    895           *
    896           * @param       MsgType - either Active_EP_rsp or Match_Desc_Rsp
    897           * @param       dstAddr - destination address
    898           * @param       Status - message status (ZDP_SUCCESS or other)
    899           * @param       nwkAddr - Device's short address that this response describes
    900           * @param       Count - number of endpoint/interfaces in list
    901           * @param       pEPIntfList - Array of Endpoint/Interfaces
    902           * @param       SecurityEnable - Security Options
    903           *
    904           * @return      afStatus_t
    905           */

   \                                 In  segment BANKED_CODE, align 1, keep-with-next
    906          afStatus_t ZDP_EPRsp( uint16 MsgType, byte TransSeq, zAddrType_t *dstAddr,
   \                     ZDP_EPRsp:
    907                                  byte Status, uint16 nwkAddr, byte Count,
    908                                  uint8 *pEPList,
    909                                  byte SecurityEnable )
    910          {
   \   000000   74EE         MOV     A,#-0x12
   \   000002   12....       LCALL   ?BANKED_ENTER_XDATA
   \   000005                ; Saved register size: 18
   \   000005                ; Auto size: 1
   \   000005   74FF         MOV     A,#-0x1
   \   000007   12....       LCALL   ?ALLOC_XSTACK8
   \   00000A   E9           MOV     A,R1
   \   00000B   85..82       MOV     DPL,?XSP + 0
   \   00000E   85..83       MOV     DPH,?XSP + 1
   \   000011   F0           MOVX    @DPTR,A
   \   000012   EA           MOV     A,R2
   \   000013   FE           MOV     R6,A
   \   000014   EB           MOV     A,R3
   \   000015   FF           MOV     R7,A
   \   000016   8C..         MOV     ?V0 + 2,R4
   \   000018   8D..         MOV     ?V0 + 3,R5
   \   00001A   7413         MOV     A,#0x13
   \   00001C   12....       LCALL   ?XSTACK_DISP0_8
   \   00001F   E0           MOVX    A,@DPTR
   \   000020   FC           MOV     R4,A
   \   000021   7414         MOV     A,#0x14
   \   000023   12....       LCALL   ?XSTACK_DISP0_8
   \   000026   12....       LCALL   ??Subroutine112_0 & 0xFFFF
   \                     ??CrossCallReturnLabel_174:
   \   000029   7416         MOV     A,#0x16
   \   00002B   12....       LCALL   ?XSTACK_DISP0_8
   \   00002E   E0           MOVX    A,@DPTR
   \   00002F   F5..         MOV     ?V0 + 8,A
   \   000031   7417         MOV     A,#0x17
   \   000033   12....       LCALL   ?XSTACK_DISP0_8
   \   000036   12....       LCALL   ?Subroutine36 & 0xFFFF
    911            uint8 *pBuf = ZDP_TmpBuf;
   \                     ??CrossCallReturnLabel_42:
   \   000039   12....       LCALL   ?Subroutine39 & 0xFFFF
    912            byte len = 1 + 2 + 1;  // Status + nwkAddr + endpoint/interface count.
   \                     ??CrossCallReturnLabel_160:
   \   00003C   75..04       MOV     ?V0 + 0,#0x4
    913            byte txOptions;
    914          
    915            (void)SecurityEnable;  // Intentionally unreferenced parameter
    916          
    917            if ( MsgType == Match_Desc_rsp )
   \   00003F   7406         MOV     A,#0x6
   \   000041   6E           XRL     A,R6
   \   000042   7003         JNZ     ??ZDP_EPRsp_0
   \   000044   7480         MOV     A,#-0x80
   \   000046   6F           XRL     A,R7
   \                     ??ZDP_EPRsp_0:
   \   000047   7005         JNZ     ??ZDP_EPRsp_1
    918              txOptions = AF_MSG_ACK_REQUEST;
   \   000049   75..10       MOV     ?V0 + 1,#0x10
   \   00004C   8003         SJMP    ??ZDP_EPRsp_2
    919            else
    920              txOptions = 0;
   \                     ??ZDP_EPRsp_1:
   \   00004E   75..00       MOV     ?V0 + 1,#0x0
    921          
    922              *pBuf++ = Status;
   \                     ??ZDP_EPRsp_2:
   \   000051   EC           MOV     A,R4
   \   000052   8A82         MOV     DPL,R2
   \   000054   8B83         MOV     DPH,R3
   \   000056   F0           MOVX    @DPTR,A
   \   000057   A3           INC     DPTR
    923            *pBuf++ = LO_UINT16( nwkAddr );
   \   000058   E8           MOV     A,R0
   \   000059   F0           MOVX    @DPTR,A
   \   00005A   A3           INC     DPTR
    924            *pBuf++ = HI_UINT16( nwkAddr );
   \   00005B   E9           MOV     A,R1
   \   00005C   12....       LCALL   ?Subroutine51 & 0xFFFF
    925          
    926            *pBuf++ = Count;   // Endpoint/Interface count
    927          
    928            if ( Count )
   \                     ??CrossCallReturnLabel_261:
   \   00005F   6016         JZ      ??ZDP_EPRsp_3
    929            {
    930              len += Count;
   \   000061   7404         MOV     A,#0x4
   \   000063   25..         ADD     A,?V0 + 8
   \   000065   F5..         MOV     ?V0 + 0,A
    931              osal_memcpy( pBuf, pEPList, Count );
   \   000067                ; Setup parameters for call to function osal_memcpy
   \   000067   75..00       MOV     ?V0 + 6,#0x0
   \   00006A   78..         MOV     R0,#?V0 + 4
   \   00006C   12....       LCALL   ?PUSH_XSTACK_I_THREE
   \   00006F   AC..         MOV     R4,?V0 + 8
   \   000071   12....       LCALL   ?Subroutine71 & 0xFFFF
    932            }
   \                     ??CrossCallReturnLabel_162:
   \   000074   12....       LCALL   ?DEALLOC_XSTACK8
    933          
    934            FillAndSendTxOptions( &TransSeq, dstAddr, MsgType, len, txOptions );
   \                     ??ZDP_EPRsp_3:
   \   000077   E5..         MOV     A,?V0 + 1
   \   000079   90....       MOV     DPTR,#ZDP_TxOptions
   \   00007C   F0           MOVX    @DPTR,A
   \   00007D                ; Setup parameters for call to function fillAndSend
   \   00007D   8E..         MOV     ?V0 + 4,R6
   \   00007F   8F..         MOV     ?V0 + 5,R7
   \   000081   78..         MOV     R0,#?V0 + 4
   \   000083   12....       LCALL   ?PUSH_XSTACK_I_TWO
   \   000086   A9..         MOV     R1,?V0 + 0
   \   000088   AC..         MOV     R4,?V0 + 2
   \   00008A   AD..         MOV     R5,?V0 + 3
   \   00008C   7402         MOV     A,#0x2
   \   00008E   12....       LCALL   ?XSTACK_DISP0_8
   \   000091   AA82         MOV     R2,DPL
   \   000093   AB83         MOV     R3,DPH
   \   000095   12....       LCALL   ??Subroutine128_0 & 0xFFFF
   \                     ??CrossCallReturnLabel_279:
   \   000098   12....       LCALL   ?DEALLOC_XSTACK8
   \   00009B   90....       MOV     DPTR,#ZDP_TxOptions
   \   00009E   E4           CLR     A
   \   00009F   F0           MOVX    @DPTR,A
   \   0000A0   04           INC     A
   \   0000A1   02....       LJMP    ?Subroutine3 & 0xFFFF
    935          }

   \                                 In  segment BANKED_CODE, align 1, keep-with-next
   \                     ?Subroutine71:
   \   000000   7D00         MOV     R5,#0x0
   \   000002                REQUIRE ??Subroutine108_0
   \   000002                ; // Fall through to label ??Subroutine108_0

   \                                 In  segment BANKED_CODE, align 1, keep-with-next
   \                     ?Subroutine51:
   \   000000   F0           MOVX    @DPTR,A
   \   000001   A3           INC     DPTR
   \   000002   E5..         MOV     A,?V0 + 8
   \   000004                REQUIRE ??Subroutine126_0
   \   000004                ; // Fall through to label ??Subroutine126_0
    936          
    937          /*********************************************************************
    938           * @fn          ZDP_UserDescRsp
    939           *
    940           * @brief       Build and send the User Decriptor Response.
    941           *
    942           *
    943           * @param       dstAddr - destination address
    944           * @param       nwkAddrOfInterest -
    945           * @param       userDesc -
    946           * @param       SecurityEnable - Security Options
    947           *
    948           * @return      ZStatus_t
    949           */

   \                                 In  segment BANKED_CODE, align 1, keep-with-next
    950          ZStatus_t ZDP_UserDescRsp( byte TransSeq, zAddrType_t *dstAddr,
   \                     ZDP_UserDescRsp:
    951                          uint16 nwkAddrOfInterest, UserDescriptorFormat_t *userDesc,
    952                          byte SecurityEnable )
    953          {
   \   000000   74EE         MOV     A,#-0x12
   \   000002   12....       LCALL   ?BANKED_ENTER_XDATA
   \   000005                ; Saved register size: 18
   \   000005                ; Auto size: 1
   \   000005   74FF         MOV     A,#-0x1
   \   000007   12....       LCALL   ?ALLOC_XSTACK8
   \   00000A   E9           MOV     A,R1
   \   00000B   85..82       MOV     DPL,?XSP + 0
   \   00000E   85..83       MOV     DPH,?XSP + 1
   \   000011   F0           MOVX    @DPTR,A
   \   000012   EA           MOV     A,R2
   \   000013   FE           MOV     R6,A
   \   000014   EB           MOV     A,R3
   \   000015   FF           MOV     R7,A
   \   000016   7413         MOV     A,#0x13
   \   000018   12....       LCALL   ?XSTACK_DISP0_8
   \   00001B   12....       LCALL   ??Subroutine112_0 & 0xFFFF
   \                     ??CrossCallReturnLabel_175:
   \   00001E   88..         MOV     ?V0 + 8,R0
   \   000020   89..         MOV     ?V0 + 9,R1
    954            uint8 *pBuf = ZDP_TmpBuf;
   \   000022   12....       LCALL   ?Subroutine42 & 0xFFFF
    955            byte len = 1 + 2 + 1;  // Status + nwkAddr + descriptor length.
    956          
    957            (void)SecurityEnable;  // Intentionally unreferenced parameter
    958          
    959            len += userDesc->len;
   \                     ??CrossCallReturnLabel_224:
   \   000025   8882         MOV     DPL,R0
   \   000027   8983         MOV     DPH,R1
   \   000029   E0           MOVX    A,@DPTR
   \   00002A   2404         ADD     A,#0x4
   \   00002C   F5..         MOV     ?V0 + 2,A
    960          
    961            *pBuf++ = ZSUCCESS;
   \   00002E   85..82       MOV     DPL,?V0 + 0
   \   000031   85..83       MOV     DPH,?V0 + 1
   \   000034   12....       LCALL   ?Subroutine59 & 0xFFFF
    962          
    963            *pBuf++ = LO_UINT16( nwkAddrOfInterest );
    964            *pBuf++ = HI_UINT16( nwkAddrOfInterest );
   \                     ??CrossCallReturnLabel_82:
   \   000037   12....       LCALL   ?Subroutine55 & 0xFFFF
    965          
    966            *pBuf++ = userDesc->len;
   \                     ??CrossCallReturnLabel_74:
   \   00003A   E0           MOVX    A,@DPTR
   \   00003B   85..82       MOV     DPL,?V0 + 0
   \   00003E   85..83       MOV     DPH,?V0 + 1
   \   000041   12....       LCALL   ?Subroutine55 & 0xFFFF
    967            osal_memcpy( pBuf, userDesc->desc, userDesc->len );
   \                     ??CrossCallReturnLabel_75:
   \   000044   A3           INC     DPTR
   \   000045   A982         MOV     R1,DPL
   \   000047   AA83         MOV     R2,DPH
   \   000049   89..         MOV     ?V0 + 4,R1
   \   00004B   8A..         MOV     ?V0 + 5,R2
   \   00004D   75..00       MOV     ?V0 + 6,#0x0
   \   000050   78..         MOV     R0,#?V0 + 4
   \   000052   12....       LCALL   ?PUSH_XSTACK_I_THREE
   \   000055   85..82       MOV     DPL,?V0 + 8
   \   000058   85..83       MOV     DPH,?V0 + 9
   \   00005B   E0           MOVX    A,@DPTR
   \   00005C   FC           MOV     R4,A
   \   00005D   7D00         MOV     R5,#0x0
   \   00005F   AA..         MOV     R2,?V0 + 0
   \   000061   AB..         MOV     R3,?V0 + 1
   \   000063   12....       LCALL   ??Subroutine108_0 & 0xFFFF
   \                     ??CrossCallReturnLabel_167:
   \   000066   12....       LCALL   ?DEALLOC_XSTACK8
    968          
    969            return (ZStatus_t)fillAndSend( &TransSeq, dstAddr, User_Desc_rsp, len );
   \   000069                ; Setup parameters for call to function fillAndSend
   \   000069   75..11       MOV     ?V0 + 0,#0x11
   \   00006C   75..80       MOV     ?V0 + 1,#-0x80
   \   00006F   78..         MOV     R0,#?V0 + 0
   \   000071   12....       LCALL   ?PUSH_XSTACK_I_TWO
   \   000074   A9..         MOV     R1,?V0 + 2
   \   000076   EE           MOV     A,R6
   \   000077   FC           MOV     R4,A
   \   000078   EF           MOV     A,R7
   \   000079   FD           MOV     R5,A
   \   00007A   7402         MOV     A,#0x2
   \   00007C   12....       LCALL   ?XSTACK_DISP0_8
   \   00007F   AA82         MOV     R2,DPL
   \   000081   AB83         MOV     R3,DPH
   \   000083   12....       LCALL   ??Subroutine128_0 & 0xFFFF
   \                     ??CrossCallReturnLabel_280:
   \   000086   12....       LCALL   ?DEALLOC_XSTACK8
   \   000089   7401         MOV     A,#0x1
   \   00008B                REQUIRE ?Subroutine3
   \   00008B                ; // Fall through to label ?Subroutine3
    970          }

   \                                 In  segment BANKED_CODE, align 1, keep-with-next
   \                     ?Subroutine55:
   \   000000   F0           MOVX    @DPTR,A
   \   000001   A3           INC     DPTR
   \   000002   8582..       MOV     ?V0 + 0,DPL
   \   000005   8583..       MOV     ?V0 + 1,DPH
   \   000008                ; Setup parameters for call to function osal_memcpy
   \   000008   8882         MOV     DPL,R0
   \   00000A   8983         MOV     DPH,R1
   \   00000C   22           RET
    971          
    972          /*********************************************************************
    973           * @fn          ZDP_ServerDiscRsp
    974           *
    975           * @brief       Build and send the Server_Discovery_rsp response.
    976           *
    977           * @param       transID - Transaction sequence number of request.
    978           * @param       dstAddr - Network Destination Address.
    979           * @param       status - Status of response to request.
    980           * @param       aoi - Network Address of Interest of request.
    981           * @param       serverMask - Bit map of service(s) being sought.
    982           * @param       SecurityEnable - Security Options
    983           *
    984           * @return      ZStatus_t
    985           */

   \                                 In  segment BANKED_CODE, align 1, keep-with-next
    986          ZStatus_t ZDP_ServerDiscRsp( byte transID, zAddrType_t *dstAddr, byte status,
   \                     ZDP_ServerDiscRsp:
    987                                     uint16 aoi, uint16 serverMask, byte SecurityEnable )
    988          {
   \   000000   74F6         MOV     A,#-0xa
   \   000002   12....       LCALL   ?BANKED_ENTER_XDATA
   \   000005                ; Saved register size: 10
   \   000005                ; Auto size: 1
   \   000005   74FF         MOV     A,#-0x1
   \   000007   12....       LCALL   ?ALLOC_XSTACK8
   \   00000A   E9           MOV     A,R1
   \   00000B   85..82       MOV     DPL,?XSP + 0
   \   00000E   85..83       MOV     DPH,?XSP + 1
   \   000011   F0           MOVX    @DPTR,A
   \   000012   EC           MOV     A,R4
   \   000013   FE           MOV     R6,A
   \   000014   740D         MOV     A,#0xd
   \   000016   12....       LCALL   ?XSTACK_DISP0_8
   \   000019   12....       LCALL   ??Subroutine112_0 & 0xFFFF
    989            const byte len = 1  + 2;  // status + aoi + mask.
    990            uint8 *pBuf = ZDP_TmpBuf;
   \                     ??CrossCallReturnLabel_176:
   \   00001C   90....       MOV     DPTR,#ZDP_TmpBuf
   \   00001F   12....       LCALL   ?Subroutine47 & 0xFFFF
   \                     ??CrossCallReturnLabel_61:
   \   000022   8C82         MOV     DPL,R4
   \   000024   8D83         MOV     DPH,R5
    991            ZStatus_t stat;
    992          
    993            // Intentionally unreferenced parameters
    994            (void)aoi;
    995            (void)SecurityEnable;
    996          
    997            *pBuf++ = status;
   \   000026   EE           MOV     A,R6
   \   000027   F0           MOVX    @DPTR,A
   \   000028   A3           INC     DPTR
    998          
    999            *pBuf++ = LO_UINT16( serverMask );
   \   000029   12....       LCALL   ??Subroutine116_0 & 0xFFFF
   1000            *pBuf++ = HI_UINT16( serverMask );
   1001          
   1002            ZDP_TxOptions = AF_MSG_ACK_REQUEST;
   \                     ??CrossCallReturnLabel_196:
   \   00002C   90....       MOV     DPTR,#ZDP_TxOptions
   \   00002F   7410         MOV     A,#0x10
   \   000031   F0           MOVX    @DPTR,A
   1003            stat = fillAndSend( &transID, dstAddr, Server_Discovery_rsp, len );
   \   000032                ; Setup parameters for call to function fillAndSend
   \   000032   75..15       MOV     ?V0 + 0,#0x15
   \   000035   75..80       MOV     ?V0 + 1,#-0x80
   \   000038   78..         MOV     R0,#?V0 + 0
   \   00003A   12....       LCALL   ?PUSH_XSTACK_I_TWO
   \   00003D   7903         MOV     R1,#0x3
   \   00003F   EA           MOV     A,R2
   \   000040   FC           MOV     R4,A
   \   000041   EB           MOV     A,R3
   \   000042   FD           MOV     R5,A
   \   000043   7402         MOV     A,#0x2
   \   000045   12....       LCALL   ?XSTACK_DISP0_8
   \   000048   AA82         MOV     R2,DPL
   \   00004A   AB83         MOV     R3,DPH
   \   00004C   12....       LCALL   ??Subroutine128_0 & 0xFFFF
   \                     ??CrossCallReturnLabel_281:
   \   00004F   12....       LCALL   ?DEALLOC_XSTACK8
   1004            ZDP_TxOptions = AF_TX_OPTIONS_NONE;
   \   000052   90....       MOV     DPTR,#ZDP_TxOptions
   \   000055   E4           CLR     A
   \   000056   F0           MOVX    @DPTR,A
   1005          
   1006            return ( stat );
   \   000057   04           INC     A
   \   000058   02....       LJMP    ??Subroutine97_0 & 0xFFFF
   1007          }

   \                                 In  segment BANKED_CODE, align 1, keep-with-next
   \                     ?Subroutine47:
   \   000000   E0           MOVX    A,@DPTR
   \   000001   FC           MOV     R4,A
   \   000002   A3           INC     DPTR
   \   000003   E0           MOVX    A,@DPTR
   \   000004   FD           MOV     R5,A
   \   000005   22           RET
   1008          
   1009          /*********************************************************************
   1010           * @fn          ZDP_GenericRsp
   1011           *
   1012           * @brief       Sends a response message with only the parameter status
   1013           *              byte and the addr of interest for data.
   1014           *              This function sends unicast message to the
   1015           *              requesting device.
   1016           *
   1017           * @param       dstAddr - destination address
   1018           * @param       status  - generic status for response
   1019           * @param       aoi     - address of interest
   1020           * @param       dstAddr - destination address
   1021           * @param       rspId   - response cluster ID
   1022           * @param       SecurityEnable - Security Options
   1023           *
   1024           * @return      afStatus_t
   1025           */

   \                                 In  segment BANKED_CODE, align 1, keep-with-next
   1026          afStatus_t ZDP_GenericRsp( byte TransSeq, zAddrType_t *dstAddr,
   \                     ZDP_GenericRsp:
   1027                               byte status, uint16 aoi, uint16 rspID, byte SecurityEnable )
   1028          {
   \   000000   74F6         MOV     A,#-0xa
   \   000002   12....       LCALL   ?BANKED_ENTER_XDATA
   \   000005                ; Saved register size: 10
   \   000005                ; Auto size: 1
   \   000005   74FF         MOV     A,#-0x1
   \   000007   12....       LCALL   ?ALLOC_XSTACK8
   \   00000A   E9           MOV     A,R1
   \   00000B   85..82       MOV     DPL,?XSP + 0
   \   00000E   85..83       MOV     DPH,?XSP + 1
   \   000011   F0           MOVX    @DPTR,A
   \   000012   EC           MOV     A,R4
   \   000013   FE           MOV     R6,A
   \   000014   740B         MOV     A,#0xb
   \   000016   12....       LCALL   ?XSTACK_DISP0_8
   \   000019   12....       LCALL   ??Subroutine112_0 & 0xFFFF
   \                     ??CrossCallReturnLabel_177:
   \   00001C   740D         MOV     A,#0xd
   \   00001E   12....       LCALL   ?XSTACK_DISP0_8
   \   000021   12....       LCALL   ??Subroutine119_0 & 0xFFFF
   1029            uint8 len;
   1030          
   1031            (void)SecurityEnable;  // Intentionally unreferenced parameter
   1032          
   1033            ZDP_TmpBuf[0] = status;
   \                     ??CrossCallReturnLabel_219:
   \   000024   12....       LCALL   ?Subroutine50 & 0xFFFF
   \                     ??CrossCallReturnLabel_70:
   \   000027   EE           MOV     A,R6
   \   000028   F0           MOVX    @DPTR,A
   1034            ZDP_TmpBuf[1] = LO_UINT16( aoi );
   \   000029   12....       LCALL   ?Subroutine50 & 0xFFFF
   \                     ??CrossCallReturnLabel_71:
   \   00002C   A3           INC     DPTR
   \   00002D   E8           MOV     A,R0
   \   00002E   F0           MOVX    @DPTR,A
   1035            ZDP_TmpBuf[2] = HI_UINT16( aoi );
   \   00002F   12....       LCALL   ?Subroutine31 & 0xFFFF
   1036          
   1037            // Length byte
   1038            ZDP_TmpBuf[3] = 0;
   \                     ??CrossCallReturnLabel_33:
   \   000032   12....       LCALL   ??Subroutine98_0 & 0xFFFF
   \                     ??CrossCallReturnLabel_132:
   \   000035   A3           INC     DPTR
   \   000036   A3           INC     DPTR
   \   000037   E4           CLR     A
   \   000038   F0           MOVX    @DPTR,A
   1039            len = 4;
   1040          
   1041            return fillAndSend( &TransSeq, dstAddr, rspID, len );
   \   000039                ; Setup parameters for call to function fillAndSend
   \   000039   78..         MOV     R0,#?V0 + 0
   \   00003B   12....       LCALL   ?PUSH_XSTACK_I_TWO
   \   00003E   7904         MOV     R1,#0x4
   \   000040   EA           MOV     A,R2
   \   000041   FC           MOV     R4,A
   \   000042   EB           MOV     A,R3
   \   000043   FD           MOV     R5,A
   \   000044   7402         MOV     A,#0x2
   \   000046   12....       LCALL   ?XSTACK_DISP0_8
   \   000049   AA82         MOV     R2,DPL
   \   00004B   AB83         MOV     R3,DPH
   \   00004D   12....       LCALL   ??Subroutine128_0 & 0xFFFF
   \                     ??CrossCallReturnLabel_282:
   \   000050   12....       LCALL   ?DEALLOC_XSTACK8
   \   000053   7401         MOV     A,#0x1
   \   000055   02....       LJMP    ??Subroutine97_0 & 0xFFFF
   1042          }

   \                                 In  segment BANKED_CODE, align 1, keep-with-next
   \                     ?Subroutine50:
   \   000000   90....       MOV     DPTR,#ZDP_TmpBuf
   \   000003   E0           MOVX    A,@DPTR
   \   000004   FC           MOV     R4,A
   \   000005   A3           INC     DPTR
   \   000006   E0           MOVX    A,@DPTR
   \   000007   F583         MOV     DPH,A
   \   000009   8C82         MOV     DPL,R4
   \   00000B   22           RET
   1043          
   1044          /*********************************************************************
   1045           * Binding
   1046           */
   1047          /*********************************************************************
   1048           * @fn          ZDP_EndDeviceBindReq
   1049           *
   1050           * @brief       This builds and sends a End_Device_Bind_req message.
   1051           *              This function sends a unicast message.
   1052           *
   1053           * @param       dstAddr - destination address
   1054           * @param       LocalCoordinator - short address of local coordinator
   1055           * @param       epIntf - Endpoint/Interface of Simple Desc
   1056           * @param       ProfileID - Profile ID
   1057           *
   1058           *   The Input cluster list is the opposite of what you would think.
   1059           *   This is the output cluster list of this device
   1060           * @param       NumInClusters - number of input clusters
   1061           * @param       InClusterList - input cluster ID list
   1062           *
   1063           *   The Output cluster list is the opposite of what you would think.
   1064           *   This is the input cluster list of this device
   1065           * @param       NumOutClusters - number of output clusters
   1066           * @param       OutClusterList - output cluster ID list
   1067           *
   1068           * @param       SecurityEnable - Security Options
   1069           *
   1070           * @return      afStatus_t
   1071           */

   \                                 In  segment BANKED_CODE, align 1, keep-with-next
   1072          afStatus_t ZDP_EndDeviceBindReq( zAddrType_t *dstAddr,
   \                     ZDP_EndDeviceBindReq:
   1073                                           uint16 LocalCoordinator,
   1074                                           byte endPoint,
   1075                                           uint16 ProfileID,
   1076                                           byte NumInClusters, cId_t *InClusterList,
   1077                                           byte NumOutClusters, cId_t *OutClusterList,
   1078                                           byte SecurityEnable )
   1079          {
   \   000000   74E8         MOV     A,#-0x18
   \   000002   12....       LCALL   ?BANKED_ENTER_XDATA
   \   000005                ; Saved register size: 24
   \   000005                ; Auto size: 0
   \   000005   8A..         MOV     ?V0 + 14,R2
   \   000007   8B..         MOV     ?V0 + 15,R3
   \   000009   8C..         MOV     ?V0 + 4,R4
   \   00000B   8D..         MOV     ?V0 + 5,R5
   \   00000D   89..         MOV     ?V0 + 7,R1
   \   00000F   7418         MOV     A,#0x18
   \   000011   12....       LCALL   ?XSTACK_DISP0_8
   \   000014   12....       LCALL   ?Subroutine41 & 0xFFFF
   \                     ??CrossCallReturnLabel_51:
   \   000017   12....       LCALL   ?XSTACK_DISP0_8
   \   00001A   E0           MOVX    A,@DPTR
   \   00001B   F5..         MOV     ?V0 + 2,A
   \   00001D   741B         MOV     A,#0x1b
   \   00001F   12....       LCALL   ?XSTACK_DISP0_8
   \   000022   E0           MOVX    A,@DPTR
   \   000023   F5..         MOV     ?V0 + 12,A
   \   000025   A3           INC     DPTR
   \   000026   E0           MOVX    A,@DPTR
   \   000027   F5..         MOV     ?V0 + 13,A
   \   000029   741D         MOV     A,#0x1d
   \   00002B   12....       LCALL   ?XSTACK_DISP0_8
   \   00002E   E0           MOVX    A,@DPTR
   \   00002F   F5..         MOV     ?V0 + 3,A
   \   000031   741E         MOV     A,#0x1e
   \   000033   12....       LCALL   ?XSTACK_DISP0_8
   \   000036   E0           MOVX    A,@DPTR
   \   000037   F5..         MOV     ?V0 + 10,A
   \   000039   A3           INC     DPTR
   \   00003A   E0           MOVX    A,@DPTR
   \   00003B   F5..         MOV     ?V0 + 11,A
   1080            uint8 *pBuf = ZDP_TmpBuf;
   \   00003D   12....       LCALL   ?Subroutine26 & 0xFFFF
   1081            uint8 i, len;
   1082            uint8 *ieeeAddr;
   1083          
   1084            (void)SecurityEnable;  // Intentionally unreferenced parameter
   1085          
   1086            // LocalCoordinator + SrcExtAddr + ep + ProfileID +  NumInClusters + NumOutClusters.
   1087            len = 2 + Z_EXTADDR_LEN + 1 + 2 + 1 + 1;
   1088            len += (NumInClusters + NumOutClusters) * sizeof ( uint16 );
   \                     ??CrossCallReturnLabel_296:
   \   000040   E5..         MOV     A,?V0 + 2
   \   000042   25..         ADD     A,?V0 + 3
   \   000044   C3           CLR     C
   \   000045   33           RLC     A
   \   000046   240F         ADD     A,#0xf
   \   000048   F5..         MOV     ?V0 + 6,A
   1089          
   1090            if ( len >= ZDP_BUF_SZ-1 )
   \   00004A   C3           CLR     C
   \   00004B   944F         SUBB    A,#0x4f
   \   00004D   4005         JC      ??ZDP_EndDeviceBindReq_0
   1091            {
   1092              return afStatus_MEM_FAIL;
   \   00004F   7910         MOV     R1,#0x10
   \   000051   02....       LJMP    ??ZDP_EndDeviceBindReq_1 & 0xFFFF
   1093            }
   1094          
   1095            if ( LocalCoordinator != NLME_GetShortAddr() )
   \                     ??ZDP_EndDeviceBindReq_0:
   \   000054                ; Setup parameters for call to function NLME_GetShortAddr
   \   000054   12....       LCALL   ??NLME_GetShortAddr?relay
   \   000057   EA           MOV     A,R2
   \   000058   65..         XRL     A,?V0 + 4
   \   00005A   7003         JNZ     ??ZDP_EndDeviceBindReq_2
   \   00005C   EB           MOV     A,R3
   \   00005D   65..         XRL     A,?V0 + 5
   \                     ??ZDP_EndDeviceBindReq_2:
   \   00005F   6004         JZ      ??ZDP_EndDeviceBindReq_3
   1096            {
   1097              return afStatus_INVALID_PARAMETER;
   \   000061   7902         MOV     R1,#0x2
   \   000063   807B         SJMP    ??ZDP_EndDeviceBindReq_1
   1098            }
   1099          
   1100            *pBuf++ = LO_UINT16( LocalCoordinator );
   \                     ??ZDP_EndDeviceBindReq_3:
   \   000065   8E82         MOV     DPL,R6
   \   000067   8F83         MOV     DPH,R7
   \   000069   12....       LCALL   ?Subroutine58 & 0xFFFF
   1101            *pBuf++ = HI_UINT16( LocalCoordinator );
   1102          
   1103            ieeeAddr = NLME_GetExtAddr();
   1104            pBuf = osal_cpyExtAddr( pBuf, ieeeAddr );
   \                     ??CrossCallReturnLabel_78:
   \   00006C                ; Setup parameters for call to function sAddrExtCpy
   \   00006C                ; Setup parameters for call to function NLME_GetExtAddr
   \   00006C   12....       LCALL   ??NLME_GetExtAddr?relay
   \   00006F   EA           MOV     A,R2
   \   000070   FC           MOV     R4,A
   \   000071   EB           MOV     A,R3
   \   000072   FD           MOV     R5,A
   \   000073   EE           MOV     A,R6
   \   000074   FA           MOV     R2,A
   \   000075   EF           MOV     A,R7
   \   000076   FB           MOV     R3,A
   \   000077   12....       LCALL   ??sAddrExtCpy?relay
   \   00007A   8A..         MOV     ?V0 + 4,R2
   \   00007C   8B..         MOV     ?V0 + 5,R3
   \   00007E   AE..         MOV     R6,?V0 + 4
   \   000080   AF..         MOV     R7,?V0 + 5
   1105          
   1106            *pBuf++ = endPoint;
   \   000082   8E82         MOV     DPL,R6
   \   000084   8F83         MOV     DPH,R7
   \   000086   E5..         MOV     A,?V0 + 7
   \   000088   12....       LCALL   ?Subroutine57 & 0xFFFF
   1107          
   1108            *pBuf++ = LO_UINT16( ProfileID );   // Profile ID
   1109            *pBuf++ = HI_UINT16( ProfileID );
   1110          
   1111            *pBuf++ = NumInClusters; // Input cluster list
   \                     ??CrossCallReturnLabel_77:
   \   00008B   E5..         MOV     A,?V0 + 2
   \   00008D   12....       LCALL   ?Subroutine62 & 0xFFFF
   1112            for ( i = 0; i < NumInClusters; ++i )
   \                     ??CrossCallReturnLabel_90:
   \   000090   8010         SJMP    ??CrossCallReturnLabel_7
   1113            {
   1114              *pBuf++ = LO_UINT16(InClusterList[i]);
   \                     ??ZDP_EndDeviceBindReq_4:
   \   000092   EA           MOV     A,R2
   \   000093   C3           CLR     C
   \   000094   33           RLC     A
   \   000095   F8           MOV     R0,A
   \   000096   E4           CLR     A
   \   000097   33           RLC     A
   \   000098   F9           MOV     R1,A
   \   000099   E5..         MOV     A,?V0 + 12
   \   00009B   28           ADD     A,R0
   \   00009C   F8           MOV     R0,A
   \   00009D   E5..         MOV     A,?V0 + 13
   \   00009F   12....       LCALL   ?Subroutine17 & 0xFFFF
   1115              *pBuf++ = HI_UINT16(InClusterList[i]);
   1116            }
   \                     ??CrossCallReturnLabel_7:
   \   0000A2   EA           MOV     A,R2
   \   0000A3   C3           CLR     C
   \   0000A4   95..         SUBB    A,?V0 + 2
   \   0000A6   40EA         JC      ??ZDP_EndDeviceBindReq_4
   1117          
   1118            *pBuf++ = NumOutClusters; // Output cluster list
   \   0000A8   8E82         MOV     DPL,R6
   \   0000AA   8F83         MOV     DPH,R7
   \   0000AC   E5..         MOV     A,?V0 + 3
   \   0000AE   12....       LCALL   ?Subroutine62 & 0xFFFF
   1119            for ( i = 0; i < NumOutClusters; ++i )
   \                     ??CrossCallReturnLabel_91:
   \   0000B1   8010         SJMP    ??CrossCallReturnLabel_8
   1120            {
   1121              *pBuf++ = LO_UINT16(OutClusterList[i]);
   \                     ??ZDP_EndDeviceBindReq_5:
   \   0000B3   EA           MOV     A,R2
   \   0000B4   C3           CLR     C
   \   0000B5   33           RLC     A
   \   0000B6   F8           MOV     R0,A
   \   0000B7   E4           CLR     A
   \   0000B8   33           RLC     A
   \   0000B9   F9           MOV     R1,A
   \   0000BA   E5..         MOV     A,?V0 + 10
   \   0000BC   28           ADD     A,R0
   \   0000BD   F8           MOV     R0,A
   \   0000BE   E5..         MOV     A,?V0 + 11
   \   0000C0   12....       LCALL   ?Subroutine17 & 0xFFFF
   1122              *pBuf++ = HI_UINT16(OutClusterList[i]);
   1123            }
   \                     ??CrossCallReturnLabel_8:
   \   0000C3   EA           MOV     A,R2
   \   0000C4   C3           CLR     C
   \   0000C5   95..         SUBB    A,?V0 + 3
   \   0000C7   40EA         JC      ??ZDP_EndDeviceBindReq_5
   1124          
   1125            return fillAndSend( &ZDP_TransID, dstAddr, End_Device_Bind_req, len );
   \   0000C9                ; Setup parameters for call to function fillAndSend
   \   0000C9   75..20       MOV     ?V0 + 0,#0x20
   \   0000CC   75..00       MOV     ?V0 + 1,#0x0
   \   0000CF   78..         MOV     R0,#?V0 + 0
   \   0000D1   12....       LCALL   ?PUSH_XSTACK_I_TWO
   \   0000D4   A9..         MOV     R1,?V0 + 6
   \   0000D6   AC..         MOV     R4,?V0 + 14
   \   0000D8   AD..         MOV     R5,?V0 + 15
   \   0000DA   12....       LCALL   ??Subroutine127_0 & 0xFFFF
   \                     ??CrossCallReturnLabel_272:
   \   0000DD   12....       LCALL   ?DEALLOC_XSTACK8
   \                     ??ZDP_EndDeviceBindReq_1:
   \   0000E0                REQUIRE ?Subroutine5
   \   0000E0                ; // Fall through to label ?Subroutine5
   1126          }

   \                                 In  segment BANKED_CODE, align 1, keep-with-next
   \                     ?Subroutine5:
   \   000000   7F10         MOV     R7,#0x10
   \   000002   02....       LJMP    ?BANKED_LEAVE_XDATA

   \                                 In  segment BANKED_CODE, align 1, keep-with-next
   \                     ?Subroutine62:
   \   000000   12....       LCALL   ?Subroutine78 & 0xFFFF
   \                     ??CrossCallReturnLabel_115:
   \   000003   7A00         MOV     R2,#0x0
   \   000005   22           RET

   \                                 In  segment BANKED_CODE, align 1, keep-with-next
   \                     ?Subroutine17:
   \   000000   39           ADDC    A,R1
   \   000001   F9           MOV     R1,A
   \   000002   12....       LCALL   ?Subroutine77 & 0xFFFF
   \                     ??CrossCallReturnLabel_110:
   \   000005   12....       LCALL   ?Subroutine85 & 0xFFFF
   \                     ??CrossCallReturnLabel_229:
   \   000008   0A           INC     R2
   \   000009   22           RET

   \                                 In  segment BANKED_CODE, align 1, keep-with-next
   \                     ?Subroutine41:
   \   000000   E0           MOVX    A,@DPTR
   \   000001   F5..         MOV     ?V0 + 0,A
   \   000003   A3           INC     DPTR
   \   000004   E0           MOVX    A,@DPTR
   \   000005   F5..         MOV     ?V0 + 1,A
   \   000007   741A         MOV     A,#0x1a
   \   000009   22           RET

   \                                 In  segment BANKED_CODE, align 1, keep-with-next
   \                     ?Subroutine58:
   \   000000   E5..         MOV     A,?V0 + 4
   \   000002   F0           MOVX    @DPTR,A
   \   000003   A3           INC     DPTR
   \   000004   E5..         MOV     A,?V0 + 5
   \   000006   12....       LCALL   ?Subroutine78 & 0xFFFF
   \                     ??CrossCallReturnLabel_114:
   \   000009   22           RET

   \                                 In  segment BANKED_CODE, align 1, keep-with-next
   \                     ?Subroutine85:
   \   000000   12....       LCALL   ?Subroutine91 & 0xFFFF
   \                     ??CrossCallReturnLabel_233:
   \   000003   0E           INC     R6
   \   000004   AF83         MOV     R7,DPH
   \   000006   22           RET
   1127          
   1128          /*********************************************************************
   1129           * @fn          ZDP_BindUnbindReq
   1130           *
   1131           * @brief       This builds and send a Bind_req or Unbind_req message
   1132           *              Depending on the ClusterID. This function
   1133           *              sends a unicast message to the local coordinator.
   1134           *
   1135           * @param       BindOrUnbind - either Bind_req or Unbind_req
   1136           * @param       dstAddr - destination address of the message
   1137           * @param       SourceAddr - source 64 bit address of the binding
   1138           * @param       SrcEPIntf - Source endpoint/interface
   1139           * @param       ClusterID - Binding cluster ID
   1140           * @param       DestinationAddr - destination 64 bit addr of binding
   1141           * @param       DstEPIntf - destination endpoint/interface
   1142           * @param       SecurityEnable - Security Options
   1143           *
   1144           * @return      afStatus_t
   1145           */

   \                                 In  segment BANKED_CODE, align 1, keep-with-next
   1146          afStatus_t ZDP_BindUnbindReq( uint16 BindOrUnbind, zAddrType_t *dstAddr,
   \                     ZDP_BindUnbindReq:
   1147                                        uint8 *SourceAddr, byte SrcEndPoint,
   1148                                        cId_t ClusterID,
   1149                                        zAddrType_t *destinationAddr, byte DstEndPoint,
   1150                                        byte SecurityEnable )
   1151          {
   \   000000   74EC         MOV     A,#-0x14
   \   000002   12....       LCALL   ?BANKED_ENTER_XDATA
   \   000005                ; Saved register size: 20
   \   000005                ; Auto size: 0
   \   000005   8A..         MOV     ?V0 + 2,R2
   \   000007   8B..         MOV     ?V0 + 3,R3
   \   000009   8C..         MOV     ?V0 + 8,R4
   \   00000B   8D..         MOV     ?V0 + 9,R5
   \   00000D   89..         MOV     ?V0 + 6,R1
   \   00000F   7414         MOV     A,#0x14
   \   000011   12....       LCALL   ?XSTACK_DISP0_8
   \   000014   12....       LCALL   ?Subroutine47 & 0xFFFF
   \                     ??CrossCallReturnLabel_62:
   \   000017   7416         MOV     A,#0x16
   \   000019   12....       LCALL   ?XSTACK_DISP0_8
   \   00001C   12....       LCALL   ??Subroutine129_0 & 0xFFFF
   \                     ??CrossCallReturnLabel_290:
   \   00001F   7418         MOV     A,#0x18
   \   000021   12....       LCALL   ?XSTACK_DISP0_8
   \   000024   12....       LCALL   ?Subroutine41 & 0xFFFF
   \                     ??CrossCallReturnLabel_52:
   \   000027   12....       LCALL   ?XSTACK_DISP0_8
   \   00002A   E0           MOVX    A,@DPTR
   \   00002B   F5..         MOV     ?V0 + 5,A
   1152            uint8 *pBuf = ZDP_TmpBuf;
   \   00002D   12....       LCALL   ?Subroutine39 & 0xFFFF
   1153            byte len;
   1154          
   1155            (void)SecurityEnable;  // Intentionally unreferenced parameter
   1156          
   1157            // SourceAddr + SrcEPIntf + ClusterID +  addrMode.
   1158            len = Z_EXTADDR_LEN + 1 + sizeof( cId_t ) + sizeof( uint8 );
   \                     ??CrossCallReturnLabel_161:
   \   000030   75..0C       MOV     ?V0 + 4,#0xc
   1159            if ( destinationAddr->addrMode == Addr64Bit )
   \   000033   85..82       MOV     DPL,?V0 + 0
   \   000036   85..83       MOV     DPH,?V0 + 1
   \   000039   A3           INC     DPTR
   \   00003A   A3           INC     DPTR
   \   00003B   A3           INC     DPTR
   \   00003C   A3           INC     DPTR
   \   00003D   A3           INC     DPTR
   \   00003E   A3           INC     DPTR
   \   00003F   A3           INC     DPTR
   \   000040   A3           INC     DPTR
   \   000041   E0           MOVX    A,@DPTR
   \   000042   6403         XRL     A,#0x3
   \   000044   7005         JNZ     ??ZDP_BindUnbindReq_0
   1160              len += Z_EXTADDR_LEN + 1;     // +1 for DstEPIntf
   \   000046   75..15       MOV     ?V0 + 4,#0x15
   \   000049   8016         SJMP    ??ZDP_BindUnbindReq_1
   1161            else if ( destinationAddr->addrMode == AddrGroup )
   \                     ??ZDP_BindUnbindReq_0:
   \   00004B   85..82       MOV     DPL,?V0 + 0
   \   00004E   85..83       MOV     DPH,?V0 + 1
   \   000051   A3           INC     DPTR
   \   000052   A3           INC     DPTR
   \   000053   A3           INC     DPTR
   \   000054   A3           INC     DPTR
   \   000055   A3           INC     DPTR
   \   000056   A3           INC     DPTR
   \   000057   A3           INC     DPTR
   \   000058   A3           INC     DPTR
   \   000059   E0           MOVX    A,@DPTR
   \   00005A   6401         XRL     A,#0x1
   \   00005C   7003         JNZ     ??ZDP_BindUnbindReq_1
   1162              len += sizeof ( uint16 );
   \   00005E   75..0E       MOV     ?V0 + 4,#0xe
   1163          
   1164            pBuf = osal_cpyExtAddr( pBuf, SourceAddr );
   \                     ??ZDP_BindUnbindReq_1:
   \   000061                ; Setup parameters for call to function sAddrExtCpy
   \   000061   12....       LCALL   ?Subroutine72 & 0xFFFF
   1165            *pBuf++ = SrcEndPoint;
   \                     ??CrossCallReturnLabel_102:
   \   000064   E5..         MOV     A,?V0 + 6
   \   000066   F0           MOVX    @DPTR,A
   \   000067   A3           INC     DPTR
   1166          
   1167            *pBuf++ = LO_UINT16( ClusterID );
   \   000068   EE           MOV     A,R6
   \   000069   F0           MOVX    @DPTR,A
   \   00006A   A3           INC     DPTR
   1168          
   1169            *pBuf++ = HI_UINT16( ClusterID );
   \   00006B   EF           MOV     A,R7
   \   00006C   12....       LCALL   ??Subroutine126_0 & 0xFFFF
   1170            *pBuf++ = destinationAddr->addrMode;
   \                     ??CrossCallReturnLabel_264:
   \   00006F   E5..         MOV     A,?V0 + 0
   \   000071   2408         ADD     A,#0x8
   \   000073   F8           MOV     R0,A
   \   000074   E5..         MOV     A,?V0 + 1
   \   000076   12....       LCALL   ?Subroutine27 & 0xFFFF
   1171            if ( destinationAddr->addrMode == Addr64Bit )
   \                     ??CrossCallReturnLabel_26:
   \   000079   700B         JNZ     ??ZDP_BindUnbindReq_2
   1172            {
   1173              pBuf = osal_cpyExtAddr( pBuf, destinationAddr->addr.extAddr );
   1174              *pBuf = DstEndPoint;
   \   00007B                ; Setup parameters for call to function sAddrExtCpy
   \   00007B   AC..         MOV     R4,?V0 + 0
   \   00007D   AD..         MOV     R5,?V0 + 1
   \   00007F   12....       LCALL   ?Subroutine72 & 0xFFFF
   1175            }
   \                     ??CrossCallReturnLabel_103:
   \   000082   E5..         MOV     A,?V0 + 5
   \   000084   8028         SJMP    ??ZDP_BindUnbindReq_3
   1176            else if ( destinationAddr->addrMode == AddrGroup )
   \                     ??ZDP_BindUnbindReq_2:
   \   000086   85..82       MOV     DPL,?V0 + 0
   \   000089   85..83       MOV     DPH,?V0 + 1
   \   00008C   A3           INC     DPTR
   \   00008D   A3           INC     DPTR
   \   00008E   A3           INC     DPTR
   \   00008F   A3           INC     DPTR
   \   000090   A3           INC     DPTR
   \   000091   A3           INC     DPTR
   \   000092   A3           INC     DPTR
   \   000093   A3           INC     DPTR
   \   000094   E0           MOVX    A,@DPTR
   \   000095   6401         XRL     A,#0x1
   \   000097   7016         JNZ     ??ZDP_BindUnbindReq_4
   1177            {
   1178              *pBuf++ = LO_UINT16( destinationAddr->addr.shortAddr );
   \   000099   85..82       MOV     DPL,?V0 + 0
   \   00009C   85..83       MOV     DPH,?V0 + 1
   \   00009F   12....       LCALL   ?Subroutine40 & 0xFFFF
   1179              *pBuf++ = HI_UINT16( destinationAddr->addr.shortAddr );
   \                     ??CrossCallReturnLabel_50:
   \   0000A2   85..82       MOV     DPL,?V0 + 0
   \   0000A5   85..83       MOV     DPH,?V0 + 1
   \   0000A8   A3           INC     DPTR
   \   0000A9   E0           MOVX    A,@DPTR
   \   0000AA   8A82         MOV     DPL,R2
   \   0000AC   8B83         MOV     DPH,R3
   \                     ??ZDP_BindUnbindReq_3:
   \   0000AE   F0           MOVX    @DPTR,A
   1180            }
   1181          
   1182            FillAndSendTxOptions( &ZDP_TransID, dstAddr, BindOrUnbind, len, AF_MSG_ACK_REQUEST );
   \                     ??ZDP_BindUnbindReq_4:
   \   0000AF   90....       MOV     DPTR,#ZDP_TxOptions
   \   0000B2   7410         MOV     A,#0x10
   \   0000B4   F0           MOVX    @DPTR,A
   \   0000B5                ; Setup parameters for call to function fillAndSend
   \   0000B5   78..         MOV     R0,#?V0 + 2
   \   0000B7   12....       LCALL   ?PUSH_XSTACK_I_TWO
   \   0000BA   A9..         MOV     R1,?V0 + 4
   \   0000BC   AC..         MOV     R4,?V0 + 8
   \   0000BE   AD..         MOV     R5,?V0 + 9
   \   0000C0   12....       LCALL   ??Subroutine127_0 & 0xFFFF
   \                     ??CrossCallReturnLabel_273:
   \   0000C3   12....       LCALL   ?DEALLOC_XSTACK8
   \   0000C6   90....       MOV     DPTR,#ZDP_TxOptions
   \   0000C9   E4           CLR     A
   \   0000CA   F0           MOVX    @DPTR,A
   \   0000CB                REQUIRE ?Subroutine6
   \   0000CB                ; // Fall through to label ?Subroutine6
   1183          }

   \                                 In  segment BANKED_CODE, align 1, keep-with-next
   \                     ?Subroutine6:
   \   000000   7F0C         MOV     R7,#0xc
   \   000002   02....       LJMP    ?BANKED_LEAVE_XDATA

   \                                 In  segment BANKED_CODE, align 1, keep-with-next
   \                     ?Subroutine27:
   \   000000   12....       LCALL   ?Subroutine81 & 0xFFFF
   \                     ??CrossCallReturnLabel_118:
   \   000003   E0           MOVX    A,@DPTR
   \   000004   6403         XRL     A,#0x3
   \   000006   22           RET

   \                                 In  segment BANKED_CODE, align 1, keep-with-next
   \                     ?Subroutine81:
   \   000000   3400         ADDC    A,#0x0
   \   000002   F9           MOV     R1,A
   \   000003   8882         MOV     DPL,R0
   \   000005   8983         MOV     DPH,R1
   \   000007   12....       LCALL   ?Subroutine93 & 0xFFFF
   \                     ??CrossCallReturnLabel_128:
   \   00000A   AB83         MOV     R3,DPH
   \   00000C   8882         MOV     DPL,R0
   \   00000E   8983         MOV     DPH,R1
   \   000010   22           RET
   1184          
   1185          /*********************************************************************
   1186           * Network Management
   1187           */
   1188          
   1189          /*********************************************************************
   1190           * @fn          ZDP_MgmtNwkDiscReq
   1191           *
   1192           * @brief       This builds and send a Mgmt_NWK_Disc_req message. This
   1193           *              function sends a unicast message.
   1194           *
   1195           * @param       dstAddr - destination address of the message
   1196           * @param       ScanChannels - 32 bit address bit map
   1197           * @param       StartIndex - Starting index within the reporting network
   1198           *                           list
   1199           * @param       SecurityEnable - Security Options
   1200           *
   1201           * @return      afStatus_t
   1202           */

   \                                 In  segment BANKED_CODE, align 1, keep-with-next
   1203          afStatus_t ZDP_MgmtNwkDiscReq( zAddrType_t *dstAddr,
   \                     ZDP_MgmtNwkDiscReq:
   1204                                         uint32 ScanChannels,
   1205                                         byte ScanDuration,
   1206                                         byte StartIndex,
   1207                                         byte SecurityEnable )
   1208          {
   \   000000   74F0         MOV     A,#-0x10
   \   000002   12....       LCALL   ?BANKED_ENTER_XDATA
   \   000005                ; Saved register size: 16
   \   000005                ; Auto size: 0
   \   000005   EA           MOV     A,R2
   \   000006   FE           MOV     R6,A
   \   000007   EB           MOV     A,R3
   \   000008   FF           MOV     R7,A
   \   000009   89..         MOV     ?V0 + 0,R1
   \   00000B   8C..         MOV     ?V0 + 1,R4
   \   00000D   7410         MOV     A,#0x10
   \   00000F   12....       LCALL   ?XSTACK_DISP0_8
   \   000012   78..         MOV     R0,#?V0 + 4
   \   000014   12....       LCALL   ?L_MOV_X
   1209            uint8 *pBuf = ZDP_TmpBuf;
   1210            byte len = sizeof( uint32 )+1+1;  // ScanChannels + ScanDuration + StartIndex.
   1211          
   1212            (void)SecurityEnable;  // Intentionally unreferenced parameter
   1213          
   1214            pBuf = osal_buffer_uint32( pBuf, ScanChannels );
   \   000017                ; Setup parameters for call to function osal_buffer_uint32
   \   000017   78..         MOV     R0,#?V0 + 4
   \   000019   12....       LCALL   ?PUSH_XSTACK_I_FOUR
   \   00001C   12....       LCALL   ?Subroutine38 & 0xFFFF
   \                     ??CrossCallReturnLabel_47:
   \   00001F   12....       LCALL   ?DEALLOC_XSTACK8
   \   000022   8A82         MOV     DPL,R2
   \   000024   8B83         MOV     DPH,R3
   1215          
   1216            *pBuf++ = ScanDuration;
   \   000026   E5..         MOV     A,?V0 + 0
   \   000028   F0           MOVX    @DPTR,A
   \   000029   A3           INC     DPTR
   1217            *pBuf = StartIndex;
   \   00002A   E5..         MOV     A,?V0 + 1
   \   00002C   F0           MOVX    @DPTR,A
   1218          
   1219            return fillAndSend( &ZDP_TransID, dstAddr, Mgmt_NWK_Disc_req, len );
   \   00002D                ; Setup parameters for call to function fillAndSend
   \   00002D   75..30       MOV     ?V0 + 2,#0x30
   \   000030   75..00       MOV     ?V0 + 3,#0x0
   \   000033   78..         MOV     R0,#?V0 + 2
   \   000035   12....       LCALL   ?PUSH_XSTACK_I_TWO
   \   000038   7906         MOV     R1,#0x6
   \   00003A   EE           MOV     A,R6
   \   00003B   FC           MOV     R4,A
   \   00003C   EF           MOV     A,R7
   \   00003D   FD           MOV     R5,A
   \   00003E   12....       LCALL   ??Subroutine127_0 & 0xFFFF
   \                     ??CrossCallReturnLabel_274:
   \   000041   02....       LJMP    ?Subroutine0 & 0xFFFF
   1220          }

   \                                 In  segment BANKED_CODE, align 1, keep-with-next
   \                     ?Subroutine38:
   \   000000   90....       MOV     DPTR,#ZDP_TmpBuf
   \   000003   E0           MOVX    A,@DPTR
   \   000004   FA           MOV     R2,A
   \   000005   A3           INC     DPTR
   \   000006   E0           MOVX    A,@DPTR
   \   000007   FB           MOV     R3,A
   \   000008   12....       LCALL   ??osal_buffer_uint32?relay
   \   00000B   7404         MOV     A,#0x4
   \   00000D   22           RET
   1221          
   1222          /*********************************************************************
   1223           * @fn          ZDP_MgmtDirectJoinReq
   1224           *
   1225           * @brief       This builds and send a Mgmt_Direct_Join_req message. This
   1226           *              function sends a unicast message.
   1227           *
   1228           * @param       dstAddr - destination address of the message
   1229           * @param       deviceAddr - 64 bit IEEE Address
   1230           * @param       SecurityEnable - Security Options
   1231           *
   1232           * @return      afStatus_t
   1233           */

   \                                 In  segment BANKED_CODE, align 1, keep-with-next
   \                     ?Subroutine10:
   \   000000   90....       MOV     DPTR,#ZDP_TmpBuf
   \   000003   E0           MOVX    A,@DPTR
   \   000004   FA           MOV     R2,A
   \   000005   A3           INC     DPTR
   \   000006   E0           MOVX    A,@DPTR
   \   000007                REQUIRE ??Subroutine99_0
   \   000007                ; // Fall through to label ??Subroutine99_0

   \                                 In  segment BANKED_CODE, align 1, keep-with-next
   1234          afStatus_t ZDP_MgmtDirectJoinReq( zAddrType_t *dstAddr,
   \                     ZDP_MgmtDirectJoinReq:
   1235                                         uint8 *deviceAddr,
   1236                                         byte capInfo,
   1237                                         byte SecurityEnable )
   1238          {
   \   000000   74F4         MOV     A,#-0xc
   \   000002   12....       LCALL   ?BANKED_ENTER_XDATA
   \   000005                ; Saved register size: 12
   \   000005                ; Auto size: 0
   \   000005   EA           MOV     A,R2
   \   000006   FE           MOV     R6,A
   \   000007   EB           MOV     A,R3
   \   000008   FF           MOV     R7,A
   \   000009   89..         MOV     ?V0 + 0,R1
   1239            (void)SecurityEnable;  // Intentionally unreferenced parameter
   1240          
   1241            osal_cpyExtAddr( ZDP_TmpBuf, deviceAddr );
   \   00000B                ; Setup parameters for call to function sAddrExtCpy
   \   00000B   12....       LCALL   ?Subroutine10 & 0xFFFF
   1242            ZDP_TmpBuf[Z_EXTADDR_LEN] = capInfo;
   \                     ??CrossCallReturnLabel_133:
   \   00000E   E5..         MOV     A,?V0 + 0
   \   000010   F0           MOVX    @DPTR,A
   1243          
   1244            return fillAndSend( &ZDP_TransID, dstAddr, Mgmt_Direct_Join_req, (Z_EXTADDR_LEN + 1) );
   \   000011                ; Setup parameters for call to function fillAndSend
   \   000011   75..35       MOV     ?V0 + 2,#0x35
   \   000014                REQUIRE ?Subroutine7
   \   000014                ; // Fall through to label ?Subroutine7
   1245          }

   \                                 In  segment BANKED_CODE, align 1, keep-with-next
   \                     ?Subroutine7:
   \   000000   75..00       MOV     ?V0 + 3,#0x0
   \   000003   78..         MOV     R0,#?V0 + 2
   \   000005   12....       LCALL   ?PUSH_XSTACK_I_TWO
   \   000008   7909         MOV     R1,#0x9
   \   00000A   EE           MOV     A,R6
   \   00000B   FC           MOV     R4,A
   \   00000C   EF           MOV     A,R7
   \   00000D   FD           MOV     R5,A
   \   00000E   12....       LCALL   ??Subroutine127_0 & 0xFFFF
   \                     ??CrossCallReturnLabel_275:
   \   000011                REQUIRE ??Subroutine113_0
   \   000011                ; // Fall through to label ??Subroutine113_0

   \                                 In  segment BANKED_CODE, align 1, keep-with-next
   \                     ??Subroutine113_0:
   \   000000   12....       LCALL   ?DEALLOC_XSTACK8
   \   000003   7F04         MOV     R7,#0x4
   \   000005   02....       LJMP    ?BANKED_LEAVE_XDATA
   1246          
   1247          /*********************************************************************
   1248           * @fn          ZDP_MgmtPermitJoinReq
   1249           *
   1250           * @brief       This builds and send a Mgmt_Permit_Join_req message.
   1251           *
   1252           * @param       dstAddr - destination address of the message
   1253           * @param       duration - Permit duration
   1254           * @param       TcSignificance - Trust Center Significance
   1255           *
   1256           * @return      afStatus_t
   1257           */

   \                                 In  segment BANKED_CODE, align 1, keep-with-next
   1258          afStatus_t ZDP_MgmtPermitJoinReq( zAddrType_t *dstAddr, byte duration,
   \                     ZDP_MgmtPermitJoinReq:
   1259                                            byte TcSignificance, byte SecurityEnable )
   1260          {
   \   000000   74F6         MOV     A,#-0xa
   \   000002   12....       LCALL   ?BANKED_ENTER_XDATA
   \   000005                ; Saved register size: 10
   \   000005                ; Auto size: 0
   1261            (void)SecurityEnable;  // Intentionally unreferenced parameter
   1262          
   1263            // Build buffer
   1264            ZDP_TmpBuf[ZDP_MGMT_PERMIT_JOIN_REQ_DURATION] = duration;
   \   000005   12....       LCALL   ?Subroutine33 & 0xFFFF
   \                     ??CrossCallReturnLabel_190:
   \   000008   E9           MOV     A,R1
   \   000009   12....       LCALL   ?Subroutine32 & 0xFFFF
   1265            ZDP_TmpBuf[ZDP_MGMT_PERMIT_JOIN_REQ_TC_SIG]   = TcSignificance;
   \                     ??CrossCallReturnLabel_131:
   \   00000C   EC           MOV     A,R4
   \   00000D   F0           MOVX    @DPTR,A
   1266          
   1267            // Send the message
   1268            return fillAndSend( &ZDP_TransID, dstAddr, Mgmt_Permit_Join_req,
   1269                                ZDP_MGMT_PERMIT_JOIN_REQ_SIZE );
   \   00000E                ; Setup parameters for call to function fillAndSend
   \   00000E   75..36       MOV     ?V0 + 0,#0x36
   \   000011   02....       LJMP    ?Subroutine2 & 0xFFFF
   1270          }
   1271          
   1272          /*********************************************************************
   1273           * @fn          ZDP_MgmtLeaveReq
   1274           *
   1275           * @brief       This builds and send a Mgmt_Leave_req message.
   1276           *
   1277           * @param       dstAddr - destination address of the message
   1278           *              IEEEAddr - IEEE adddress of device that is removed
   1279           *              RemoveChildren - set to 1 to remove the children of the
   1280           *                                device as well. 0 otherwise.
   1281           *              Rejoin - set to 1 if the removed device should rejoin
   1282                                   afterwards. 0 otherwise.
   1283           *
   1284           * @return      afStatus_t
   1285           */

   \                                 In  segment BANKED_CODE, align 1, keep-with-next
   1286          afStatus_t ZDP_MgmtLeaveReq( zAddrType_t *dstAddr, uint8 *IEEEAddr, uint8 RemoveChildren,
   \                     ZDP_MgmtLeaveReq:
   1287                           uint8 Rejoin, uint8 SecurityEnable )
   1288          
   1289          {
   \   000000   74F4         MOV     A,#-0xc
   \   000002   12....       LCALL   ?BANKED_ENTER_XDATA
   \   000005                ; Saved register size: 12
   \   000005                ; Auto size: 0
   \   000005   EA           MOV     A,R2
   \   000006   FE           MOV     R6,A
   \   000007   EB           MOV     A,R3
   \   000008   FF           MOV     R7,A
   \   000009   89..         MOV     ?V0 + 0,R1
   \   00000B   740C         MOV     A,#0xc
   \   00000D   12....       LCALL   ?XSTACK_DISP0_8
   \   000010   E0           MOVX    A,@DPTR
   \   000011   F5..         MOV     ?V0 + 1,A
   1290            (void)SecurityEnable;  // Intentionally unreferenced parameter
   1291          
   1292            osal_cpyExtAddr( ZDP_TmpBuf, IEEEAddr );
   \   000013                ; Setup parameters for call to function sAddrExtCpy
   \   000013   12....       LCALL   ?Subroutine10 & 0xFFFF
   1293            ZDP_TmpBuf[Z_EXTADDR_LEN] = 0;
   \                     ??CrossCallReturnLabel_134:
   \   000016   E4           CLR     A
   \   000017   F0           MOVX    @DPTR,A
   1294          
   1295            if ( RemoveChildren == TRUE )
   \   000018   04           INC     A
   \   000019   65..         XRL     A,?V0 + 0
   \   00001B   7006         JNZ     ??ZDP_MgmtLeaveReq_0
   1296            {
   1297              ZDP_TmpBuf[Z_EXTADDR_LEN] |= ZDP_MGMT_LEAVE_REQ_RC;
   \   00001D   12....       LCALL   ??Subroutine100_0 & 0xFFFF
   1298            }
   \                     ??CrossCallReturnLabel_136:
   \   000020   7440         MOV     A,#0x40
   \   000022   F0           MOVX    @DPTR,A
   1299            if ( Rejoin == TRUE )
   \                     ??ZDP_MgmtLeaveReq_0:
   \   000023   7401         MOV     A,#0x1
   \   000025   65..         XRL     A,?V0 + 1
   \   000027   7007         JNZ     ??ZDP_MgmtLeaveReq_1
   1300            {
   1301              ZDP_TmpBuf[Z_EXTADDR_LEN] |= ZDP_MGMT_LEAVE_REQ_REJOIN;
   \   000029   12....       LCALL   ??Subroutine100_0 & 0xFFFF
   1302            }
   \                     ??CrossCallReturnLabel_137:
   \   00002C   E0           MOVX    A,@DPTR
   \   00002D   D2E7         SETB    0xE0 /* A   */.7
   \   00002F   F0           MOVX    @DPTR,A
   1303          
   1304            return fillAndSend( &ZDP_TransID, dstAddr, Mgmt_Leave_req, (Z_EXTADDR_LEN + 1) );
   \                     ??ZDP_MgmtLeaveReq_1:
   \   000030                ; Setup parameters for call to function fillAndSend
   \   000030   75..34       MOV     ?V0 + 2,#0x34
   \   000033   80..         SJMP    ?Subroutine7
   1305          }
   1306          
   1307          /*********************************************************************
   1308           * @fn          ZDP_MgmtNwkUpdateReq
   1309           *
   1310           * @brief       This builds and send a Mgmt_NWK_Update_req message. This
   1311           *              function sends a unicast or broadcast message.
   1312           *
   1313           * @param       dstAddr - destination address of the message
   1314           * @param       ChannelMask - 32 bit address bit map
   1315           * @param       ScanDuration - length of time to spend scanning each channel
   1316           * @param       ScanCount - number of energy scans to be conducted
   1317           * @param       NwkUpdateId - NWk Update Id value
   1318           * @param       NwkManagerAddr - NWK address for device with Network Manager
   1319           *                               bit set in its Node Descriptor
   1320           *
   1321           * @return      afStatus_t
   1322           */

   \                                 In  segment BANKED_CODE, align 1, keep-with-next
   1323          afStatus_t ZDP_MgmtNwkUpdateReq( zAddrType_t *dstAddr,
   \                     ZDP_MgmtNwkUpdateReq:
   1324                                           uint32 ChannelMask,
   1325                                           uint8 ScanDuration,
   1326                                           uint8 ScanCount,
   1327                                           uint8 NwkUpdateId,
   1328                                           uint16 NwkManagerAddr )
   1329          {
   \   000000   74EE         MOV     A,#-0x12
   \   000002   12....       LCALL   ?BANKED_ENTER_XDATA
   \   000005                ; Saved register size: 18
   \   000005                ; Auto size: 0
   \   000005   8A..         MOV     ?V0 + 8,R2
   \   000007   8B..         MOV     ?V0 + 9,R3
   \   000009   89..         MOV     ?V0 + 4,R1
   \   00000B   8C..         MOV     ?V0 + 6,R4
   \   00000D   8D..         MOV     ?V0 + 5,R5
   \   00000F   7412         MOV     A,#0x12
   \   000011   12....       LCALL   ?XSTACK_DISP0_8
   \   000014   78..         MOV     R0,#?V0 + 0
   \   000016   12....       LCALL   ?L_MOV_X
   \   000019   7416         MOV     A,#0x16
   \   00001B   12....       LCALL   ?XSTACK_DISP0_8
   \   00001E   12....       LCALL   ??Subroutine129_0 & 0xFFFF
   1330            uint8 *pBuf = ZDP_TmpBuf;
   1331            byte len = sizeof( uint32 ) + 1;  // ChannelMask + ScanDuration
   \                     ??CrossCallReturnLabel_291:
   \   000021   75..05       MOV     ?V0 + 7,#0x5
   1332          
   1333            pBuf = osal_buffer_uint32( pBuf, ChannelMask );
   \   000024                ; Setup parameters for call to function osal_buffer_uint32
   \   000024   78..         MOV     R0,#?V0 + 0
   \   000026   12....       LCALL   ?PUSH_XSTACK_I_FOUR
   \   000029   12....       LCALL   ?Subroutine38 & 0xFFFF
   \                     ??CrossCallReturnLabel_48:
   \   00002C   12....       LCALL   ?DEALLOC_XSTACK8
   \   00002F   8A82         MOV     DPL,R2
   \   000031   8B83         MOV     DPH,R3
   1334          
   1335            *pBuf++ = ScanDuration;
   \   000033   E5..         MOV     A,?V0 + 4
   \   000035   F0           MOVX    @DPTR,A
   \   000036   A3           INC     DPTR
   1336          
   1337            if ( ScanDuration <= 0x05 )
   \   000037   C3           CLR     C
   \   000038   9406         SUBB    A,#0x6
   \   00003A   5007         JNC     ??ZDP_MgmtNwkUpdateReq_0
   1338            {
   1339              // Request is to scan over channelMask
   1340              len += sizeof( uint8 );
   \   00003C   75..06       MOV     ?V0 + 7,#0x6
   1341          
   1342              *pBuf++ = ScanCount;
   \   00003F   E5..         MOV     A,?V0 + 6
   \   000041   8020         SJMP    ??ZDP_MgmtNwkUpdateReq_1
   1343            }
   1344            else if ( ( ScanDuration == 0xFE ) || ( ScanDuration == 0xFF ) )
   \                     ??ZDP_MgmtNwkUpdateReq_0:
   \   000043   74FE         MOV     A,#-0x2
   \   000045   65..         XRL     A,?V0 + 4
   \   000047   6006         JZ      ??ZDP_MgmtNwkUpdateReq_2
   \   000049   74FF         MOV     A,#-0x1
   \   00004B   65..         XRL     A,?V0 + 4
   \   00004D   7015         JNZ     ??ZDP_MgmtNwkUpdateReq_3
   1345            {
   1346              // Request is to change Channel (0xFE) or apsChannelMask and NwkManagerAddr (0xFF)
   1347              len += sizeof( uint8 );
   \                     ??ZDP_MgmtNwkUpdateReq_2:
   \   00004F   75..06       MOV     ?V0 + 7,#0x6
   1348          
   1349              *pBuf++ = NwkUpdateId;
   \   000052   E5..         MOV     A,?V0 + 5
   \   000054   F0           MOVX    @DPTR,A
   \   000055   A3           INC     DPTR
   1350          
   1351              if ( ScanDuration == 0xFF )
   \   000056   74FF         MOV     A,#-0x1
   \   000058   65..         XRL     A,?V0 + 4
   \   00005A   7008         JNZ     ??ZDP_MgmtNwkUpdateReq_3
   1352              {
   1353                len += sizeof( uint16 );
   \   00005C   75..08       MOV     ?V0 + 7,#0x8
   1354          
   1355                *pBuf++  = LO_UINT16( NwkManagerAddr );
   \   00005F   EE           MOV     A,R6
   \   000060   F0           MOVX    @DPTR,A
   \   000061   A3           INC     DPTR
   1356                *pBuf++  = HI_UINT16( NwkManagerAddr );
   \   000062   EF           MOV     A,R7
   \                     ??ZDP_MgmtNwkUpdateReq_1:
   \   000063   F0           MOVX    @DPTR,A
   1357              }
   1358            }
   1359          
   1360            return fillAndSend( &ZDP_TransID, dstAddr, Mgmt_NWK_Update_req, len );
   \                     ??ZDP_MgmtNwkUpdateReq_3:
   \   000064                ; Setup parameters for call to function fillAndSend
   \   000064   75..38       MOV     ?V0 + 0,#0x38
   \   000067   75..00       MOV     ?V0 + 1,#0x0
   \   00006A   78..         MOV     R0,#?V0 + 0
   \   00006C   12....       LCALL   ?PUSH_XSTACK_I_TWO
   \   00006F   A9..         MOV     R1,?V0 + 7
   \   000071   AC..         MOV     R4,?V0 + 8
   \   000073   AD..         MOV     R5,?V0 + 9
   \   000075   12....       LCALL   ??Subroutine127_0 & 0xFFFF
   \                     ??CrossCallReturnLabel_276:
   \   000078   02....       LJMP    ?Subroutine3 & 0xFFFF
   1361          }
   1362          
   1363          
   1364          /*********************************************************************
   1365           * Network Management Responses
   1366           */
   1367          
   1368          /*********************************************************************
   1369           * @fn          ZDP_MgmtNwkDiscRsp
   1370           *
   1371           * @brief       This builds and send a Mgmt_NWK_Disc_rsp message. This
   1372           *              function sends a unicast message.
   1373           *
   1374           * @param       dstAddr - destination address of the message
   1375           * @param       Status - message status (ZDP_SUCCESS or other)
   1376           * @param       NetworkCount - Total number of networks found
   1377           * @param       StartIndex - Starting index within the reporting network
   1378           *                           list
   1379           * @param       NetworkListCount - number of network lists included
   1380           *                                 in this message
   1381           * @param       NetworkList - List of network descriptors
   1382           * @param       SecurityEnable - Security Options
   1383           *
   1384           * @return      afStatus_t
   1385           */

   \                                 In  segment BANKED_CODE, align 1, keep-with-next
   1386          afStatus_t ZDP_MgmtNwkDiscRsp( byte TransSeq, zAddrType_t *dstAddr,
   \                     ZDP_MgmtNwkDiscRsp:
   1387                                      byte Status,
   1388                                      byte NetworkCount,
   1389                                      byte StartIndex,
   1390                                      byte NetworkListCount,
   1391                                      networkDesc_t *NetworkList,
   1392                                      byte SecurityEnable )
   1393          {
   \   000000   74EA         MOV     A,#-0x16
   \   000002   12....       LCALL   ?BANKED_ENTER_XDATA
   \   000005                ; Saved register size: 22
   \   000005                ; Auto size: 1
   \   000005   74FF         MOV     A,#-0x1
   \   000007   12....       LCALL   ?ALLOC_XSTACK8
   \   00000A   E9           MOV     A,R1
   \   00000B   85..82       MOV     DPL,?XSP + 0
   \   00000E   85..83       MOV     DPH,?XSP + 1
   \   000011   F0           MOVX    @DPTR,A
   \   000012   8A..         MOV     ?V0 + 12,R2
   \   000014   8B..         MOV     ?V0 + 13,R3
   \   000016   8C..         MOV     ?V0 + 8,R4
   \   000018   8D..         MOV     ?V0 + 7,R5
   \   00001A   7417         MOV     A,#0x17
   \   00001C   12....       LCALL   ?XSTACK_DISP0_8
   \   00001F   E0           MOVX    A,@DPTR
   \   000020   F5..         MOV     ?V0 + 6,A
   \   000022   7418         MOV     A,#0x18
   \   000024   12....       LCALL   ?XSTACK_DISP0_8
   \   000027   E0           MOVX    A,@DPTR
   \   000028   F5..         MOV     ?V0 + 4,A
   \   00002A   7419         MOV     A,#0x19
   \   00002C   12....       LCALL   ?XSTACK_DISP0_8
   \   00002F   12....       LCALL   ??Subroutine103_0 & 0xFFFF
   1394            uint8 *buf;
   1395            uint8 *pBuf;
   1396            byte len = 1+1+1+1;  // Status + NetworkCount + StartIndex + NetworkCountList.
   1397            byte idx;
   1398          
   1399            (void)SecurityEnable;  // Intentionally unreferenced parameter
   1400          
   1401            len += (NetworkListCount * ( ZDP_NETWORK_EXTENDED_DISCRIPTOR_SIZE - 2 ));
   \                     ??CrossCallReturnLabel_149:
   \   000032   75F00C       MOV     B,#0xc
   \   000035   E5..         MOV     A,?V0 + 4
   \   000037   A4           MUL     AB
   \   000038   2404         ADD     A,#0x4
   \   00003A   F5..         MOV     ?V0 + 5,A
   1402          
   1403            buf = osal_mem_alloc( len+1 );
   \   00003C                ; Setup parameters for call to function osal_mem_alloc
   \   00003C   12....       LCALL   ?Subroutine67 & 0xFFFF
   \                     ??CrossCallReturnLabel_95:
   \   00003F   8A..         MOV     ?V0 + 0,R2
   \   000041   8B..         MOV     ?V0 + 1,R3
   1404            if ( buf == NULL )
   \   000043   EA           MOV     A,R2
   \   000044   45..         ORL     A,?V0 + 1
   \   000046   7005         JNZ     ??ZDP_MgmtNwkDiscRsp_0
   1405            {
   1406              return afStatus_MEM_FAIL;
   \   000048   7910         MOV     R1,#0x10
   \   00004A   02....       LJMP    ??CrossCallReturnLabel_212 & 0xFFFF
   1407            }
   1408          
   1409            pBuf = buf+1;
   \                     ??ZDP_MgmtNwkDiscRsp_0:
   \   00004D   8A82         MOV     DPL,R2
   \   00004F   8B83         MOV     DPH,R3
   \   000051   A3           INC     DPTR
   1410          
   1411            *pBuf++ = Status;
   \   000052   E5..         MOV     A,?V0 + 8
   \   000054   F0           MOVX    @DPTR,A
   \   000055   A3           INC     DPTR
   1412            *pBuf++ = NetworkCount;
   \   000056   E5..         MOV     A,?V0 + 7
   \   000058   F0           MOVX    @DPTR,A
   \   000059   A3           INC     DPTR
   1413            *pBuf++ = StartIndex;
   \   00005A   E5..         MOV     A,?V0 + 6
   \   00005C   F0           MOVX    @DPTR,A
   \   00005D   A3           INC     DPTR
   1414            *pBuf++ = NetworkListCount;
   \   00005E   E5..         MOV     A,?V0 + 4
   \   000060   12....       LCALL   ?Subroutine78 & 0xFFFF
   1415          
   1416            for ( idx = 0; idx < NetworkListCount; idx++ )
   \                     ??CrossCallReturnLabel_113:
   \   000063   75..00       MOV     ?V0 + 6,#0x0
   \   000066   8016         SJMP    ??ZDP_MgmtNwkDiscRsp_1
   1417            {
   1418              osal_cpyExtAddr( pBuf, NetworkList->extendedPANID);
   1419              pBuf += Z_EXTADDR_LEN;
   1420          
   1421              *pBuf++  = NetworkList->logicalChannel;                // LogicalChannel
   1422              *pBuf    = NetworkList->stackProfile;                  // Stack profile
   1423              *pBuf++ |= (byte)(NetworkList->version << 4);          // ZigBee Version
   1424              *pBuf    = NetworkList->beaconOrder;                   // Beacon Order
   1425              *pBuf++ |= (byte)(NetworkList->superFrameOrder << 4);  // Superframe Order
   1426          
   1427              if ( NetworkList->chosenRouter != INVALID_NODE_ADDR )
   1428              {
   1429                *pBuf++ = TRUE;                         // Permit Joining
   1430              }
   1431              else
   1432              {
   1433                *pBuf++ = FALSE;
   \                     ??ZDP_MgmtNwkDiscRsp_2:
   \   000068   E4           CLR     A
   \                     ??ZDP_MgmtNwkDiscRsp_3:
   \   000069   F0           MOVX    @DPTR,A
   \   00006A   A3           INC     DPTR
   \   00006B   0E           INC     R6
   \   00006C   AF83         MOV     R7,DPH
   1434              }
   1435          
   1436              NetworkList = NetworkList->nextDesc;    // Move to next list entry
   \   00006E   E5..         MOV     A,?V0 + 2
   \   000070   2416         ADD     A,#0x16
   \   000072   F582         MOV     DPL,A
   \   000074   E5..         MOV     A,?V0 + 3
   \   000076   12....       LCALL   ??Subroutine125_0 & 0xFFFF
   \                     ??CrossCallReturnLabel_253:
   \   000079   12....       LCALL   ??Subroutine103_0 & 0xFFFF
   \                     ??CrossCallReturnLabel_150:
   \   00007C   05..         INC     ?V0 + 6
   \                     ??ZDP_MgmtNwkDiscRsp_1:
   \   00007E   E5..         MOV     A,?V0 + 6
   \   000080   C3           CLR     C
   \   000081   95..         SUBB    A,?V0 + 4
   \   000083   5075         JNC     ??ZDP_MgmtNwkDiscRsp_4
   \   000085                ; Setup parameters for call to function sAddrExtCpy
   \   000085   E5..         MOV     A,?V0 + 2
   \   000087   240D         ADD     A,#0xd
   \   000089   FC           MOV     R4,A
   \   00008A   E5..         MOV     A,?V0 + 3
   \   00008C   12....       LCALL   ?Subroutine68 & 0xFFFF
   \                     ??CrossCallReturnLabel_97:
   \   00008F   EE           MOV     A,R6
   \   000090   2408         ADD     A,#0x8
   \   000092   FE           MOV     R6,A
   \   000093   EF           MOV     A,R7
   \   000094   3400         ADDC    A,#0x0
   \   000096   FF           MOV     R7,A
   \   000097   85..82       MOV     DPL,?V0 + 2
   \   00009A   85..83       MOV     DPH,?V0 + 3
   \   00009D   A3           INC     DPTR
   \   00009E   A3           INC     DPTR
   \   00009F   12....       LCALL   ?Subroutine37 & 0xFFFF
   \                     ??CrossCallReturnLabel_46:
   \   0000A2   AE82         MOV     R6,DPL
   \   0000A4   AF83         MOV     R7,DPH
   \   0000A6   85..82       MOV     DPL,?V0 + 2
   \   0000A9   85..83       MOV     DPH,?V0 + 3
   \   0000AC   A3           INC     DPTR
   \   0000AD   A3           INC     DPTR
   \   0000AE   A3           INC     DPTR
   \   0000AF   A3           INC     DPTR
   \   0000B0   A3           INC     DPTR
   \   0000B1   A3           INC     DPTR
   \   0000B2   A3           INC     DPTR
   \   0000B3   A3           INC     DPTR
   \   0000B4   12....       LCALL   ?Subroutine49 & 0xFFFF
   \                     ??CrossCallReturnLabel_67:
   \   0000B7   EE           MOV     A,R6
   \   0000B8   F8           MOV     R0,A
   \   0000B9   EF           MOV     A,R7
   \   0000BA   F9           MOV     R1,A
   \   0000BB   A3           INC     DPTR
   \   0000BC   0E           INC     R6
   \   0000BD   AF83         MOV     R7,DPH
   \   0000BF   85..82       MOV     DPL,?V0 + 2
   \   0000C2   85..83       MOV     DPH,?V0 + 3
   \   0000C5   A3           INC     DPTR
   \   0000C6   A3           INC     DPTR
   \   0000C7   A3           INC     DPTR
   \   0000C8   12....       LCALL   ?Subroutine21 & 0xFFFF
   \                     ??CrossCallReturnLabel_15:
   \   0000CB   12....       LCALL   ?Subroutine49 & 0xFFFF
   \                     ??CrossCallReturnLabel_68:
   \   0000CE   08           INC     R0
   \   0000CF   EF           MOV     A,R7
   \   0000D0   F9           MOV     R1,A
   \   0000D1   A3           INC     DPTR
   \   0000D2   0E           INC     R6
   \   0000D3   AF83         MOV     R7,DPH
   \   0000D5   85..82       MOV     DPL,?V0 + 2
   \   0000D8   85..83       MOV     DPH,?V0 + 3
   \   0000DB   12....       LCALL   ?Subroutine21 & 0xFFFF
   \                     ??CrossCallReturnLabel_16:
   \   0000DE   A3           INC     DPTR
   \   0000DF   A3           INC     DPTR
   \   0000E0   A3           INC     DPTR
   \   0000E1   A3           INC     DPTR
   \   0000E2   A3           INC     DPTR
   \   0000E3   A3           INC     DPTR
   \   0000E4   E0           MOVX    A,@DPTR
   \   0000E5   64FE         XRL     A,#0xfe
   \   0000E7   7003         JNZ     ??ZDP_MgmtNwkDiscRsp_5
   \   0000E9   A3           INC     DPTR
   \   0000EA   E0           MOVX    A,@DPTR
   \   0000EB   F4           CPL     A
   \                     ??ZDP_MgmtNwkDiscRsp_5:
   \   0000EC   8E82         MOV     DPL,R6
   \   0000EE   8F83         MOV     DPH,R7
   \   0000F0   7003         JNZ     $+5
   \   0000F2   02....       LJMP    ??ZDP_MgmtNwkDiscRsp_2 & 0xFFFF
   \   0000F5   7401         MOV     A,#0x1
   \   0000F7   02....       LJMP    ??ZDP_MgmtNwkDiscRsp_3 & 0xFFFF
   1437            }
   1438          
   1439            FillAndSendBuffer( &TransSeq, dstAddr, Mgmt_NWK_Disc_rsp, len, buf );
   \                     ??ZDP_MgmtNwkDiscRsp_4:
   \   0000FA   85..82       MOV     DPL,?V0 + 0
   \   0000FD   85..83       MOV     DPH,?V0 + 1
   \   000100   12....       LCALL   ??Subroutine115_0 & 0xFFFF
   \                     ??CrossCallReturnLabel_202:
   \   000103                ; Setup parameters for call to function fillAndSend
   \   000103   75..30       MOV     ?V0 + 2,#0x30
   \   000106   75..80       MOV     ?V0 + 3,#-0x80
   \   000109   78..         MOV     R0,#?V0 + 2
   \   00010B   12....       LCALL   ?PUSH_XSTACK_I_TWO
   \   00010E   A9..         MOV     R1,?V0 + 5
   \   000110   AC..         MOV     R4,?V0 + 12
   \   000112   AD..         MOV     R5,?V0 + 13
   \   000114   7402         MOV     A,#0x2
   \   000116   12....       LCALL   ?XSTACK_DISP0_8
   \   000119   AA82         MOV     R2,DPL
   \   00011B   AB83         MOV     R3,DPH
   \   00011D   12....       LCALL   ??Subroutine128_0 & 0xFFFF
   \                     ??CrossCallReturnLabel_283:
   \   000120   12....       LCALL   ?DEALLOC_XSTACK8
   \   000123   E9           MOV     A,R1
   \   000124   FE           MOV     R6,A
   \   000125                ; Setup parameters for call to function osal_mem_free
   \   000125   AA..         MOV     R2,?V0 + 0
   \   000127   AB..         MOV     R3,?V0 + 1
   \   000129   12....       LCALL   ??Subroutine118_0 & 0xFFFF
   \                     ??CrossCallReturnLabel_212:
   \   00012C   7401         MOV     A,#0x1
   \   00012E   12....       LCALL   ?DEALLOC_XSTACK8
   \   000131   7F0E         MOV     R7,#0xe
   \   000133   02....       LJMP    ?BANKED_LEAVE_XDATA
   1440          }

   \                                 In  segment BANKED_CODE, align 1, keep-with-next
   \                     ??Subroutine115_0:
   \   000000   A3           INC     DPTR
   \   000001   A882         MOV     R0,DPL
   \   000003   A983         MOV     R1,DPH
   \   000005   90....       MOV     DPTR,#ZDP_TmpBuf
   \   000008                REQUIRE ??Subroutine116_0
   \   000008                ; // Fall through to label ??Subroutine116_0

   \                                 In  segment BANKED_CODE, align 1, keep-with-next
   \                     ?Subroutine21:
   \   000000   A3           INC     DPTR
   \   000001   A3           INC     DPTR
   \   000002   A3           INC     DPTR
   \   000003   A3           INC     DPTR
   \   000004   E0           MOVX    A,@DPTR
   \   000005   12....       LCALL   ?Subroutine89 & 0xFFFF
   \                     ??CrossCallReturnLabel_125:
   \   000008   85..82       MOV     DPL,?V0 + 2
   \   00000B   85..83       MOV     DPH,?V0 + 3
   \   00000E   A3           INC     DPTR
   \   00000F   A3           INC     DPTR
   \   000010   A3           INC     DPTR
   \   000011   22           RET

   \                                 In  segment BANKED_CODE, align 1, keep-with-next
   \                     ?Subroutine89:
   \   000000   C4           SWAP    A
   \   000001   54F0         ANL     A,#0xf0
   \   000003   FA           MOV     R2,A
   \   000004   8882         MOV     DPL,R0
   \   000006   8983         MOV     DPH,R1
   \   000008   E0           MOVX    A,@DPTR
   \   000009   4A           ORL     A,R2
   \   00000A   F0           MOVX    @DPTR,A
   \   00000B   22           RET

   \                                 In  segment BANKED_CODE, align 1, keep-with-next
   \                     ?Subroutine68:
   \   000000   3400         ADDC    A,#0x0
   \   000002   FD           MOV     R5,A
   \   000003   EE           MOV     A,R6
   \   000004   FA           MOV     R2,A
   \   000005   EF           MOV     A,R7
   \   000006   FB           MOV     R3,A
   \   000007   12....       LCALL   ??sAddrExtCpy?relay
   \   00000A   22           RET

   \                                 In  segment BANKED_CODE, align 1, keep-with-next
   \                     ??Subroutine118_0:
   \   000000   12....       LCALL   ?Subroutine88 & 0xFFFF
   \                     ??CrossCallReturnLabel_213:
   \   000003   EE           MOV     A,R6
   \   000004   F9           MOV     R1,A
   \   000005   22           RET

   \                                 In  segment BANKED_CODE, align 1, keep-with-next
   \                     ?Subroutine49:
   \   000000   E0           MOVX    A,@DPTR
   \   000001   8E82         MOV     DPL,R6
   \   000003   8F83         MOV     DPH,R7
   \   000005   F0           MOVX    @DPTR,A
   \   000006   22           RET

   \                                 In  segment BANKED_CODE, align 1, keep-with-next
   \                     ?Subroutine67:
   \   000000   2401         ADD     A,#0x1
   \   000002   FA           MOV     R2,A
   \   000003   E4           CLR     A
   \   000004   3400         ADDC    A,#0x0
   \   000006   FB           MOV     R3,A
   \   000007   12....       LCALL   ??osal_mem_alloc?relay
   \   00000A   22           RET

   \                                 In  segment BANKED_CODE, align 1, keep-with-next
   \                     ?Subroutine88:
   \   000000   12....       LCALL   ??osal_mem_free?relay
   \   000003   90....       MOV     DPTR,#ZDP_TmpBuf
   \   000006   74..         MOV     A,#(ZDP_Buf + 1) & 0xff
   \   000008   F0           MOVX    @DPTR,A
   \   000009   A3           INC     DPTR
   \   00000A   74..         MOV     A,#((ZDP_Buf + 1) >> 8) & 0xff
   \   00000C   F0           MOVX    @DPTR,A
   \   00000D   22           RET
   1441          
   1442          /*********************************************************************
   1443           * @fn          ZDP_MgmtLqiRsp
   1444           *
   1445           * @brief       This builds and send a Mgmt_Lqi_rsp message. This
   1446           *              function sends a unicast message.
   1447           *
   1448           * @param       dstAddr - destination address of the message
   1449           * @param       Status - message status (ZDP_SUCCESS or other)
   1450           * @param       NeighborLqiEntries - Total number of entries found
   1451           * @param       StartIndex - Starting index within the reporting list
   1452           * @param       NeighborLqiCount - number of lists included
   1453           *                                 in this message
   1454           * @param       NeighborLqiList - List of NeighborLqiItems.  This list
   1455           *                is the list to be sent, not the entire list
   1456           * @param       SecurityEnable - true if secure
   1457           *
   1458           * @return      ZStatus_t
   1459           */

   \                                 In  segment BANKED_CODE, align 1, keep-with-next
   \                     ?Subroutine54:
   \   000000   85..82       MOV     DPL,?V0 + 2
   \   000003   85..83       MOV     DPH,?V0 + 3
   \   000006                REQUIRE ??Subroutine115_0
   \   000006                ; // Fall through to label ??Subroutine115_0

   \                                 In  segment BANKED_CODE, align 1, keep-with-next
   1460          ZStatus_t ZDP_MgmtLqiRsp( byte TransSeq, zAddrType_t *dstAddr,
   \                     ZDP_MgmtLqiRsp:
   1461                                    byte Status,
   1462                                    byte NeighborLqiEntries,
   1463                                    byte StartIndex,
   1464                                    byte NeighborLqiCount,
   1465                                    ZDP_MgmtLqiItem_t* NeighborList,
   1466                                    byte SecurityEnable )
   1467          {
   \   000000   74EB         MOV     A,#-0x15
   \   000002   12....       LCALL   ?BANKED_ENTER_XDATA
   \   000005                ; Saved register size: 21
   \   000005                ; Auto size: 1
   \   000005   74FF         MOV     A,#-0x1
   \   000007   12....       LCALL   ?ALLOC_XSTACK8
   \   00000A   E9           MOV     A,R1
   \   00000B   85..82       MOV     DPL,?XSP + 0
   \   00000E   85..83       MOV     DPH,?XSP + 1
   \   000011   F0           MOVX    @DPTR,A
   \   000012   8A..         MOV     ?V0 + 10,R2
   \   000014   8B..         MOV     ?V0 + 11,R3
   \   000016   8D..         MOV     ?V0 + 12,R5
   \   000018   7416         MOV     A,#0x16
   \   00001A   12....       LCALL   ?XSTACK_DISP0_8
   \   00001D   E0           MOVX    A,@DPTR
   \   00001E   F5..         MOV     ?V0 + 4,A
   \   000020   7417         MOV     A,#0x17
   \   000022   12....       LCALL   ?XSTACK_DISP0_8
   \   000025   E0           MOVX    A,@DPTR
   \   000026   F5..         MOV     ?V0 + 5,A
   \   000028   7418         MOV     A,#0x18
   \   00002A   12....       LCALL   ?XSTACK_DISP0_8
   \   00002D   12....       LCALL   ??Subroutine119_0 & 0xFFFF
   1468            ZDP_MgmtLqiItem_t* list = NeighborList;
   1469            uint8 *buf, *pBuf;
   1470            byte len, x;
   1471          
   1472            (void)SecurityEnable;  // Intentionally unreferenced parameter
   1473          
   1474            if ( ZSuccess != Status )
   \                     ??CrossCallReturnLabel_220:
   \   000030   EC           MOV     A,R4
   \   000031   6028         JZ      ??ZDP_MgmtLqiRsp_0
   1475            {
   1476              ZDP_TmpBuf[0] = Status;
   \   000033   12....       LCALL   ?Subroutine33 & 0xFFFF
   \                     ??CrossCallReturnLabel_191:
   \   000036   EC           MOV     A,R4
   \   000037   F0           MOVX    @DPTR,A
   1477              return fillAndSend( &TransSeq, dstAddr, Mgmt_Lqi_rsp, 1 );
   \   000038                ; Setup parameters for call to function fillAndSend
   \   000038   75..31       MOV     ?V0 + 0,#0x31
   \   00003B   75..80       MOV     ?V0 + 1,#-0x80
   \   00003E   78..         MOV     R0,#?V0 + 0
   \   000040   12....       LCALL   ?PUSH_XSTACK_I_TWO
   \   000043   7901         MOV     R1,#0x1
   \   000045   AC..         MOV     R4,?V0 + 10
   \   000047   AD..         MOV     R5,?V0 + 11
   \   000049   7402         MOV     A,#0x2
   \   00004B   12....       LCALL   ?XSTACK_DISP0_8
   \   00004E   AA82         MOV     R2,DPL
   \   000050   AB83         MOV     R3,DPH
   \   000052   12....       LCALL   ??Subroutine128_0 & 0xFFFF
   1478            }
   \                     ??CrossCallReturnLabel_284:
   \   000055   12....       LCALL   ?DEALLOC_XSTACK8
   \   000058   02....       LJMP    ??CrossCallReturnLabel_210 & 0xFFFF
   1479          
   1480            // (Status + NeighborLqiEntries + StartIndex + NeighborLqiCount) +
   1481            //  neighbor LQI data.
   1482            len = (1 + 1 + 1 + 1) + (NeighborLqiCount * ZDP_MGMTLQI_EXTENDED_SIZE);
   \                     ??ZDP_MgmtLqiRsp_0:
   \   00005B   75F016       MOV     B,#0x16
   \   00005E   E5..         MOV     A,?V0 + 5
   \   000060   A4           MUL     AB
   \   000061   2404         ADD     A,#0x4
   \   000063   F5..         MOV     ?V0 + 6,A
   1483          
   1484            buf = osal_mem_alloc( len+1 );
   \   000065                ; Setup parameters for call to function osal_mem_alloc
   \   000065   12....       LCALL   ?Subroutine64 & 0xFFFF
   1485            if ( buf == NULL )
   \                     ??CrossCallReturnLabel_207:
   \   000068   7005         JNZ     ??ZDP_MgmtLqiRsp_1
   1486            {
   1487              return afStatus_MEM_FAIL;
   \   00006A   7910         MOV     R1,#0x10
   \   00006C   02....       LJMP    ??CrossCallReturnLabel_210 & 0xFFFF
   1488            }
   1489          
   1490            pBuf = buf+1;
   \                     ??ZDP_MgmtLqiRsp_1:
   \   00006F   8A82         MOV     DPL,R2
   \   000071   8B83         MOV     DPH,R3
   \   000073   A3           INC     DPTR
   1491          
   1492            *pBuf++ = Status;
   \   000074   E4           CLR     A
   \   000075   F0           MOVX    @DPTR,A
   \   000076   A3           INC     DPTR
   1493            *pBuf++ = NeighborLqiEntries;
   \   000077   E5..         MOV     A,?V0 + 12
   \   000079   F0           MOVX    @DPTR,A
   \   00007A   A3           INC     DPTR
   1494            *pBuf++ = StartIndex;
   \   00007B   12....       LCALL   ?Subroutine58 & 0xFFFF
   1495            *pBuf++ = NeighborLqiCount;
   1496          
   1497            for ( x = 0; x < NeighborLqiCount; x++ )
   \                     ??CrossCallReturnLabel_79:
   \   00007E   75..00       MOV     ?V0 + 4,#0x0
   \   000081   02....       LJMP    ??ZDP_MgmtLqiRsp_2 & 0xFFFF
   1498            {
   1499              osal_cpyExtAddr( pBuf, list->extPanID);         // Extended PanID
   \                     ??ZDP_MgmtLqiRsp_3:
   \   000084                ; Setup parameters for call to function sAddrExtCpy
   \   000084   E5..         MOV     A,?V0 + 0
   \   000086   2402         ADD     A,#0x2
   \   000088   FC           MOV     R4,A
   \   000089   E5..         MOV     A,?V0 + 1
   \   00008B   12....       LCALL   ?Subroutine68 & 0xFFFF
   1500              pBuf += Z_EXTADDR_LEN;
   1501          
   1502              // EXTADDR
   1503              pBuf = osal_cpyExtAddr( pBuf, list->extAddr );
   \                     ??CrossCallReturnLabel_98:
   \   00008E                ; Setup parameters for call to function sAddrExtCpy
   \   00008E   E5..         MOV     A,?V0 + 0
   \   000090   240A         ADD     A,#0xa
   \   000092   FC           MOV     R4,A
   \   000093   E5..         MOV     A,?V0 + 1
   \   000095   3400         ADDC    A,#0x0
   \   000097   FD           MOV     R5,A
   \   000098   EE           MOV     A,R6
   \   000099   2408         ADD     A,#0x8
   \   00009B   FA           MOV     R2,A
   \   00009C   EF           MOV     A,R7
   \   00009D   3400         ADDC    A,#0x0
   \   00009F   FB           MOV     R3,A
   \   0000A0   12....       LCALL   ??sAddrExtCpy?relay
   \   0000A3   8A..         MOV     ?V0 + 8,R2
   \   0000A5   8B..         MOV     ?V0 + 9,R3
   \   0000A7   AE..         MOV     R6,?V0 + 8
   \   0000A9   AF..         MOV     R7,?V0 + 9
   1504          
   1505              // NWKADDR
   1506              *pBuf++ = LO_UINT16( list->nwkAddr );
   \   0000AB   E5..         MOV     A,?V0 + 0
   \   0000AD   2412         ADD     A,#0x12
   \   0000AF   F8           MOV     R0,A
   \   0000B0   E5..         MOV     A,?V0 + 1
   \   0000B2   3400         ADDC    A,#0x0
   \   0000B4   F9           MOV     R1,A
   \   0000B5   12....       LCALL   ?Subroutine28 & 0xFFFF
   1507              *pBuf++ = HI_UINT16( list->nwkAddr );
   \                     ??CrossCallReturnLabel_29:
   \   0000B8   12....       LCALL   ??Subroutine120_0 & 0xFFFF
   1508          
   1509              // DEVICETYPE
   1510              *pBuf = list->devType;
   \                     ??CrossCallReturnLabel_228:
   \   0000BB   2414         ADD     A,#0x14
   \   0000BD   F582         MOV     DPL,A
   \   0000BF   E5..         MOV     A,?V0 + 1
   \   0000C1   12....       LCALL   ??Subroutine125_0 & 0xFFFF
   \                     ??CrossCallReturnLabel_254:
   \   0000C4   12....       LCALL   ?Subroutine49 & 0xFFFF
   1511          
   1512              // RXONIDLE
   1513              *pBuf |= (uint8)(list->rxOnIdle << 2);
   \                     ??CrossCallReturnLabel_69:
   \   0000C7   E5..         MOV     A,?V0 + 0
   \   0000C9   2415         ADD     A,#0x15
   \   0000CB   F582         MOV     DPL,A
   \   0000CD   E5..         MOV     A,?V0 + 1
   \   0000CF   12....       LCALL   ??Subroutine131_0 & 0xFFFF
   \                     ??CrossCallReturnLabel_302:
   \   0000D2   33           RLC     A
   \   0000D3   33           RLC     A
   \   0000D4   54FC         ANL     A,#0xfc
   \   0000D6   F8           MOV     R0,A
   \   0000D7   8E82         MOV     DPL,R6
   \   0000D9   8F83         MOV     DPH,R7
   \   0000DB   E0           MOVX    A,@DPTR
   \   0000DC   48           ORL     A,R0
   \   0000DD   F0           MOVX    @DPTR,A
   1514          
   1515              // RELATIONSHIP
   1516              *pBuf++ |= (uint8)(list->relation << 4);
   \   0000DE   EE           MOV     A,R6
   \   0000DF   F8           MOV     R0,A
   \   0000E0   EF           MOV     A,R7
   \   0000E1   F9           MOV     R1,A
   \   0000E2   A3           INC     DPTR
   \   0000E3   0E           INC     R6
   \   0000E4   AF83         MOV     R7,DPH
   \   0000E6   E5..         MOV     A,?V0 + 0
   \   0000E8   2416         ADD     A,#0x16
   \   0000EA   F582         MOV     DPL,A
   \   0000EC   E5..         MOV     A,?V0 + 1
   \   0000EE   12....       LCALL   ??Subroutine131_0 & 0xFFFF
   \                     ??CrossCallReturnLabel_303:
   \   0000F1   12....       LCALL   ?Subroutine89 & 0xFFFF
   1517          
   1518              // PERMITJOINING
   1519              *pBuf++ = (uint8)(list->permit);
   \                     ??CrossCallReturnLabel_124:
   \   0000F4   E5..         MOV     A,?V0 + 0
   \   0000F6   2417         ADD     A,#0x17
   \   0000F8   12....       LCALL   ?Subroutine14 & 0xFFFF
   1520          
   1521              // DEPTH
   1522              *pBuf++ = list->depth;
   1523          
   1524              // LQI
   1525              *pBuf++ = list->lqi;
   1526          
   1527              list++; // next list entry
   1528            }
   \                     ??CrossCallReturnLabel_225:
   \   0000FB   2418         ADD     A,#0x18
   \   0000FD   12....       LCALL   ?Subroutine14 & 0xFFFF
   \                     ??CrossCallReturnLabel_226:
   \   000100   2419         ADD     A,#0x19
   \   000102   12....       LCALL   ?Subroutine14 & 0xFFFF
   \                     ??CrossCallReturnLabel_227:
   \   000105   241A         ADD     A,#0x1a
   \   000107   F5..         MOV     ?V0 + 0,A
   \   000109   E5..         MOV     A,?V0 + 1
   \   00010B   3400         ADDC    A,#0x0
   \   00010D   F5..         MOV     ?V0 + 1,A
   \   00010F   05..         INC     ?V0 + 4
   \                     ??ZDP_MgmtLqiRsp_2:
   \   000111   E5..         MOV     A,?V0 + 4
   \   000113   C3           CLR     C
   \   000114   95..         SUBB    A,?V0 + 5
   \   000116   5003         JNC     $+5
   \   000118   02....       LJMP    ??ZDP_MgmtLqiRsp_3 & 0xFFFF
   1529          
   1530            FillAndSendBuffer( &TransSeq, dstAddr, Mgmt_Lqi_rsp, len, buf );
   \   00011B   12....       LCALL   ?Subroutine54 & 0xFFFF
   \                     ??CrossCallReturnLabel_204:
   \   00011E                ; Setup parameters for call to function fillAndSend
   \   00011E   75..31       MOV     ?V0 + 0,#0x31
   \   000121   75..80       MOV     ?V0 + 1,#-0x80
   \   000124   78..         MOV     R0,#?V0 + 0
   \   000126   12....       LCALL   ?PUSH_XSTACK_I_TWO
   \   000129   A9..         MOV     R1,?V0 + 6
   \   00012B   AC..         MOV     R4,?V0 + 10
   \   00012D   AD..         MOV     R5,?V0 + 11
   \   00012F   7402         MOV     A,#0x2
   \   000131   12....       LCALL   ?XSTACK_DISP0_8
   \   000134   AA82         MOV     R2,DPL
   \   000136   AB83         MOV     R3,DPH
   \   000138   12....       LCALL   ??Subroutine128_0 & 0xFFFF
   \                     ??CrossCallReturnLabel_285:
   \   00013B   12....       LCALL   ?DEALLOC_XSTACK8
   \   00013E   12....       LCALL   ?Subroutine56 & 0xFFFF
   \                     ??CrossCallReturnLabel_210:
   \   000141   7401         MOV     A,#0x1
   \   000143   12....       LCALL   ?DEALLOC_XSTACK8
   \   000146   7F0D         MOV     R7,#0xd
   \   000148   02....       LJMP    ?BANKED_LEAVE_XDATA
   1531          }

   \                                 In  segment BANKED_CODE, align 1, keep-with-next
   \                     ?Subroutine64:
   \   000000   2401         ADD     A,#0x1
   \   000002                REQUIRE ??Subroutine117_0
   \   000002                ; // Fall through to label ??Subroutine117_0

   \                                 In  segment BANKED_CODE, align 1, keep-with-next
   \                     ??Subroutine117_0:
   \   000000   FA           MOV     R2,A
   \   000001   E4           CLR     A
   \   000002   3400         ADDC    A,#0x0
   \   000004   FB           MOV     R3,A
   \   000005   12....       LCALL   ??osal_mem_alloc?relay
   \   000008   8A..         MOV     ?V0 + 2,R2
   \   00000A   8B..         MOV     ?V0 + 3,R3
   \   00000C   EA           MOV     A,R2
   \   00000D   45..         ORL     A,?V0 + 3
   \   00000F   22           RET

   \                                 In  segment BANKED_CODE, align 1, keep-with-next
   \                     ?Subroutine56:
   \   000000   E9           MOV     A,R1
   \   000001   FE           MOV     R6,A
   \   000002                ; Setup parameters for call to function osal_mem_free
   \   000002                ; Setup parameters for call to function osal_mem_free
   \   000002   AA..         MOV     R2,?V0 + 2
   \   000004   AB..         MOV     R3,?V0 + 3
   \   000006                REQUIRE ??Subroutine118_0
   \   000006                ; // Fall through to label ??Subroutine118_0

   \                                 In  segment BANKED_CODE, align 1, keep-with-next
   \                     ?Subroutine14:
   \   000000   F582         MOV     DPL,A
   \   000002   E5..         MOV     A,?V0 + 1
   \   000004   3400         ADDC    A,#0x0
   \   000006   F583         MOV     DPH,A
   \   000008                REQUIRE ??Subroutine120_0
   \   000008                ; // Fall through to label ??Subroutine120_0

   \                                 In  segment BANKED_CODE, align 1, keep-with-next
   \                     ??Subroutine120_0:
   \   000000   12....       LCALL   ?Subroutine85 & 0xFFFF
   \                     ??CrossCallReturnLabel_230:
   \   000003   E5..         MOV     A,?V0 + 0
   \   000005   22           RET
   1532          
   1533          /*********************************************************************
   1534           * @fn          ZDP_MgmtRtgRsp
   1535           *
   1536           * @brief       This builds and send a Mgmt_Rtg_rsp message. This
   1537           *              function sends a unicast message.
   1538           *
   1539           * @param       dstAddr - destination address of the message
   1540           * @param       Status - message status (ZDP_SUCCESS or other)
   1541           * @param       RoutingTableEntries - Total number of entries
   1542           * @param       StartIndex - Starting index within the reporting list
   1543           * @param       RoutingTableListCount - number of entries included
   1544           *                                      in this message
   1545           * @param       RoutingTableList - List of Routing Table entries
   1546           * @param       SecurityEnable - true to enable security for this message
   1547           *
   1548           * @return      ZStatus_t
   1549           */

   \                                 In  segment BANKED_CODE, align 1, keep-with-next
   1550          ZStatus_t ZDP_MgmtRtgRsp( byte TransSeq, zAddrType_t *dstAddr,
   \                     ZDP_MgmtRtgRsp:
   1551                                      byte Status,
   1552                                      byte RoutingTableEntries,
   1553                                      byte StartIndex,
   1554                                      byte RoutingListCount,
   1555                                      rtgItem_t *RoutingTableList,
   1556                                      byte SecurityEnable )
   1557          {
   \   000000   74ED         MOV     A,#-0x13
   \   000002   12....       LCALL   ?BANKED_ENTER_XDATA
   \   000005                ; Saved register size: 19
   \   000005                ; Auto size: 1
   \   000005   74FF         MOV     A,#-0x1
   \   000007   12....       LCALL   ?ALLOC_XSTACK8
   \   00000A   E9           MOV     A,R1
   \   00000B   85..82       MOV     DPL,?XSP + 0
   \   00000E   85..83       MOV     DPH,?XSP + 1
   \   000011   F0           MOVX    @DPTR,A
   \   000012   8A..         MOV     ?V0 + 6,R2
   \   000014   8B..         MOV     ?V0 + 7,R3
   \   000016   8C..         MOV     ?V0 + 1,R4
   \   000018   8D..         MOV     ?V0 + 0,R5
   \   00001A   7414         MOV     A,#0x14
   \   00001C   12....       LCALL   ?XSTACK_DISP0_8
   \   00001F   E0           MOVX    A,@DPTR
   \   000020   F5..         MOV     ?V0 + 10,A
   \   000022   7415         MOV     A,#0x15
   \   000024   12....       LCALL   ?XSTACK_DISP0_8
   \   000027   E0           MOVX    A,@DPTR
   \   000028   F5..         MOV     ?V0 + 5,A
   \   00002A   7416         MOV     A,#0x16
   \   00002C   12....       LCALL   ?XSTACK_DISP0_8
   \   00002F   12....       LCALL   ??Subroutine103_0 & 0xFFFF
   1558            uint8 *buf;
   1559            uint8 *pBuf;
   1560            // Status + RoutingTableEntries + StartIndex + RoutingListCount.
   1561            byte len = 1 + 1 + 1 + 1;
   1562            byte x;
   1563          
   1564            (void)SecurityEnable;  // Intentionally unreferenced parameter
   1565          
   1566            // Add an array for Routing List data
   1567            len += (RoutingListCount * ZDP_ROUTINGENTRY_SIZE);
   \                     ??CrossCallReturnLabel_151:
   \   000032   75F005       MOV     B,#0x5
   \   000035   E5..         MOV     A,?V0 + 5
   \   000037   A4           MUL     AB
   \   000038   2404         ADD     A,#0x4
   \   00003A   F5..         MOV     ?V0 + 4,A
   1568          
   1569            buf = osal_mem_alloc( (short)(len+1) );
   \   00003C                ; Setup parameters for call to function osal_mem_alloc
   \   00003C   12....       LCALL   ?Subroutine67 & 0xFFFF
   \                     ??CrossCallReturnLabel_96:
   \   00003F   8A..         MOV     ?V0 + 8,R2
   \   000041   8B..         MOV     ?V0 + 9,R3
   \   000043   AE..         MOV     R6,?V0 + 8
   \   000045   AF..         MOV     R7,?V0 + 9
   1570            if ( buf == NULL )
   \   000047   EE           MOV     A,R6
   \   000048   4F           ORL     A,R7
   \   000049   7005         JNZ     ??ZDP_MgmtRtgRsp_0
   1571            {
   1572              return afStatus_MEM_FAIL;
   \   00004B   7910         MOV     R1,#0x10
   \   00004D   02....       LJMP    ??ZDP_MgmtRtgRsp_1 & 0xFFFF
   1573            }
   1574          
   1575            pBuf = buf+1;
   \                     ??ZDP_MgmtRtgRsp_0:
   \   000050   8E82         MOV     DPL,R6
   \   000052   8F83         MOV     DPH,R7
   \   000054   A3           INC     DPTR
   1576          
   1577            *pBuf++ = Status;
   \   000055   E5..         MOV     A,?V0 + 1
   \   000057   12....       LCALL   ?Subroutine60 & 0xFFFF
   1578            *pBuf++ = RoutingTableEntries;
   1579            *pBuf++ = StartIndex;
   \                     ??CrossCallReturnLabel_83:
   \   00005A   E5..         MOV     A,?V0 + 10
   \   00005C   F0           MOVX    @DPTR,A
   \   00005D   A3           INC     DPTR
   1580            *pBuf++ = RoutingListCount;
   \   00005E   E5..         MOV     A,?V0 + 5
   \   000060   12....       LCALL   ??Subroutine121_0 & 0xFFFF
   1581          
   1582            for ( x = 0; x < RoutingListCount; x++ )
   \                     ??CrossCallReturnLabel_236:
   \   000063   7C00         MOV     R4,#0x0
   \   000065   8034         SJMP    ??ZDP_MgmtRtgRsp_2
   1583            {
   1584              *pBuf++ = LO_UINT16( RoutingTableList->dstAddress );  // Destination Address
   \                     ??ZDP_MgmtRtgRsp_3:
   \   000067   85..82       MOV     DPL,?V0 + 2
   \   00006A   85..83       MOV     DPH,?V0 + 3
   \   00006D   12....       LCALL   ?Subroutine25 & 0xFFFF
   1585              *pBuf++ = HI_UINT16( RoutingTableList->dstAddress );
   \                     ??CrossCallReturnLabel_25:
   \   000070   A3           INC     DPTR
   \   000071   12....       LCALL   ?Subroutine16 & 0xFFFF
   1586              *pBuf++ = RoutingTableList->status;
   \                     ??CrossCallReturnLabel_6:
   \   000074   A3           INC     DPTR
   \   000075   A3           INC     DPTR
   \   000076   A3           INC     DPTR
   \   000077   12....       LCALL   ?Subroutine34 & 0xFFFF
   1587              *pBuf++ = LO_UINT16( RoutingTableList->nextHopAddress );  // Next hop
   \                     ??CrossCallReturnLabel_34:
   \   00007A   2402         ADD     A,#0x2
   \   00007C   FA           MOV     R2,A
   \   00007D   E5..         MOV     A,?V0 + 3
   \   00007F   3400         ADDC    A,#0x0
   \   000081   FB           MOV     R3,A
   \   000082   8A82         MOV     DPL,R2
   \   000084   8B83         MOV     DPH,R3
   \   000086   12....       LCALL   ?Subroutine35 & 0xFFFF
   1588              *pBuf++ = HI_UINT16( RoutingTableList->nextHopAddress );
   \                     ??CrossCallReturnLabel_40:
   \   000089   8A82         MOV     DPL,R2
   \   00008B   8B83         MOV     DPH,R3
   \   00008D   12....       LCALL   ?Subroutine34 & 0xFFFF
   1589              RoutingTableList++;    // Move to next list entry
   1590            }
   \                     ??CrossCallReturnLabel_35:
   \   000090   2406         ADD     A,#0x6
   \   000092   F5..         MOV     ?V0 + 2,A
   \   000094   E5..         MOV     A,?V0 + 3
   \   000096   3400         ADDC    A,#0x0
   \   000098   F5..         MOV     ?V0 + 3,A
   \   00009A   0C           INC     R4
   \                     ??ZDP_MgmtRtgRsp_2:
   \   00009B   EC           MOV     A,R4
   \   00009C   C3           CLR     C
   \   00009D   95..         SUBB    A,?V0 + 5
   \   00009F   40C6         JC      ??ZDP_MgmtRtgRsp_3
   1591          
   1592            FillAndSendBuffer( &TransSeq, dstAddr, Mgmt_Rtg_rsp, len, buf );
   \   0000A1   8E82         MOV     DPL,R6
   \   0000A3   8F83         MOV     DPH,R7
   \   0000A5   12....       LCALL   ??Subroutine115_0 & 0xFFFF
   \                     ??CrossCallReturnLabel_203:
   \   0000A8                ; Setup parameters for call to function fillAndSend
   \   0000A8   75..32       MOV     ?V0 + 2,#0x32
   \   0000AB   75..80       MOV     ?V0 + 3,#-0x80
   \   0000AE   78..         MOV     R0,#?V0 + 2
   \   0000B0   12....       LCALL   ?PUSH_XSTACK_I_TWO
   \   0000B3   A9..         MOV     R1,?V0 + 4
   \   0000B5   AC..         MOV     R4,?V0 + 6
   \   0000B7   AD..         MOV     R5,?V0 + 7
   \   0000B9   7402         MOV     A,#0x2
   \   0000BB   12....       LCALL   ?XSTACK_DISP0_8
   \   0000BE   AA82         MOV     R2,DPL
   \   0000C0   AB83         MOV     R3,DPH
   \   0000C2   12....       LCALL   ??Subroutine128_0 & 0xFFFF
   \                     ??CrossCallReturnLabel_286:
   \   0000C5   12....       LCALL   ?DEALLOC_XSTACK8
   \   0000C8   E9           MOV     A,R1
   \   0000C9   F5..         MOV     ?V0 + 2,A
   \   0000CB                ; Setup parameters for call to function osal_mem_free
   \   0000CB   EE           MOV     A,R6
   \   0000CC   FA           MOV     R2,A
   \   0000CD   EF           MOV     A,R7
   \   0000CE   FB           MOV     R3,A
   \   0000CF   12....       LCALL   ?Subroutine73 & 0xFFFF
   \                     ??CrossCallReturnLabel_104:
   \   0000D2   A9..         MOV     R1,?V0 + 2
   \                     ??ZDP_MgmtRtgRsp_1:
   \   0000D4   7401         MOV     A,#0x1
   \   0000D6   02....       LJMP    ?Subroutine4 & 0xFFFF
   1593          }

   \                                 In  segment BANKED_CODE, align 1, keep-with-next
   \                     ?Subroutine34:
   \   000000   12....       LCALL   ?Subroutine80 & 0xFFFF
   \                     ??CrossCallReturnLabel_249:
   \   000003   E5..         MOV     A,?V0 + 2
   \   000005   22           RET

   \                                 In  segment BANKED_CODE, align 1, keep-with-next
   \                     ?Subroutine60:
   \   000000   F0           MOVX    @DPTR,A
   \   000001   A3           INC     DPTR
   \   000002   E5..         MOV     A,?V0 + 0
   \   000004   F0           MOVX    @DPTR,A
   \   000005   A3           INC     DPTR
   \   000006   22           RET

   \                                 In  segment BANKED_CODE, align 1, keep-with-next
   \                     ?Subroutine73:
   \   000000   12....       LCALL   ?Subroutine88 & 0xFFFF
   \                     ??CrossCallReturnLabel_214:
   \   000003   22           RET
   1594          
   1595          /*********************************************************************
   1596           * @fn          ZDP_MgmtBindRsp
   1597           *
   1598           * @brief       This builds and send a Mgmt_Bind_rsp message. This
   1599           *              function sends a unicast message.
   1600           *
   1601           * @param       dstAddr - destination address of the message
   1602           * @param       Status - message status (ZDP_SUCCESS or other)
   1603           * @param       BindingTableEntries - Total number of entries
   1604           * @param       StartIndex - Starting index within the reporting list
   1605           * @param       BindingTableListCount - number of entries included
   1606           *                                 in this message
   1607           * @param       BindingTableList - List of Binding Table entries
   1608           * @param       SecurityEnable - Security Options
   1609           *
   1610           * @return      ZStatus_t
   1611           */

   \                                 In  segment BANKED_CODE, align 1, keep-with-next
   1612          ZStatus_t ZDP_MgmtBindRsp( byte TransSeq, zAddrType_t *dstAddr,
   \                     ZDP_MgmtBindRsp:
   1613                                      byte Status,
   1614                                      byte BindingTableEntries,
   1615                                      byte StartIndex,
   1616                                      byte BindingTableListCount,
   1617                                      apsBindingItem_t *BindingTableList,
   1618                                      byte SecurityEnable )
   1619          {
   \   000000   74EC         MOV     A,#-0x14
   \   000002   12....       LCALL   ?BANKED_ENTER_XDATA
   \   000005                ; Saved register size: 20
   \   000005                ; Auto size: 1
   \   000005   74FF         MOV     A,#-0x1
   \   000007   12....       LCALL   ?ALLOC_XSTACK8
   \   00000A   E9           MOV     A,R1
   \   00000B   85..82       MOV     DPL,?XSP + 0
   \   00000E   85..83       MOV     DPH,?XSP + 1
   \   000011   F0           MOVX    @DPTR,A
   \   000012   8A..         MOV     ?V0 + 10,R2
   \   000014   8B..         MOV     ?V0 + 11,R3
   \   000016   8C..         MOV     ?V0 + 6,R4
   \   000018   8D..         MOV     ?V0 + 5,R5
   \   00001A   7415         MOV     A,#0x15
   \   00001C   12....       LCALL   ?XSTACK_DISP0_8
   \   00001F   E0           MOVX    A,@DPTR
   \   000020   F5..         MOV     ?V0 + 0,A
   \   000022   7416         MOV     A,#0x16
   \   000024   12....       LCALL   ?XSTACK_DISP0_8
   \   000027   E0           MOVX    A,@DPTR
   \   000028   F5..         MOV     ?V0 + 4,A
   \   00002A   7417         MOV     A,#0x17
   \   00002C   12....       LCALL   ?XSTACK_DISP0_8
   \   00002F   12....       LCALL   ??Subroutine129_0 & 0xFFFF
   1620            uint8 *buf;
   1621            uint8 *pBuf;
   1622            uint8 maxLen; // maxLen is the maximum packet length to allocate enough memory space
   1623            uint8 len;    // Actual length varies due to different addrMode
   1624            uint8 x;
   1625            byte extZdpBindEntrySize = ZDP_BINDINGENTRY_SIZE + 1 + 1; // One more byte for cluserID and DstAddrMode
   1626            byte shortZdpBindEntrySize = ZDP_BINDINGENTRY_SIZE + 1 + 1 + 2 - 8 - 1; // clusterID + DstAddrMode + shortAddr - ExtAddr - DstEndpoint
   1627          
   1628            (void)SecurityEnable;  // Intentionally unreferenced parameter
   1629          
   1630            // Status + BindingTableEntries + StartIndex + BindingTableListCount.
   1631            maxLen = 1 + 1 + 1 + 1;
   1632            maxLen += (BindingTableListCount * extZdpBindEntrySize );  //max length
   1633            buf = osal_mem_alloc( maxLen + 1 );  // +1 for transaction ID
   \                     ??CrossCallReturnLabel_292:
   \   000032                ; Setup parameters for call to function osal_mem_alloc
   \   000032   75F015       MOV     B,#0x15
   \   000035   E5..         MOV     A,?V0 + 4
   \   000037   A4           MUL     AB
   \   000038   2405         ADD     A,#0x5
   \   00003A   12....       LCALL   ??Subroutine117_0 & 0xFFFF
   1634          
   1635            if ( buf == NULL )
   \                     ??CrossCallReturnLabel_209:
   \   00003D   7005         JNZ     ??ZDP_MgmtBindRsp_0
   1636            {
   1637              return afStatus_MEM_FAIL;
   \   00003F   7910         MOV     R1,#0x10
   \   000041   02....       LJMP    ??CrossCallReturnLabel_211 & 0xFFFF
   1638            }
   1639          
   1640            pBuf = buf+1;
   \                     ??ZDP_MgmtBindRsp_0:
   \   000044   8A82         MOV     DPL,R2
   \   000046   8B83         MOV     DPH,R3
   \   000048   A3           INC     DPTR
   1641          
   1642            *pBuf++ = Status;
   \   000049   E5..         MOV     A,?V0 + 6
   \   00004B   F0           MOVX    @DPTR,A
   \   00004C   A3           INC     DPTR
   1643            *pBuf++ = BindingTableEntries;
   \   00004D   E5..         MOV     A,?V0 + 5
   \   00004F   12....       LCALL   ?Subroutine60 & 0xFFFF
   1644            *pBuf++ = StartIndex;
   1645            *pBuf++ = BindingTableListCount;
   \                     ??CrossCallReturnLabel_84:
   \   000052   E5..         MOV     A,?V0 + 4
   \   000054   12....       LCALL   ??Subroutine126_0 & 0xFFFF
   1646          
   1647            // Initial length = Status + BindingTableEntries + StartIndex + BindingTableListCount.
   1648            // length += ZDP_BINDINGENTRY_SIZE   -- Version 1.0
   1649            //           extZdpBindEntrySize     -- Version 1.1 extended address mode
   1650            //           shortZdpBindEntrySize   -- Version 1.1 group address mode
   1651          
   1652            len = 1 + 1 + 1 + 1;
   \                     ??CrossCallReturnLabel_265:
   \   000057   75..04       MOV     ?V0 + 0,#0x4
   1653            for ( x = 0; x < BindingTableListCount; x++ )
   \   00005A   75..00       MOV     ?V0 + 1,#0x0
   \   00005D   8018         SJMP    ??ZDP_MgmtBindRsp_1
   1654            {
   1655              pBuf = osal_cpyExtAddr( pBuf, BindingTableList->srcAddr );
   1656              *pBuf++ = BindingTableList->srcEP;
   1657          
   1658              // Cluster ID
   1659              *pBuf++ = LO_UINT16( BindingTableList->clusterID );
   1660              *pBuf++ = HI_UINT16( BindingTableList->clusterID );
   1661          
   1662              *pBuf++ = BindingTableList->dstAddr.addrMode;
   1663              if ( BindingTableList->dstAddr.addrMode == Addr64Bit )
   1664              {
   1665                len += extZdpBindEntrySize;
   1666                pBuf = osal_cpyExtAddr( pBuf, BindingTableList->dstAddr.addr.extAddr );
   1667                *pBuf++ = BindingTableList->dstEP;
   1668              }
   1669              else
   1670              {
   1671                len += shortZdpBindEntrySize;
   \                     ??ZDP_MgmtBindRsp_2:
   \   00005F   740E         MOV     A,#0xe
   \   000061   25..         ADD     A,?V0 + 0
   \   000063   F5..         MOV     ?V0 + 0,A
   1672                *pBuf++ = LO_UINT16( BindingTableList->dstAddr.addr.shortAddr );
   \   000065   EE           MOV     A,R6
   \   000066   240B         ADD     A,#0xb
   \   000068   12....       LCALL   ?Subroutine19 & 0xFFFF
   1673                *pBuf++ = HI_UINT16( BindingTableList->dstAddr.addr.shortAddr );
   1674              }
   \                     ??CrossCallReturnLabel_11:
   \   00006B   AB83         MOV     R3,DPH
   1675              BindingTableList++;    // Move to next list entry
   \   00006D   EE           MOV     A,R6
   \   00006E   2415         ADD     A,#0x15
   \   000070   FE           MOV     R6,A
   \   000071   EF           MOV     A,R7
   \   000072   3400         ADDC    A,#0x0
   \   000074   FF           MOV     R7,A
   \   000075   05..         INC     ?V0 + 1
   \                     ??ZDP_MgmtBindRsp_1:
   \   000077   E5..         MOV     A,?V0 + 1
   \   000079   C3           CLR     C
   \   00007A   95..         SUBB    A,?V0 + 4
   \   00007C   5049         JNC     ??ZDP_MgmtBindRsp_3
   \   00007E                ; Setup parameters for call to function sAddrExtCpy
   \   00007E   EE           MOV     A,R6
   \   00007F   FC           MOV     R4,A
   \   000080   EF           MOV     A,R7
   \   000081   FD           MOV     R5,A
   \   000082   12....       LCALL   ??sAddrExtCpy?relay
   \   000085   8E82         MOV     DPL,R6
   \   000087   8F83         MOV     DPH,R7
   \   000089   A3           INC     DPTR
   \   00008A   A3           INC     DPTR
   \   00008B   A3           INC     DPTR
   \   00008C   A3           INC     DPTR
   \   00008D   A3           INC     DPTR
   \   00008E   A3           INC     DPTR
   \   00008F   A3           INC     DPTR
   \   000090   A3           INC     DPTR
   \   000091   12....       LCALL   ?Subroutine48 & 0xFFFF
   \                     ??CrossCallReturnLabel_65:
   \   000094   AB83         MOV     R3,DPH
   \   000096   EE           MOV     A,R6
   \   000097   2409         ADD     A,#0x9
   \   000099   12....       LCALL   ?Subroutine19 & 0xFFFF
   \                     ??CrossCallReturnLabel_12:
   \   00009C   AB83         MOV     R3,DPH
   \   00009E   EE           MOV     A,R6
   \   00009F   2413         ADD     A,#0x13
   \   0000A1   F8           MOV     R0,A
   \   0000A2   EF           MOV     A,R7
   \   0000A3   12....       LCALL   ?Subroutine27 & 0xFFFF
   \                     ??CrossCallReturnLabel_27:
   \   0000A6   70B7         JNZ     ??ZDP_MgmtBindRsp_2
   \   0000A8   7415         MOV     A,#0x15
   \   0000AA   25..         ADD     A,?V0 + 0
   \   0000AC   F5..         MOV     ?V0 + 0,A
   \   0000AE                ; Setup parameters for call to function sAddrExtCpy
   \   0000AE   EE           MOV     A,R6
   \   0000AF   240B         ADD     A,#0xb
   \   0000B1   FC           MOV     R4,A
   \   0000B2   EF           MOV     A,R7
   \   0000B3   3400         ADDC    A,#0x0
   \   0000B5   FD           MOV     R5,A
   \   0000B6   12....       LCALL   ??sAddrExtCpy?relay
   \   0000B9   EE           MOV     A,R6
   \   0000BA   2414         ADD     A,#0x14
   \   0000BC   F582         MOV     DPL,A
   \   0000BE   EF           MOV     A,R7
   \   0000BF   12....       LCALL   ??Subroutine125_0 & 0xFFFF
   1676            }
   \                     ??CrossCallReturnLabel_255:
   \   0000C2   12....       LCALL   ?Subroutine48 & 0xFFFF
   \                     ??CrossCallReturnLabel_66:
   \   0000C5   80A4         SJMP    ??CrossCallReturnLabel_11
   1677          
   1678            FillAndSendBuffer( &TransSeq, dstAddr, Mgmt_Bind_rsp, len, buf );
   \                     ??ZDP_MgmtBindRsp_3:
   \   0000C7   12....       LCALL   ?Subroutine54 & 0xFFFF
   \                     ??CrossCallReturnLabel_205:
   \   0000CA                ; Setup parameters for call to function fillAndSend
   \   0000CA   75..33       MOV     ?V0 + 8,#0x33
   \   0000CD   75..80       MOV     ?V0 + 9,#-0x80
   \   0000D0   78..         MOV     R0,#?V0 + 8
   \   0000D2   12....       LCALL   ?PUSH_XSTACK_I_TWO
   \   0000D5   A9..         MOV     R1,?V0 + 0
   \   0000D7   AC..         MOV     R4,?V0 + 10
   \   0000D9   AD..         MOV     R5,?V0 + 11
   \   0000DB   7402         MOV     A,#0x2
   \   0000DD   12....       LCALL   ?XSTACK_DISP0_8
   \   0000E0   AA82         MOV     R2,DPL
   \   0000E2   AB83         MOV     R3,DPH
   \   0000E4   12....       LCALL   ??Subroutine128_0 & 0xFFFF
   \                     ??CrossCallReturnLabel_287:
   \   0000E7   12....       LCALL   ?DEALLOC_XSTACK8
   \   0000EA   12....       LCALL   ?Subroutine56 & 0xFFFF
   \                     ??CrossCallReturnLabel_211:
   \   0000ED   7401         MOV     A,#0x1
   \   0000EF   12....       LCALL   ?DEALLOC_XSTACK8
   \   0000F2   02....       LJMP    ?Subroutine6 & 0xFFFF
   1679          }

   \                                 In  segment BANKED_CODE, align 1, keep-with-next
   \                     ?Subroutine48:
   \   000000   E0           MOVX    A,@DPTR
   \   000001   8A82         MOV     DPL,R2
   \   000003   8B83         MOV     DPH,R3
   \   000005   F0           MOVX    @DPTR,A
   \   000006   A3           INC     DPTR
   \   000007   AA82         MOV     R2,DPL
   \   000009   22           RET

   \                                 In  segment BANKED_CODE, align 1, keep-with-next
   \                     ?Subroutine19:
   \   000000   F8           MOV     R0,A
   \   000001   EF           MOV     A,R7
   \   000002   12....       LCALL   ?Subroutine81 & 0xFFFF
   \                     ??CrossCallReturnLabel_119:
   \   000005   A3           INC     DPTR
   \   000006   12....       LCALL   ?Subroutine87 & 0xFFFF
   \                     ??CrossCallReturnLabel_122:
   \   000009   22           RET
   1680          
   1681          /*********************************************************************
   1682           * @fn          ZDP_MgmtNwkUpdateNotify
   1683           *
   1684           * @brief       This builds and send a Mgmt_NWK_Update_notify message. This
   1685           *              function sends a unicast message.
   1686           *
   1687           * @param       dstAddr - destination address of the message
   1688           * @param       status - message status (ZDP_SUCCESS or other)
   1689           * @param       scannedChannels - List of channels scanned by the request
   1690           * @param       totalTransmissions - Total transmissions
   1691           * @param       transmissionFailures - Sum of transmission failures
   1692           * @param       listCount - Number of records contained in the energyValues list
   1693           * @param       energyValues - List of descriptors, one for each of ListCount,
   1694           *                             of the enegry detect descriptors
   1695           * @param       txOptions - Transmit options
   1696           * @param       securityEnable - Security options
   1697           *
   1698           * @return      afStatus_t
   1699           */

   \                                 In  segment BANKED_CODE, align 1, keep-with-next
   1700          afStatus_t ZDP_MgmtNwkUpdateNotify( uint8 TransSeq, zAddrType_t *dstAddr,
   \                     ZDP_MgmtNwkUpdateNotify:
   1701                                              uint8 status, uint32 scannedChannels,
   1702                                              uint16 totalTransmissions, uint16 transmissionFailures,
   1703                                              uint8 listCount, uint8 *energyValues, uint8 txOptions,
   1704                                              uint8 securityEnable )
   1705          {
   \   000000   74E8         MOV     A,#-0x18
   \   000002   12....       LCALL   ?BANKED_ENTER_XDATA
   \   000005                ; Saved register size: 24
   \   000005                ; Auto size: 3
   \   000005   74FD         MOV     A,#-0x3
   \   000007   12....       LCALL   ?ALLOC_XSTACK8
   \   00000A   E9           MOV     A,R1
   \   00000B   85..82       MOV     DPL,?XSP + 0
   \   00000E   85..83       MOV     DPH,?XSP + 1
   \   000011   F0           MOVX    @DPTR,A
   \   000012   7401         MOV     A,#0x1
   \   000014   12....       LCALL   ?XSTACK_DISP0_8
   \   000017   EA           MOV     A,R2
   \   000018   F0           MOVX    @DPTR,A
   \   000019   A3           INC     DPTR
   \   00001A   EB           MOV     A,R3
   \   00001B   F0           MOVX    @DPTR,A
   \   00001C   8C..         MOV     ?V0 + 13,R4
   \   00001E   8D..         MOV     ?V0 + 8,R5
   \   000020   741B         MOV     A,#0x1b
   \   000022   12....       LCALL   ?XSTACK_DISP0_8
   \   000025   78..         MOV     R0,#?V0 + 4
   \   000027   12....       LCALL   ?L_MOV_X
   \   00002A   741F         MOV     A,#0x1f
   \   00002C   12....       LCALL   ?XSTACK_DISP0_8
   \   00002F   12....       LCALL   ??Subroutine129_0 & 0xFFFF
   \                     ??CrossCallReturnLabel_293:
   \   000032   7421         MOV     A,#0x21
   \   000034   12....       LCALL   ?XSTACK_DISP0_8
   \   000037   12....       LCALL   ??Subroutine119_0 & 0xFFFF
   \                     ??CrossCallReturnLabel_221:
   \   00003A   7423         MOV     A,#0x23
   \   00003C   12....       LCALL   ?XSTACK_DISP0_8
   \   00003F   E0           MOVX    A,@DPTR
   \   000040   F5..         MOV     ?V0 + 14,A
   \   000042   A3           INC     DPTR
   \   000043   E0           MOVX    A,@DPTR
   \   000044   F5..         MOV     ?V0 + 15,A
   \   000046   7425         MOV     A,#0x25
   \   000048   12....       LCALL   ?XSTACK_DISP0_8
   \   00004B   E0           MOVX    A,@DPTR
   \   00004C   F5..         MOV     ?V0 + 12,A
   1706            uint8 *buf;
   1707            uint8 *pBuf;
   1708            uint8 len;
   1709          
   1710            (void)securityEnable;  // Intentionally unreferenced parameter
   1711          
   1712            // Status + ScannedChannels + totalTransmissions + transmissionFailures + ListCount + energyValues
   1713            len = 1 + 4 + 2 + 2 + 1 + listCount;
   \   00004E   740A         MOV     A,#0xa
   \   000050   25..         ADD     A,?V0 + 8
   \   000052   F5..         MOV     ?V0 + 9,A
   1714          
   1715            buf = osal_mem_alloc( len+1 ); // +1 for transaction ID
   \   000054                ; Setup parameters for call to function osal_mem_alloc
   \   000054   12....       LCALL   ?Subroutine64 & 0xFFFF
   1716            if ( buf == NULL )
   \                     ??CrossCallReturnLabel_208:
   \   000057   7004         JNZ     ??ZDP_MgmtNwkUpdateNotify_0
   1717            {
   1718              return afStatus_MEM_FAIL;
   \   000059   7910         MOV     R1,#0x10
   \   00005B   807F         SJMP    ??ZDP_MgmtNwkUpdateNotify_1
   1719            }
   1720          
   1721            pBuf = buf+1;
   \                     ??ZDP_MgmtNwkUpdateNotify_0:
   \   00005D   8A82         MOV     DPL,R2
   \   00005F   8B83         MOV     DPH,R3
   \   000061   A3           INC     DPTR
   1722          
   1723            *pBuf++ = status;
   \   000062   E5..         MOV     A,?V0 + 13
   \   000064   12....       LCALL   ??Subroutine126_0 & 0xFFFF
   1724          
   1725            pBuf = osal_buffer_uint32( pBuf, scannedChannels );
   \                     ??CrossCallReturnLabel_266:
   \   000067                ; Setup parameters for call to function osal_buffer_uint32
   \   000067   78..         MOV     R0,#?V0 + 4
   \   000069   12....       LCALL   ?PUSH_XSTACK_I_FOUR
   \   00006C   12....       LCALL   ??osal_buffer_uint32?relay
   \   00006F   7404         MOV     A,#0x4
   \   000071   12....       LCALL   ?DEALLOC_XSTACK8
   1726          
   1727            *pBuf++ = LO_UINT16( totalTransmissions );
   \   000074   EE           MOV     A,R6
   \   000075   8A82         MOV     DPL,R2
   \   000077   8B83         MOV     DPH,R3
   \   000079   F0           MOVX    @DPTR,A
   \   00007A   A3           INC     DPTR
   1728            *pBuf++ = HI_UINT16( totalTransmissions );
   \   00007B   EF           MOV     A,R7
   \   00007C   12....       LCALL   ?Subroutine60 & 0xFFFF
   1729          
   1730            *pBuf++ = LO_UINT16( transmissionFailures );
   1731            *pBuf++ = HI_UINT16( transmissionFailures );
   \                     ??CrossCallReturnLabel_85:
   \   00007F   E5..         MOV     A,?V0 + 1
   \   000081   12....       LCALL   ?Subroutine51 & 0xFFFF
   1732          
   1733            *pBuf++ = listCount;
   1734          
   1735            if ( listCount > 0 )
   \                     ??CrossCallReturnLabel_262:
   \   000084   6019         JZ      ??ZDP_MgmtNwkUpdateNotify_2
   1736              osal_memcpy( pBuf, energyValues, listCount );
   \   000086                ; Setup parameters for call to function osal_memcpy
   \   000086   85....       MOV     ?V0 + 4,?V0 + 14
   \   000089   85....       MOV     ?V0 + 5,?V0 + 15
   \   00008C   75..00       MOV     ?V0 + 6,#0x0
   \   00008F   78..         MOV     R0,#?V0 + 4
   \   000091   12....       LCALL   ?PUSH_XSTACK_I_THREE
   \   000094   85....       MOV     ?V0 + 0,?V0 + 8
   \   000097   AC..         MOV     R4,?V0 + 0
   \   000099   12....       LCALL   ?Subroutine71 & 0xFFFF
   \                     ??CrossCallReturnLabel_163:
   \   00009C   12....       LCALL   ?DEALLOC_XSTACK8
   1737          
   1738            FillAndSendBufferTxOptions( &TransSeq, dstAddr, Mgmt_NWK_Update_notify, len, buf, txOptions );
   \                     ??ZDP_MgmtNwkUpdateNotify_2:
   \   00009F   12....       LCALL   ?Subroutine54 & 0xFFFF
   \                     ??CrossCallReturnLabel_206:
   \   0000A2   E5..         MOV     A,?V0 + 12
   \   0000A4   90....       MOV     DPTR,#ZDP_TxOptions
   \   0000A7   F0           MOVX    @DPTR,A
   \   0000A8                ; Setup parameters for call to function fillAndSend
   \   0000A8   75..38       MOV     ?V0 + 0,#0x38
   \   0000AB   75..80       MOV     ?V0 + 1,#-0x80
   \   0000AE   78..         MOV     R0,#?V0 + 0
   \   0000B0   12....       LCALL   ?PUSH_XSTACK_I_TWO
   \   0000B3   A9..         MOV     R1,?V0 + 9
   \   0000B5   7403         MOV     A,#0x3
   \   0000B7   12....       LCALL   ?XSTACK_DISP0_8
   \   0000BA   12....       LCALL   ?Subroutine47 & 0xFFFF
   \                     ??CrossCallReturnLabel_63:
   \   0000BD   7402         MOV     A,#0x2
   \   0000BF   12....       LCALL   ?XSTACK_DISP0_8
   \   0000C2   AA82         MOV     R2,DPL
   \   0000C4   AB83         MOV     R3,DPH
   \   0000C6   12....       LCALL   ??Subroutine128_0 & 0xFFFF
   \                     ??CrossCallReturnLabel_288:
   \   0000C9   12....       LCALL   ?DEALLOC_XSTACK8
   \   0000CC   E9           MOV     A,R1
   \   0000CD   FE           MOV     R6,A
   \   0000CE                ; Setup parameters for call to function osal_mem_free
   \   0000CE   AA..         MOV     R2,?V0 + 2
   \   0000D0   AB..         MOV     R3,?V0 + 3
   \   0000D2   12....       LCALL   ?Subroutine73 & 0xFFFF
   \                     ??CrossCallReturnLabel_105:
   \   0000D5   90....       MOV     DPTR,#ZDP_TxOptions
   \   0000D8   E4           CLR     A
   \   0000D9   F0           MOVX    @DPTR,A
   \   0000DA   EE           MOV     A,R6
   \   0000DB   F9           MOV     R1,A
   \                     ??ZDP_MgmtNwkUpdateNotify_1:
   \   0000DC   7403         MOV     A,#0x3
   \   0000DE   12....       LCALL   ?DEALLOC_XSTACK8
   \   0000E1   02....       LJMP    ?Subroutine5 & 0xFFFF
   1739          }
   1740          
   1741          /*********************************************************************
   1742           * Functions to register for ZDO Over-the-air messages
   1743           */
   1744          
   1745          /*********************************************************************
   1746           * @fn          ZDO_RegisterForZDOMsg
   1747           *
   1748           * @brief       Call this function to register of an incoming over
   1749           *              the air ZDO message - probably a response message
   1750           *              but requests can also be received.
   1751           *              Messages are delivered to the task with ZDO_CB_MSG
   1752           *              as the message ID.
   1753           *
   1754           * @param       taskID - Where you would like the message delivered
   1755           * @param       clusterID - What message?
   1756           *
   1757           * @return      ZSuccess - successful, ZMemError if not
   1758           */

   \                                 In  segment BANKED_CODE, align 1, keep-with-next
   1759          ZStatus_t ZDO_RegisterForZDOMsg( uint8 taskID, uint16 clusterID )
   \                     ZDO_RegisterForZDOMsg:
   1760          {
   \   000000   74F2         MOV     A,#-0xe
   \   000002   12....       LCALL   ?BANKED_ENTER_XDATA
   \   000005                ; Saved register size: 14
   \   000005                ; Auto size: 0
   \   000005   89..         MOV     ?V0 + 2,R1
   \   000007   8A..         MOV     ?V0 + 0,R2
   \   000009   8B..         MOV     ?V0 + 1,R3
   1761            ZDO_MsgCB_t *pList;
   1762            ZDO_MsgCB_t *pLast;
   1763            ZDO_MsgCB_t *pNew;
   1764          
   1765            // Look for duplicate
   1766            pList = pLast = zdoMsgCBs;
   \   00000B   90....       MOV     DPTR,#zdoMsgCBs
   \   00000E   12....       LCALL   ??Subroutine129_0 & 0xFFFF
   \                     ??CrossCallReturnLabel_294:
   \   000011   EE           MOV     A,R6
   \   000012   F8           MOV     R0,A
   \   000013   EF           MOV     A,R7
   \   000014   800C         SJMP    ??ZDO_RegisterForZDOMsg_0
   1767            while ( pList )
   1768            {
   1769              if ( pList->taskID == taskID && pList->clusterID == clusterID )
   1770                return ( ZSuccess );
   1771              pLast = pList;
   \                     ??ZDO_RegisterForZDOMsg_1:
   \   000016   E8           MOV     A,R0
   \   000017   FE           MOV     R6,A
   \   000018   E9           MOV     A,R1
   \   000019   FF           MOV     R7,A
   1772              pList = (ZDO_MsgCB_t *)pList->next;
   \   00001A   8882         MOV     DPL,R0
   \   00001C   8983         MOV     DPH,R1
   \   00001E   E0           MOVX    A,@DPTR
   \   00001F   F8           MOV     R0,A
   \   000020   A3           INC     DPTR
   \   000021   E0           MOVX    A,@DPTR
   \                     ??ZDO_RegisterForZDOMsg_0:
   \   000022   F9           MOV     R1,A
   \   000023   E8           MOV     A,R0
   \   000024   49           ORL     A,R1
   \   000025   6021         JZ      ??ZDO_RegisterForZDOMsg_2
   \   000027   8882         MOV     DPL,R0
   \   000029   8983         MOV     DPH,R1
   \   00002B   A3           INC     DPTR
   \   00002C   A3           INC     DPTR
   \   00002D   E0           MOVX    A,@DPTR
   \   00002E   65..         XRL     A,?V0 + 2
   \   000030   70E4         JNZ     ??ZDO_RegisterForZDOMsg_1
   \   000032   8882         MOV     DPL,R0
   \   000034   8983         MOV     DPH,R1
   \   000036   A3           INC     DPTR
   \   000037   A3           INC     DPTR
   \   000038   A3           INC     DPTR
   \   000039   E0           MOVX    A,@DPTR
   \   00003A   65..         XRL     A,?V0 + 0
   \   00003C   7004         JNZ     ??ZDO_RegisterForZDOMsg_3
   \   00003E   A3           INC     DPTR
   \   00003F   E0           MOVX    A,@DPTR
   \   000040   65..         XRL     A,?V0 + 1
   \                     ??ZDO_RegisterForZDOMsg_3:
   \   000042   70D2         JNZ     ??ZDO_RegisterForZDOMsg_1
   \                     ??ZDO_RegisterForZDOMsg_4:
   \   000044   7900         MOV     R1,#0x0
   \   000046   8048         SJMP    ??ZDO_RegisterForZDOMsg_5
   1773            }
   1774          
   1775            // Add to the list
   1776            pNew = (ZDO_MsgCB_t *)osal_mem_alloc( sizeof ( ZDO_MsgCB_t ) );
   \                     ??ZDO_RegisterForZDOMsg_2:
   \   000048                ; Setup parameters for call to function osal_mem_alloc
   \   000048   7A05         MOV     R2,#0x5
   \   00004A   7B00         MOV     R3,#0x0
   \   00004C   12....       LCALL   ??osal_mem_alloc?relay
   \   00004F   8A..         MOV     ?V0 + 4,R2
   \   000051   8B..         MOV     ?V0 + 5,R3
   \   000053   A8..         MOV     R0,?V0 + 4
   \   000055   A9..         MOV     R1,?V0 + 5
   1777            if ( pNew )
   \   000057   E8           MOV     A,R0
   \   000058   49           ORL     A,R1
   \   000059   6033         JZ      ??ZDO_RegisterForZDOMsg_6
   1778            {
   1779              pNew->taskID = taskID;
   \   00005B   8882         MOV     DPL,R0
   \   00005D   8983         MOV     DPH,R1
   \   00005F   A3           INC     DPTR
   \   000060   A3           INC     DPTR
   \   000061   E5..         MOV     A,?V0 + 2
   \   000063   12....       LCALL   ?Subroutine61 & 0xFFFF
   1780              pNew->clusterID = clusterID;
   \                     ??CrossCallReturnLabel_87:
   \   000066   A3           INC     DPTR
   \   000067   A3           INC     DPTR
   \   000068   A3           INC     DPTR
   \   000069   E5..         MOV     A,?V0 + 0
   \   00006B   F0           MOVX    @DPTR,A
   \   00006C   A3           INC     DPTR
   \   00006D   E5..         MOV     A,?V0 + 1
   \   00006F   12....       LCALL   ?Subroutine61 & 0xFFFF
   1781              pNew->next = NULL;
   \                     ??CrossCallReturnLabel_88:
   \   000072   E4           CLR     A
   \   000073   F0           MOVX    @DPTR,A
   \   000074   A3           INC     DPTR
   \   000075   F0           MOVX    @DPTR,A
   1782              if ( zdoMsgCBs )
   \   000076   90....       MOV     DPTR,#zdoMsgCBs
   \   000079   12....       LCALL   ??Subroutine105_0 & 0xFFFF
   \                     ??CrossCallReturnLabel_157:
   \   00007C   EA           MOV     A,R2
   \   00007D   4B           ORL     A,R3
   \   00007E   6009         JZ      ??ZDO_RegisterForZDOMsg_7
   1783              {
   1784                pLast->next = pNew;
   \   000080   8E82         MOV     DPL,R6
   \   000082   8F83         MOV     DPH,R7
   1785              }
   \                     ??ZDO_RegisterForZDOMsg_8:
   \   000084   12....       LCALL   ??Subroutine116_0 & 0xFFFF
   \                     ??CrossCallReturnLabel_198:
   \   000087   80BB         SJMP    ??ZDO_RegisterForZDOMsg_4
   1786              else
   1787                zdoMsgCBs = pNew;
   \                     ??ZDO_RegisterForZDOMsg_7:
   \   000089   90....       MOV     DPTR,#zdoMsgCBs
   \   00008C   80F6         SJMP    ??ZDO_RegisterForZDOMsg_8
   1788              return ( ZSuccess );
   1789            }
   1790            else
   1791              return ( ZMemError );
   \                     ??ZDO_RegisterForZDOMsg_6:
   \   00008E   7910         MOV     R1,#0x10
   \                     ??ZDO_RegisterForZDOMsg_5:
   \   000090   02....       LJMP    ?Subroutine1 & 0xFFFF
   1792          }
   1793          
   1794          /*********************************************************************
   1795           * @fn          ZDO_RemoveRegisteredCB
   1796           *
   1797           * @brief       Call this function if you don't want to receive the
   1798           *              incoming message.
   1799           *
   1800           * @param       taskID - Where the messages are being delivered.
   1801           * @param       clusterID - What message?
   1802           *
   1803           * @return      ZSuccess - successful, ZFailure if not found
   1804           */

   \                                 In  segment BANKED_CODE, align 1, keep-with-next
   1805          ZStatus_t ZDO_RemoveRegisteredCB( uint8 taskID, uint16 clusterID )
   \                     ZDO_RemoveRegisteredCB:
   1806          {
   \   000000   74F7         MOV     A,#-0x9
   \   000002   12....       LCALL   ?BANKED_ENTER_XDATA
   \   000005                ; Saved register size: 9
   \   000005                ; Auto size: 0
   \   000005   E9           MOV     A,R1
   \   000006   FE           MOV     R6,A
   \   000007   EA           MOV     A,R2
   \   000008   FC           MOV     R4,A
   \   000009   EB           MOV     A,R3
   \   00000A   FD           MOV     R5,A
   1807            ZDO_MsgCB_t *pList;
   1808            ZDO_MsgCB_t *pLast = NULL;
   \   00000B   7800         MOV     R0,#0x0
   \   00000D   7900         MOV     R1,#0x0
   1809          
   1810            pList = zdoMsgCBs;
   \   00000F   90....       MOV     DPTR,#zdoMsgCBs
   \   000012   8008         SJMP    ??ZDO_RemoveRegisteredCB_0
   1811            while ( pList )
   1812            {
   1813              if ( pList->taskID == taskID && pList->clusterID == clusterID )
   1814              {
   1815                if ( pLast )
   1816                {
   1817                  // remove this one from the linked list
   1818                  pLast->next = pList->next;
   1819                }
   1820                else if ( pList->next )
   1821                {
   1822                  // remove the first one from the linked list
   1823                  zdoMsgCBs = pList->next;
   1824                }
   1825                else
   1826                {
   1827                  // remove the only item from the list
   1828                  zdoMsgCBs = (ZDO_MsgCB_t *)NULL;
   1829                }
   1830                osal_mem_free( pList );
   1831                return ( ZSuccess );
   1832              }
   1833              pLast = pList;
   \                     ??ZDO_RemoveRegisteredCB_1:
   \   000014   EA           MOV     A,R2
   \   000015   F8           MOV     R0,A
   \   000016   EB           MOV     A,R3
   \   000017   F9           MOV     R1,A
   1834              pList = pList->next;
   \   000018   8A82         MOV     DPL,R2
   \   00001A   8B83         MOV     DPH,R3
   \                     ??ZDO_RemoveRegisteredCB_0:
   \   00001C   12....       LCALL   ??Subroutine105_0 & 0xFFFF
   \                     ??CrossCallReturnLabel_158:
   \   00001F   EA           MOV     A,R2
   \   000020   4B           ORL     A,R3
   \   000021   6048         JZ      ??ZDO_RemoveRegisteredCB_2
   \   000023   8A82         MOV     DPL,R2
   \   000025   8B83         MOV     DPH,R3
   \   000027   A3           INC     DPTR
   \   000028   A3           INC     DPTR
   \   000029   E0           MOVX    A,@DPTR
   \   00002A   6E           XRL     A,R6
   \   00002B   70E7         JNZ     ??ZDO_RemoveRegisteredCB_1
   \   00002D   8A82         MOV     DPL,R2
   \   00002F   8B83         MOV     DPH,R3
   \   000031   A3           INC     DPTR
   \   000032   A3           INC     DPTR
   \   000033   A3           INC     DPTR
   \   000034   E0           MOVX    A,@DPTR
   \   000035   6C           XRL     A,R4
   \   000036   7003         JNZ     ??ZDO_RemoveRegisteredCB_3
   \   000038   A3           INC     DPTR
   \   000039   E0           MOVX    A,@DPTR
   \   00003A   6D           XRL     A,R5
   \                     ??ZDO_RemoveRegisteredCB_3:
   \   00003B   70D7         JNZ     ??ZDO_RemoveRegisteredCB_1
   \   00003D   E8           MOV     A,R0
   \   00003E   49           ORL     A,R1
   \   00003F   8A82         MOV     DPL,R2
   \   000041   8B83         MOV     DPH,R3
   \   000043   600D         JZ      ??ZDO_RemoveRegisteredCB_4
   \   000045   12....       LCALL   ?Subroutine47 & 0xFFFF
   \                     ??CrossCallReturnLabel_64:
   \   000048   8882         MOV     DPL,R0
   \   00004A   8983         MOV     DPH,R1
   \   00004C   EC           MOV     A,R4
   \   00004D   F0           MOVX    @DPTR,A
   \   00004E   A3           INC     DPTR
   \   00004F   ED           MOV     A,R5
   \   000050   8011         SJMP    ??ZDO_RemoveRegisteredCB_5
   \                     ??ZDO_RemoveRegisteredCB_4:
   \   000052   12....       LCALL   ??Subroutine102_0 & 0xFFFF
   \                     ??CrossCallReturnLabel_142:
   \   000055   90....       MOV     DPTR,#zdoMsgCBs
   \   000058   6006         JZ      ??ZDO_RemoveRegisteredCB_6
   \   00005A   E8           MOV     A,R0
   \   00005B   F0           MOVX    @DPTR,A
   \   00005C   A3           INC     DPTR
   \   00005D   E9           MOV     A,R1
   \   00005E   8003         SJMP    ??ZDO_RemoveRegisteredCB_5
   \                     ??ZDO_RemoveRegisteredCB_6:
   \   000060   E4           CLR     A
   \   000061   F0           MOVX    @DPTR,A
   \   000062   A3           INC     DPTR
   \                     ??ZDO_RemoveRegisteredCB_5:
   \   000063   F0           MOVX    @DPTR,A
   \   000064                ; Setup parameters for call to function osal_mem_free
   \   000064   12....       LCALL   ??osal_mem_free?relay
   \   000067   7900         MOV     R1,#0x0
   \   000069   8002         SJMP    ??ZDO_RemoveRegisteredCB_7
   1835            }
   1836          
   1837            return ( ZFailure );
   \                     ??ZDO_RemoveRegisteredCB_2:
   \   00006B   7901         MOV     R1,#0x1
   \                     ??ZDO_RemoveRegisteredCB_7:
   \   00006D   7F01         MOV     R7,#0x1
   \   00006F   02....       LJMP    ?BANKED_LEAVE_XDATA
   1838          }
   1839          
   1840          /*********************************************************************
   1841           * @fn          ZDO_SendMsgCBs
   1842           *
   1843           * @brief       This function sends messages to registered tasks.
   1844           *              Local to ZDO and shouldn't be called outside of ZDO.
   1845           *
   1846           * @param       inMsg - incoming message
   1847           *
   1848           * @return      TRUE if sent to at least 1 task, FALSE if not
   1849           */

   \                                 In  segment BANKED_CODE, align 1, keep-with-next
   \                     ??Subroutine110_0:
   \   000000   A3           INC     DPTR
   \   000001                REQUIRE ??Subroutine111_0
   \   000001                ; // Fall through to label ??Subroutine111_0

   \                                 In  segment BANKED_CODE, align 1, keep-with-next
   1850          uint8 ZDO_SendMsgCBs( zdoIncomingMsg_t *inMsg )
   \                     ZDO_SendMsgCBs:
   1851          {
   \   000000   74F0         MOV     A,#-0x10
   \   000002   12....       LCALL   ?BANKED_ENTER_XDATA
   \   000005                ; Saved register size: 16
   \   000005                ; Auto size: 0
   \   000005   8A..         MOV     ?V0 + 2,R2
   \   000007   8B..         MOV     ?V0 + 3,R3
   1852            uint8 ret = FALSE;
   \   000009   75..00       MOV     ?V0 + 4,#0x0
   1853            ZDO_MsgCB_t *pList = zdoMsgCBs;
   \   00000C   90....       MOV     DPTR,#zdoMsgCBs
   \   00000F   02....       LJMP    ??ZDO_SendMsgCBs_0 & 0xFFFF
   1854            while ( pList )
   1855            {
   1856              if ( pList->clusterID == inMsg->clusterID )
   \                     ??ZDO_SendMsgCBs_1:
   \   000012   85..82       MOV     DPL,?V0 + 0
   \   000015   85..83       MOV     DPH,?V0 + 1
   \   000018   12....       LCALL   ??Subroutine110_0 & 0xFFFF
   \                     ??CrossCallReturnLabel_180:
   \   00001B   E5..         MOV     A,?V0 + 2
   \   00001D   240C         ADD     A,#0xc
   \   00001F   12....       LCALL   ??Subroutine130_0 & 0xFFFF
   \                     ??CrossCallReturnLabel_307:
   \   000022   68           XRL     A,R0
   \   000023   7003         JNZ     ??ZDO_SendMsgCBs_2
   \   000025   A3           INC     DPTR
   \   000026   E0           MOVX    A,@DPTR
   \   000027   69           XRL     A,R1
   \                     ??ZDO_SendMsgCBs_2:
   \   000028   6003         JZ      $+5
   \   00002A   02....       LJMP    ??ZDO_SendMsgCBs_3 & 0xFFFF
   1857              {
   1858                zdoIncomingMsg_t *msgPtr;
   1859          
   1860                // Send the address to the task
   1861                msgPtr = (zdoIncomingMsg_t *)osal_msg_allocate( sizeof( zdoIncomingMsg_t ) + inMsg->asduLen );
   \   00002D                ; Setup parameters for call to function osal_msg_allocate
   \   00002D   12....       LCALL   ?Subroutine63 & 0xFFFF
   \                     ??CrossCallReturnLabel_308:
   \   000030   2415         ADD     A,#0x15
   \   000032   FA           MOV     R2,A
   \   000033   E4           CLR     A
   \   000034   3400         ADDC    A,#0x0
   \   000036   FB           MOV     R3,A
   \   000037   12....       LCALL   ??osal_msg_allocate?relay
   \   00003A   8A..         MOV     ?V0 + 6,R2
   \   00003C   8B..         MOV     ?V0 + 7,R3
   \   00003E   AE..         MOV     R6,?V0 + 6
   \   000040   AF..         MOV     R7,?V0 + 7
   1862                if ( msgPtr )
   \   000042   EE           MOV     A,R6
   \   000043   4F           ORL     A,R7
   \   000044   6069         JZ      ??ZDO_SendMsgCBs_3
   1863                {
   1864                  // copy struct
   1865                  osal_memcpy( msgPtr, inMsg, sizeof( zdoIncomingMsg_t ));
   \   000046                ; Setup parameters for call to function osal_memcpy
   \   000046   85....       MOV     ?V0 + 4,?V0 + 2
   \   000049   85....       MOV     ?V0 + 5,?V0 + 3
   \   00004C   75..00       MOV     ?V0 + 6,#0x0
   \   00004F   78..         MOV     R0,#?V0 + 4
   \   000051   12....       LCALL   ?PUSH_XSTACK_I_THREE
   \   000054   7C15         MOV     R4,#0x15
   \   000056   12....       LCALL   ?Subroutine71 & 0xFFFF
   \                     ??CrossCallReturnLabel_164:
   \   000059   12....       LCALL   ?DEALLOC_XSTACK8
   1866          
   1867                  if ( inMsg->asduLen )
   \   00005C   12....       LCALL   ?Subroutine63 & 0xFFFF
   \                     ??CrossCallReturnLabel_309:
   \   00005F   6033         JZ      ??ZDO_SendMsgCBs_4
   1868                  {
   1869                    msgPtr->asdu = (byte*)(((byte*)msgPtr) + sizeof( zdoIncomingMsg_t ));
   \   000061   EE           MOV     A,R6
   \   000062   2415         ADD     A,#0x15
   \   000064   FA           MOV     R2,A
   \   000065   EF           MOV     A,R7
   \   000066   3400         ADDC    A,#0x0
   \   000068   FB           MOV     R3,A
   \   000069   EE           MOV     A,R6
   \   00006A   2413         ADD     A,#0x13
   \   00006C   F582         MOV     DPL,A
   \   00006E   EF           MOV     A,R7
   \   00006F   12....       LCALL   ??Subroutine125_0 & 0xFFFF
   \                     ??CrossCallReturnLabel_256:
   \   000072   EA           MOV     A,R2
   \   000073   F0           MOVX    @DPTR,A
   \   000074   A3           INC     DPTR
   \   000075   EB           MOV     A,R3
   \   000076   F0           MOVX    @DPTR,A
   1870                    osal_memcpy( msgPtr->asdu, inMsg->asdu, inMsg->asduLen );
   \   000077                ; Setup parameters for call to function osal_memcpy
   \   000077   E5..         MOV     A,?V0 + 2
   \   000079   2413         ADD     A,#0x13
   \   00007B   F582         MOV     DPL,A
   \   00007D   E5..         MOV     A,?V0 + 3
   \   00007F   12....       LCALL   ??Subroutine125_0 & 0xFFFF
   1871                  }
   \                     ??CrossCallReturnLabel_257:
   \   000082   12....       LCALL   ?Subroutine36 & 0xFFFF
   \                     ??CrossCallReturnLabel_43:
   \   000085   78..         MOV     R0,#?V0 + 4
   \   000087   12....       LCALL   ?PUSH_XSTACK_I_THREE
   \   00008A   12....       LCALL   ?Subroutine63 & 0xFFFF
   \                     ??CrossCallReturnLabel_310:
   \   00008D   FC           MOV     R4,A
   \   00008E   12....       LCALL   ?Subroutine71 & 0xFFFF
   \                     ??CrossCallReturnLabel_165:
   \   000091   12....       LCALL   ?DEALLOC_XSTACK8
   1872          
   1873                  msgPtr->hdr.event = ZDO_CB_MSG;
   \                     ??ZDO_SendMsgCBs_4:
   \   000094   8E82         MOV     DPL,R6
   \   000096   8F83         MOV     DPH,R7
   \   000098   74D3         MOV     A,#-0x2d
   \   00009A   F0           MOVX    @DPTR,A
   1874                  osal_msg_send( pList->taskID, (uint8 *)msgPtr );
   \   00009B                ; Setup parameters for call to function osal_msg_send
   \   00009B   EE           MOV     A,R6
   \   00009C   FA           MOV     R2,A
   \   00009D   EF           MOV     A,R7
   \   00009E   FB           MOV     R3,A
   \   00009F   85..82       MOV     DPL,?V0 + 0
   \   0000A2   85..83       MOV     DPH,?V0 + 1
   \   0000A5   A3           INC     DPTR
   \   0000A6   A3           INC     DPTR
   \   0000A7   E0           MOVX    A,@DPTR
   \   0000A8   F9           MOV     R1,A
   \   0000A9   12....       LCALL   ??osal_msg_send?relay
   1875                  ret = TRUE;
   \   0000AC   75..01       MOV     ?V0 + 4,#0x1
   1876                }
   1877              }
   1878              pList = (ZDO_MsgCB_t *)pList->next;
   \                     ??ZDO_SendMsgCBs_3:
   \   0000AF   85..82       MOV     DPL,?V0 + 0
   \   0000B2   85..83       MOV     DPH,?V0 + 1
   1879            }
   \                     ??ZDO_SendMsgCBs_0:
   \   0000B5   12....       LCALL   ??Subroutine119_0 & 0xFFFF
   \                     ??CrossCallReturnLabel_222:
   \   0000B8   E5..         MOV     A,?V0 + 0
   \   0000BA   45..         ORL     A,?V0 + 1
   \   0000BC   6003         JZ      $+5
   \   0000BE   02....       LJMP    ??ZDO_SendMsgCBs_1 & 0xFFFF
   1880            return ( ret );
   \   0000C1   A9..         MOV     R1,?V0 + 4
   \   0000C3   02....       LJMP    ??Subroutine107_0 & 0xFFFF
   1881          }

   \                                 In  segment BANKED_CODE, align 1, keep-with-next
   \                     ?Subroutine63:
   \   000000   E5..         MOV     A,?V0 + 2
   \   000002   2410         ADD     A,#0x10
   \   000004                REQUIRE ??Subroutine130_0
   \   000004                ; // Fall through to label ??Subroutine130_0

   \                                 In  segment BANKED_CODE, align 1, keep-with-next
   \                     ??Subroutine130_0:
   \   000000   F582         MOV     DPL,A
   \   000002   E5..         MOV     A,?V0 + 3
   \   000004                REQUIRE ??Subroutine131_0
   \   000004                ; // Fall through to label ??Subroutine131_0
   1882          
   1883          /*********************************************************************
   1884           * Incoming message processor
   1885           */
   1886          
   1887          /*********************************************************************
   1888           * @fn          ZDP_IncomingData
   1889           *
   1890           * @brief       This function indicates the transfer of a data PDU (ASDU)
   1891           *              from the APS sub-layer to the ZDO.
   1892           *
   1893           * @param       pData - Incoming Message
   1894           *
   1895           * @return      none
   1896           */

   \                                 In  segment BANKED_CODE, align 1, keep-with-next
   \                     ?Subroutine46:
   \   000000   A3           INC     DPTR
   \   000001                REQUIRE ??Subroutine110_0
   \   000001                ; // Fall through to label ??Subroutine110_0

   \                                 In  segment BANKED_CODE, align 1, keep-with-next
   1897          void ZDP_IncomingData( afIncomingMSGPacket_t *pData )
   \                     ZDP_IncomingData:
   1898          {
   \   000000   74F4         MOV     A,#-0xc
   \   000002   12....       LCALL   ?BANKED_ENTER_XDATA
   \   000005                ; Saved register size: 12
   \   000005                ; Auto size: 21
   \   000005   74EB         MOV     A,#-0x15
   \   000007   12....       LCALL   ?ALLOC_XSTACK8
   1899            uint8 x = 0;
   \   00000A   75..00       MOV     ?V0 + 2,#0x0
   1900            uint8 handled;
   1901            zdoIncomingMsg_t inMsg;
   1902          
   1903            inMsg.srcAddr.addrMode = Addr16Bit;
   \   00000D   740A         MOV     A,#0xa
   \   00000F   12....       LCALL   ?XSTACK_DISP0_8
   \   000012   7402         MOV     A,#0x2
   \   000014   F0           MOVX    @DPTR,A
   1904            inMsg.srcAddr.addr.shortAddr = pData->srcAddr.addr.shortAddr;
   \   000015   8A82         MOV     DPL,R2
   \   000017   8B83         MOV     DPH,R3
   \   000019   A3           INC     DPTR
   \   00001A   A3           INC     DPTR
   \   00001B   12....       LCALL   ?Subroutine46 & 0xFFFF
   \                     ??CrossCallReturnLabel_181:
   \   00001E   7402         MOV     A,#0x2
   \   000020   12....       LCALL   ?XSTACK_DISP0_8
   \   000023   12....       LCALL   ??Subroutine116_0 & 0xFFFF
   1905            inMsg.wasBroadcast = pData->wasBroadcast;
   \                     ??CrossCallReturnLabel_199:
   \   000026   EA           MOV     A,R2
   \   000027   2415         ADD     A,#0x15
   \   000029   F582         MOV     DPL,A
   \   00002B   EB           MOV     A,R3
   \   00002C   12....       LCALL   ??Subroutine131_0 & 0xFFFF
   \                     ??CrossCallReturnLabel_304:
   \   00002F   C0E0         PUSH    A
   \   000031   740B         MOV     A,#0xb
   \   000033   12....       LCALL   ?XSTACK_DISP0_8
   \   000036   D0E0         POP     A
   \   000038   F0           MOVX    @DPTR,A
   1906            inMsg.clusterID = pData->clusterId;
   \   000039   8A82         MOV     DPL,R2
   \   00003B   8B83         MOV     DPH,R3
   \   00003D   12....       LCALL   ?Subroutine46 & 0xFFFF
   \                     ??CrossCallReturnLabel_182:
   \   000040   740C         MOV     A,#0xc
   \   000042   12....       LCALL   ?XSTACK_DISP0_8
   \   000045   12....       LCALL   ??Subroutine116_0 & 0xFFFF
   1907            inMsg.SecurityUse = pData->SecurityUse;
   \                     ??CrossCallReturnLabel_200:
   \   000048   EA           MOV     A,R2
   \   000049   2419         ADD     A,#0x19
   \   00004B   F582         MOV     DPL,A
   \   00004D   EB           MOV     A,R3
   \   00004E   12....       LCALL   ??Subroutine131_0 & 0xFFFF
   \                     ??CrossCallReturnLabel_305:
   \   000051   C0E0         PUSH    A
   \   000053   740E         MOV     A,#0xe
   \   000055   12....       LCALL   ?XSTACK_DISP0_8
   \   000058   D0E0         POP     A
   \   00005A   F0           MOVX    @DPTR,A
   1908          
   1909            inMsg.asduLen = pData->cmd.DataLength-1;
   \   00005B   EA           MOV     A,R2
   \   00005C   241F         ADD     A,#0x1f
   \   00005E   F582         MOV     DPL,A
   \   000060   EB           MOV     A,R3
   \   000061   12....       LCALL   ??Subroutine131_0 & 0xFFFF
   \                     ??CrossCallReturnLabel_306:
   \   000064   14           DEC     A
   \   000065   C0E0         PUSH    A
   \   000067   7410         MOV     A,#0x10
   \   000069   12....       LCALL   ?XSTACK_DISP0_8
   \   00006C   D0E0         POP     A
   \   00006E   F0           MOVX    @DPTR,A
   1910            inMsg.asdu = pData->cmd.Data+1;
   \   00006F   EA           MOV     A,R2
   \   000070   2421         ADD     A,#0x21
   \   000072   F8           MOV     R0,A
   \   000073   EB           MOV     A,R3
   \   000074   3400         ADDC    A,#0x0
   \   000076   F9           MOV     R1,A
   \   000077   8882         MOV     DPL,R0
   \   000079   8983         MOV     DPH,R1
   \   00007B   E0           MOVX    A,@DPTR
   \   00007C   2401         ADD     A,#0x1
   \   00007E   FC           MOV     R4,A
   \   00007F   A3           INC     DPTR
   \   000080   E0           MOVX    A,@DPTR
   \   000081   3400         ADDC    A,#0x0
   \   000083   FD           MOV     R5,A
   \   000084   7413         MOV     A,#0x13
   \   000086   12....       LCALL   ?XSTACK_DISP0_8
   \   000089   EC           MOV     A,R4
   \   00008A   F0           MOVX    @DPTR,A
   \   00008B   A3           INC     DPTR
   \   00008C   ED           MOV     A,R5
   \   00008D   12....       LCALL   ?Subroutine61 & 0xFFFF
   1911            inMsg.TransSeq = pData->cmd.Data[0];
   \                     ??CrossCallReturnLabel_89:
   \   000090   12....       LCALL   ??Subroutine114_0 & 0xFFFF
   \                     ??CrossCallReturnLabel_188:
   \   000093   E0           MOVX    A,@DPTR
   \   000094   C0E0         PUSH    A
   \   000096   740F         MOV     A,#0xf
   \   000098   12....       LCALL   ?XSTACK_DISP0_8
   \   00009B   D0E0         POP     A
   \   00009D   F0           MOVX    @DPTR,A
   1912            inMsg.macDestAddr = pData->macDestAddr;
   \   00009E   EA           MOV     A,R2
   \   00009F   2412         ADD     A,#0x12
   \   0000A1   12....       LCALL   ??Subroutine124_0 & 0xFFFF
   \                     ??CrossCallReturnLabel_258:
   \   0000A4   12....       LCALL   ??Subroutine112_0 & 0xFFFF
   \                     ??CrossCallReturnLabel_178:
   \   0000A7   7411         MOV     A,#0x11
   \   0000A9   12....       LCALL   ?XSTACK_DISP0_8
   \   0000AC   12....       LCALL   ??Subroutine116_0 & 0xFFFF
   1913          
   1914            handled = ZDO_SendMsgCBs( &inMsg );
   \                     ??CrossCallReturnLabel_201:
   \   0000AF                ; Setup parameters for call to function ZDO_SendMsgCBs
   \   0000AF   85..82       MOV     DPL,?XSP + 0
   \   0000B2   85..83       MOV     DPH,?XSP + 1
   \   0000B5   AA82         MOV     R2,DPL
   \   0000B7   AB83         MOV     R3,DPH
   \   0000B9   12....       LCALL   ??ZDO_SendMsgCBs?relay
   \   0000BC   E9           MOV     A,R1
   \   0000BD   FA           MOV     R2,A
   \   0000BE   8002         SJMP    ??ZDP_IncomingData_0
   1915          
   1916          #if (defined MT_ZDO_CB_FUNC)
   1917          #if !defined MT_TASK
   1918            if (zgZdoDirectCB)
   1919          #endif
   1920            {
   1921              MT_ZdoDirectCB( pData, &inMsg );
   1922            }
   1923          #endif
   1924          
   1925            while ( zdpMsgProcs[x].clusterID != 0xFFFF )
   1926            {
   1927              if ( zdpMsgProcs[x].clusterID == inMsg.clusterID )
   1928              {
   1929                zdpMsgProcs[x].pFn( &inMsg );
   1930                return;
   1931              }
   1932              x++;
   \                     ??ZDP_IncomingData_1:
   \   0000C0   05..         INC     ?V0 + 2
   \                     ??ZDP_IncomingData_0:
   \   0000C2   85....       MOV     ?V0 + 0,?V0 + 2
   \   0000C5   75..00       MOV     ?V0 + 1,#0x0
   \   0000C8   7402         MOV     A,#0x2
   \   0000CA   78..         MOV     R0,#?V0 + 0
   \   0000CC   12....       LCALL   ?S_SHL
   \   0000CF   74..         MOV     A,#zdpMsgProcs & 0xff
   \   0000D1   25..         ADD     A,?V0 + 0
   \   0000D3   F582         MOV     DPL,A
   \   0000D5   74..         MOV     A,#(zdpMsgProcs >> 8) & 0xff
   \   0000D7   35..         ADDC    A,?V0 + 1
   \   0000D9   F583         MOV     DPH,A
   \   0000DB   E4           CLR     A
   \   0000DC   93           MOVC    A,@A+DPTR
   \   0000DD   F8           MOV     R0,A
   \   0000DE   7401         MOV     A,#0x1
   \   0000E0   93           MOVC    A,@A+DPTR
   \   0000E1   F9           MOV     R1,A
   \   0000E2   74FF         MOV     A,#-0x1
   \   0000E4   68           XRL     A,R0
   \   0000E5   7003         JNZ     ??ZDP_IncomingData_2
   \   0000E7   74FF         MOV     A,#-0x1
   \   0000E9   69           XRL     A,R1
   \                     ??ZDP_IncomingData_2:
   \   0000EA   6045         JZ      ??ZDP_IncomingData_3
   \   0000EC   E4           CLR     A
   \   0000ED   93           MOVC    A,@A+DPTR
   \   0000EE   F8           MOV     R0,A
   \   0000EF   7401         MOV     A,#0x1
   \   0000F1   93           MOVC    A,@A+DPTR
   \   0000F2   F9           MOV     R1,A
   \   0000F3   740C         MOV     A,#0xc
   \   0000F5   12....       LCALL   ?XSTACK_DISP0_8
   \   0000F8   E0           MOVX    A,@DPTR
   \   0000F9   68           XRL     A,R0
   \   0000FA   7003         JNZ     ??ZDP_IncomingData_4
   \   0000FC   A3           INC     DPTR
   \   0000FD   E0           MOVX    A,@DPTR
   \   0000FE   69           XRL     A,R1
   \                     ??ZDP_IncomingData_4:
   \   0000FF   70BF         JNZ     ??ZDP_IncomingData_1
   \   000101                ; Setup parameters for indirect call
   \   000101   85..82       MOV     DPL,?XSP + 0
   \   000104   85..83       MOV     DPH,?XSP + 1
   \   000107   AA82         MOV     R2,DPL
   \   000109   AB83         MOV     R3,DPH
   \   00010B   75..00       MOV     ?V0 + 3,#0x0
   \   00010E   7402         MOV     A,#0x2
   \   000110   78..         MOV     R0,#?V0 + 2
   \   000112   12....       LCALL   ?S_SHL
   \   000115   74..         MOV     A,#(zdpMsgProcs + 2) & 0xff
   \   000117   25..         ADD     A,?V0 + 2
   \   000119   F582         MOV     DPL,A
   \   00011B   74..         MOV     A,#((zdpMsgProcs + 2) >> 8) & 0xff
   \   00011D   35..         ADDC    A,?V0 + 3
   \   00011F   F583         MOV     DPH,A
   \   000121   E4           CLR     A
   \   000122   93           MOVC    A,@A+DPTR
   \   000123   C0E0         PUSH    A
   \   000125   7401         MOV     A,#0x1
   \   000127   93           MOVC    A,@A+DPTR
   \   000128   F583         MOV     DPH,A
   \   00012A   D082         POP     DPL
   \   00012C   12....       LCALL   ?CALL_IND
   \   00012F   8010         SJMP    ??ZDP_IncomingData_5
   1933            }
   1934          
   1935            // Handle unhandled messages
   1936            if ( !handled )
   \                     ??ZDP_IncomingData_3:
   \   000131   EA           MOV     A,R2
   \   000132   700D         JNZ     ??ZDP_IncomingData_5
   1937              ZDApp_InMsgCB( &inMsg );
   \   000134                ; Setup parameters for call to function ZDApp_InMsgCB
   \   000134   85..82       MOV     DPL,?XSP + 0
   \   000137   85..83       MOV     DPH,?XSP + 1
   \   00013A   AA82         MOV     R2,DPL
   \   00013C   AB83         MOV     R3,DPH
   \   00013E   12....       LCALL   ??ZDApp_InMsgCB?relay
   \                     ??ZDP_IncomingData_5:
   \   000141   7415         MOV     A,#0x15
   \   000143   02....       LJMP    ??Subroutine113_0 & 0xFFFF
   1938          }

   \                                 In  segment XDATA_ID, align 1, keep-with-next
   \                     `?<Initializer for ZDP_TmpBuf>`:
   \   000000   ....         DW ZDP_Buf + 1H

   \                                 In  segment BANK_RELAYS, align 1
   \                     ??fillAndSend?relay:
   \   000000   12....       LCALL   ?BDISPATCH
   \   000003   ......       DC24    fillAndSend

   \                                 In  segment BANK_RELAYS, align 1
   \                     ??ZDP_SendData?relay:
   \   000000   12....       LCALL   ?BDISPATCH
   \   000003   ......       DC24    ZDP_SendData

   \                                 In  segment BANK_RELAYS, align 1
   \                     ??ZDP_NWKAddrOfInterestReq?relay:
   \   000000   12....       LCALL   ?BDISPATCH
   \   000003   ......       DC24    ZDP_NWKAddrOfInterestReq

   \                                 In  segment BANK_RELAYS, align 1
   \                     ??ZDP_NwkAddrReq?relay:
   \   000000   12....       LCALL   ?BDISPATCH
   \   000003   ......       DC24    ZDP_NwkAddrReq

   \                                 In  segment BANK_RELAYS, align 1
   \                     ??ZDP_IEEEAddrReq?relay:
   \   000000   12....       LCALL   ?BDISPATCH
   \   000003   ......       DC24    ZDP_IEEEAddrReq

   \                                 In  segment BANK_RELAYS, align 1
   \                     ??ZDP_MatchDescReq?relay:
   \   000000   12....       LCALL   ?BDISPATCH
   \   000003   ......       DC24    ZDP_MatchDescReq

   \                                 In  segment BANK_RELAYS, align 1
   \                     ??ZDP_SimpleDescReq?relay:
   \   000000   12....       LCALL   ?BDISPATCH
   \   000003   ......       DC24    ZDP_SimpleDescReq

   \                                 In  segment BANK_RELAYS, align 1
   \                     ??ZDP_UserDescSet?relay:
   \   000000   12....       LCALL   ?BDISPATCH
   \   000003   ......       DC24    ZDP_UserDescSet

   \                                 In  segment BANK_RELAYS, align 1
   \                     ??ZDP_ServerDiscReq?relay:
   \   000000   12....       LCALL   ?BDISPATCH
   \   000003   ......       DC24    ZDP_ServerDiscReq

   \                                 In  segment BANK_RELAYS, align 1
   \                     ??ZDP_DeviceAnnce?relay:
   \   000000   12....       LCALL   ?BDISPATCH
   \   000003   ......       DC24    ZDP_DeviceAnnce

   \                                 In  segment BANK_RELAYS, align 1
   \                     ??zdpProcessAddrReq?relay:
   \   000000   12....       LCALL   ?BDISPATCH
   \   000003   ......       DC24    zdpProcessAddrReq

   \                                 In  segment BANK_RELAYS, align 1
   \                     ??ZDP_NodeDescMsg?relay:
   \   000000   12....       LCALL   ?BDISPATCH
   \   000003   ......       DC24    ZDP_NodeDescMsg

   \                                 In  segment BANK_RELAYS, align 1
   \                     ??ZDP_PowerDescMsg?relay:
   \   000000   12....       LCALL   ?BDISPATCH
   \   000003   ......       DC24    ZDP_PowerDescMsg

   \                                 In  segment BANK_RELAYS, align 1
   \                     ??ZDP_SimpleDescMsg?relay:
   \   000000   12....       LCALL   ?BDISPATCH
   \   000003   ......       DC24    ZDP_SimpleDescMsg

   \                                 In  segment BANK_RELAYS, align 1
   \                     ??ZDP_EPRsp?relay:
   \   000000   12....       LCALL   ?BDISPATCH
   \   000003   ......       DC24    ZDP_EPRsp

   \                                 In  segment BANK_RELAYS, align 1
   \                     ??ZDP_UserDescRsp?relay:
   \   000000   12....       LCALL   ?BDISPATCH
   \   000003   ......       DC24    ZDP_UserDescRsp

   \                                 In  segment BANK_RELAYS, align 1
   \                     ??ZDP_ServerDiscRsp?relay:
   \   000000   12....       LCALL   ?BDISPATCH
   \   000003   ......       DC24    ZDP_ServerDiscRsp

   \                                 In  segment BANK_RELAYS, align 1
   \                     ??ZDP_GenericRsp?relay:
   \   000000   12....       LCALL   ?BDISPATCH
   \   000003   ......       DC24    ZDP_GenericRsp

   \                                 In  segment BANK_RELAYS, align 1
   \                     ??ZDP_EndDeviceBindReq?relay:
   \   000000   12....       LCALL   ?BDISPATCH
   \   000003   ......       DC24    ZDP_EndDeviceBindReq

   \                                 In  segment BANK_RELAYS, align 1
   \                     ??ZDP_BindUnbindReq?relay:
   \   000000   12....       LCALL   ?BDISPATCH
   \   000003   ......       DC24    ZDP_BindUnbindReq

   \                                 In  segment BANK_RELAYS, align 1
   \                     ??ZDP_MgmtNwkDiscReq?relay:
   \   000000   12....       LCALL   ?BDISPATCH
   \   000003   ......       DC24    ZDP_MgmtNwkDiscReq

   \                                 In  segment BANK_RELAYS, align 1
   \                     ??ZDP_MgmtDirectJoinReq?relay:
   \   000000   12....       LCALL   ?BDISPATCH
   \   000003   ......       DC24    ZDP_MgmtDirectJoinReq

   \                                 In  segment BANK_RELAYS, align 1
   \                     ??ZDP_MgmtPermitJoinReq?relay:
   \   000000   12....       LCALL   ?BDISPATCH
   \   000003   ......       DC24    ZDP_MgmtPermitJoinReq

   \                                 In  segment BANK_RELAYS, align 1
   \                     ??ZDP_MgmtLeaveReq?relay:
   \   000000   12....       LCALL   ?BDISPATCH
   \   000003   ......       DC24    ZDP_MgmtLeaveReq

   \                                 In  segment BANK_RELAYS, align 1
   \                     ??ZDP_MgmtNwkUpdateReq?relay:
   \   000000   12....       LCALL   ?BDISPATCH
   \   000003   ......       DC24    ZDP_MgmtNwkUpdateReq

   \                                 In  segment BANK_RELAYS, align 1
   \                     ??ZDP_MgmtNwkDiscRsp?relay:
   \   000000   12....       LCALL   ?BDISPATCH
   \   000003   ......       DC24    ZDP_MgmtNwkDiscRsp

   \                                 In  segment BANK_RELAYS, align 1
   \                     ??ZDP_MgmtLqiRsp?relay:
   \   000000   12....       LCALL   ?BDISPATCH
   \   000003   ......       DC24    ZDP_MgmtLqiRsp

   \                                 In  segment BANK_RELAYS, align 1
   \                     ??ZDP_MgmtRtgRsp?relay:
   \   000000   12....       LCALL   ?BDISPATCH
   \   000003   ......       DC24    ZDP_MgmtRtgRsp

   \                                 In  segment BANK_RELAYS, align 1
   \                     ??ZDP_MgmtBindRsp?relay:
   \   000000   12....       LCALL   ?BDISPATCH
   \   000003   ......       DC24    ZDP_MgmtBindRsp

   \                                 In  segment BANK_RELAYS, align 1
   \                     ??ZDP_MgmtNwkUpdateNotify?relay:
   \   000000   12....       LCALL   ?BDISPATCH
   \   000003   ......       DC24    ZDP_MgmtNwkUpdateNotify

   \                                 In  segment BANK_RELAYS, align 1
   \                     ??ZDO_RegisterForZDOMsg?relay:
   \   000000   12....       LCALL   ?BDISPATCH
   \   000003   ......       DC24    ZDO_RegisterForZDOMsg

   \                                 In  segment BANK_RELAYS, align 1
   \                     ??ZDO_RemoveRegisteredCB?relay:
   \   000000   12....       LCALL   ?BDISPATCH
   \   000003   ......       DC24    ZDO_RemoveRegisteredCB

   \                                 In  segment BANK_RELAYS, align 1
   \                     ??ZDO_SendMsgCBs?relay:
   \   000000   12....       LCALL   ?BDISPATCH
   \   000003   ......       DC24    ZDO_SendMsgCBs

   \                                 In  segment BANK_RELAYS, align 1
   \                     ??ZDP_IncomingData?relay:
   \   000000   12....       LCALL   ?BDISPATCH
   \   000003   ......       DC24    ZDP_IncomingData
   1939          
   1940          /*********************************************************************
   1941          *********************************************************************/
   1942          

   Maximum stack usage in bytes:

     Function                 ISTACK PSTACK XSTACK
     --------                 ------ ------ ------
     ZDO_RegisterForZDOMsg        1      0     14
       -> osal_mem_alloc          0      0     28
     ZDO_RemoveRegisteredCB       0      0      9
       -> osal_mem_free           0      0     18
     ZDO_SendMsgCBs               0      0     52
       -> osal_msg_allocate       0      0     32
       -> osal_memcpy             0      0     38
       -> osal_memcpy             0      0     38
       -> osal_msg_send           0      0     32
     ZDP_BindUnbindReq            1      0     30
       -> sAddrExtCpy             0      0     40
       -> sAddrExtCpy             2      0     40
       -> fillAndSend             0      0     44
     ZDP_DeviceAnnce              1      0     22
       -> sAddrExtCpy             0      0     38
       -> fillAndSend             0      0     42
     ZDP_EPRsp                    1      0     29
       -> osal_memcpy             0      0     44
       -> fillAndSend             0      0     42
     ZDP_EndDeviceBindReq         1      0     35
       -> NLME_GetShortAddr       0      0     48
       -> NLME_GetExtAddr         0      0     48
       -> sAddrExtCpy             0      0     48
       -> fillAndSend             0      0     52
     ZDP_GenericRsp               1      0     17
       -> fillAndSend             0      0     26
     ZDP_IEEEAddrReq              1      0     21
       -> fillAndSend             0      0     42
     ZDP_IncomingData             1      0     33
       -> ZDO_SendMsgCBs          0      0     66
       -> ZDApp_InMsgCB           0      0     66
     ZDP_MatchDescReq             1      0     28
       -> fillAndSend             0      0     40
     ZDP_MgmtBindRsp              1      0     28
       -> osal_mem_alloc          0      0     42
       -> sAddrExtCpy             0      0     42
       -> sAddrExtCpy             0      0     42
       -> fillAndSend             0      0     46
       -> osal_mem_free           0      0     42
     ZDP_MgmtDirectJoinReq        1      0     15
       -> sAddrExtCpy             0      0     24
       -> fillAndSend             0      0     28
     ZDP_MgmtLeaveReq             0      0     16
       -> sAddrExtCpy             0      0     24
       -> fillAndSend             0      0     28
     ZDP_MgmtLqiRsp               1      0     29
       -> fillAndSend             0      0     48
       -> osal_mem_alloc          0      0     44
       -> sAddrExtCpy             0      0     44
       -> sAddrExtCpy             0      0     44
       -> fillAndSend             0      0     48
       -> osal_mem_free           0      0     44
     ZDP_MgmtNwkDiscReq           1      0     24
       -> osal_buffer_uint32      0      0     40
       -> fillAndSend             0      0     36
     ZDP_MgmtNwkDiscRsp           1      0     30
       -> osal_mem_alloc          0      0     46
       -> sAddrExtCpy             0      0     46
       -> fillAndSend             0      0     50
       -> osal_mem_free           0      0     46
     ZDP_MgmtNwkUpdateNotify      1      0     43
       -> osal_mem_alloc          0      0     54
       -> osal_buffer_uint32      0      0     62
       -> osal_memcpy             0      0     60
       -> fillAndSend             0      0     58
       -> osal_mem_free           0      0     54
     ZDP_MgmtNwkUpdateReq         1      0     28
       -> osal_buffer_uint32      0      0     44
       -> fillAndSend             0      0     40
     ZDP_MgmtPermitJoinReq        1      0     12
       -> fillAndSend             0      0     24
     ZDP_MgmtRtgRsp               1      0     27
       -> osal_mem_alloc          0      0     40
       -> fillAndSend             0      0     44
       -> osal_mem_free           0      0     40
     ZDP_NWKAddrOfInterestReq     1      0     13
       -> fillAndSend             0      0     24
     ZDP_NodeDescMsg              1      0     14
       -> fillAndSend             0      0     24
     ZDP_NwkAddrReq               1      0     25
       -> sAddrExtCmp             0      0     46
       -> sAddrExtCpy             0      0     46
       -> fillAndSend             0      0     50
     ZDP_PowerDescMsg             1      0     14
       -> fillAndSend             0      0     24
     ZDP_SendData                 1      0     21
       -> fillAndSend             0      0     32
     ZDP_ServerDiscReq            1      0     21
       -> fillAndSend             0      0     42
     ZDP_ServerDiscRsp            1      0     17
       -> fillAndSend             0      0     26
     ZDP_SimpleDescMsg            2      0     18
       -> fillAndSend             0      0     36
     ZDP_SimpleDescReq            1      0     13
       -> fillAndSend             0      0     24
     ZDP_UserDescRsp              1      0     25
       -> osal_memcpy             0      0     44
       -> fillAndSend             0      0     42
     ZDP_UserDescSet              1      0     24
       -> osal_memcpy             2      0     44
       -> osal_memset             0      0     38
       -> fillAndSend             0      0     42
     fillAndSend                  1      0     71
       -> osal_memset             0      0     56
       -> AF_DataRequest          0      0     74
     zdpProcessAddrReq            1      0     34
       -> sAddrExtCmp             0      0     64
       -> AssocGetWithExt         0      0     64
       -> AssocGetWithShort       0      0     64
       -> AddrMgrEntryGet         0      0     64
       -> sAddrExtCpy             0      0     64
       -> AssocMakeList           0      0     64
       -> osal_mem_free           0      0     64
       -> fillAndSend             0      0     68


   Segment part sizes:

     Function/Label                   Bytes
     --------------                   -----
     ZDP_AF_ENDPOINT                     1
     ZDP_TransID                         1
     ZDP_Buf                            80
     ZDP_TmpBuf                          2
     ZDP_TxOptions                       1
     zdoMsgCBs                           2
     zdpMsgProcs                        48
     fillAndSend                       186
     ?Subroutine29                      14
     ?Subroutine0                        3
     ??Subroutine107_0                   5
     ?Subroutine84                       6
     ??Subroutine119_0                   8
     ZDP_SendData                      113
     ?Subroutine1                        5
     ?Subroutine43                       8
     ??Subroutine103_0                   8
     ?Subroutine44                       7
     ?Subroutine36                       8
     ??Subroutine128_0                   6
     ZDP_NWKAddrOfInterestReq           15
     ?Subroutine2                       10
     ??Subroutine95_0                    8
     ??Subroutine96_0                    3
     ??Subroutine97_0                    8
     ?Subroutine18                      14
     ?Subroutine82                       8
     ?Subroutine86                       4
     ?Subroutine92                       9
     ZDP_NwkAddrReq                    108
     ?Subroutine75                      16
     ?Subroutine72                       8
     ?Subroutine42                       3
     ?Subroutine70                       4
     ??Subroutine127_0                   4
     ZDP_IEEEAddrReq                    67
     ?Subroutine8                       11
     ??Subroutine94_0                    4
     ??Subroutine112_0                   4
     ZDP_MatchDescReq                  233
     ?Subroutine13                      22
     ?Subroutine76                       5
     ??Subroutine106_0                   7
     ??Subroutine109_0                   5
     ?Subroutine57                      11
     ?Subroutine52                       4
     ??Subroutine121_0                   4
     ?Subroutine80                       1
     ??Subroutine122_0                   1
     ??Subroutine123_0                  10
     ZDP_SimpleDescReq                  27
     ?Subroutine31                       7
     ZDP_UserDescSet                   152
     ?Subroutine4                        8
     ??Subroutine108_0                   6
     ZDP_ServerDiscReq                  78
     ?Subroutine53                       5
     ZDP_DeviceAnnce                    63
     ?Subroutine32                       1
     ??Subroutine98_0                    4
     ??Subroutine99_0                    4
     ??Subroutine100_0                  11
     ?Subroutine33                       3
     ??Subroutine114_0                   4
     zdpProcessAddrReq                 668
     ?Subroutine30                       8
     ??Subroutine101_0                   4
     ??Subroutine102_0                   6
     ?Subroutine12                       3
     ?Subroutine45                       8
     ?Subroutine69                       9
     ?Subroutine3                        3
     ??Subroutine111_0                   2
     ??Subroutine116_0                   6
     ?Subroutine37                       4
     ?Subroutine91                       8
     ?Subroutine78                       7
     ?Subroutine28                       4
     ?Subroutine77                      17
     ?Subroutine66                       4
     ??Subroutine124_0                   3
     ??Subroutine125_0                   5
     ?Subroutine26                       3
     ??Subroutine129_0                   6
     ?Subroutine61                       6
     ??Subroutine131_0                   6
     ZDP_NodeDescMsg                   131
     ?Subroutine9                        6
     ?Subroutine24                       7
     ?Subroutine79                       4
     ?Subroutine90                      15
     ?Subroutine23                       5
     ?Subroutine22                       4
     ?Subroutine74                       9
     ?Subroutine20                       6
     ?Subroutine15                       4
     ??Subroutine104_0                   9
     ?Subroutine59                       8
     ?Subroutine35                       4
     ZDP_PowerDescMsg                   92
     ?Subroutine39                       3
     ??Subroutine105_0                   6
     ?Subroutine40                       6
     ??Subroutine126_0                   7
     ?Subroutine87                       4
     ?Subroutine93                       9
     ZDP_SimpleDescMsg                 290
     ?Subroutine65                      13
     ?Subroutine11                      32
     ?Subroutine83                      13
     ?Subroutine25                      10
     ?Subroutine16                      11
     ZDP_EPRsp                         164
     ?Subroutine71                       2
     ?Subroutine51                       4
     ZDP_UserDescRsp                   139
     ?Subroutine55                      13
     ZDP_ServerDiscRsp                  91
     ?Subroutine47                       6
     ZDP_GenericRsp                     88
     ?Subroutine50                      12
     ZDP_EndDeviceBindReq              224
     ?Subroutine5                        5
     ?Subroutine62                       6
     ?Subroutine17                      10
     ?Subroutine41                      10
     ?Subroutine58                      10
     ?Subroutine85                       7
     ZDP_BindUnbindReq                 203
     ?Subroutine6                        5
     ?Subroutine27                       7
     ?Subroutine81                      17
     ZDP_MgmtNwkDiscReq                 68
     ?Subroutine38                      14
     ?Subroutine10                       7
     ZDP_MgmtDirectJoinReq              20
     ?Subroutine7                       17
     ??Subroutine113_0                   8
     ZDP_MgmtPermitJoinReq              20
     ZDP_MgmtLeaveReq                   53
     ZDP_MgmtNwkUpdateReq              123
     ZDP_MgmtNwkDiscRsp                310
     ??Subroutine115_0                   8
     ?Subroutine21                      18
     ?Subroutine89                      12
     ?Subroutine68                      11
     ??Subroutine118_0                   6
     ?Subroutine49                       7
     ?Subroutine67                      11
     ?Subroutine88                      14
     ?Subroutine54                       6
     ZDP_MgmtLqiRsp                    331
     ?Subroutine64                       2
     ??Subroutine117_0                  16
     ?Subroutine56                       6
     ?Subroutine14                       8
     ??Subroutine120_0                   6
     ZDP_MgmtRtgRsp                    217
     ?Subroutine34                       6
     ?Subroutine60                       7
     ?Subroutine73                       4
     ZDP_MgmtBindRsp                   245
     ?Subroutine48                      10
     ?Subroutine19                      10
     ZDP_MgmtNwkUpdateNotify           228
     ZDO_RegisterForZDOMsg             147
     ZDO_RemoveRegisteredCB            114
     ??Subroutine110_0                   1
     ZDO_SendMsgCBs                    198
     ?Subroutine63                       4
     ??Subroutine130_0                   4
     ?Subroutine46                       1
     ZDP_IncomingData                  326
     ?<Initializer for ZDP_TmpBuf>       2
     ??fillAndSend?relay                 6
     ??ZDP_SendData?relay                6
     ??ZDP_NWKAddrOfInterestReq?relay    6
     ??ZDP_NwkAddrReq?relay              6
     ??ZDP_IEEEAddrReq?relay             6
     ??ZDP_MatchDescReq?relay            6
     ??ZDP_SimpleDescReq?relay           6
     ??ZDP_UserDescSet?relay             6
     ??ZDP_ServerDiscReq?relay           6
     ??ZDP_DeviceAnnce?relay             6
     ??zdpProcessAddrReq?relay           6
     ??ZDP_NodeDescMsg?relay             6
     ??ZDP_PowerDescMsg?relay            6
     ??ZDP_SimpleDescMsg?relay           6
     ??ZDP_EPRsp?relay                   6
     ??ZDP_UserDescRsp?relay             6
     ??ZDP_ServerDiscRsp?relay           6
     ??ZDP_GenericRsp?relay              6
     ??ZDP_EndDeviceBindReq?relay        6
     ??ZDP_BindUnbindReq?relay           6
     ??ZDP_MgmtNwkDiscReq?relay          6
     ??ZDP_MgmtDirectJoinReq?relay       6
     ??ZDP_MgmtPermitJoinReq?relay       6
     ??ZDP_MgmtLeaveReq?relay            6
     ??ZDP_MgmtNwkUpdateReq?relay        6
     ??ZDP_MgmtNwkDiscRsp?relay          6
     ??ZDP_MgmtLqiRsp?relay              6
     ??ZDP_MgmtRtgRsp?relay              6
     ??ZDP_MgmtBindRsp?relay             6
     ??ZDP_MgmtNwkUpdateNotify?relay     6
     ??ZDO_RegisterForZDOMsg?relay       6
     ??ZDO_RemoveRegisteredCB?relay      6
     ??ZDO_SendMsgCBs?relay              6
     ??ZDP_IncomingData?relay            6

 
 6 506 bytes in segment BANKED_CODE
   204 bytes in segment BANK_RELAYS
    49 bytes in segment CODE_C
     2 bytes in segment XDATA_I
     2 bytes in segment XDATA_ID
    84 bytes in segment XDATA_Z
 
 6 761 bytes of CODE  memory
    86 bytes of XDATA memory

Errors: none
Warnings: none
