###############################################################################
#                                                                             #
# IAR C/C++ Compiler V8.10.3.10338/W32 for 8051         15/Aug/2017  23:22:57 #
# Copyright 2004-2011 IAR Systems AB.                                         #
#                                                                             #
#    Core               =  plain                                              #
#    Code model         =  banked                                             #
#    Data model         =  large                                              #
#    Calling convention =  xdata reentrant                                    #
#    Constant location  =  data_rom                                           #
#    Dptr setup         =  1,16                                               #
#    Source file        =  D:\ProgramData\Hardware\zigbee\Components\zmac\f8w #
#                          \zmac_cb.c                                         #
#    Command line       =  -f D:\ProgramData\Hardware\zigbee\Projects\zstack\ #
#                          Samples\SensorSys\CC2530DB\..\..\..\Tools\CC2530DB #
#                          \f8wCoord.cfg (-DCPU32MHZ -DROOT=__near_func       #
#                          -DMAC_CFG_APP_PENDING_QUEUE=TRUE                   #
#                          -DMAC_CFG_TX_DATA_MAX=5 -DMAC_CFG_TX_MAX=8         #
#                          -DMAC_CFG_RX_MAX=5 -DZDO_COORDINATOR -DRTR_NWK)    #
#                          -f D:\ProgramData\Hardware\zigbee\Projects\zstack\ #
#                          Samples\SensorSys\CC2530DB\..\..\..\Tools\CC2530DB #
#                          \f8wConfig.cfg (-DZIGBEEPRO -DSECURE=0             #
#                          -DZG_SECURE_DYNAMIC=0 -DREFLECTOR                  #
#                          -DDEFAULT_CHANLIST=0x00000800                      #
#                          -DZDAPP_CONFIG_PAN_ID=0xFFF1                       #
#                          -DNWK_START_DELAY=100 -DEXTENDED_JOINING_RANDOM_MA #
#                          SK=0x007F -DBEACON_REQUEST_DELAY=100               #
#                          -DBEACON_REQ_DELAY_MASK=0x00FF                     #
#                          -DLINK_STATUS_JITTER_MASK=0x007F                   #
#                          -DROUTE_EXPIRY_TIME=30 -DAPSC_ACK_WAIT_DURATION_PO #
#                          LLED=3000 -DNWK_INDIRECT_MSG_TIMEOUT=7             #
#                          -DMAX_RREQ_ENTRIES=8 -DAPSC_MAX_FRAME_RETRIES=3    #
#                          -DNWK_MAX_DATA_RETRIES=2                           #
#                          -DMAX_POLL_FAILURE_RETRIES=2 -DMAX_BCAST=9         #
#                          -DAPS_MAX_GROUPS=16 -DMAX_RTG_ENTRIES=40           #
#                          -DNWK_MAX_BINDING_ENTRIES=4                        #
#                          -DMAX_BINDING_CLUSTER_IDS=4 "-DDEFAULT_KEY={0x01,  #
#                          0x03, 0x05, 0x07, 0x09, 0x0B, 0x0D, 0x0F, 0x00,    #
#                          0x02, 0x04, 0x06, 0x08, 0x0A, 0x0C, 0x0D}"         #
#                          -DMAC_MAX_FRAME_SIZE=116                           #
#                          -DZDNWKMGR_MIN_TRANSMISSIONS=20 "-DCONST=const     #
#                          __code" -DGENERIC=__generic                        #
#                          -DRFD_RCVC_ALWAYS_ON=FALSE -DPOLL_RATE=1000        #
#                          -DQUEUED_POLL_RATE=100 -DRESPONSE_POLL_RATE=100)   #
#                          -DREJOIN_POLL_RATE=440 D:\ProgramData\Hardware\zig #
#                          bee\Components\zmac\f8w\zmac_cb.c -D ZTOOL_P1 -D   #
#                          MT_TASK -D MT_SYS_FUNC -D MT_ZDO_FUNC -D           #
#                          LCD_SUPPORTED=DEBUG -lC D:\ProgramData\Hardware\zi #
#                          gbee\Projects\zstack\Samples\SensorSys\CC2530DB\Co #
#                          ordinatorEB\List\ -lA D:\ProgramData\Hardware\zigb #
#                          ee\Projects\zstack\Samples\SensorSys\CC2530DB\Coor #
#                          dinatorEB\List\ --diag_suppress Pe001,Pa010 -o     #
#                          D:\ProgramData\Hardware\zigbee\Projects\zstack\Sam #
#                          ples\SensorSys\CC2530DB\CoordinatorEB\Obj\ -e      #
#                          --no_code_motion --debug --core=plain --dptr=16,1  #
#                          --data_model=large --code_model=banked             #
#                          --calling_convention=xdata_reentrant               #
#                          --place_constants=data_rom --nr_virtual_regs 16    #
#                          -I D:\ProgramData\Hardware\zigbee\Projects\zstack\ #
#                          Samples\SensorSys\CC2530DB\ -I                     #
#                          D:\ProgramData\Hardware\zigbee\Projects\zstack\Sam #
#                          ples\SensorSys\CC2530DB\..\Source\ -I              #
#                          D:\ProgramData\Hardware\zigbee\Projects\zstack\Sam #
#                          ples\SensorSys\CC2530DB\..\..\..\ZMain\TI2530DB\   #
#                          -I D:\ProgramData\Hardware\zigbee\Projects\zstack\ #
#                          Samples\SensorSys\CC2530DB\..\..\..\..\..\Componen #
#                          ts\hal\include\ -I D:\ProgramData\Hardware\zigbee\ #
#                          Projects\zstack\Samples\SensorSys\CC2530DB\..\..\. #
#                          .\..\..\Components\hal\target\CC2530EB\ -I         #
#                          D:\ProgramData\Hardware\zigbee\Projects\zstack\Sam #
#                          ples\SensorSys\CC2530DB\..\..\..\..\..\Components\ #
#                          mac\include\ -I D:\ProgramData\Hardware\zigbee\Pro #
#                          jects\zstack\Samples\SensorSys\CC2530DB\..\..\..\. #
#                          .\..\Components\mac\high_level\ -I                 #
#                          D:\ProgramData\Hardware\zigbee\Projects\zstack\Sam #
#                          ples\SensorSys\CC2530DB\..\..\..\..\..\Components\ #
#                          mac\low_level\srf04\ -I D:\ProgramData\Hardware\zi #
#                          gbee\Projects\zstack\Samples\SensorSys\CC2530DB\.. #
#                          \..\..\..\..\Components\mac\low_level\srf04\single #
#                          _chip\ -I D:\ProgramData\Hardware\zigbee\Projects\ #
#                          zstack\Samples\SensorSys\CC2530DB\..\..\..\..\..\C #
#                          omponents\mt\ -I D:\ProgramData\Hardware\zigbee\Pr #
#                          ojects\zstack\Samples\SensorSys\CC2530DB\..\..\..\ #
#                          ..\..\Components\osal\include\ -I                  #
#                          D:\ProgramData\Hardware\zigbee\Projects\zstack\Sam #
#                          ples\SensorSys\CC2530DB\..\..\..\..\..\Components\ #
#                          services\saddr\ -I D:\ProgramData\Hardware\zigbee\ #
#                          Projects\zstack\Samples\SensorSys\CC2530DB\..\..\. #
#                          .\..\..\Components\services\sdata\ -I              #
#                          D:\ProgramData\Hardware\zigbee\Projects\zstack\Sam #
#                          ples\SensorSys\CC2530DB\..\..\..\..\..\Components\ #
#                          stack\af\ -I D:\ProgramData\Hardware\zigbee\Projec #
#                          ts\zstack\Samples\SensorSys\CC2530DB\..\..\..\..\. #
#                          .\Components\stack\nwk\ -I                         #
#                          D:\ProgramData\Hardware\zigbee\Projects\zstack\Sam #
#                          ples\SensorSys\CC2530DB\..\..\..\..\..\Components\ #
#                          stack\sapi\ -I D:\ProgramData\Hardware\zigbee\Proj #
#                          ects\zstack\Samples\SensorSys\CC2530DB\..\..\..\.. #
#                          \..\Components\stack\sec\ -I                       #
#                          D:\ProgramData\Hardware\zigbee\Projects\zstack\Sam #
#                          ples\SensorSys\CC2530DB\..\..\..\..\..\Components\ #
#                          stack\sys\ -I D:\ProgramData\Hardware\zigbee\Proje #
#                          cts\zstack\Samples\SensorSys\CC2530DB\..\..\..\..\ #
#                          ..\Components\stack\zdo\ -I                        #
#                          D:\ProgramData\Hardware\zigbee\Projects\zstack\Sam #
#                          ples\SensorSys\CC2530DB\..\..\..\..\..\Components\ #
#                          zmac\ -I D:\ProgramData\Hardware\zigbee\Projects\z #
#                          stack\Samples\SensorSys\CC2530DB\..\..\..\..\..\Co #
#                          mponents\zmac\f8w\ -Ohz --require_prototypes       #
#    List file          =  D:\ProgramData\Hardware\zigbee\Projects\zstack\Sam #
#                          ples\SensorSys\CC2530DB\CoordinatorEB\List\zmac_cb #
#                          .lst                                               #
#    Object file        =  D:\ProgramData\Hardware\zigbee\Projects\zstack\Sam #
#                          ples\SensorSys\CC2530DB\CoordinatorEB\Obj\zmac_cb. #
#                          r51                                                #
#                                                                             #
#                                                                             #
###############################################################################

D:\ProgramData\Hardware\zigbee\Components\zmac\f8w\zmac_cb.c
      1          /**************************************************************************************************
      2            Filename:       zmac_cb.c
      3            Revised:        $Date: 2009-12-04 08:04:20 -0800 (Fri, 04 Dec 2009) $
      4            Revision:       $Revision: 21276 $
      5          
      6            Description:    This file contains the NWK functions that the ZMAC calls
      7          
      8          
      9            Copyright 2005-2009 Texas Instruments Incorporated. All rights reserved.
     10          
     11            IMPORTANT: Your use of this Software is limited to those specific rights
     12            granted under the terms of a software license agreement between the user
     13            who downloaded the software, his/her employer (which must be your employer)
     14            and Texas Instruments Incorporated (the "License").  You may not use this
     15            Software unless you agree to abide by the terms of the License. The License
     16            limits your use, and you acknowledge, that the Software may not be modified,
     17            copied or distributed unless embedded on a Texas Instruments microcontroller
     18            or used solely and exclusively in conjunction with a Texas Instruments radio
     19            frequency transceiver, which is integrated into your product.  Other than for
     20            the foregoing purpose, you may not use, reproduce, copy, prepare derivative
     21            works of, modify, distribute, perform, display or sell this Software and/or
     22            its documentation for any purpose.
     23          
     24            YOU FURTHER ACKNOWLEDGE AND AGREE THAT THE SOFTWARE AND DOCUMENTATION ARE
     25            PROVIDED “AS IS” WITHOUT WARRANTY OF ANY KIND, EITHER EXPRESS OR IMPLIED,
     26            INCLUDING WITHOUT LIMITATION, ANY WARRANTY OF MERCHANTABILITY, TITLE,
     27            NON-INFRINGEMENT AND FITNESS FOR A PARTICULAR PURPOSE. IN NO EVENT SHALL
     28            TEXAS INSTRUMENTS OR ITS LICENSORS BE LIABLE OR OBLIGATED UNDER CONTRACT,
     29            NEGLIGENCE, STRICT LIABILITY, CONTRIBUTION, BREACH OF WARRANTY, OR OTHER
     30            LEGAL EQUITABLE THEORY ANY DIRECT OR INDIRECT DAMAGES OR EXPENSES
     31            INCLUDING BUT NOT LIMITED TO ANY INCIDENTAL, SPECIAL, INDIRECT, PUNITIVE
     32            OR CONSEQUENTIAL DAMAGES, LOST PROFITS OR LOST DATA, COST OF PROCUREMENT
     33            OF SUBSTITUTE GOODS, TECHNOLOGY, SERVICES, OR ANY CLAIMS BY THIRD PARTIES
     34            (INCLUDING BUT NOT LIMITED TO ANY DEFENSE THEREOF), OR OTHER SIMILAR COSTS.
     35          
     36            Should you have any questions regarding your right to use this Software,
     37            contact Texas Instruments Incorporated at www.TI.com.
     38          **************************************************************************************************/
     39          
     40          /********************************************************************************************************
     41           *                                               INCLUDES
     42           ********************************************************************************************************/
     43          
     44          #include "ZComDef.h"
     45          #include "OSAL.h"
     46          #include "ZMAC.h"
     47          #include "MT_MAC.h"
     48          #include "hal_mcu.h"

   \                                 In  segment SFR_AN, at 0xa8
   \   union <unnamed> volatile __sfr _A_IEN0
   \                     _A_IEN0:
   \   000000                DS 1
     49          
     50          #if !defined NONWK
     51          #include "nwk.h"
     52          #include "nwk_bufs.h"
     53          #include "ZGlobals.h"
     54          #endif
     55          
     56          #if defined( MACSIM )
     57            #include "mac_sim.h"
     58          #endif
     59          
     60          #include "mac_main.h"
     61          extern void *ZMac_ScanBuf;
     62          
     63          /********************************************************************************************************
     64           *                                               CONSTANTS
     65           ********************************************************************************************************/
     66          
     67          #if !defined NONWK
     68          /* Lookup table for size of structures. Must match with the order of MAC callback events */

   \                                 In  segment CODE_C, align 1
     69          const uint8 CODE zmacCBSizeTable [] = {
   \                     zmacCBSizeTable:
   \   000000   00           DB 0
   \   000001   16           DB 22
   \   000002   0F           DB 15
   \   000003   00           DB 0
   \   000004   00           DB 0
   \   000005   0B           DB 11
   \   000006   15           DB 21
   \   000007   0B           DB 11
   \   000008   02           DB 2
   \   000009   00           DB 0
   \   00000A   02           DB 2
   \   00000B   22           DB 34
   \   00000C   0F           DB 15
   \   00000D   32           DB 50
   \   00000E   00           DB 0
   \   00000F   00           DB 0
   \   000010   06           DB 6
     70            0,
     71            sizeof(ZMacAssociateInd_t),       // MAC_MLME_ASSOCIATE_IND      1   Associate indication
     72            sizeof(ZMacAssociateCnf_t),       // MAC_MLME_ASSOCIATE_CNF      2   Associate confirm
     73            0,                                // MAC_MLME_DISASSOCIATE_IND   3   Disassociate indication
     74            0,                                // MAC_MLME_DISASSOCIATE_CNF   4   Disassociate confirm
     75            sizeof(macMlmeBeaconNotifyInd_t), // MAC_MLME_BEACON_NOTIFY_IND  5   con notify indication
     76            sizeof(ZMacOrphanInd_t),          // MAC_MLME_ORPHAN_IND         6   Orphan indication
     77            sizeof(ZMacScanCnf_t),            // MAC_MLME_SCAN_CNF           7   Scan confirm
     78            sizeof(ZMacStartCnf_t),           // MAC_MLME_START_CNF          8   Start confirm
     79            0,                                // MAC_MLME_SYNC_LOSS_IND      9   Sync loss indication
     80            sizeof(ZMacPollCnf_t),            // MAC_MLME_POLL_CNF           10  Poll confirm
     81            sizeof(ZMacCommStatusInd_t),      // MAC_MLME_COMM_STATUS_IND    11  Comm status indication
     82            sizeof(ZMacDataCnf_t),            // MAC_MCPS_DATA_CNF           12  Data confirm
     83            sizeof(macMcpsDataInd_t),         // MAC_MCPS_DATA_IND           13  Data indication
     84            0,                                // MAC_MCPS_PURGE_CNF          14  Purge confirm
     85            0,                                // MAC_PWR_ON_CNF              15  Power on confirm
     86            sizeof(ZMacPollInd_t)             // MAC_MLME_POLL_IND           16  Poll indication
     87          };
     88          #endif /* !defined NONWK */
     89          
     90          
     91          /*********************************************************************
     92           * ZMAC Function Pointers
     93           */
     94          
     95          /*
     96           * ZMac Application callback function. This function will be called
     97           * for every MAC message that is received over-the-air or generated
     98           * locally by MAC for the application.
     99           *
    100           * The callback function should return TRUE if it has handled the
    101           * MAC message and no further action should be taken with it. It
    102           * should return FALSE if it has not handled the MAC message and
    103           * normal processing should take place.
    104           *
    105           * NOTE: The processing in this function should be kept to the
    106           *       minimum.
    107           */

   \                                 In  segment XDATA_Z, align 1, keep-with-next
    108          uint8 (*pZMac_AppCallback)( uint8 *msgPtr ) = (void*)NULL;
   \                     pZMac_AppCallback:
   \   000000                DS 2
   \   000002                REQUIRE __INIT_XDATA_Z
    109          
    110          
    111          /*********************************************************************
    112           * ZMAC Functions
    113           */
    114          
    115          /**************************************************************************************************
    116           * @fn       MAC_CbackEvent()
    117           *
    118           * @brief    convert MAC data confirm and indication to ZMac and send to NWK
    119           *
    120           * @param    pData - pointer to macCbackEvent_t
    121           *
    122           * @return   none
    123           *************************************************************************************************/

   \                                 In  segment BANKED_CODE, align 1, keep-with-next
    124          void MAC_CbackEvent(macCbackEvent_t *pData)
   \                     MAC_CbackEvent:
    125          #ifndef MT_MAC_CB_FUNC
    126          {
   \   000000   74EE         MOV     A,#-0x12
   \   000002   12....       LCALL   ?BANKED_ENTER_XDATA
   \   000005                ; Saved register size: 18
   \   000005                ; Auto size: 4
   \   000005   74FC         MOV     A,#-0x4
   \   000007   12....       LCALL   ?ALLOC_XSTACK8
   \   00000A   85..82       MOV     DPL,?XSP + 0
   \   00000D   85..83       MOV     DPH,?XSP + 1
   \   000010   EA           MOV     A,R2
   \   000011   F0           MOVX    @DPTR,A
   \   000012   A3           INC     DPTR
   \   000013   EB           MOV     A,R3
   \   000014   F0           MOVX    @DPTR,A
    127          #if !defined NONWK
    128            uint8 event = pData->hdr.event;
   \   000015   12....       LCALL   ?Subroutine8 & 0xFFFF
   \                     ??CrossCallReturnLabel_16:
   \   000018   E0           MOVX    A,@DPTR
   \   000019   F5..         MOV     ?V0 + 2,A
    129            uint16 tmp = zmacCBSizeTable[event];
   \   00001B   F5..         MOV     ?V0 + 0,A
   \   00001D   12....       LCALL   ?Subroutine2 & 0xFFFF
   \                     ??CrossCallReturnLabel_4:
   \   000020   F8           MOV     R0,A
   \   000021   7402         MOV     A,#0x2
   \   000023   12....       LCALL   ?XSTACK_DISP0_8
   \   000026   E8           MOV     A,R0
   \   000027   F0           MOVX    @DPTR,A
   \   000028   A3           INC     DPTR
   \   000029   E4           CLR     A
   \   00002A   F0           MOVX    @DPTR,A
    130            macCbackEvent_t *msgPtr;
    131          
    132            /* If the Network layer will handle a new MAC callback, a non-zero value must be entered in the
    133             * corresponding location in the zmacCBSizeTable[] - thus the table acts as "should handle"?
    134             */
    135            if (tmp == 0)
   \   00002B   7402         MOV     A,#0x2
   \   00002D   12....       LCALL   ?XSTACK_DISP0_8
   \   000030   E0           MOVX    A,@DPTR
   \   000031   7003         JNZ     $+5
   \   000033   02....       LJMP    ??MAC_CbackEvent_0 & 0xFFFF
    136            {
    137              return;
    138            }
    139          
    140            // MAC_MCPS_DATA_IND is very special - it is the only event where the MAC does not free *pData.
    141            if ( event == MAC_MCPS_DATA_IND )
   \   000036   740D         MOV     A,#0xd
   \   000038   65..         XRL     A,?V0 + 2
   \   00003A   7048         JNZ     ??MAC_CbackEvent_1
    142            {
    143              MAC_MlmeGetReq( MAC_SHORT_ADDRESS, &tmp );
   \   00003C                ; Setup parameters for call to function MAC_MlmeGetReq
   \   00003C   AA82         MOV     R2,DPL
   \   00003E   AB83         MOV     R3,DPH
   \   000040   7953         MOV     R1,#0x53
   \   000042   12....       LCALL   ??MAC_MlmeGetReq?relay
    144              if ((tmp == INVALID_NODE_ADDR) || (tmp == NWK_BROADCAST_SHORTADDR_DEVALL) ||
    145                  (pData->dataInd.msdu.len == 0))
   \   000045   7402         MOV     A,#0x2
   \   000047   12....       LCALL   ?XSTACK_DISP0_8
   \   00004A   E0           MOVX    A,@DPTR
   \   00004B   64FE         XRL     A,#0xfe
   \   00004D   7003         JNZ     ??MAC_CbackEvent_2
   \   00004F   A3           INC     DPTR
   \   000050   E0           MOVX    A,@DPTR
   \   000051   F4           CPL     A
   \                     ??MAC_CbackEvent_2:
   \   000052   6015         JZ      ??MAC_CbackEvent_3
   \   000054   7402         MOV     A,#0x2
   \   000056   12....       LCALL   ?XSTACK_DISP0_8
   \   000059   E0           MOVX    A,@DPTR
   \   00005A   F4           CPL     A
   \   00005B   7003         JNZ     ??MAC_CbackEvent_4
   \   00005D   A3           INC     DPTR
   \   00005E   E0           MOVX    A,@DPTR
   \   00005F   F4           CPL     A
   \                     ??MAC_CbackEvent_4:
   \   000060   6007         JZ      ??MAC_CbackEvent_3
   \   000062   12....       LCALL   ?Subroutine3 & 0xFFFF
   \                     ??CrossCallReturnLabel_6:
   \   000065   A3           INC     DPTR
   \   000066   E0           MOVX    A,@DPTR
   \   000067   700D         JNZ     ??MAC_CbackEvent_5
    146              {
    147                mac_msg_deallocate( (uint8 **)&pData );
   \                     ??MAC_CbackEvent_3:
   \   000069                ; Setup parameters for call to function mac_msg_deallocate
   \   000069   85..82       MOV     DPL,?XSP + 0
   \   00006C   85..83       MOV     DPH,?XSP + 1
   \   00006F   AA82         MOV     R2,DPL
   \   000071   AB83         MOV     R3,DPH
   \   000073   02....       LJMP    ??CrossCallReturnLabel_13 & 0xFFFF
    148                return;
    149              }
    150              msgPtr = pData;
   \                     ??MAC_CbackEvent_5:
   \   000076   85..82       MOV     DPL,?XSP + 0
   \   000079   85..83       MOV     DPH,?XSP + 1
   \   00007C   E0           MOVX    A,@DPTR
   \   00007D   FE           MOV     R6,A
   \   00007E   A3           INC     DPTR
   \   00007F   E0           MOVX    A,@DPTR
   \   000080   FF           MOV     R7,A
   \   000081   02....       LJMP    ??MAC_CbackEvent_6 & 0xFFFF
    151            }
    152            else
    153            {
    154              if (event == MAC_MLME_BEACON_NOTIFY_IND )
   \                     ??MAC_CbackEvent_1:
   \   000084   7405         MOV     A,#0x5
   \   000086   65..         XRL     A,?V0 + 2
   \   000088   7014         JNZ     ??MAC_CbackEvent_7
    155              {
    156                tmp += sizeof(macPanDesc_t) + pData->beaconNotifyInd.sduLength;
   \   00008A   85..82       MOV     DPL,?XSP + 0
   \   00008D   85..83       MOV     DPH,?XSP + 1
   \   000090   E0           MOVX    A,@DPTR
   \   000091   F8           MOV     R0,A
   \   000092   12....       LCALL   ?Subroutine1 & 0xFFFF
    157              }
   \                     ??CrossCallReturnLabel_2:
   \   000095   2421         ADD     A,#0x21
   \   000097   F8           MOV     R0,A
   \   000098   E4           CLR     A
   \   000099   3400         ADDC    A,#0x0
   \   00009B   F9           MOV     R1,A
   \   00009C   802D         SJMP    ??MAC_CbackEvent_8
    158              else if (event == MAC_MLME_SCAN_CNF)
   \                     ??MAC_CbackEvent_7:
   \   00009E   7407         MOV     A,#0x7
   \   0000A0   65..         XRL     A,?V0 + 2
   \   0000A2   7033         JNZ     ??MAC_CbackEvent_9
    159              {
    160                if (pData->scanCnf.scanType == ZMAC_ED_SCAN)
   \   0000A4   12....       LCALL   ?Subroutine8 & 0xFFFF
   \                     ??CrossCallReturnLabel_17:
   \   0000A7   A3           INC     DPTR
   \   0000A8   A3           INC     DPTR
   \   0000A9   E0           MOVX    A,@DPTR
   \   0000AA   700F         JNZ     ??MAC_CbackEvent_10
    161                {
    162                  tmp += ZMAC_ED_SCAN_MAXCHANNELS;
   \   0000AC   7402         MOV     A,#0x2
   \   0000AE   12....       LCALL   ?XSTACK_DISP0_8
   \   0000B1   E0           MOVX    A,@DPTR
   \   0000B2   241B         ADD     A,#0x1b
   \   0000B4   F0           MOVX    @DPTR,A
   \   0000B5   A3           INC     DPTR
   \   0000B6   E0           MOVX    A,@DPTR
   \   0000B7   3400         ADDC    A,#0x0
   \   0000B9   801B         SJMP    ??MAC_CbackEvent_11
    163                }
    164                else
    165                {
    166                  tmp += sizeof( ZMacPanDesc_t ) * pData->scanCnf.resultListSize;
   \                     ??MAC_CbackEvent_10:
   \   0000BB   85..82       MOV     DPL,?XSP + 0
   \   0000BE   85..83       MOV     DPH,?XSP + 1
   \   0000C1   12....       LCALL   ?Subroutine1 & 0xFFFF
    167                }
    168              }
   \                     ??CrossCallReturnLabel_3:
   \   0000C4   75F021       MOV     B,#0x21
   \   0000C7   A4           MUL     AB
   \   0000C8   F8           MOV     R0,A
   \   0000C9   A9F0         MOV     R1,B
   \                     ??MAC_CbackEvent_8:
   \   0000CB   7402         MOV     A,#0x2
   \   0000CD   12....       LCALL   ?XSTACK_DISP0_8
   \   0000D0   E0           MOVX    A,@DPTR
   \   0000D1   28           ADD     A,R0
   \   0000D2   F0           MOVX    @DPTR,A
   \   0000D3   A3           INC     DPTR
   \   0000D4   E0           MOVX    A,@DPTR
   \   0000D5   39           ADDC    A,R1
   \                     ??MAC_CbackEvent_11:
   \   0000D6   F0           MOVX    @DPTR,A
    169          
    170              if ( !(msgPtr = (macCbackEvent_t *)osal_msg_allocate(tmp)) )
   \                     ??MAC_CbackEvent_9:
   \   0000D7                ; Setup parameters for call to function osal_msg_allocate
   \   0000D7   7402         MOV     A,#0x2
   \   0000D9   12....       LCALL   ?XSTACK_DISP0_8
   \   0000DC   12....       LCALL   ?Subroutine5 & 0xFFFF
   \                     ??CrossCallReturnLabel_10:
   \   0000DF   8A..         MOV     ?V0 + 0,R2
   \   0000E1   8B..         MOV     ?V0 + 1,R3
   \   0000E3   AE..         MOV     R6,?V0 + 0
   \   0000E5   AF..         MOV     R7,?V0 + 1
   \   0000E7   EE           MOV     A,R6
   \   0000E8   4F           ORL     A,R7
   \   0000E9   7041         JNZ     ??MAC_CbackEvent_12
    171              {
    172                // Not enough memory. If data confirm - try again
    173                if ( event == MAC_MCPS_DATA_CNF )
   \   0000EB   740C         MOV     A,#0xc
   \   0000ED   65..         XRL     A,?V0 + 2
   \   0000EF   6003         JZ      $+5
   \   0000F1   02....       LJMP    ??MAC_CbackEvent_0 & 0xFFFF
    174                {
    175                  halIntState_t intState;
    176          
    177                  // This is not normally deallocated here because the pZMac_AppCallback()
    178                  // application may need it.
    179                  HAL_ENTER_CRITICAL_SECTION( intState );  // Hold off interrupts.
   \   0000F4   A2AF         MOV     C,0xa8.7
   \   0000F6   E4           CLR     A
   \   0000F7   33           RLC     A
   \   0000F8   F5..         MOV     ?V0 + 0,A
   \   0000FA   C2AF         CLR     0xa8.7
    180          
    181                  mac_msg_deallocate( (uint8**)&(pData->dataCnf.pDataReq) );
   \   0000FC                ; Setup parameters for call to function mac_msg_deallocate
   \   0000FC   12....       LCALL   ?Subroutine6 & 0xFFFF
   \                     ??CrossCallReturnLabel_12:
   \   0000FF   12....       LCALL   ??mac_msg_deallocate?relay
    182                  if ( !(msgPtr = (macCbackEvent_t *)osal_msg_allocate(tmp)) )
   \   000102                ; Setup parameters for call to function osal_msg_allocate
   \   000102   7402         MOV     A,#0x2
   \   000104   12....       LCALL   ?XSTACK_DISP0_8
   \   000107   12....       LCALL   ?Subroutine5 & 0xFFFF
   \                     ??CrossCallReturnLabel_11:
   \   00010A   8A..         MOV     ?V0 + 4,R2
   \   00010C   8B..         MOV     ?V0 + 5,R3
   \   00010E   AE..         MOV     R6,?V0 + 4
   \   000110   AF..         MOV     R7,?V0 + 5
   \   000112   EE           MOV     A,R6
   \   000113   4F           ORL     A,R7
   \   000114   7009         JNZ     ??MAC_CbackEvent_13
    183                  {
    184                    // Still no allocation, something is wrong
    185                    HAL_EXIT_CRITICAL_SECTION( intState );   // Re-enable interrupts.
   \   000116   E5..         MOV     A,?V0 + 0
   \   000118   A2E0         MOV     C,0xE0 /* A   */.0
   \   00011A   92AF         MOV     0xa8.7,C
    186                    return;
   \   00011C   02....       LJMP    ??MAC_CbackEvent_0 & 0xFFFF
    187                  }
    188                  HAL_EXIT_CRITICAL_SECTION( intState );   // Re-enable interrupts.
   \                     ??MAC_CbackEvent_13:
   \   00011F   E5..         MOV     A,?V0 + 0
   \   000121   A2E0         MOV     C,0xE0 /* A   */.0
   \   000123   92AF         MOV     0xa8.7,C
    189                  pData->dataCnf.pDataReq = NULL;
   \   000125   12....       LCALL   ?Subroutine3 & 0xFFFF
    190                }
    191                else
    192                {
    193                  // This message is dropped
    194                  return;
    195                }
    196              }
   \                     ??CrossCallReturnLabel_7:
   \   000128   E4           CLR     A
   \   000129   F0           MOVX    @DPTR,A
   \   00012A   A3           INC     DPTR
   \   00012B   F0           MOVX    @DPTR,A
    197              osal_memcpy(msgPtr, pData, zmacCBSizeTable[event]);
   \                     ??MAC_CbackEvent_12:
   \   00012C                ; Setup parameters for call to function osal_memcpy
   \   00012C   85..82       MOV     DPL,?XSP + 0
   \   00012F   85..83       MOV     DPH,?XSP + 1
   \   000132   E0           MOVX    A,@DPTR
   \   000133   F5..         MOV     ?V0 + 0,A
   \   000135   A3           INC     DPTR
   \   000136   E0           MOVX    A,@DPTR
   \   000137   85....       MOV     ?V0 + 4,?V0 + 0
   \   00013A   F5..         MOV     ?V0 + 5,A
   \   00013C   75..00       MOV     ?V0 + 6,#0x0
   \   00013F   78..         MOV     R0,#?V0 + 4
   \   000141   12....       LCALL   ?PUSH_XSTACK_I_THREE
   \   000144   85....       MOV     ?V0 + 0,?V0 + 2
   \   000147   12....       LCALL   ?Subroutine2 & 0xFFFF
    198            }
   \                     ??CrossCallReturnLabel_5:
   \   00014A   FC           MOV     R4,A
   \   00014B   7D00         MOV     R5,#0x0
   \   00014D   EE           MOV     A,R6
   \   00014E   FA           MOV     R2,A
   \   00014F   EF           MOV     A,R7
   \   000150   12....       LCALL   ?Subroutine10 & 0xFFFF
   \                     ??CrossCallReturnLabel_26:
   \   000153   12....       LCALL   ?DEALLOC_XSTACK8
    199          
    200            if ( event == MAC_MLME_BEACON_NOTIFY_IND )
   \   000156   7405         MOV     A,#0x5
   \   000158   65..         XRL     A,?V0 + 2
   \   00015A   7073         JNZ     ??MAC_CbackEvent_14
    201            {
    202              macMlmeBeaconNotifyInd_t *pBeacon = (macMlmeBeaconNotifyInd_t*)msgPtr;
    203          
    204              osal_memcpy(pBeacon+1, pBeacon->pPanDesc, sizeof(macPanDesc_t));
   \   00015C   12....       LCALL   ?Subroutine11 & 0xFFFF
   \                     ??CrossCallReturnLabel_20:
   \   00015F   EE           MOV     A,R6
   \   000160   2403         ADD     A,#0x3
   \   000162   F5..         MOV     ?V0 + 8,A
   \   000164   EF           MOV     A,R7
   \   000165   3400         ADDC    A,#0x0
   \   000167   F5..         MOV     ?V0 + 9,A
   \   000169                ; Setup parameters for call to function osal_memcpy
   \   000169   85..82       MOV     DPL,?V0 + 8
   \   00016C   12....       LCALL   ?Subroutine7 & 0xFFFF
   \                     ??CrossCallReturnLabel_14:
   \   00016F   12....       LCALL   ?PUSH_XSTACK_I_THREE
   \   000172   7C21         MOV     R4,#0x21
   \   000174   7D00         MOV     R5,#0x0
   \   000176   AA..         MOV     R2,?V0 + 0
   \   000178   AB..         MOV     R3,?V0 + 1
   \   00017A   12....       LCALL   ??Subroutine15_0 & 0xFFFF
   \                     ??CrossCallReturnLabel_28:
   \   00017D   12....       LCALL   ?DEALLOC_XSTACK8
    205              pBeacon->pPanDesc = (macPanDesc_t *)(pBeacon+1);
   \   000180   85..82       MOV     DPL,?V0 + 8
   \   000183   85..83       MOV     DPH,?V0 + 9
   \   000186   E5..         MOV     A,?V0 + 0
   \   000188   F0           MOVX    @DPTR,A
   \   000189   A3           INC     DPTR
   \   00018A   E5..         MOV     A,?V0 + 1
   \   00018C   F0           MOVX    @DPTR,A
    206              osal_memcpy(pBeacon->pPanDesc+1, pBeacon->pSdu, pBeacon->sduLength);
   \   00018D   12....       LCALL   ?Subroutine12 & 0xFFFF
   \                     ??CrossCallReturnLabel_22:
   \   000190                ; Setup parameters for call to function osal_memcpy
   \   000190   85..82       MOV     DPL,?V0 + 0
   \   000193   12....       LCALL   ?Subroutine7 & 0xFFFF
   \                     ??CrossCallReturnLabel_15:
   \   000196   12....       LCALL   ?PUSH_XSTACK_I_THREE
   \   000199   8E82         MOV     DPL,R6
   \   00019B   8F83         MOV     DPH,R7
   \   00019D   A3           INC     DPTR
   \   00019E   A3           INC     DPTR
   \   00019F   A3           INC     DPTR
   \   0001A0   A3           INC     DPTR
   \   0001A1   A3           INC     DPTR
   \   0001A2   A3           INC     DPTR
   \   0001A3   A3           INC     DPTR
   \   0001A4   A3           INC     DPTR
   \   0001A5   E0           MOVX    A,@DPTR
   \   0001A6   FC           MOV     R4,A
   \   0001A7   7D00         MOV     R5,#0x0
   \   0001A9   85..82       MOV     DPL,?V0 + 8
   \   0001AC   85..83       MOV     DPH,?V0 + 9
   \   0001AF   E0           MOVX    A,@DPTR
   \   0001B0   2421         ADD     A,#0x21
   \   0001B2   FA           MOV     R2,A
   \   0001B3   A3           INC     DPTR
   \   0001B4   E0           MOVX    A,@DPTR
   \   0001B5   3400         ADDC    A,#0x0
   \   0001B7   12....       LCALL   ?Subroutine10 & 0xFFFF
   \                     ??CrossCallReturnLabel_27:
   \   0001BA   12....       LCALL   ?DEALLOC_XSTACK8
    207              pBeacon->pSdu = (uint8 *)(pBeacon->pPanDesc+1);
   \   0001BD   85..82       MOV     DPL,?V0 + 8
   \   0001C0   85..83       MOV     DPH,?V0 + 9
   \   0001C3   E0           MOVX    A,@DPTR
   \   0001C4   2421         ADD     A,#0x21
   \   0001C6   F8           MOV     R0,A
   \   0001C7   A3           INC     DPTR
   \   0001C8   E0           MOVX    A,@DPTR
   \   0001C9   12....       LCALL   ?Subroutine9 & 0xFFFF
    208            }
   \                     ??CrossCallReturnLabel_18:
   \   0001CC   02....       LJMP    ??MAC_CbackEvent_6 & 0xFFFF
    209            else if (event == MAC_MLME_SCAN_CNF)
   \                     ??MAC_CbackEvent_14:
   \   0001CF   7407         MOV     A,#0x7
   \   0001D1   65..         XRL     A,?V0 + 2
   \   0001D3   6003         JZ      $+5
   \   0001D5   02....       LJMP    ??MAC_CbackEvent_6 & 0xFFFF
    210            {
    211              macMlmeScanCnf_t *pScan = (macMlmeScanCnf_t*)msgPtr;
    212          
    213              if (ZMac_ScanBuf != NULL)
   \   0001D8   90....       MOV     DPTR,#ZMac_ScanBuf
   \   0001DB   E0           MOVX    A,@DPTR
   \   0001DC   F8           MOV     R0,A
   \   0001DD   A3           INC     DPTR
   \   0001DE   E0           MOVX    A,@DPTR
   \   0001DF   F9           MOV     R1,A
   \   0001E0   E8           MOV     A,R0
   \   0001E1   49           ORL     A,R1
   \   0001E2   7003         JNZ     $+5
   \   0001E4   02....       LJMP    ??MAC_CbackEvent_6 & 0xFFFF
    214              {
    215                void *pTmp = ZMac_ScanBuf;
   \   0001E7   90....       MOV     DPTR,#ZMac_ScanBuf
   \   0001EA   E0           MOVX    A,@DPTR
   \   0001EB   F5..         MOV     ?V0 + 8,A
   \   0001ED   A3           INC     DPTR
   \   0001EE   E0           MOVX    A,@DPTR
   \   0001EF   F5..         MOV     ?V0 + 9,A
    216                ZMac_ScanBuf = NULL;
   \   0001F1   90....       MOV     DPTR,#ZMac_ScanBuf
   \   0001F4   E4           CLR     A
   \   0001F5   F0           MOVX    @DPTR,A
   \   0001F6   A3           INC     DPTR
   \   0001F7   F0           MOVX    @DPTR,A
    217          
    218                if (pScan->scanType == ZMAC_ED_SCAN)
   \   0001F8   8E82         MOV     DPL,R6
   \   0001FA   8F83         MOV     DPH,R7
   \   0001FC   A3           INC     DPTR
   \   0001FD   A3           INC     DPTR
   \   0001FE   E0           MOVX    A,@DPTR
   \   0001FF   7027         JNZ     ??MAC_CbackEvent_15
    219                {
    220                  pScan->result.pEnergyDetect = (uint8*) (pScan + 1);
   \   000201   12....       LCALL   ?Subroutine12 & 0xFFFF
   \                     ??CrossCallReturnLabel_23:
   \   000204   EE           MOV     A,R6
   \   000205   240B         ADD     A,#0xb
   \   000207   F8           MOV     R0,A
   \   000208   EF           MOV     A,R7
   \   000209   12....       LCALL   ?Subroutine9 & 0xFFFF
    221                  osal_memcpy(pScan->result.pEnergyDetect, pTmp, ZMAC_ED_SCAN_MAXCHANNELS);
   \                     ??CrossCallReturnLabel_19:
   \   00020C                ; Setup parameters for call to function osal_memcpy
   \   00020C   85....       MOV     ?V0 + 4,?V0 + 8
   \   00020F   85....       MOV     ?V0 + 5,?V0 + 9
   \   000212   78..         MOV     R0,#?V0 + 4
   \   000214   12....       LCALL   ?PUSH_XSTACK_I_THREE
   \   000217   7C1B         MOV     R4,#0x1b
   \   000219   7D00         MOV     R5,#0x0
   \   00021B   85..82       MOV     DPL,?V0 + 0
   \   00021E   85..83       MOV     DPH,?V0 + 1
   \   000221   E0           MOVX    A,@DPTR
   \   000222   FA           MOV     R2,A
   \   000223   A3           INC     DPTR
   \   000224   E0           MOVX    A,@DPTR
   \   000225   FB           MOV     R3,A
   \   000226   8038         SJMP    ??MAC_CbackEvent_16
    222                }
    223                else
    224                {
    225                  pScan->result.pPanDescriptor = (macPanDesc_t*) (pScan + 1);
   \                     ??MAC_CbackEvent_15:
   \   000228   12....       LCALL   ?Subroutine11 & 0xFFFF
   \                     ??CrossCallReturnLabel_21:
   \   00022B   8E82         MOV     DPL,R6
   \   00022D   8F83         MOV     DPH,R7
   \   00022F   A3           INC     DPTR
   \   000230   A3           INC     DPTR
   \   000231   A3           INC     DPTR
   \   000232   A3           INC     DPTR
   \   000233   A3           INC     DPTR
   \   000234   A3           INC     DPTR
   \   000235   A3           INC     DPTR
   \   000236   A3           INC     DPTR
   \   000237   A3           INC     DPTR
   \   000238   E5..         MOV     A,?V0 + 0
   \   00023A   F0           MOVX    @DPTR,A
   \   00023B   A3           INC     DPTR
   \   00023C   E5..         MOV     A,?V0 + 1
   \   00023E   F0           MOVX    @DPTR,A
    226                  osal_memcpy(pScan + 1, pTmp, sizeof( ZMacPanDesc_t ) * pScan->resultListSize);
   \   00023F                ; Setup parameters for call to function osal_memcpy
   \   00023F   88..         MOV     ?V0 + 4,R0
   \   000241   89..         MOV     ?V0 + 5,R1
   \   000243   78..         MOV     R0,#?V0 + 4
   \   000245   12....       LCALL   ?PUSH_XSTACK_I_THREE
   \   000248   8E82         MOV     DPL,R6
   \   00024A   8F83         MOV     DPH,R7
   \   00024C   A3           INC     DPTR
   \   00024D   A3           INC     DPTR
   \   00024E   A3           INC     DPTR
   \   00024F   A3           INC     DPTR
   \   000250   A3           INC     DPTR
   \   000251   A3           INC     DPTR
   \   000252   A3           INC     DPTR
   \   000253   A3           INC     DPTR
   \   000254   E0           MOVX    A,@DPTR
   \   000255   75F021       MOV     B,#0x21
   \   000258   A4           MUL     AB
   \   000259   FC           MOV     R4,A
   \   00025A   ADF0         MOV     R5,B
   \   00025C   AA..         MOV     R2,?V0 + 0
   \   00025E   AB..         MOV     R3,?V0 + 1
    227                }
   \                     ??MAC_CbackEvent_16:
   \   000260   12....       LCALL   ??Subroutine15_0 & 0xFFFF
   \                     ??CrossCallReturnLabel_29:
   \   000263   12....       LCALL   ?DEALLOC_XSTACK8
    228          
    229                osal_mem_free(pTmp);
   \   000266                ; Setup parameters for call to function osal_mem_free
   \   000266   AA..         MOV     R2,?V0 + 8
   \   000268   AB..         MOV     R3,?V0 + 9
   \   00026A   12....       LCALL   ??osal_mem_free?relay
    230              }
    231            }
    232          
    233            if ( ( pZMac_AppCallback == NULL ) || ( pZMac_AppCallback( (uint8 *)msgPtr ) == FALSE ) )
   \                     ??MAC_CbackEvent_6:
   \   00026D   90....       MOV     DPTR,#pZMac_AppCallback
   \   000270   E0           MOVX    A,@DPTR
   \   000271   F8           MOV     R0,A
   \   000272   A3           INC     DPTR
   \   000273   E0           MOVX    A,@DPTR
   \   000274   F9           MOV     R1,A
   \   000275   E8           MOV     A,R0
   \   000276   49           ORL     A,R1
   \   000277   6010         JZ      ??MAC_CbackEvent_17
   \   000279                ; Setup parameters for indirect call
   \   000279   EE           MOV     A,R6
   \   00027A   FA           MOV     R2,A
   \   00027B   EF           MOV     A,R7
   \   00027C   FB           MOV     R3,A
   \   00027D   12....       LCALL   ??Subroutine17_0 & 0xFFFF
   \                     ??CrossCallReturnLabel_30:
   \   000280   12....       LCALL   ?CALL_IND
   \   000283   E9           MOV     A,R1
   \   000284   6003         JZ      $+5
   \   000286   02....       LJMP    ??MAC_CbackEvent_18 & 0xFFFF
    234            {
    235              // Filter out non-zigbee packets
    236              if ( event == MAC_MCPS_DATA_IND )
   \                     ??MAC_CbackEvent_17:
   \   000289   740D         MOV     A,#0xd
   \   00028B   65..         XRL     A,?V0 + 2
   \   00028D   7073         JNZ     ??MAC_CbackEvent_19
    237              {
    238                uint8 fcFrameType = (pData->dataInd.msdu.p[0] & 0x03);
    239                uint8 fcProtoVer = ((pData->dataInd.msdu.p[0] >> 2) & 0x0F);
    240                uint8 fcReserve = (pData->dataInd.msdu.p[1] & 0xE0);
   \   00028F   12....       LCALL   ?Subroutine0 & 0xFFFF
   \                     ??CrossCallReturnLabel_0:
   \   000292   F9           MOV     R1,A
   \   000293   8882         MOV     DPL,R0
   \   000295   8983         MOV     DPH,R1
   \   000297   A3           INC     DPTR
   \   000298   E0           MOVX    A,@DPTR
   \   000299   54E0         ANL     A,#0xe0
   \   00029B   FA           MOV     R2,A
    241                if ( (fcFrameType > 0x01) || (fcProtoVer != _NIB.nwkProtocolVersion) || (fcReserve != 0) 
    242                    || (pData->dataInd.mac.srcAddr.addrMode != SADDR_MODE_SHORT) )
   \   00029C   8882         MOV     DPL,R0
   \   00029E   8983         MOV     DPH,R1
   \   0002A0   E0           MOVX    A,@DPTR
   \   0002A1   5403         ANL     A,#0x3
   \   0002A3   C3           CLR     C
   \   0002A4   9402         SUBB    A,#0x2
   \   0002A6   4003         JC      $+5
   \   0002A8   02....       LJMP    ??MAC_CbackEvent_3 & 0xFFFF
   \   0002AB   12....       LCALL   ?Subroutine0 & 0xFFFF
   \                     ??CrossCallReturnLabel_1:
   \   0002AE   F583         MOV     DPH,A
   \   0002B0   8882         MOV     DPL,R0
   \   0002B2   E0           MOVX    A,@DPTR
   \   0002B3   13           RRC     A
   \   0002B4   13           RRC     A
   \   0002B5   543F         ANL     A,#0x3f
   \   0002B7   540F         ANL     A,#0xf
   \   0002B9   F8           MOV     R0,A
   \   0002BA   90....       MOV     DPTR,#_NIB + 17
   \   0002BD   E0           MOVX    A,@DPTR
   \   0002BE   68           XRL     A,R0
   \   0002BF   6003         JZ      $+5
   \   0002C1   02....       LJMP    ??MAC_CbackEvent_3 & 0xFFFF
   \   0002C4   EA           MOV     A,R2
   \   0002C5   6003         JZ      $+5
   \   0002C7   02....       LJMP    ??MAC_CbackEvent_3 & 0xFFFF
   \   0002CA   85..82       MOV     DPL,?XSP + 0
   \   0002CD   85..83       MOV     DPH,?XSP + 1
   \   0002D0   E0           MOVX    A,@DPTR
   \   0002D1   241A         ADD     A,#0x1a
   \   0002D3   F8           MOV     R0,A
   \   0002D4   12....       LCALL   ?Subroutine4 & 0xFFFF
   \                     ??CrossCallReturnLabel_8:
   \   0002D7   6402         XRL     A,#0x2
   \   0002D9   6003         JZ      $+5
   \   0002DB   02....       LJMP    ??MAC_CbackEvent_3 & 0xFFFF
    243                {
    244                  // Drop the message 
    245                  mac_msg_deallocate( (uint8 **)&pData );
    246                  return;
    247                }
    248                else if ( pData->dataInd.mac.dstAddr.addr.shortAddr == 0xFFFF )
   \   0002DE   85..82       MOV     DPL,?XSP + 0
   \   0002E1   85..83       MOV     DPH,?XSP + 1
   \   0002E4   E0           MOVX    A,@DPTR
   \   0002E5   241B         ADD     A,#0x1b
   \   0002E7   08           INC     R0
   \   0002E8   12....       LCALL   ?Subroutine4 & 0xFFFF
   \                     ??CrossCallReturnLabel_9:
   \   0002EB   F4           CPL     A
   \   0002EC   7003         JNZ     ??MAC_CbackEvent_20
   \   0002EE   A3           INC     DPTR
   \   0002EF   E0           MOVX    A,@DPTR
   \   0002F0   F4           CPL     A
   \                     ??MAC_CbackEvent_20:
   \   0002F1   700F         JNZ     ??MAC_CbackEvent_19
    249                {
    250                  // Send the messsage to a special broadcast queue
    251                  if ( nwk_broadcastSend( (uint8 *)msgPtr ) == SUCCESS )
   \   0002F3                ; Setup parameters for call to function nwk_broadcastSend
   \   0002F3   EE           MOV     A,R6
   \   0002F4   FA           MOV     R2,A
   \   0002F5   EF           MOV     A,R7
   \   0002F6   FB           MOV     R3,A
   \   0002F7   12....       LCALL   ??nwk_broadcastSend?relay
   \   0002FA   E9           MOV     A,R1
   \   0002FB   6003         JZ      $+5
   \   0002FD   02....       LJMP    ??MAC_CbackEvent_3 & 0xFFFF
   \   000300   8018         SJMP    ??MAC_CbackEvent_0
    252                  {
    253                    return;
    254                  }
    255                  else
    256                  {
    257                    // Drop the message, too many broadcast messages to process
    258                    mac_msg_deallocate( (uint8 **)&pData );
    259                    return;
    260                  }
    261                }
    262              }
    263              
    264              // Application hasn't already processed this message. Send it to NWK task.
    265              osal_msg_send( NWK_TaskID, (uint8 *)msgPtr );
   \                     ??MAC_CbackEvent_19:
   \   000302                ; Setup parameters for call to function osal_msg_send
   \   000302   EE           MOV     A,R6
   \   000303   FA           MOV     R2,A
   \   000304   EF           MOV     A,R7
   \   000305   FB           MOV     R3,A
   \   000306   90....       MOV     DPTR,#NWK_TaskID
   \   000309   E0           MOVX    A,@DPTR
   \   00030A   F9           MOV     R1,A
   \   00030B   12....       LCALL   ??osal_msg_send?relay
    266            }
    267          
    268            if ( event == MAC_MCPS_DATA_CNF )
   \                     ??MAC_CbackEvent_18:
   \   00030E   740C         MOV     A,#0xc
   \   000310   65..         XRL     A,?V0 + 2
   \   000312   7006         JNZ     ??MAC_CbackEvent_0
    269            {
    270              // If the application needs 'pDataReq' then we cannot free it here.
    271              // The application must free it after using it. Note that 'pDataReq'
    272              // is of macMcpsDataReq_t (and not ZMacDataReq_t) type.
    273          
    274              mac_msg_deallocate( (uint8**)&(pData->dataCnf.pDataReq) );
   \   000314                ; Setup parameters for call to function mac_msg_deallocate
   \   000314   12....       LCALL   ?Subroutine6 & 0xFFFF
    275            }
   \                     ??CrossCallReturnLabel_13:
   \   000317   12....       LCALL   ??mac_msg_deallocate?relay
   \                     ??MAC_CbackEvent_0:
   \   00031A   7404         MOV     A,#0x4
   \   00031C   12....       LCALL   ?DEALLOC_XSTACK8
   \   00031F   7F0A         MOV     R7,#0xa
   \   000321   02....       LJMP    ?BANKED_LEAVE_XDATA
   \   000324                REQUIRE _A_IEN0
    276          #endif
    277          }

   \                                 In  segment BANKED_CODE, align 1, keep-with-next
   \                     ?Subroutine12:
   \   000000   EE           MOV     A,R6
   \   000001   2409         ADD     A,#0x9
   \   000003   F5..         MOV     ?V0 + 0,A
   \   000005   EF           MOV     A,R7
   \   000006   3400         ADDC    A,#0x0
   \   000008   F5..         MOV     ?V0 + 1,A
   \   00000A   22           RET

   \                                 In  segment BANKED_CODE, align 1, keep-with-next
   \                     ?Subroutine11:
   \   000000   EE           MOV     A,R6
   \   000001   240B         ADD     A,#0xb
   \   000003   F5..         MOV     ?V0 + 0,A
   \   000005   EF           MOV     A,R7
   \   000006   3400         ADDC    A,#0x0
   \   000008   F5..         MOV     ?V0 + 1,A
   \   00000A   22           RET

   \                                 In  segment BANKED_CODE, align 1, keep-with-next
   \                     ?Subroutine10:
   \   000000   FB           MOV     R3,A
   \   000001                REQUIRE ??Subroutine15_0
   \   000001                ; // Fall through to label ??Subroutine15_0

   \                                 In  segment BANKED_CODE, align 1, keep-with-next
   \                     ??Subroutine15_0:
   \   000000   12....       LCALL   ??osal_memcpy?relay
   \   000003   7403         MOV     A,#0x3
   \   000005   22           RET

   \                                 In  segment BANKED_CODE, align 1, keep-with-next
   \                     ?Subroutine9:
   \   000000   3400         ADDC    A,#0x0
   \   000002   F9           MOV     R1,A
   \   000003   85..82       MOV     DPL,?V0 + 0
   \   000006   85..83       MOV     DPH,?V0 + 1
   \   000009   E8           MOV     A,R0
   \   00000A   F0           MOVX    @DPTR,A
   \   00000B   A3           INC     DPTR
   \   00000C   E9           MOV     A,R1
   \   00000D   F0           MOVX    @DPTR,A
   \   00000E   22           RET

   \                                 In  segment BANKED_CODE, align 1, keep-with-next
   \                     ?Subroutine8:
   \   000000   12....       LCALL   ?Subroutine14 & 0xFFFF
   \                     ??CrossCallReturnLabel_32:
   \   000003   22           RET

   \                                 In  segment BANKED_CODE, align 1, keep-with-next
   \                     ?Subroutine14:
   \   000000   85..82       MOV     DPL,?XSP + 0
   \   000003   85..83       MOV     DPH,?XSP + 1
   \   000006   E0           MOVX    A,@DPTR
   \   000007   F8           MOV     R0,A
   \   000008                REQUIRE ??Subroutine16_0
   \   000008                ; // Fall through to label ??Subroutine16_0

   \                                 In  segment BANKED_CODE, align 1, keep-with-next
   \                     ??Subroutine16_0:
   \   000000   A3           INC     DPTR
   \   000001                REQUIRE ??Subroutine17_0
   \   000001                ; // Fall through to label ??Subroutine17_0

   \                                 In  segment BANKED_CODE, align 1, keep-with-next
   \                     ??Subroutine17_0:
   \   000000   E0           MOVX    A,@DPTR
   \   000001   F583         MOV     DPH,A
   \   000003   8882         MOV     DPL,R0
   \   000005   22           RET

   \                                 In  segment BANKED_CODE, align 1, keep-with-next
   \                     ?Subroutine7:
   \   000000   F583         MOV     DPH,A
   \   000002   E0           MOVX    A,@DPTR
   \   000003   F5..         MOV     ?V0 + 4,A
   \   000005   A3           INC     DPTR
   \   000006   E0           MOVX    A,@DPTR
   \   000007   F5..         MOV     ?V0 + 5,A
   \   000009   78..         MOV     R0,#?V0 + 4
   \   00000B   22           RET

   \                                 In  segment BANKED_CODE, align 1, keep-with-next
   \                     ?Subroutine6:
   \   000000   85..82       MOV     DPL,?XSP + 0
   \   000003   85..83       MOV     DPH,?XSP + 1
   \   000006   E0           MOVX    A,@DPTR
   \   000007   2403         ADD     A,#0x3
   \   000009   FA           MOV     R2,A
   \   00000A   A3           INC     DPTR
   \   00000B   E0           MOVX    A,@DPTR
   \   00000C   3400         ADDC    A,#0x0
   \   00000E   FB           MOV     R3,A
   \   00000F   22           RET

   \                                 In  segment BANKED_CODE, align 1, keep-with-next
   \                     ?Subroutine5:
   \   000000   E0           MOVX    A,@DPTR
   \   000001   FA           MOV     R2,A
   \   000002   A3           INC     DPTR
   \   000003   E0           MOVX    A,@DPTR
   \   000004   FB           MOV     R3,A
   \   000005   12....       LCALL   ??osal_msg_allocate?relay
   \   000008   22           RET

   \                                 In  segment BANKED_CODE, align 1, keep-with-next
   \                     ?Subroutine4:
   \   000000   A3           INC     DPTR
   \   000001   E0           MOVX    A,@DPTR
   \   000002   3400         ADDC    A,#0x0
   \   000004   F9           MOV     R1,A
   \   000005   8882         MOV     DPL,R0
   \   000007   8983         MOV     DPH,R1
   \   000009   E0           MOVX    A,@DPTR
   \   00000A   22           RET

   \                                 In  segment BANKED_CODE, align 1, keep-with-next
   \                     ?Subroutine3:
   \   000000   12....       LCALL   ?Subroutine13 & 0xFFFF
   \                     ??CrossCallReturnLabel_25:
   \   000003   A3           INC     DPTR
   \   000004   22           RET

   \                                 In  segment BANKED_CODE, align 1, keep-with-next
   \                     ?Subroutine2:
   \   000000   74..         MOV     A,#zmacCBSizeTable & 0xff
   \   000002   25..         ADD     A,?V0 + 0
   \   000004   F582         MOV     DPL,A
   \   000006   74..         MOV     A,#(zmacCBSizeTable >> 8) & 0xff
   \   000008   3400         ADDC    A,#0x0
   \   00000A   F583         MOV     DPH,A
   \   00000C   E4           CLR     A
   \   00000D   93           MOVC    A,@A+DPTR
   \   00000E   22           RET

   \                                 In  segment BANKED_CODE, align 1, keep-with-next
   \                     ?Subroutine1:
   \   000000   12....       LCALL   ??Subroutine16_0 & 0xFFFF
   \                     ??CrossCallReturnLabel_31:
   \   000003   A3           INC     DPTR
   \   000004   A3           INC     DPTR
   \   000005   A3           INC     DPTR
   \   000006   A3           INC     DPTR
   \   000007   A3           INC     DPTR
   \   000008   A3           INC     DPTR
   \   000009   A3           INC     DPTR
   \   00000A   A3           INC     DPTR
   \   00000B   E0           MOVX    A,@DPTR
   \   00000C   22           RET

   \                                 In  segment BANKED_CODE, align 1, keep-with-next
   \                     ?Subroutine0:
   \   000000   12....       LCALL   ?Subroutine13 & 0xFFFF
   \                     ??CrossCallReturnLabel_24:
   \   000003   E0           MOVX    A,@DPTR
   \   000004   F8           MOV     R0,A
   \   000005   A3           INC     DPTR
   \   000006   E0           MOVX    A,@DPTR
   \   000007   22           RET

   \                                 In  segment BANKED_CODE, align 1, keep-with-next
   \                     ?Subroutine13:
   \   000000   12....       LCALL   ?Subroutine14 & 0xFFFF
   \                     ??CrossCallReturnLabel_33:
   \   000003   A3           INC     DPTR
   \   000004   A3           INC     DPTR
   \   000005   22           RET
    278          #else  // ifdef MT_MAC_CB_FUNC
    279          {
    280            /* Check if MT has subscribed for this callback If so, pass it as an event to MonitorTest */
    281            switch (pData->hdr.event)
    282            {
    283              case MAC_MLME_ASSOCIATE_IND:
    284                if ( _macCallbackSub & CB_ID_NWK_ASSOCIATE_IND )
    285                  nwk_MTCallbackSubNwkAssociateInd ( (ZMacAssociateInd_t *)pData );
    286                break;
    287          
    288              case MAC_MLME_ASSOCIATE_CNF:
    289                if ( _macCallbackSub & CB_ID_NWK_ASSOCIATE_CNF )
    290                  nwk_MTCallbackSubNwkAssociateCnf ( (ZMacAssociateCnf_t *)pData );
    291                break;
    292          
    293              case MAC_MLME_DISASSOCIATE_IND:
    294                if ( _macCallbackSub & CB_ID_NWK_DISASSOCIATE_IND )
    295                  nwk_MTCallbackSubNwkDisassociateInd ( (ZMacDisassociateInd_t *)pData );
    296                break;
    297          
    298              case MAC_MLME_DISASSOCIATE_CNF:
    299                if ( _macCallbackSub & CB_ID_NWK_DISASSOCIATE_CNF )
    300                  nwk_MTCallbackSubNwkDisassociateCnf ( (ZMacDisassociateCnf_t *)pData );
    301                break;
    302          
    303              case MAC_MLME_BEACON_NOTIFY_IND:
    304                if ( _macCallbackSub & CB_ID_NWK_BEACON_NOTIFY_IND )
    305                  nwk_MTCallbackSubNwkBeaconNotifyInd( (ZMacBeaconNotifyInd_t *)pData );
    306                break;
    307          
    308              case MAC_MLME_ORPHAN_IND:
    309                if ( _macCallbackSub & CB_ID_NWK_ORPHAN_IND )
    310                  nwk_MTCallbackSubNwkOrphanInd( (ZMacOrphanInd_t *) pData );
    311                break;
    312          
    313              case MAC_MLME_SCAN_CNF:
    314                if ( _macCallbackSub & CB_ID_NWK_SCAN_CNF )
    315                {
    316                  pData->scanCnf.result.pEnergyDetect = ZMac_ScanBuf;
    317                  nwk_MTCallbackSubNwkScanCnf ( (ZMacScanCnf_t *) pData );
    318                }
    319          
    320                if (ZMac_ScanBuf != NULL)
    321                {
    322                  void *pTmp = ZMac_ScanBuf;
    323                  ZMac_ScanBuf = NULL;
    324                  osal_mem_free(pTmp);
    325                }
    326                break;
    327          
    328              case MAC_MLME_START_CNF:
    329                if ( _macCallbackSub & CB_ID_NWK_START_CNF )
    330                  nwk_MTCallbackSubNwkStartCnf ( pData->hdr.status );
    331                break;
    332          
    333              case MAC_MLME_SYNC_LOSS_IND:
    334                if ( _macCallbackSub & CB_ID_NWK_SYNC_LOSS_IND )
    335                 nwk_MTCallbackSubNwkSyncLossInd( (ZMacSyncLossInd_t *) pData );
    336                break;
    337          
    338              case MAC_MLME_POLL_CNF:
    339                if ( _macCallbackSub & CB_ID_NWK_POLL_CNF )
    340                   nwk_MTCallbackSubNwkPollCnf( pData->hdr.status );
    341                break;
    342          
    343              case MAC_MLME_COMM_STATUS_IND:
    344                if ( _macCallbackSub & CB_ID_NWK_COMM_STATUS_IND )
    345                  nwk_MTCallbackSubCommStatusInd ( (ZMacCommStatusInd_t *) pData );
    346                break;
    347          
    348              case MAC_MCPS_DATA_CNF:
    349                mac_msg_deallocate((uint8**)&pData->dataCnf.pDataReq);
    350          
    351                if ( _macCallbackSub & CB_ID_NWK_DATA_CNF )
    352                  nwk_MTCallbackSubNwkDataCnf( (ZMacDataCnf_t *) pData );
    353                break;
    354          
    355              case MAC_MCPS_DATA_IND:
    356                  {
    357                    /*
    358                       Data Ind is unconventional: to save an alloc/copy, reuse the MAC
    359                       buffer and re-organize the contents into ZMAC format.
    360                    */
    361                    ZMacDataInd_t *pDataInd = (ZMacDataInd_t *) pData;
    362                    uint8 event, status, len, *msdu;
    363          
    364                    /* Store parameters */
    365                    event = pData->hdr.event;
    366                    status = pData->hdr.status;
    367                    len = pData->dataInd.msdu.len;
    368                    msdu = pData->dataInd.msdu.p;
    369          
    370                    /* Copy header */
    371                    osal_memcpy(&pDataInd->SrcAddr, &pData->dataInd.mac, sizeof(ZMacDataInd_t) - sizeof(ZMacEventHdr_t));
    372          
    373                    /* Security - set to zero for now*/
    374                    pDataInd->Sec.SecurityLevel = false;
    375          
    376                    /* Restore parameters */
    377                    pDataInd->hdr.Status = status;
    378                    pDataInd->hdr.Event = event;
    379                    pDataInd->msduLength = len;
    380          
    381                    if (len)
    382                      pDataInd->msdu = msdu;
    383                    else
    384                      pDataInd->msdu = NULL;
    385          
    386                    if ( _macCallbackSub & CB_ID_NWK_DATA_IND )
    387                      nwk_MTCallbackSubNwkDataInd ( pDataInd );
    388          
    389                    /* free buffer */
    390                    mac_msg_deallocate( (uint8 **)&pData );
    391                  }
    392                  break;
    393          
    394              case MAC_MCPS_PURGE_CNF:
    395                if ( _macCallbackSub & CB_ID_NWK_PURGE_CNF )
    396                  nwk_MTCallbackSubNwkPurgeCnf( (ZMacPurgeCnf_t *) pData);
    397                break;
    398          
    399              default:
    400                break;
    401            }
    402          }
    403          #endif
    404          
    405          /********************************************************************************************************
    406           * @fn      MAC_CbackCheckPending
    407           *
    408           * @brief   Return number of pending indirect msg
    409           *
    410           * @param   None
    411           *
    412           * @return  Number of indirect msg holding
    413           ********************************************************************************************************/

   \                                 In  segment BANKED_CODE, align 1, keep-with-next
    414          uint8 MAC_CbackCheckPending(void)
   \                     MAC_CbackCheckPending:
    415          {
   \   000000   C082         PUSH    DPL
   \   000002   C083         PUSH    DPH
   \   000004                ; Saved register size: 2
   \   000004                ; Auto size: 0
    416          #if !defined (NONWK)
    417            if ( ZSTACK_ROUTER_BUILD )
    418            {
    419              return (nwkDB_ReturnIndirectHoldingCnt());
   \   000004                ; Setup parameters for call to function nwkDB_ReturnIndirectHoldingCnt
   \   000004   12....       LCALL   ??nwkDB_ReturnIndirectHoldingCnt?relay
   \   000007   D083         POP     DPH
   \   000009   D082         POP     DPL
   \   00000B   02....       LJMP    ?BRET
    420            }
    421            else
    422            {
    423              return (0);
    424            }
    425          #else
    426            return (0);
    427          #endif
    428          }

   \                                 In  segment BANK_RELAYS, align 1
   \                     ??MAC_CbackEvent?relay:
   \   000000   12....       LCALL   ?BDISPATCH
   \   000003   ......       DC24    MAC_CbackEvent

   \                                 In  segment BANK_RELAYS, align 1
   \                     ??MAC_CbackCheckPending?relay:
   \   000000   12....       LCALL   ?BDISPATCH
   \   000003   ......       DC24    MAC_CbackCheckPending

   Maximum stack usage in bytes:

     Function                       ISTACK PSTACK XSTACK
     --------                       ------ ------ ------
     MAC_CbackCheckPending              2      0      0
       -> nwkDB_ReturnIndirectHoldingCnt
                                        4      0      0
     MAC_CbackEvent                     0      0     25
       -> MAC_MlmeGetReq                0      0     44
       -> mac_msg_deallocate            0      0     44
       -> osal_msg_allocate             0      0     44
       -> mac_msg_deallocate            0      0     44
       -> osal_msg_allocate             0      0     44
       -> osal_memcpy                   0      0     50
       -> osal_memcpy                   0      0     50
       -> osal_memcpy                   0      0     50
       -> osal_memcpy                   0      0     50
       -> osal_memcpy                   0      0     50
       -> osal_mem_free                 0      0     44
       -> nwk_broadcastSend             0      0     44
       -> osal_msg_send                 0      0     44
       -> mac_msg_deallocate            0      0     44


   Segment part sizes:

     Function/Label                Bytes
     --------------                -----
     _A_IEN0                          1
     zmacCBSizeTable                 17
     pZMac_AppCallback                2
     MAC_CbackEvent                 804
     ?Subroutine12                   11
     ?Subroutine11                   11
     ?Subroutine10                    1
     ??Subroutine15_0                 6
     ?Subroutine9                    15
     ?Subroutine8                     4
     ?Subroutine14                    8
     ??Subroutine16_0                 1
     ??Subroutine17_0                 6
     ?Subroutine7                    12
     ?Subroutine6                    16
     ?Subroutine5                     9
     ?Subroutine4                    11
     ?Subroutine3                     5
     ?Subroutine2                    15
     ?Subroutine1                    13
     ?Subroutine0                     8
     ?Subroutine13                    6
     MAC_CbackCheckPending           14
     ??MAC_CbackEvent?relay           6
     ??MAC_CbackCheckPending?relay    6

 
 976 bytes in segment BANKED_CODE
  12 bytes in segment BANK_RELAYS
  17 bytes in segment CODE_C
   1 byte  in segment SFR_AN
   2 bytes in segment XDATA_Z
 
 1 005 bytes of CODE  memory
     0 bytes of DATA  memory (+ 1 byte shared)
     2 bytes of XDATA memory

Errors: none
Warnings: none
